ARM GAS  C:\Users\Alex\AppData\Local\Temp\cc1JZcuE.s 			page 1


   1              		.syntax unified
   2              		.cpu cortex-m3
   3              		.fpu softvfp
   4              		.eabi_attribute 20, 1
   5              		.eabi_attribute 21, 1
   6              		.eabi_attribute 23, 3
   7              		.eabi_attribute 24, 1
   8              		.eabi_attribute 25, 1
   9              		.eabi_attribute 26, 1
  10              		.eabi_attribute 30, 1
  11              		.eabi_attribute 34, 1
  12              		.eabi_attribute 18, 4
  13              		.thumb
  14              		.file	"analog.c"
  15              		.text
  16              	.Ltext0:
  17              		.cfi_sections	.debug_frame
  18              		.global _printf_float
  19              		.thumb
  20              		.section	.text.adc_avg8,"ax",%progbits
  21              		.align	2
  22              		.global	adc_avg8
  23              		.thumb
  24              		.thumb_func
  25              		.type	adc_avg8, %function
  26              	adc_avg8:
  27              	.LFB64:
  28              		.file 1 "..\\src\\analog.c"
   1:..\src/analog.c **** //****************************************************************************
   2:..\src/analog.c **** // MIT Media Lab - Biomechatronics
   3:..\src/analog.c **** // Jean-Francois (Jeff) Duval
   4:..\src/analog.c **** // jfduval@mit.edu
   5:..\src/analog.c **** // 02/2015
   6:..\src/analog.c **** //****************************************************************************
   7:..\src/analog.c **** // analog: ADC configurations, read & filter functions
   8:..\src/analog.c **** //****************************************************************************
   9:..\src/analog.c **** 
  10:..\src/analog.c **** //Note: this is for the analog functionality of the expansion connector
  11:..\src/analog.c **** // Current sensing and strain gauge amplification are in other files.
  12:..\src/analog.c **** 
  13:..\src/analog.c **** //****************************************************************************
  14:..\src/analog.c **** // Include(s)
  15:..\src/analog.c **** //****************************************************************************
  16:..\src/analog.c **** 
  17:..\src/analog.c **** #include "main.h"
  18:..\src/analog.c **** #include "analog.h"
  19:..\src/analog.c **** 
  20:..\src/analog.c **** //****************************************************************************
  21:..\src/analog.c **** // Variable(s)
  22:..\src/analog.c **** //****************************************************************************
  23:..\src/analog.c **** 
  24:..\src/analog.c **** volatile uint16 adc1_res[ADC1_CHANNELS][ADC1_BUF_LEN];
  25:..\src/analog.c **** volatile uint16 adc1_dbuf[ADC1_CHANNELS][ADC1_BUF_LEN];
  26:..\src/analog.c **** volatile uint16 adc1_res_filtered[ADC1_CHANNELS];
  27:..\src/analog.c **** 
  28:..\src/analog.c **** int16 adc_dma_array[ADC2_BUF_LEN];
  29:..\src/analog.c **** uint16 adc_sar1_dma_array[ADC1_BUF_LEN + 1];
ARM GAS  C:\Users\Alex\AppData\Local\Temp\cc1JZcuE.s 			page 2


  30:..\src/analog.c **** volatile uint8 amux_ch = 0;
  31:..\src/analog.c **** 
  32:..\src/analog.c **** //****************************************************************************
  33:..\src/analog.c **** // Function(s)
  34:..\src/analog.c **** //****************************************************************************
  35:..\src/analog.c **** 
  36:..\src/analog.c **** void init_analog(void)
  37:..\src/analog.c **** {
  38:..\src/analog.c **** 	//Analog amplifiers & multiplexer(s):
  39:..\src/analog.c **** 	AMux_1_Start();				//Start the MUX
  40:..\src/analog.c **** 	PGA_1_Start();
  41:..\src/analog.c **** 	PGA_2_Start();
  42:..\src/analog.c **** 	
  43:..\src/analog.c **** 	//ADC1:
  44:..\src/analog.c **** 	ADC_SAR_1_Start();
  45:..\src/analog.c **** 	adc_sar1_dma_config();
  46:..\src/analog.c **** 	isr_sar1_dma_Start();
  47:..\src/analog.c **** 	ADC_SAR_1_StartConvert();	//Start converting
  48:..\src/analog.c **** }
  49:..\src/analog.c **** 
  50:..\src/analog.c **** uint16 adc_avg8(uint16 new_data)
  51:..\src/analog.c **** {
  29              		.loc 1 51 0
  30              		.cfi_startproc
  31              		@ args = 0, pretend = 0, frame = 0
  32              		@ frame_needed = 0, uses_anonymous_args = 0
  33              		@ link register save eliminated.
  34              	.LVL0:
  35 0000 30B4     		push	{r4, r5}
  36              		.cfi_def_cfa_offset 8
  37              		.cfi_offset 4, -8
  38              		.cfi_offset 5, -4
  39              	.LVL1:
  52:..\src/analog.c **** 	uint32 sum = 0;
  53:..\src/analog.c **** 	static uint16 adc_avg_buf[8] = {0,0,0,0,0,0,0,0};
  54:..\src/analog.c **** 	static uint8 cnt = 0;
  55:..\src/analog.c **** 	uint16 avg = 0;
  56:..\src/analog.c **** 	
  57:..\src/analog.c **** 	//Shift buffer and sum 7/8 terms
  58:..\src/analog.c **** 	for(cnt = 1; cnt < 8; cnt++)
  40              		.loc 1 58 0
  41 0002 0122     		movs	r2, #1
  42 0004 0C4B     		ldr	r3, .L5
  43 0006 1A70     		strb	r2, [r3]
  52:..\src/analog.c **** 	uint32 sum = 0;
  44              		.loc 1 52 0
  45 0008 0024     		movs	r4, #0
  46              		.loc 1 58 0
  47 000a 09E0     		b	.L2
  48              	.LVL2:
  49              	.L3:
  59:..\src/analog.c **** 	{
  60:..\src/analog.c **** 		adc_avg_buf[cnt-1] = adc_avg_buf[cnt];
  50              		.loc 1 60 0 discriminator 3
  51 000c 0A4A     		ldr	r2, .L5
  52 000e 02EB4301 		add	r1, r2, r3, lsl #1
  53 0012 8988     		ldrh	r1, [r1, #4]
ARM GAS  C:\Users\Alex\AppData\Local\Temp\cc1JZcuE.s 			page 3


  54 0014 02EB4305 		add	r5, r2, r3, lsl #1
  55 0018 6980     		strh	r1, [r5, #2]	@ movhi
  61:..\src/analog.c **** 		sum += adc_avg_buf[cnt-1];
  56              		.loc 1 61 0 discriminator 3
  57 001a 0C44     		add	r4, r4, r1
  58              	.LVL3:
  58:..\src/analog.c **** 	{
  59              		.loc 1 58 0 discriminator 3
  60 001c 0133     		adds	r3, r3, #1
  61 001e 1370     		strb	r3, [r2]
  62              	.LVL4:
  63              	.L2:
  58:..\src/analog.c **** 	{
  64              		.loc 1 58 0 is_stmt 0 discriminator 1
  65 0020 054B     		ldr	r3, .L5
  66 0022 1B78     		ldrb	r3, [r3]	@ zero_extendqisi2
  67 0024 072B     		cmp	r3, #7
  68 0026 F1D9     		bls	.L3
  62:..\src/analog.c **** 	}
  63:..\src/analog.c **** 	adc_avg_buf[7] = new_data;
  69              		.loc 1 63 0 is_stmt 1
  70 0028 034B     		ldr	r3, .L5
  71 002a 5882     		strh	r0, [r3, #18]	@ movhi
  64:..\src/analog.c **** 	sum += new_data;
  72              		.loc 1 64 0
  73 002c 2044     		add	r0, r0, r4
  74              	.LVL5:
  65:..\src/analog.c **** 		
  66:..\src/analog.c **** 	//Average
  67:..\src/analog.c **** 	avg = (uint16)(sum >> 3);
  68:..\src/analog.c **** 	
  69:..\src/analog.c **** 	return avg;	
  70:..\src/analog.c **** }
  75              		.loc 1 70 0
  76 002e C0F3CF00 		ubfx	r0, r0, #3, #16
  77              	.LVL6:
  78 0032 30BC     		pop	{r4, r5}
  79              		.cfi_restore 5
  80              		.cfi_restore 4
  81              		.cfi_def_cfa_offset 0
  82 0034 7047     		bx	lr
  83              	.L6:
  84 0036 00BF     		.align	2
  85              	.L5:
  86 0038 00000000 		.word	.LANCHOR0
  87              		.cfi_endproc
  88              	.LFE64:
  89              		.size	adc_avg8, .-adc_avg8
  90              		.section	.text.filter_sar_adc,"ax",%progbits
  91              		.align	2
  92              		.global	filter_sar_adc
  93              		.thumb
  94              		.thumb_func
  95              		.type	filter_sar_adc, %function
  96              	filter_sar_adc:
  97              	.LFB65:
  71:..\src/analog.c **** 
ARM GAS  C:\Users\Alex\AppData\Local\Temp\cc1JZcuE.s 			page 4


  72:..\src/analog.c **** //Filters the ADC buffer
  73:..\src/analog.c **** void filter_sar_adc(void)
  74:..\src/analog.c **** {
  98              		.loc 1 74 0
  99              		.cfi_startproc
 100              		@ args = 0, pretend = 0, frame = 0
 101              		@ frame_needed = 0, uses_anonymous_args = 0
 102              		@ link register save eliminated.
 103 0000 10B4     		push	{r4}
 104              		.cfi_def_cfa_offset 4
 105              		.cfi_offset 4, -4
 106              	.LVL7:
  75:..\src/analog.c **** 	uint8 i = 0, j = 0;
  76:..\src/analog.c **** 	uint32 adc_sum = 0;
  77:..\src/analog.c **** 	
  78:..\src/analog.c **** 	//For each channel:
  79:..\src/analog.c **** 	for(i = 0; i < ADC1_CHANNELS; i++)
 107              		.loc 1 79 0
 108 0002 0024     		movs	r4, #0
 109 0004 14E0     		b	.L8
 110              	.LVL8:
 111              	.L9:
  80:..\src/analog.c **** 	{
  81:..\src/analog.c **** 		//For each value in the channel:
  82:..\src/analog.c **** 		adc_sum = 0;
  83:..\src/analog.c **** 		for(j = 0; j < ADC1_BUF_LEN; j++)
  84:..\src/analog.c **** 		{
  85:..\src/analog.c **** 			//Add the values
  86:..\src/analog.c **** 			adc_sum += (uint32)adc1_dbuf[i][j];
 112              		.loc 1 86 0 discriminator 3
 113 0006 03EBC400 		add	r0, r3, r4, lsl #3
 114 000a 0C4A     		ldr	r2, .L13
 115 000c 32F81020 		ldrh	r2, [r2, r0, lsl #1]
 116 0010 92B2     		uxth	r2, r2
 117 0012 1144     		add	r1, r1, r2
 118              	.LVL9:
  83:..\src/analog.c **** 		{
 119              		.loc 1 83 0 discriminator 3
 120 0014 0133     		adds	r3, r3, #1
 121              	.LVL10:
 122 0016 DBB2     		uxtb	r3, r3
 123              	.LVL11:
 124 0018 01E0     		b	.L10
 125              	.LVL12:
 126              	.L11:
 127 001a 0021     		movs	r1, #0
 128 001c 0B46     		mov	r3, r1
 129              	.L10:
 130              	.LVL13:
  83:..\src/analog.c **** 		{
 131              		.loc 1 83 0 is_stmt 0 discriminator 1
 132 001e 072B     		cmp	r3, #7
 133 0020 F1D9     		bls	.L9
  87:..\src/analog.c **** 		}
  88:..\src/analog.c **** 		
  89:..\src/analog.c **** 		//And divide to get mean
  90:..\src/analog.c **** 		adc1_res_filtered[i] = (uint16) ((uint32)adc_sum >> ADC1_SHIFT);
ARM GAS  C:\Users\Alex\AppData\Local\Temp\cc1JZcuE.s 			page 5


 134              		.loc 1 90 0 is_stmt 1 discriminator 2
 135 0022 C1F3CF01 		ubfx	r1, r1, #3, #16
 136              	.LVL14:
 137 0026 064B     		ldr	r3, .L13+4
 138              	.LVL15:
 139 0028 23F81410 		strh	r1, [r3, r4, lsl #1]	@ movhi
  79:..\src/analog.c **** 	{
 140              		.loc 1 79 0 discriminator 2
 141 002c 0134     		adds	r4, r4, #1
 142              	.LVL16:
 143 002e E4B2     		uxtb	r4, r4
 144              	.LVL17:
 145              	.L8:
  79:..\src/analog.c **** 	{
 146              		.loc 1 79 0 is_stmt 0 discriminator 1
 147 0030 052C     		cmp	r4, #5
 148 0032 F2D9     		bls	.L11
  91:..\src/analog.c **** 	}
  92:..\src/analog.c **** }
 149              		.loc 1 92 0 is_stmt 1
 150 0034 5DF8044B 		ldr	r4, [sp], #4
 151              		.cfi_restore 4
 152              		.cfi_def_cfa_offset 0
 153              	.LVL18:
 154 0038 7047     		bx	lr
 155              	.L14:
 156 003a 00BF     		.align	2
 157              	.L13:
 158 003c 00000000 		.word	adc1_dbuf
 159 0040 00000000 		.word	adc1_res_filtered
 160              		.cfi_endproc
 161              	.LFE65:
 162              		.size	filter_sar_adc, .-filter_sar_adc
 163              		.section	.text.double_buffer_adc,"ax",%progbits
 164              		.align	2
 165              		.global	double_buffer_adc
 166              		.thumb
 167              		.thumb_func
 168              		.type	double_buffer_adc, %function
 169              	double_buffer_adc:
 170              	.LFB66:
  93:..\src/analog.c **** 
  94:..\src/analog.c **** //To avoid data corruption we copy the buffer during the interrupt:
  95:..\src/analog.c **** void double_buffer_adc(void)
  96:..\src/analog.c **** {
 171              		.loc 1 96 0
 172              		.cfi_startproc
 173              		@ args = 0, pretend = 0, frame = 0
 174              		@ frame_needed = 0, uses_anonymous_args = 0
 175              		@ link register save eliminated.
 176 0000 10B4     		push	{r4}
 177              		.cfi_def_cfa_offset 4
 178              		.cfi_offset 4, -4
 179              	.LVL19:
  97:..\src/analog.c **** 	uint16 i = 0, j = 0;
  98:..\src/analog.c **** 	
  99:..\src/analog.c **** 	//For each channel:
ARM GAS  C:\Users\Alex\AppData\Local\Temp\cc1JZcuE.s 			page 6


 100:..\src/analog.c **** 	for(i = 0; i < ADC1_CHANNELS; i++)
 180              		.loc 1 100 0
 181 0002 0024     		movs	r4, #0
 182 0004 10E0     		b	.L16
 183              	.LVL20:
 184              	.L17:
 101:..\src/analog.c **** 	{
 102:..\src/analog.c **** 		//For each value in the channel:
 103:..\src/analog.c **** 		for(j = 0; j < ADC1_BUF_LEN; j++)
 104:..\src/analog.c **** 		{	
 105:..\src/analog.c **** 			adc1_dbuf[i][j] = adc1_res[i][j];
 185              		.loc 1 105 0 discriminator 3
 186 0006 03EBC401 		add	r1, r3, r4, lsl #3
 187 000a 0A4A     		ldr	r2, .L21
 188 000c 32F81120 		ldrh	r2, [r2, r1, lsl #1]
 189 0010 92B2     		uxth	r2, r2
 190 0012 0948     		ldr	r0, .L21+4
 191 0014 20F81120 		strh	r2, [r0, r1, lsl #1]	@ movhi
 103:..\src/analog.c **** 		{	
 192              		.loc 1 103 0 discriminator 3
 193 0018 0133     		adds	r3, r3, #1
 194              	.LVL21:
 195 001a 9BB2     		uxth	r3, r3
 196              	.LVL22:
 197 001c 00E0     		b	.L18
 198              	.LVL23:
 199              	.L19:
 200 001e 0023     		movs	r3, #0
 201              	.L18:
 202              	.LVL24:
 103:..\src/analog.c **** 		{	
 203              		.loc 1 103 0 is_stmt 0 discriminator 1
 204 0020 072B     		cmp	r3, #7
 205 0022 F0D9     		bls	.L17
 100:..\src/analog.c **** 	{
 206              		.loc 1 100 0 is_stmt 1 discriminator 2
 207 0024 0134     		adds	r4, r4, #1
 208              	.LVL25:
 209 0026 A4B2     		uxth	r4, r4
 210              	.LVL26:
 211              	.L16:
 100:..\src/analog.c **** 	{
 212              		.loc 1 100 0 is_stmt 0 discriminator 1
 213 0028 052C     		cmp	r4, #5
 214 002a F8D9     		bls	.L19
 106:..\src/analog.c **** 		}
 107:..\src/analog.c **** 	}
 108:..\src/analog.c **** }
 215              		.loc 1 108 0 is_stmt 1
 216 002c 5DF8044B 		ldr	r4, [sp], #4
 217              		.cfi_restore 4
 218              		.cfi_def_cfa_offset 0
 219              	.LVL27:
 220 0030 7047     		bx	lr
 221              	.L22:
 222 0032 00BF     		.align	2
 223              	.L21:
ARM GAS  C:\Users\Alex\AppData\Local\Temp\cc1JZcuE.s 			page 7


 224 0034 00000000 		.word	adc1_res
 225 0038 00000000 		.word	adc1_dbuf
 226              		.cfi_endproc
 227              	.LFE66:
 228              		.size	double_buffer_adc, .-double_buffer_adc
 229              		.section	.text.read_analog,"ax",%progbits
 230              		.align	2
 231              		.global	read_analog
 232              		.thumb
 233              		.thumb_func
 234              		.type	read_analog, %function
 235              	read_analog:
 236              	.LFB67:
 109:..\src/analog.c **** 
 110:..\src/analog.c **** //Returns one filtered value
 111:..\src/analog.c **** int16 read_analog(uint8 ch)
 112:..\src/analog.c **** {
 237              		.loc 1 112 0
 238              		.cfi_startproc
 239              		@ args = 0, pretend = 0, frame = 0
 240              		@ frame_needed = 0, uses_anonymous_args = 0
 241              		@ link register save eliminated.
 242              	.LVL28:
 113:..\src/analog.c **** 	if(ch < ADC1_CHANNELS)
 243              		.loc 1 113 0
 244 0000 0528     		cmp	r0, #5
 245 0002 04D8     		bhi	.L25
 114:..\src/analog.c **** 	{
 115:..\src/analog.c **** 		//Valid channel, return value
 116:..\src/analog.c **** 		return adc1_res_filtered[ch];
 246              		.loc 1 116 0
 247 0004 034B     		ldr	r3, .L26
 248 0006 33F81000 		ldrh	r0, [r3, r0, lsl #1]
 249              	.LVL29:
 250 000a 80B2     		uxth	r0, r0
 251 000c 00E0     		b	.L24
 252              	.LVL30:
 253              	.L25:
 117:..\src/analog.c **** 	}
 118:..\src/analog.c **** 
 119:..\src/analog.c **** 	//Otherwise return 0
 120:..\src/analog.c **** 	return 0;
 254              		.loc 1 120 0
 255 000e 0020     		movs	r0, #0
 256              	.LVL31:
 257              	.L24:
 121:..\src/analog.c **** }
 258              		.loc 1 121 0
 259 0010 00B2     		sxth	r0, r0
 260 0012 7047     		bx	lr
 261              	.L27:
 262              		.align	2
 263              	.L26:
 264 0014 00000000 		.word	adc1_res_filtered
 265              		.cfi_endproc
 266              	.LFE67:
 267              		.size	read_analog, .-read_analog
ARM GAS  C:\Users\Alex\AppData\Local\Temp\cc1JZcuE.s 			page 8


 268              		.section	.text.adc_sar1_dma_config,"ax",%progbits
 269              		.align	2
 270              		.global	adc_sar1_dma_config
 271              		.thumb
 272              		.thumb_func
 273              		.type	adc_sar1_dma_config, %function
 274              	adc_sar1_dma_config:
 275              	.LFB68:
 122:..\src/analog.c **** 
 123:..\src/analog.c **** //DMA for ADC SAR 1 transfers (Expansion, VB_SNS, etc.)
 124:..\src/analog.c **** //Triggers an ISR after 9 samples
 125:..\src/analog.c **** void adc_sar1_dma_config(void)
 126:..\src/analog.c **** {
 276              		.loc 1 126 0
 277              		.cfi_startproc
 278              		@ args = 0, pretend = 0, frame = 0
 279              		@ frame_needed = 0, uses_anonymous_args = 0
 280 0000 38B5     		push	{r3, r4, r5, lr}
 281              		.cfi_def_cfa_offset 16
 282              		.cfi_offset 3, -16
 283              		.cfi_offset 4, -12
 284              		.cfi_offset 5, -8
 285              		.cfi_offset 14, -4
 127:..\src/analog.c **** 	/* Variable declarations for DMA_5 */
 128:..\src/analog.c **** 	/* Move these variable declarations to the top of the function */
 129:..\src/analog.c **** 	uint8 DMA_5_Chan;
 130:..\src/analog.c **** 	uint8 DMA_5_TD[1];
 131:..\src/analog.c **** 
 132:..\src/analog.c **** 	/* DMA Configuration for DMA_1 */
 133:..\src/analog.c **** 	#define DMA_5_BYTES_PER_BURST 		2
 134:..\src/analog.c **** 	#define DMA_5_REQUEST_PER_BURST 	1
 135:..\src/analog.c **** 	#define DMA_5_SRC_BASE 				(CYDEV_PERIPH_BASE)
 136:..\src/analog.c **** 	#define DMA_5_DST_BASE 				(CYDEV_SRAM_BASE)
 137:..\src/analog.c **** 	
 138:..\src/analog.c **** 	DMA_5_Chan = DMA_5_DmaInitialize(DMA_5_BYTES_PER_BURST, DMA_5_REQUEST_PER_BURST,
 286              		.loc 1 138 0
 287 0002 0220     		movs	r0, #2
 288 0004 0121     		movs	r1, #1
 289 0006 4FF48042 		mov	r2, #16384
 290 000a 41F6FF73 		movw	r3, #8191
 291 000e FFF7FEFF 		bl	DMA_5_DmaInitialize
 292              	.LVL32:
 293 0012 0546     		mov	r5, r0
 294              	.LVL33:
 139:..\src/analog.c **** 	    HI16(DMA_5_SRC_BASE), HI16(DMA_5_DST_BASE));
 140:..\src/analog.c **** 	DMA_5_TD[0] = CyDmaTdAllocate();
 295              		.loc 1 140 0
 296 0014 FFF7FEFF 		bl	CyDmaTdAllocate
 297              	.LVL34:
 298 0018 0446     		mov	r4, r0
 141:..\src/analog.c **** 	CyDmaTdSetConfiguration(DMA_5_TD[0], 18, DMA_5_TD[0], DMA_5__TD_TERMOUT_EN | TD_INC_DST_ADR);
 299              		.loc 1 141 0
 300 001a 1221     		movs	r1, #18
 301 001c 0246     		mov	r2, r0
 302 001e 0623     		movs	r3, #6
 303 0020 FFF7FEFF 		bl	CyDmaTdSetConfiguration
 304              	.LVL35:
ARM GAS  C:\Users\Alex\AppData\Local\Temp\cc1JZcuE.s 			page 9


 142:..\src/analog.c **** 	CyDmaTdSetAddress(DMA_5_TD[0], LO16((uint32)ADC_SAR_1_SAR_WRK0_PTR), LO16((uint32)adc_sar1_dma_arr
 305              		.loc 1 142 0
 306 0024 2046     		mov	r0, r4
 307 0026 45F6A031 		movw	r1, #23456
 308 002a 064A     		ldr	r2, .L30
 309 002c 92B2     		uxth	r2, r2
 310 002e FFF7FEFF 		bl	CyDmaTdSetAddress
 311              	.LVL36:
 143:..\src/analog.c **** 	CyDmaChSetInitialTd(DMA_5_Chan, DMA_5_TD[0]);
 312              		.loc 1 143 0
 313 0032 2846     		mov	r0, r5
 314 0034 2146     		mov	r1, r4
 315 0036 FFF7FEFF 		bl	CyDmaChSetInitialTd
 316              	.LVL37:
 144:..\src/analog.c **** 	CyDmaChEnable(DMA_5_Chan, 1);
 317              		.loc 1 144 0
 318 003a 2846     		mov	r0, r5
 319 003c 0121     		movs	r1, #1
 320 003e FFF7FEFF 		bl	CyDmaChEnable
 321              	.LVL38:
 322 0042 38BD     		pop	{r3, r4, r5, pc}
 323              	.LVL39:
 324              	.L31:
 325              		.align	2
 326              	.L30:
 327 0044 00000000 		.word	adc_sar1_dma_array
 328              		.cfi_endproc
 329              	.LFE68:
 330              		.size	adc_sar1_dma_config, .-adc_sar1_dma_config
 331              		.section	.text.init_analog,"ax",%progbits
 332              		.align	2
 333              		.global	init_analog
 334              		.thumb
 335              		.thumb_func
 336              		.type	init_analog, %function
 337              	init_analog:
 338              	.LFB63:
  37:..\src/analog.c **** 	//Analog amplifiers & multiplexer(s):
 339              		.loc 1 37 0
 340              		.cfi_startproc
 341              		@ args = 0, pretend = 0, frame = 0
 342              		@ frame_needed = 0, uses_anonymous_args = 0
 343 0000 08B5     		push	{r3, lr}
 344              		.cfi_def_cfa_offset 8
 345              		.cfi_offset 3, -8
 346              		.cfi_offset 14, -4
  39:..\src/analog.c **** 	PGA_1_Start();
 347              		.loc 1 39 0
 348 0002 FFF7FEFF 		bl	AMux_1_Start
 349              	.LVL40:
  40:..\src/analog.c **** 	PGA_2_Start();
 350              		.loc 1 40 0
 351 0006 FFF7FEFF 		bl	PGA_1_Start
 352              	.LVL41:
  41:..\src/analog.c **** 	
 353              		.loc 1 41 0
 354 000a FFF7FEFF 		bl	PGA_2_Start
ARM GAS  C:\Users\Alex\AppData\Local\Temp\cc1JZcuE.s 			page 10


 355              	.LVL42:
  44:..\src/analog.c **** 	adc_sar1_dma_config();
 356              		.loc 1 44 0
 357 000e FFF7FEFF 		bl	ADC_SAR_1_Start
 358              	.LVL43:
  45:..\src/analog.c **** 	isr_sar1_dma_Start();
 359              		.loc 1 45 0
 360 0012 FFF7FEFF 		bl	adc_sar1_dma_config
 361              	.LVL44:
  46:..\src/analog.c **** 	ADC_SAR_1_StartConvert();	//Start converting
 362              		.loc 1 46 0
 363 0016 FFF7FEFF 		bl	isr_sar1_dma_Start
 364              	.LVL45:
  47:..\src/analog.c **** }
 365              		.loc 1 47 0
 366 001a FFF7FEFF 		bl	ADC_SAR_1_StartConvert
 367              	.LVL46:
 368 001e 08BD     		pop	{r3, pc}
 369              		.cfi_endproc
 370              	.LFE63:
 371              		.size	init_analog, .-init_analog
 372              		.section	.text.adc_sar2_dma_config,"ax",%progbits
 373              		.align	2
 374              		.global	adc_sar2_dma_config
 375              		.thumb
 376              		.thumb_func
 377              		.type	adc_sar2_dma_config, %function
 378              	adc_sar2_dma_config:
 379              	.LFB69:
 145:..\src/analog.c **** 
 146:..\src/analog.c **** }
 147:..\src/analog.c **** 
 148:..\src/analog.c **** //DMA for ADC SAR 2 transfers (motor current sensing)
 149:..\src/analog.c **** //Triggers an ISR after 5 transfers
 150:..\src/analog.c **** void adc_sar2_dma_config(void)
 151:..\src/analog.c **** {
 380              		.loc 1 151 0
 381              		.cfi_startproc
 382              		@ args = 0, pretend = 0, frame = 0
 383              		@ frame_needed = 0, uses_anonymous_args = 0
 384 0000 38B5     		push	{r3, r4, r5, lr}
 385              		.cfi_def_cfa_offset 16
 386              		.cfi_offset 3, -16
 387              		.cfi_offset 4, -12
 388              		.cfi_offset 5, -8
 389              		.cfi_offset 14, -4
 152:..\src/analog.c **** 	/* Variable declarations for DMA_1 */
 153:..\src/analog.c **** 	/* Move these variable declarations to the top of the function */
 154:..\src/analog.c **** 	uint8 DMA_1_Chan;
 155:..\src/analog.c **** 	uint8 DMA_1_TD[1];
 156:..\src/analog.c **** 
 157:..\src/analog.c **** 	/* DMA Configuration for DMA_1 */
 158:..\src/analog.c **** 	#define DMA_1_BYTES_PER_BURST 		2
 159:..\src/analog.c **** 	#define DMA_1_REQUEST_PER_BURST 	1
 160:..\src/analog.c **** 	#define DMA_1_SRC_BASE 				(CYDEV_PERIPH_BASE)
 161:..\src/analog.c **** 	#define DMA_1_DST_BASE 				(CYDEV_SRAM_BASE)
 162:..\src/analog.c **** 	
ARM GAS  C:\Users\Alex\AppData\Local\Temp\cc1JZcuE.s 			page 11


 163:..\src/analog.c **** 	DMA_1_Chan = DMA_1_DmaInitialize(DMA_1_BYTES_PER_BURST, DMA_1_REQUEST_PER_BURST, 
 390              		.loc 1 163 0
 391 0002 0220     		movs	r0, #2
 392 0004 0121     		movs	r1, #1
 393 0006 4FF48042 		mov	r2, #16384
 394 000a 41F6FF73 		movw	r3, #8191
 395 000e FFF7FEFF 		bl	DMA_1_DmaInitialize
 396              	.LVL47:
 397 0012 0546     		mov	r5, r0
 398              	.LVL48:
 164:..\src/analog.c **** 	    HI16(DMA_1_SRC_BASE), HI16(DMA_1_DST_BASE));
 165:..\src/analog.c **** 	DMA_1_TD[0] = CyDmaTdAllocate();
 399              		.loc 1 165 0
 400 0014 FFF7FEFF 		bl	CyDmaTdAllocate
 401              	.LVL49:
 402 0018 0446     		mov	r4, r0
 166:..\src/analog.c **** 	CyDmaTdSetConfiguration(DMA_1_TD[0], 10, DMA_1_TD[0], DMA_1__TD_TERMOUT_EN | TD_INC_DST_ADR);
 403              		.loc 1 166 0
 404 001a 0A21     		movs	r1, #10
 405 001c 0246     		mov	r2, r0
 406 001e 0623     		movs	r3, #6
 407 0020 FFF7FEFF 		bl	CyDmaTdSetConfiguration
 408              	.LVL50:
 167:..\src/analog.c **** 	CyDmaTdSetAddress(DMA_1_TD[0], LO16((uint32)ADC_SAR_2_SAR_WRK0_PTR), LO16((uint32)adc_dma_array));
 409              		.loc 1 167 0
 410 0024 2046     		mov	r0, r4
 411 0026 45F6A231 		movw	r1, #23458
 412 002a 064A     		ldr	r2, .L36
 413 002c 92B2     		uxth	r2, r2
 414 002e FFF7FEFF 		bl	CyDmaTdSetAddress
 415              	.LVL51:
 168:..\src/analog.c **** 	CyDmaChSetInitialTd(DMA_1_Chan, DMA_1_TD[0]);
 416              		.loc 1 168 0
 417 0032 2846     		mov	r0, r5
 418 0034 2146     		mov	r1, r4
 419 0036 FFF7FEFF 		bl	CyDmaChSetInitialTd
 420              	.LVL52:
 169:..\src/analog.c **** 	CyDmaChEnable(DMA_1_Chan, 1);
 421              		.loc 1 169 0
 422 003a 2846     		mov	r0, r5
 423 003c 0121     		movs	r1, #1
 424 003e FFF7FEFF 		bl	CyDmaChEnable
 425              	.LVL53:
 426 0042 38BD     		pop	{r3, r4, r5, pc}
 427              	.LVL54:
 428              	.L37:
 429              		.align	2
 430              	.L36:
 431 0044 00000000 		.word	adc_dma_array
 432              		.cfi_endproc
 433              	.LFE69:
 434              		.size	adc_sar2_dma_config, .-adc_sar2_dma_config
 435              		.global	amux_ch
 436              		.comm	adc_sar1_dma_array,18,4
 437              		.comm	adc_dma_array,16,4
 438              		.comm	adc1_res_filtered,12,4
 439              		.comm	adc1_dbuf,96,4
ARM GAS  C:\Users\Alex\AppData\Local\Temp\cc1JZcuE.s 			page 12


 440              		.comm	adc1_res,96,4
 441              		.bss
 442              		.align	2
 443              		.set	.LANCHOR0,. + 0
 444              		.type	cnt.10482, %object
 445              		.size	cnt.10482, 1
 446              	cnt.10482:
 447 0000 00       		.space	1
 448 0001 000000   		.space	3
 449              		.type	adc_avg_buf.10481, %object
 450              		.size	adc_avg_buf.10481, 16
 451              	adc_avg_buf.10481:
 452 0004 00000000 		.space	16
 452      00000000 
 452      00000000 
 452      00000000 
 453              		.type	amux_ch, %object
 454              		.size	amux_ch, 1
 455              	amux_ch:
 456 0014 00       		.space	1
 457 0015 000000   		.text
 458              	.Letext0:
 459              		.file 2 "c:\\program files (x86)\\cypress\\psoc creator\\3.3\\psoc creator\\import\\gnu\\arm\\4.9.
 460              		.file 3 "c:\\program files (x86)\\cypress\\psoc creator\\3.3\\psoc creator\\import\\gnu\\arm\\4.9.
 461              		.file 4 "Generated_Source\\PSoC5/cytypes.h"
 462              		.file 5 "Generated_Source\\PSoC5/core_cm3.h"
 463              		.file 6 "Generated_Source\\PSoC5/DMA_5_dma.h"
 464              		.file 7 "Generated_Source\\PSoC5/CYDMAC.H"
 465              		.file 8 "Generated_Source\\PSoC5/AMux_1.h"
 466              		.file 9 "Generated_Source\\PSoC5/PGA_1.h"
 467              		.file 10 "Generated_Source\\PSoC5/PGA_2.h"
 468              		.file 11 "Generated_Source\\PSoC5/ADC_SAR_1.h"
 469              		.file 12 "Generated_Source\\PSoC5/isr_sar1_dma.h"
 470              		.file 13 "Generated_Source\\PSoC5/DMA_1_dma.h"