ARM GAS  C:\Users\Alex\AppData\Local\Temp\cc258SWo.s 			page 1


   1              		.syntax unified
   2              		.cpu cortex-m3
   3              		.fpu softvfp
   4              		.eabi_attribute 20, 1
   5              		.eabi_attribute 21, 1
   6              		.eabi_attribute 23, 3
   7              		.eabi_attribute 24, 1
   8              		.eabi_attribute 25, 1
   9              		.eabi_attribute 26, 1
  10              		.eabi_attribute 30, 1
  11              		.eabi_attribute 34, 1
  12              		.eabi_attribute 18, 4
  13              		.thumb
  14              		.file	"control.c"
  15              		.text
  16              	.Ltext0:
  17              		.cfi_sections	.debug_frame
  18              		.global _printf_float
  19              		.thumb
  20              		.section	.text.control_strategy,"ax",%progbits
  21              		.align	2
  22              		.global	control_strategy
  23              		.thumb
  24              		.thumb_func
  25              		.type	control_strategy, %function
  26              	control_strategy:
  27              	.LFB63:
  28              		.file 1 "..\\src\\control.c"
   1:..\src/control.c **** //****************************************************************************
   2:..\src/control.c **** // MIT Media Lab - Biomechatronics
   3:..\src/control.c **** // Jean-Francois (Jeff) Duval
   4:..\src/control.c **** // jfduval@media.mit.edu
   5:..\src/control.c **** // 02/2016
   6:..\src/control.c **** //****************************************************************************
   7:..\src/control.c **** // control: Control Loops
   8:..\src/control.c **** //****************************************************************************
   9:..\src/control.c **** 
  10:..\src/control.c **** //****************************************************************************
  11:..\src/control.c **** // Include(s)
  12:..\src/control.c **** //****************************************************************************
  13:..\src/control.c **** 
  14:..\src/control.c **** #include "main.h"
  15:..\src/control.c **** #include "control.h"
  16:..\src/control.c **** 
  17:..\src/control.c **** //****************************************************************************
  18:..\src/control.c **** // Variable(s)
  19:..\src/control.c **** //****************************************************************************
  20:..\src/control.c **** 
  21:..\src/control.c **** //Main data structure for all the controllers:
  22:..\src/control.c **** volatile struct ctrl_s ctrl;
  23:..\src/control.c **** 
  24:..\src/control.c **** //In Control tool:
  25:..\src/control.c **** volatile struct in_control_s in_control;
  26:..\src/control.c **** 
  27:..\src/control.c **** //Impedance loop
  28:..\src/control.c **** int debug_var = 0;
  29:..\src/control.c **** 
ARM GAS  C:\Users\Alex\AppData\Local\Temp\cc258SWo.s 			page 2


  30:..\src/control.c **** //****************************************************************************
  31:..\src/control.c **** // Function(s)
  32:..\src/control.c **** //****************************************************************************
  33:..\src/control.c **** 
  34:..\src/control.c **** //Use this function to change the control strategy
  35:..\src/control.c **** void control_strategy(unsigned char strat)
  36:..\src/control.c **** {
  29              		.loc 1 36 0
  30              		.cfi_startproc
  31              		@ args = 0, pretend = 0, frame = 0
  32              		@ frame_needed = 0, uses_anonymous_args = 0
  33              	.LVL0:
  37:..\src/control.c **** 	//Are we already using this controller?
  38:..\src/control.c **** 	if(ctrl.active_ctrl == strat)
  34              		.loc 1 38 0
  35 0000 264B     		ldr	r3, .L7
  36 0002 1B78     		ldrb	r3, [r3]	@ zero_extendqisi2
  37 0004 8342     		cmp	r3, r0
  38 0006 48D0     		beq	.L6
  36:..\src/control.c **** 	//Are we already using this controller?
  39              		.loc 1 36 0
  40 0008 D0B5     		push	{r4, r6, r7, lr}
  41              		.cfi_def_cfa_offset 16
  42              		.cfi_offset 4, -16
  43              		.cfi_offset 6, -12
  44              		.cfi_offset 7, -8
  45              		.cfi_offset 14, -4
  46 000a 84B0     		sub	sp, sp, #16
  47              		.cfi_def_cfa_offset 32
  48 000c 0446     		mov	r4, r0
  39:..\src/control.c **** 	{
  40:..\src/control.c **** 		//Yes. Nothing to do, exit.
  41:..\src/control.c **** 		return;
  42:..\src/control.c **** 	}
  43:..\src/control.c **** 	else
  44:..\src/control.c **** 	{
  45:..\src/control.c **** 		//Different controller
  46:..\src/control.c **** 	
  47:..\src/control.c **** 		//By default we place the gains to 0 before we change the strategy:
  48:..\src/control.c **** 						
  49:..\src/control.c **** 		//Position controller
  50:..\src/control.c **** 		ctrl.position.gain.P_KP = 0;
  49              		.loc 1 50 0
  50 000e 234B     		ldr	r3, .L7
  51 0010 0022     		movs	r2, #0
  52 0012 A3F84C20 		strh	r2, [r3, #76]	@ movhi
  51:..\src/control.c **** 		ctrl.position.gain.P_KI = 0;
  53              		.loc 1 51 0
  54 0016 A3F84E20 		strh	r2, [r3, #78]	@ movhi
  52:..\src/control.c **** 		ctrl.position.gain.P_KD = 0;
  55              		.loc 1 52 0
  56 001a A3F85020 		strh	r2, [r3, #80]	@ movhi
  53:..\src/control.c **** 		
  54:..\src/control.c **** 		//Impedance controller
  55:..\src/control.c **** 		ctrl.impedance.gain.Z_K = 0;
  57              		.loc 1 55 0
  58 001e A3F88020 		strh	r2, [r3, #128]	@ movhi
ARM GAS  C:\Users\Alex\AppData\Local\Temp\cc258SWo.s 			page 3


  56:..\src/control.c **** 		ctrl.impedance.gain.Z_B = 0;
  59              		.loc 1 56 0
  60 0022 A3F88220 		strh	r2, [r3, #130]	@ movhi
  57:..\src/control.c **** 		ctrl.impedance.gain.Z_I = 0;
  61              		.loc 1 57 0
  62 0026 A3F88420 		strh	r2, [r3, #132]	@ movhi
  58:..\src/control.c **** 		
  59:..\src/control.c **** 		//Current controller
  60:..\src/control.c **** 		ctrl.current.gain.I_KP = 0;
  63              		.loc 1 60 0
  64 002a 1A85     		strh	r2, [r3, #40]	@ movhi
  61:..\src/control.c **** 		ctrl.current.gain.I_KI = 0;
  65              		.loc 1 61 0
  66 002c 5A85     		strh	r2, [r3, #42]	@ movhi
  62:..\src/control.c **** 		ctrl.current.gain.I_KD = 0;
  67              		.loc 1 62 0
  68 002e 9A85     		strh	r2, [r3, #44]	@ movhi
  63:..\src/control.c **** 		ctrl.current.setpoint_val = 0;
  69              		.loc 1 63 0
  70 0030 9A63     		str	r2, [r3, #56]
  64:..\src/control.c **** 		
  65:..\src/control.c **** 		//To avoid a huge startup error on the Position-based controllers:
  66:..\src/control.c **** 		if(strat == CTRL_POSITION)
  71              		.loc 1 66 0
  72 0032 0228     		cmp	r0, #2
  73 0034 12D1     		bne	.L3
  67:..\src/control.c **** 		{
  68:..\src/control.c **** 			ctrl.position.setp = QuadDec_1_GetCounter(); //adc1_res_filtered[0];	//ToDo make this flexible
  74              		.loc 1 68 0
  75 0036 FFF7FEFF 		bl	QuadDec_1_GetCounter
  76              	.LVL1:
  77 003a 184B     		ldr	r3, .L7
  78 003c D865     		str	r0, [r3, #92]
  69:..\src/control.c **** 			steps = trapez_gen_motion_1(ctrl.position.setp, ctrl.position.setp, 1, 1);
  79              		.loc 1 69 0
  80 003e D86D     		ldr	r0, [r3, #92]
  81 0040 DA6D     		ldr	r2, [r3, #92]
  82 0042 0126     		movs	r6, #1
  83 0044 0027     		movs	r7, #0
  84 0046 CDE90067 		strd	r6, [sp]
  85 004a CDE90267 		strd	r6, [sp, #8]
  86 004e C117     		asrs	r1, r0, #31
  87 0050 D317     		asrs	r3, r2, #31
  88 0052 FFF7FEFF 		bl	trapez_gen_motion_1
  89              	.LVL2:
  90 0056 124B     		ldr	r3, .L7+4
  91 0058 1860     		str	r0, [r3]
  92 005a 16E0     		b	.L4
  93              	.LVL3:
  94              	.L3:
  70:..\src/control.c **** 		}
  71:..\src/control.c **** 		else if(strat == CTRL_IMPEDANCE)
  95              		.loc 1 71 0
  96 005c 0428     		cmp	r0, #4
  97 005e 14D1     		bne	.L4
  72:..\src/control.c **** 		{
  73:..\src/control.c **** 			ctrl.impedance.setpoint_val = QuadDec_1_GetCounter();
ARM GAS  C:\Users\Alex\AppData\Local\Temp\cc258SWo.s 			page 4


  98              		.loc 1 73 0
  99 0060 FFF7FEFF 		bl	QuadDec_1_GetCounter
 100              	.LVL4:
 101 0064 0D4B     		ldr	r3, .L7
 102 0066 C3F89000 		str	r0, [r3, #144]
  74:..\src/control.c **** 			steps = trapez_gen_motion_1(ctrl.impedance.setpoint_val, ctrl.impedance.setpoint_val, 1, 1);
 103              		.loc 1 74 0
 104 006a D3F89000 		ldr	r0, [r3, #144]
 105 006e D3F89020 		ldr	r2, [r3, #144]
 106 0072 0126     		movs	r6, #1
 107 0074 0027     		movs	r7, #0
 108 0076 CDE90067 		strd	r6, [sp]
 109 007a CDE90267 		strd	r6, [sp, #8]
 110 007e C117     		asrs	r1, r0, #31
 111 0080 D317     		asrs	r3, r2, #31
 112 0082 FFF7FEFF 		bl	trapez_gen_motion_1
 113              	.LVL5:
 114 0086 064B     		ldr	r3, .L7+4
 115 0088 1860     		str	r0, [r3]
 116              	.L4:
  75:..\src/control.c **** 		}
  76:..\src/control.c **** 		
  77:..\src/control.c **** 		ctrl.active_ctrl = strat;	//controller = strat;
 117              		.loc 1 77 0
 118 008a 044B     		ldr	r3, .L7
 119 008c 1C70     		strb	r4, [r3]
  78:..\src/control.c **** 		in_control.controller = ctrl.active_ctrl;
 120              		.loc 1 78 0
 121 008e 1B78     		ldrb	r3, [r3]	@ zero_extendqisi2
 122 0090 DBB2     		uxtb	r3, r3
 123 0092 044A     		ldr	r2, .L7+8
 124 0094 1370     		strb	r3, [r2]
  79:..\src/control.c **** 		
  80:..\src/control.c **** 		//The user should call a set gain function at this point.
  81:..\src/control.c **** 	}
  82:..\src/control.c **** }
 125              		.loc 1 82 0
 126 0096 04B0     		add	sp, sp, #16
 127              		.cfi_def_cfa_offset 16
 128              		@ sp needed
 129 0098 D0BD     		pop	{r4, r6, r7, pc}
 130              	.LVL6:
 131              	.L6:
 132              		.cfi_def_cfa_offset 0
 133              		.cfi_restore 4
 134              		.cfi_restore 6
 135              		.cfi_restore 7
 136              		.cfi_restore 14
 137 009a 7047     		bx	lr
 138              	.L8:
 139              		.align	2
 140              	.L7:
 141 009c 00000000 		.word	ctrl
 142 00a0 00000000 		.word	steps
 143 00a4 00000000 		.word	in_control
 144              		.cfi_endproc
 145              	.LFE63:
ARM GAS  C:\Users\Alex\AppData\Local\Temp\cc258SWo.s 			page 5


 146              		.size	control_strategy, .-control_strategy
 147              		.section	.text.init_ctrl_data_structure,"ax",%progbits
 148              		.align	2
 149              		.global	init_ctrl_data_structure
 150              		.thumb
 151              		.thumb_func
 152              		.type	init_ctrl_data_structure, %function
 153              	init_ctrl_data_structure:
 154              	.LFB64:
  83:..\src/control.c **** 
  84:..\src/control.c **** //Starts all the parameters at 0 or Default values
  85:..\src/control.c **** void init_ctrl_data_structure(void)
  86:..\src/control.c **** {
 155              		.loc 1 86 0
 156              		.cfi_startproc
 157              		@ args = 0, pretend = 0, frame = 0
 158              		@ frame_needed = 0, uses_anonymous_args = 0
 159              		@ link register save eliminated.
  87:..\src/control.c **** 	//No active controller:
  88:..\src/control.c **** 	ctrl.active_ctrl = CTRL_NONE;
 160              		.loc 1 88 0
 161 0000 204B     		ldr	r3, .L10
 162 0002 0022     		movs	r2, #0
 163 0004 1A70     		strb	r2, [r3]
  89:..\src/control.c **** 	
  90:..\src/control.c **** 	//Generic controller
  91:..\src/control.c **** 	ctrl.generic.gain.g0 = 0;
 164              		.loc 1 91 0
 165 0006 9A80     		strh	r2, [r3, #4]	@ movhi
  92:..\src/control.c **** 	ctrl.generic.gain.g1 = 0;
 166              		.loc 1 92 0
 167 0008 DA80     		strh	r2, [r3, #6]	@ movhi
  93:..\src/control.c **** 	ctrl.generic.gain.g2 = 0;
 168              		.loc 1 93 0
 169 000a 1A81     		strh	r2, [r3, #8]	@ movhi
  94:..\src/control.c **** 	ctrl.generic.gain.g3 = 0;
 170              		.loc 1 94 0
 171 000c 5A81     		strh	r2, [r3, #10]	@ movhi
  95:..\src/control.c **** 	ctrl.generic.gain.g4 = 0;
 172              		.loc 1 95 0
 173 000e 9A81     		strh	r2, [r3, #12]	@ movhi
  96:..\src/control.c **** 	ctrl.generic.gain.g5 = 0;
 174              		.loc 1 96 0
 175 0010 DA81     		strh	r2, [r3, #14]	@ movhi
  97:..\src/control.c **** 	ctrl.generic.actual_val = 0;
 176              		.loc 1 97 0
 177 0012 1A61     		str	r2, [r3, #16]
  98:..\src/control.c **** 	ctrl.generic.setpoint_val = 0;
 178              		.loc 1 98 0
 179 0014 5A61     		str	r2, [r3, #20]
  99:..\src/control.c **** 	ctrl.generic.error = 0;
 180              		.loc 1 99 0
 181 0016 9A61     		str	r2, [r3, #24]
 100:..\src/control.c **** 	ctrl.generic.error_sum = 0;
 182              		.loc 1 100 0
 183 0018 1A62     		str	r2, [r3, #32]
 101:..\src/control.c **** 	ctrl.generic.error_dif = 0;
ARM GAS  C:\Users\Alex\AppData\Local\Temp\cc258SWo.s 			page 6


 184              		.loc 1 101 0
 185 001a 5A62     		str	r2, [r3, #36]
 102:..\src/control.c **** 	
 103:..\src/control.c **** 	//Position controller
 104:..\src/control.c **** 	ctrl.position.gain.g0 = 0;
 186              		.loc 1 104 0
 187 001c A3F84C20 		strh	r2, [r3, #76]	@ movhi
 105:..\src/control.c **** 	ctrl.position.gain.g1 = 0;
 188              		.loc 1 105 0
 189 0020 A3F84E20 		strh	r2, [r3, #78]	@ movhi
 106:..\src/control.c **** 	ctrl.position.gain.g2 = 0;
 190              		.loc 1 106 0
 191 0024 A3F85020 		strh	r2, [r3, #80]	@ movhi
 107:..\src/control.c **** 	ctrl.position.gain.g3 = 0;
 192              		.loc 1 107 0
 193 0028 A3F85220 		strh	r2, [r3, #82]	@ movhi
 108:..\src/control.c **** 	ctrl.position.gain.g4 = 0;
 194              		.loc 1 108 0
 195 002c A3F85420 		strh	r2, [r3, #84]	@ movhi
 109:..\src/control.c **** 	ctrl.position.gain.g5 = 0;
 196              		.loc 1 109 0
 197 0030 A3F85620 		strh	r2, [r3, #86]	@ movhi
 110:..\src/control.c **** 	ctrl.position.pos = 0;
 198              		.loc 1 110 0
 199 0034 9A65     		str	r2, [r3, #88]
 111:..\src/control.c **** 	ctrl.position.setp = 0;
 200              		.loc 1 111 0
 201 0036 DA65     		str	r2, [r3, #92]
 112:..\src/control.c **** 	ctrl.position.error = 0;
 202              		.loc 1 112 0
 203 0038 1A67     		str	r2, [r3, #112]
 113:..\src/control.c **** 	ctrl.position.error_sum = 0;
 204              		.loc 1 113 0
 205 003a 9A67     		str	r2, [r3, #120]
 114:..\src/control.c **** 	ctrl.position.error_dif = 0;
 206              		.loc 1 114 0
 207 003c DA67     		str	r2, [r3, #124]
 115:..\src/control.c **** 	
 116:..\src/control.c **** 	//Impedance controller
 117:..\src/control.c **** 	ctrl.impedance.gain.g0 = 0;
 208              		.loc 1 117 0
 209 003e A3F88020 		strh	r2, [r3, #128]	@ movhi
 118:..\src/control.c **** 	ctrl.impedance.gain.g1 = 0;
 210              		.loc 1 118 0
 211 0042 A3F88220 		strh	r2, [r3, #130]	@ movhi
 119:..\src/control.c **** 	ctrl.impedance.gain.g2 = 0;
 212              		.loc 1 119 0
 213 0046 A3F88420 		strh	r2, [r3, #132]	@ movhi
 120:..\src/control.c **** 	ctrl.impedance.gain.g3 = 0;
 214              		.loc 1 120 0
 215 004a A3F88620 		strh	r2, [r3, #134]	@ movhi
 121:..\src/control.c **** 	ctrl.impedance.gain.g4 = 0;
 216              		.loc 1 121 0
 217 004e A3F88820 		strh	r2, [r3, #136]	@ movhi
 122:..\src/control.c **** 	ctrl.impedance.gain.g5 = 0;
 218              		.loc 1 122 0
 219 0052 A3F88A20 		strh	r2, [r3, #138]	@ movhi
ARM GAS  C:\Users\Alex\AppData\Local\Temp\cc258SWo.s 			page 7


 123:..\src/control.c **** 	ctrl.impedance.actual_val = 0;
 220              		.loc 1 123 0
 221 0056 C3F88C20 		str	r2, [r3, #140]
 124:..\src/control.c **** 	ctrl.impedance.setpoint_val = 0;
 222              		.loc 1 124 0
 223 005a C3F89020 		str	r2, [r3, #144]
 125:..\src/control.c **** 	ctrl.impedance.error = 0;
 224              		.loc 1 125 0
 225 005e C3F89420 		str	r2, [r3, #148]
 126:..\src/control.c **** 	ctrl.impedance.error_sum = 0;
 226              		.loc 1 126 0
 227 0062 C3F89C20 		str	r2, [r3, #156]
 127:..\src/control.c **** 	ctrl.impedance.error_dif = 0;
 228              		.loc 1 127 0
 229 0066 C3F8A020 		str	r2, [r3, #160]
 128:..\src/control.c **** 	
 129:..\src/control.c **** 	//Current controller
 130:..\src/control.c **** 	ctrl.current.gain.g0 = 0;
 230              		.loc 1 130 0
 231 006a 1A85     		strh	r2, [r3, #40]	@ movhi
 131:..\src/control.c **** 	ctrl.current.gain.g1 = 0;
 232              		.loc 1 131 0
 233 006c 5A85     		strh	r2, [r3, #42]	@ movhi
 132:..\src/control.c **** 	ctrl.current.gain.g2 = 0;
 234              		.loc 1 132 0
 235 006e 9A85     		strh	r2, [r3, #44]	@ movhi
 133:..\src/control.c **** 	ctrl.current.gain.g3 = 0;
 236              		.loc 1 133 0
 237 0070 DA85     		strh	r2, [r3, #46]	@ movhi
 134:..\src/control.c **** 	ctrl.current.gain.g4 = 0;
 238              		.loc 1 134 0
 239 0072 1A86     		strh	r2, [r3, #48]	@ movhi
 135:..\src/control.c **** 	ctrl.current.gain.g5 = 0;
 240              		.loc 1 135 0
 241 0074 5A86     		strh	r2, [r3, #50]	@ movhi
 136:..\src/control.c **** 	ctrl.current.actual_val = 0;
 242              		.loc 1 136 0
 243 0076 5A63     		str	r2, [r3, #52]
 137:..\src/control.c **** 	ctrl.current.setpoint_val = 0;
 244              		.loc 1 137 0
 245 0078 9A63     		str	r2, [r3, #56]
 138:..\src/control.c **** 	ctrl.current.error = 0;
 246              		.loc 1 138 0
 247 007a DA63     		str	r2, [r3, #60]
 139:..\src/control.c **** 	ctrl.current.error_sum = 0;
 248              		.loc 1 139 0
 249 007c 5A64     		str	r2, [r3, #68]
 140:..\src/control.c **** 	ctrl.current.error_dif = 0;
 250              		.loc 1 140 0
 251 007e 9A64     		str	r2, [r3, #72]
 252 0080 7047     		bx	lr
 253              	.L11:
 254 0082 00BF     		.align	2
 255              	.L10:
 256 0084 00000000 		.word	ctrl
 257              		.cfi_endproc
 258              	.LFE64:
ARM GAS  C:\Users\Alex\AppData\Local\Temp\cc258SWo.s 			page 8


 259              		.size	init_ctrl_data_structure, .-init_ctrl_data_structure
 260              		.section	.text.motor_position_pid,"ax",%progbits
 261              		.align	2
 262              		.global	motor_position_pid
 263              		.thumb
 264              		.thumb_func
 265              		.type	motor_position_pid, %function
 266              	motor_position_pid:
 267              	.LFB65:
 141:..\src/control.c **** }
 142:..\src/control.c **** 
 143:..\src/control.c **** //Motor position controller - non blocking
 144:..\src/control.c **** int32 motor_position_pid(int32 wanted_pos, int32 actual_pos)
 145:..\src/control.c **** {
 268              		.loc 1 145 0
 269              		.cfi_startproc
 270              		@ args = 0, pretend = 0, frame = 0
 271              		@ frame_needed = 0, uses_anonymous_args = 0
 272              	.LVL7:
 273 0000 70B5     		push	{r4, r5, r6, lr}
 274              		.cfi_def_cfa_offset 16
 275              		.cfi_offset 4, -16
 276              		.cfi_offset 5, -12
 277              		.cfi_offset 6, -8
 278              		.cfi_offset 14, -4
 279              	.LVL8:
 146:..\src/control.c **** 	int32 p = 0, i = 0;
 147:..\src/control.c **** 	int32 pwm = 0;
 148:..\src/control.c **** 
 149:..\src/control.c **** 	//Position values:
 150:..\src/control.c **** 	ctrl.position.pos = actual_pos;
 280              		.loc 1 150 0
 281 0002 274B     		ldr	r3, .L20
 282 0004 9965     		str	r1, [r3, #88]
 151:..\src/control.c **** 	ctrl.position.setp = wanted_pos;
 283              		.loc 1 151 0
 284 0006 D865     		str	r0, [r3, #92]
 152:..\src/control.c **** 	in_control.actual_val = ctrl.position.pos;
 285              		.loc 1 152 0
 286 0008 996D     		ldr	r1, [r3, #88]
 287              	.LVL9:
 288 000a 264A     		ldr	r2, .L20+4
 289 000c 9160     		str	r1, [r2, #8]
 153:..\src/control.c **** 	in_control.setp = ctrl.position.setp;
 290              		.loc 1 153 0
 291 000e D96D     		ldr	r1, [r3, #92]
 292 0010 5160     		str	r1, [r2, #4]
 154:..\src/control.c **** 	
 155:..\src/control.c **** 	//Errors:
 156:..\src/control.c **** 	ctrl.position.error = ctrl.position.pos - ctrl.position.setp;
 293              		.loc 1 156 0
 294 0012 996D     		ldr	r1, [r3, #88]
 295 0014 D86D     		ldr	r0, [r3, #92]
 296              	.LVL10:
 297 0016 091A     		subs	r1, r1, r0
 298 0018 1967     		str	r1, [r3, #112]
 157:..\src/control.c **** 	in_control.error = ctrl.position.error;
ARM GAS  C:\Users\Alex\AppData\Local\Temp\cc258SWo.s 			page 9


 299              		.loc 1 157 0
 300 001a 196F     		ldr	r1, [r3, #112]
 301 001c D160     		str	r1, [r2, #12]
 158:..\src/control.c **** 	ctrl.position.error_sum = ctrl.position.error_sum + ctrl.position.error;
 302              		.loc 1 158 0
 303 001e 996F     		ldr	r1, [r3, #120]
 304 0020 1A6F     		ldr	r2, [r3, #112]
 305 0022 0A44     		add	r2, r2, r1
 306 0024 9A67     		str	r2, [r3, #120]
 159:..\src/control.c **** 	//ctrl.position.error_dif ToDo
 160:..\src/control.c **** 	
 161:..\src/control.c **** 	//Saturate cumulative error
 162:..\src/control.c **** 	if(ctrl.position.error_sum >= MAX_CUMULATIVE_ERROR)
 307              		.loc 1 162 0
 308 0026 9B6F     		ldr	r3, [r3, #120]
 309 0028 B3F57A7F 		cmp	r3, #1000
 310 002c 03DB     		blt	.L13
 163:..\src/control.c **** 		ctrl.position.error_sum = MAX_CUMULATIVE_ERROR;
 311              		.loc 1 163 0
 312 002e 4FF47A72 		mov	r2, #1000
 313 0032 1B4B     		ldr	r3, .L20
 314 0034 9A67     		str	r2, [r3, #120]
 315              	.L13:
 164:..\src/control.c **** 	if(ctrl.position.error_sum <= -MAX_CUMULATIVE_ERROR)
 316              		.loc 1 164 0
 317 0036 1A4B     		ldr	r3, .L20
 318 0038 9B6F     		ldr	r3, [r3, #120]
 319 003a 13F57A7F 		cmn	r3, #1000
 320 003e 02DC     		bgt	.L14
 165:..\src/control.c **** 		ctrl.position.error_sum = -MAX_CUMULATIVE_ERROR;
 321              		.loc 1 165 0
 322 0040 194A     		ldr	r2, .L20+8
 323 0042 174B     		ldr	r3, .L20
 324 0044 9A67     		str	r2, [r3, #120]
 325              	.L14:
 166:..\src/control.c **** 	
 167:..\src/control.c **** 	//Proportional term
 168:..\src/control.c **** 	p = (ctrl.position.gain.P_KP * ctrl.position.error) / 100;
 326              		.loc 1 168 0
 327 0046 164D     		ldr	r5, .L20
 328 0048 B5F84C20 		ldrh	r2, [r5, #76]
 329 004c 92B2     		uxth	r2, r2
 330 004e 2B6F     		ldr	r3, [r5, #112]
 331 0050 03FB02F2 		mul	r2, r3, r2
 332 0054 1548     		ldr	r0, .L20+12
 333 0056 80FB0234 		smull	r3, r4, r0, r2
 334 005a D217     		asrs	r2, r2, #31
 335 005c C2EB6411 		rsb	r1, r2, r4, asr #5
 336              	.LVL11:
 169:..\src/control.c **** 	in_control.r[0] = p;
 337              		.loc 1 169 0
 338 0060 104E     		ldr	r6, .L20+4
 339 0062 F161     		str	r1, [r6, #28]
 170:..\src/control.c **** 	//Integral term
 171:..\src/control.c **** 	i = (ctrl.position.gain.P_KI * ctrl.position.error_sum) / 100;
 340              		.loc 1 171 0
 341 0064 B5F84E20 		ldrh	r2, [r5, #78]
ARM GAS  C:\Users\Alex\AppData\Local\Temp\cc258SWo.s 			page 10


 342 0068 93B2     		uxth	r3, r2
 343 006a AA6F     		ldr	r2, [r5, #120]
 344 006c 02FB03F2 		mul	r2, r2, r3
 345 0070 80FB0234 		smull	r3, r4, r0, r2
 346 0074 D217     		asrs	r2, r2, #31
 347 0076 C2EB6413 		rsb	r3, r2, r4, asr #5
 348              	.LVL12:
 172:..\src/control.c **** 	in_control.r[1] = i;
 349              		.loc 1 172 0
 350 007a 3362     		str	r3, [r6, #32]
 173:..\src/control.c **** 	
 174:..\src/control.c **** 	//Output
 175:..\src/control.c **** 	pwm = (p + i);		//
 351              		.loc 1 175 0
 352 007c CC18     		adds	r4, r1, r3
 353              	.LVL13:
 176:..\src/control.c **** 	
 177:..\src/control.c **** 	//Saturates PWM to low values
 178:..\src/control.c **** 	if(pwm >= POS_PWM_LIMIT)
 354              		.loc 1 178 0
 355 007e B4F53E7F 		cmp	r4, #760
 356 0082 01DB     		blt	.L15
 179:..\src/control.c **** 		pwm = POS_PWM_LIMIT;
 357              		.loc 1 179 0
 358 0084 4FF43E74 		mov	r4, #760
 359              	.LVL14:
 360              	.L15:
 180:..\src/control.c **** 	if(pwm <= -POS_PWM_LIMIT)
 361              		.loc 1 180 0
 362 0088 14F53E7F 		cmn	r4, #760
 363 008c 00DC     		bgt	.L16
 181:..\src/control.c **** 		pwm = -POS_PWM_LIMIT;
 364              		.loc 1 181 0
 365 008e 084C     		ldr	r4, .L20+16
 366              	.LVL15:
 367              	.L16:
 182:..\src/control.c **** 	
 183:..\src/control.c **** 	motor_open_speed_1(pwm);
 368              		.loc 1 183 0
 369 0090 20B2     		sxth	r0, r4
 370 0092 FFF7FEFF 		bl	motor_open_speed_1
 371              	.LVL16:
 184:..\src/control.c **** 	in_control.output = pwm;
 372              		.loc 1 184 0
 373 0096 034B     		ldr	r3, .L20+4
 374 0098 1C61     		str	r4, [r3, #16]
 185:..\src/control.c **** 	
 186:..\src/control.c **** 	return ctrl.position.error;
 375              		.loc 1 186 0
 376 009a 014B     		ldr	r3, .L20
 377 009c 186F     		ldr	r0, [r3, #112]
 187:..\src/control.c **** }
 378              		.loc 1 187 0
 379 009e 70BD     		pop	{r4, r5, r6, pc}
 380              	.LVL17:
 381              	.L21:
 382              		.align	2
ARM GAS  C:\Users\Alex\AppData\Local\Temp\cc258SWo.s 			page 11


 383              	.L20:
 384 00a0 00000000 		.word	ctrl
 385 00a4 00000000 		.word	in_control
 386 00a8 18FCFFFF 		.word	-1000
 387 00ac 1F85EB51 		.word	1374389535
 388 00b0 08FDFFFF 		.word	-760
 389              		.cfi_endproc
 390              	.LFE65:
 391              		.size	motor_position_pid, .-motor_position_pid
 392              		.section	.text.motor_position_pid_ff_1,"ax",%progbits
 393              		.align	2
 394              		.global	motor_position_pid_ff_1
 395              		.thumb
 396              		.thumb_func
 397              		.type	motor_position_pid_ff_1, %function
 398              	motor_position_pid_ff_1:
 399              	.LFB66:
 188:..\src/control.c **** 
 189:..\src/control.c **** //Motor position controller - non blocking. PID + Feed Forward (FF)
 190:..\src/control.c **** //The FF term comes from the calling function, it's added to the output.
 191:..\src/control.c **** int32 motor_position_pid_ff_1(int32 wanted_pos, int32 actual_pos, int32 ff)
 192:..\src/control.c **** {
 400              		.loc 1 192 0
 401              		.cfi_startproc
 402              		@ args = 0, pretend = 0, frame = 0
 403              		@ frame_needed = 0, uses_anonymous_args = 0
 404              	.LVL18:
 405 0000 70B5     		push	{r4, r5, r6, lr}
 406              		.cfi_def_cfa_offset 16
 407              		.cfi_offset 4, -16
 408              		.cfi_offset 5, -12
 409              		.cfi_offset 6, -8
 410              		.cfi_offset 14, -4
 411              	.LVL19:
 193:..\src/control.c **** 	int32 p = 0, i = 0, d = 0;
 194:..\src/control.c **** 	int32 pwm = 0;
 195:..\src/control.c **** 
 196:..\src/control.c **** 	//Position values:
 197:..\src/control.c **** 	ctrl.position.pos = actual_pos;
 412              		.loc 1 197 0
 413 0002 214C     		ldr	r4, .L30
 414 0004 A165     		str	r1, [r4, #88]
 198:..\src/control.c **** 	ctrl.position.setp = wanted_pos;
 415              		.loc 1 198 0
 416 0006 E065     		str	r0, [r4, #92]
 199:..\src/control.c **** 	
 200:..\src/control.c **** 	//Errors:
 201:..\src/control.c **** 	ctrl.position.error = ctrl.position.pos - ctrl.position.setp;
 417              		.loc 1 201 0
 418 0008 A36D     		ldr	r3, [r4, #88]
 419 000a E16D     		ldr	r1, [r4, #92]
 420              	.LVL20:
 421 000c 5B1A     		subs	r3, r3, r1
 422 000e 2367     		str	r3, [r4, #112]
 202:..\src/control.c **** 	ctrl.position.error_sum = ctrl.position.error_sum + ctrl.position.error;
 423              		.loc 1 202 0
 424 0010 A16F     		ldr	r1, [r4, #120]
ARM GAS  C:\Users\Alex\AppData\Local\Temp\cc258SWo.s 			page 12


 425 0012 236F     		ldr	r3, [r4, #112]
 426 0014 0B44     		add	r3, r3, r1
 427 0016 A367     		str	r3, [r4, #120]
 203:..\src/control.c **** 	//ctrl.position.error_dif ToDo
 204:..\src/control.c **** 	
 205:..\src/control.c **** 	//Saturate cumulative error
 206:..\src/control.c **** 	if(ctrl.position.error_sum >= MAX_CUMULATIVE_ERROR)
 428              		.loc 1 206 0
 429 0018 A36F     		ldr	r3, [r4, #120]
 430 001a B3F57A7F 		cmp	r3, #1000
 431 001e 02DB     		blt	.L23
 207:..\src/control.c **** 		ctrl.position.error_sum = MAX_CUMULATIVE_ERROR;
 432              		.loc 1 207 0
 433 0020 4FF47A71 		mov	r1, #1000
 434 0024 A167     		str	r1, [r4, #120]
 435              	.L23:
 208:..\src/control.c **** 	if(ctrl.position.error_sum <= -MAX_CUMULATIVE_ERROR)
 436              		.loc 1 208 0
 437 0026 184B     		ldr	r3, .L30
 438 0028 9B6F     		ldr	r3, [r3, #120]
 439 002a 13F57A7F 		cmn	r3, #1000
 440 002e 02DC     		bgt	.L24
 209:..\src/control.c **** 		ctrl.position.error_sum = -MAX_CUMULATIVE_ERROR;
 441              		.loc 1 209 0
 442 0030 1649     		ldr	r1, .L30+4
 443 0032 154B     		ldr	r3, .L30
 444 0034 9967     		str	r1, [r3, #120]
 445              	.L24:
 210:..\src/control.c **** 	
 211:..\src/control.c **** 	//Proportional term
 212:..\src/control.c **** 	p = (ctrl.position.gain.P_KP * ctrl.position.error) / 100;
 446              		.loc 1 212 0
 447 0036 144E     		ldr	r6, .L30
 448 0038 B6F84C40 		ldrh	r4, [r6, #76]
 449 003c A4B2     		uxth	r4, r4
 450 003e 316F     		ldr	r1, [r6, #112]
 451 0040 01FB04F4 		mul	r4, r1, r4
 452 0044 1249     		ldr	r1, .L30+8
 453 0046 81FB0403 		smull	r0, r3, r1, r4
 454              	.LVL21:
 455 004a E417     		asrs	r4, r4, #31
 456 004c C4EB6315 		rsb	r5, r4, r3, asr #5
 457              	.LVL22:
 213:..\src/control.c **** 	//Integral term
 214:..\src/control.c **** 	i = (ctrl.position.gain.P_KI * ctrl.position.error_sum) / 100;
 458              		.loc 1 214 0
 459 0050 B6F84E30 		ldrh	r3, [r6, #78]
 460 0054 9BB2     		uxth	r3, r3
 461 0056 B46F     		ldr	r4, [r6, #120]
 462 0058 04FB03F3 		mul	r3, r4, r3
 463 005c 81FB0310 		smull	r1, r0, r1, r3
 464 0060 D917     		asrs	r1, r3, #31
 465 0062 C1EB6011 		rsb	r1, r1, r0, asr #5
 466              	.LVL23:
 215:..\src/control.c **** 	//Derivative term
 216:..\src/control.c **** 	d = 0;	//ToDo
 217:..\src/control.c **** 	
ARM GAS  C:\Users\Alex\AppData\Local\Temp\cc258SWo.s 			page 13


 218:..\src/control.c **** 	//Output
 219:..\src/control.c **** 	pwm = (p + i + d) + ff;		//
 467              		.loc 1 219 0
 468 0066 6B18     		adds	r3, r5, r1
 469 0068 9818     		adds	r0, r3, r2
 470              	.LVL24:
 220:..\src/control.c **** 	
 221:..\src/control.c **** 	//Saturates PWM to low values
 222:..\src/control.c **** 	if(pwm >= POS_PWM_LIMIT)
 471              		.loc 1 222 0
 472 006a B0F53E7F 		cmp	r0, #760
 473 006e 01DB     		blt	.L25
 223:..\src/control.c **** 		pwm = POS_PWM_LIMIT;
 474              		.loc 1 223 0
 475 0070 4FF43E70 		mov	r0, #760
 476              	.LVL25:
 477              	.L25:
 224:..\src/control.c **** 	if(pwm <= -POS_PWM_LIMIT)
 478              		.loc 1 224 0
 479 0074 10F53E7F 		cmn	r0, #760
 480 0078 00DC     		bgt	.L26
 225:..\src/control.c **** 		pwm = -POS_PWM_LIMIT;
 481              		.loc 1 225 0
 482 007a 0648     		ldr	r0, .L30+12
 483              	.LVL26:
 484              	.L26:
 226:..\src/control.c **** 	
 227:..\src/control.c **** 	motor_open_speed_1(pwm);
 485              		.loc 1 227 0
 486 007c 00B2     		sxth	r0, r0
 487              	.LVL27:
 488 007e FFF7FEFF 		bl	motor_open_speed_1
 489              	.LVL28:
 228:..\src/control.c **** 	
 229:..\src/control.c **** 	return ctrl.position.error;
 490              		.loc 1 229 0
 491 0082 014B     		ldr	r3, .L30
 492 0084 186F     		ldr	r0, [r3, #112]
 230:..\src/control.c **** }
 493              		.loc 1 230 0
 494 0086 70BD     		pop	{r4, r5, r6, pc}
 495              	.LVL29:
 496              	.L31:
 497              		.align	2
 498              	.L30:
 499 0088 00000000 		.word	ctrl
 500 008c 18FCFFFF 		.word	-1000
 501 0090 1F85EB51 		.word	1374389535
 502 0094 08FDFFFF 		.word	-760
 503              		.cfi_endproc
 504              	.LFE66:
 505              		.size	motor_position_pid_ff_1, .-motor_position_pid_ff_1
 506              		.section	.text.motor_current_pid,"ax",%progbits
 507              		.align	2
 508              		.global	motor_current_pid
 509              		.thumb
 510              		.thumb_func
ARM GAS  C:\Users\Alex\AppData\Local\Temp\cc258SWo.s 			page 14


 511              		.type	motor_current_pid, %function
 512              	motor_current_pid:
 513              	.LFB67:
 231:..\src/control.c **** 
 232:..\src/control.c **** //PI Current controller
 233:..\src/control.c **** //'wanted_curr' is centered at zero and is in the ±CURRENT_SPAN range
 234:..\src/control.c **** //'measured_curr' is also centered at 0
 235:..\src/control.c **** //The sign of 'wanted_curr' will change the rotation direction, not the polarity of the current (I 
 236:..\src/control.c **** int32 motor_current_pid(int32 wanted_curr, int32 measured_curr)
 237:..\src/control.c **** {
 514              		.loc 1 237 0
 515              		.cfi_startproc
 516              		@ args = 0, pretend = 0, frame = 0
 517              		@ frame_needed = 0, uses_anonymous_args = 0
 518              	.LVL30:
 519 0000 70B5     		push	{r4, r5, r6, lr}
 520              		.cfi_def_cfa_offset 16
 521              		.cfi_offset 4, -16
 522              		.cfi_offset 5, -12
 523              		.cfi_offset 6, -8
 524              		.cfi_offset 14, -4
 525              	.LVL31:
 238:..\src/control.c **** 	int curr_p = 0, curr_i = 0;
 239:..\src/control.c **** 	int curr_pwm = 0;
 240:..\src/control.c **** 	int sign = 0;
 241:..\src/control.c **** 	unsigned int uint_wanted_curr = 0;
 242:..\src/control.c **** 	int motor_current = 0;
 243:..\src/control.c **** 	int32 shifted_measured_curr = 0;
 244:..\src/control.c **** 	
 245:..\src/control.c **** 	//Clip out of range values
 246:..\src/control.c **** 	if(wanted_curr >= CURRENT_POS_LIMIT)
 526              		.loc 1 246 0
 527 0002 40F23973 		movw	r3, #1849
 528 0006 9842     		cmp	r0, r3
 529 0008 01DD     		ble	.L33
 247:..\src/control.c **** 		wanted_curr = CURRENT_POS_LIMIT;
 530              		.loc 1 247 0
 531 000a 40F23A70 		movw	r0, #1850
 532              	.LVL32:
 533              	.L33:
 248:..\src/control.c **** 	if(wanted_curr <= CURRENT_NEG_LIMIT)
 534              		.loc 1 248 0
 535 000e 6FF4E763 		mvn	r3, #1848
 536 0012 9842     		cmp	r0, r3
 537 0014 00DA     		bge	.L34
 249:..\src/control.c **** 		wanted_curr = CURRENT_NEG_LIMIT;
 538              		.loc 1 249 0
 539 0016 2448     		ldr	r0, .L47
 540              	.LVL33:
 541              	.L34:
 250:..\src/control.c **** 		
 251:..\src/control.c **** 	ctrl.current.setpoint_val = wanted_curr;
 542              		.loc 1 251 0
 543 0018 244B     		ldr	r3, .L47+4
 544 001a 9863     		str	r0, [r3, #56]
 252:..\src/control.c **** 	
 253:..\src/control.c **** 	//Sign extracted from wanted_curr:
ARM GAS  C:\Users\Alex\AppData\Local\Temp\cc258SWo.s 			page 15


 254:..\src/control.c **** 	if(wanted_curr < 0)
 545              		.loc 1 254 0
 546 001c 0028     		cmp	r0, #0
 547 001e 03DA     		bge	.L35
 548              	.LVL34:
 255:..\src/control.c **** 	{
 256:..\src/control.c **** 		sign = -1;
 257:..\src/control.c **** 		uint_wanted_curr = -wanted_curr;
 549              		.loc 1 257 0
 550 0020 4042     		negs	r0, r0
 551              	.LVL35:
 256:..\src/control.c **** 		uint_wanted_curr = -wanted_curr;
 552              		.loc 1 256 0
 553 0022 4FF0FF35 		mov	r5, #-1
 554 0026 00E0     		b	.L36
 555              	.LVL36:
 556              	.L35:
 258:..\src/control.c **** 	}
 259:..\src/control.c **** 	else
 260:..\src/control.c **** 	{
 261:..\src/control.c **** 		sign = 1;
 557              		.loc 1 261 0
 558 0028 0125     		movs	r5, #1
 559              	.LVL37:
 560              	.L36:
 262:..\src/control.c **** 		uint_wanted_curr = wanted_curr;
 263:..\src/control.c **** 	}
 264:..\src/control.c **** 	
 265:..\src/control.c **** 	//At this point 'uint_wanted_curr' is always a positive value.
 266:..\src/control.c **** 	//This is our setpoint.
 267:..\src/control.c **** 	
 268:..\src/control.c **** 	//From ADC value to motor current:
 269:..\src/control.c **** 	shifted_measured_curr = measured_curr + CURRENT_ZERO;
 561              		.loc 1 269 0
 562 002a 01F61B02 		addw	r2, r1, #2075
 563              	.LVL38:
 270:..\src/control.c **** 	if(shifted_measured_curr <= CURRENT_ZERO)
 564              		.loc 1 270 0
 565 002e 40F61B03 		movw	r3, #2075
 566 0032 9A42     		cmp	r2, r3
 567 0034 00DC     		bgt	.L37
 271:..\src/control.c **** 	{
 272:..\src/control.c **** 		//We are driving the motor (Q1 or Q3)
 273:..\src/control.c **** 		motor_current = CURRENT_ZERO - shifted_measured_curr;
 568              		.loc 1 273 0
 569 0036 4942     		negs	r1, r1
 570              	.LVL39:
 571              	.L37:
 274:..\src/control.c **** 	}
 275:..\src/control.c **** 	else
 276:..\src/control.c **** 	{
 277:..\src/control.c **** 		motor_current =  shifted_measured_curr - CURRENT_ZERO;
 278:..\src/control.c **** 	}
 279:..\src/control.c **** 	//ToDo above code seems complex for no valid reason
 280:..\src/control.c **** 	
 281:..\src/control.c **** 	//At this point 'motor_current' is always a positive value.
 282:..\src/control.c **** 	//This is our measured value.
ARM GAS  C:\Users\Alex\AppData\Local\Temp\cc258SWo.s 			page 16


 283:..\src/control.c **** 	
 284:..\src/control.c **** 	//Error and integral of errors:
 285:..\src/control.c **** 	ctrl.current.error = uint_wanted_curr - motor_current;					//Actual error
 572              		.loc 1 285 0
 573 0038 401A     		subs	r0, r0, r1
 574              	.LVL40:
 575 003a 1C4B     		ldr	r3, .L47+4
 576 003c D863     		str	r0, [r3, #60]
 577              	.LVL41:
 286:..\src/control.c **** 	ctrl.current.error_sum = ctrl.current.error_sum + ctrl.current.error;	//Cumulative error
 578              		.loc 1 286 0
 579 003e 596C     		ldr	r1, [r3, #68]
 580              	.LVL42:
 581 0040 DA6B     		ldr	r2, [r3, #60]
 582              	.LVL43:
 583 0042 0A44     		add	r2, r2, r1
 584 0044 5A64     		str	r2, [r3, #68]
 287:..\src/control.c **** 	
 288:..\src/control.c **** 	//Saturate cumulative error
 289:..\src/control.c **** 	if(ctrl.current.error_sum >= MAX_CUMULATIVE_ERROR)
 585              		.loc 1 289 0
 586 0046 5B6C     		ldr	r3, [r3, #68]
 587 0048 B3F57A7F 		cmp	r3, #1000
 588 004c 03DB     		blt	.L38
 290:..\src/control.c **** 		ctrl.current.error_sum = MAX_CUMULATIVE_ERROR;
 589              		.loc 1 290 0
 590 004e 4FF47A72 		mov	r2, #1000
 591 0052 164B     		ldr	r3, .L47+4
 592 0054 5A64     		str	r2, [r3, #68]
 593              	.L38:
 291:..\src/control.c **** 	if(ctrl.current.error_sum <= -MAX_CUMULATIVE_ERROR)
 594              		.loc 1 291 0
 595 0056 154B     		ldr	r3, .L47+4
 596 0058 5B6C     		ldr	r3, [r3, #68]
 597 005a 13F57A7F 		cmn	r3, #1000
 598 005e 02DC     		bgt	.L39
 292:..\src/control.c **** 		ctrl.current.error_sum = -MAX_CUMULATIVE_ERROR;
 599              		.loc 1 292 0
 600 0060 134A     		ldr	r2, .L47+8
 601 0062 124B     		ldr	r3, .L47+4
 602 0064 5A64     		str	r2, [r3, #68]
 603              	.L39:
 293:..\src/control.c **** 	
 294:..\src/control.c **** 	//Proportional term
 295:..\src/control.c **** 	curr_p = (int) ctrl.current.gain.I_KP * ctrl.current.error;
 604              		.loc 1 295 0
 605 0066 114A     		ldr	r2, .L47+4
 606 0068 138D     		ldrh	r3, [r2, #40]
 607 006a 9CB2     		uxth	r4, r3
 608 006c D66B     		ldr	r6, [r2, #60]
 609              	.LVL44:
 296:..\src/control.c **** 	//Integral term
 297:..\src/control.c **** 	curr_i = (int)(ctrl.current.gain.I_KI * ctrl.current.error_sum)/100;
 610              		.loc 1 297 0
 611 006e 518D     		ldrh	r1, [r2, #42]
 612 0070 89B2     		uxth	r1, r1
 613 0072 526C     		ldr	r2, [r2, #68]
ARM GAS  C:\Users\Alex\AppData\Local\Temp\cc258SWo.s 			page 17


 614 0074 02FB01F3 		mul	r3, r2, r1
 615 0078 0E48     		ldr	r0, .L47+12
 616 007a 80FB0320 		smull	r2, r0, r0, r3
 617 007e DB17     		asrs	r3, r3, #31
 618 0080 C3EB6013 		rsb	r3, r3, r0, asr #5
 619              	.LVL45:
 298:..\src/control.c **** 	//Add differential term here if needed
 299:..\src/control.c **** 	
 300:..\src/control.c **** 	//Output
 301:..\src/control.c **** 	curr_pwm = curr_p + curr_i;
 620              		.loc 1 301 0
 621 0084 06FB0430 		mla	r0, r6, r4, r3
 622              	.LVL46:
 302:..\src/control.c **** 	
 303:..\src/control.c **** 	//Saturates PWM
 304:..\src/control.c **** 	if(curr_pwm >= POS_PWM_LIMIT)
 623              		.loc 1 304 0
 624 0088 B0F53E7F 		cmp	r0, #760
 625 008c 01DB     		blt	.L40
 305:..\src/control.c **** 		curr_pwm = POS_PWM_LIMIT;
 626              		.loc 1 305 0
 627 008e 4FF43E70 		mov	r0, #760
 628              	.LVL47:
 629              	.L40:
 306:..\src/control.c **** 	if(curr_pwm <= 0)	//Should not happen
 630              		.loc 1 306 0
 631 0092 0028     		cmp	r0, #0
 632 0094 00DC     		bgt	.L41
 307:..\src/control.c **** 		curr_pwm = 0;
 633              		.loc 1 307 0
 634 0096 0020     		movs	r0, #0
 635              	.LVL48:
 636              	.L41:
 308:..\src/control.c **** 	
 309:..\src/control.c **** 	//Apply PWM
 310:..\src/control.c **** 	motor_open_speed_2(curr_pwm, sign);
 637              		.loc 1 310 0
 638 0098 00B2     		sxth	r0, r0
 639              	.LVL49:
 640 009a 2946     		mov	r1, r5
 641 009c FFF7FEFF 		bl	motor_open_speed_2
 642              	.LVL50:
 311:..\src/control.c **** 	
 312:..\src/control.c **** 	return ctrl.current.error;
 643              		.loc 1 312 0
 644 00a0 024B     		ldr	r3, .L47+4
 645 00a2 D86B     		ldr	r0, [r3, #60]
 313:..\src/control.c **** }
 646              		.loc 1 313 0
 647 00a4 70BD     		pop	{r4, r5, r6, pc}
 648              	.LVL51:
 649              	.L48:
 650 00a6 00BF     		.align	2
 651              	.L47:
 652 00a8 C6F8FFFF 		.word	-1850
 653 00ac 00000000 		.word	ctrl
 654 00b0 18FCFFFF 		.word	-1000
ARM GAS  C:\Users\Alex\AppData\Local\Temp\cc258SWo.s 			page 18


 655 00b4 1F85EB51 		.word	1374389535
 656              		.cfi_endproc
 657              	.LFE67:
 658              		.size	motor_current_pid, .-motor_current_pid
 659              		.section	.text.motor_current_pid_2,"ax",%progbits
 660              		.align	2
 661              		.global	motor_current_pid_2
 662              		.thumb
 663              		.thumb_func
 664              		.type	motor_current_pid_2, %function
 665              	motor_current_pid_2:
 666              	.LFB68:
 314:..\src/control.c **** 
 315:..\src/control.c **** //PI Current controller #2: speed optimized
 316:..\src/control.c **** //'wanted_curr' & 'measured_curr' are centered at zero and are in the ±CURRENT_SPAN range
 317:..\src/control.c **** //The sign of 'wanted_curr' will change the rotation direction, not the polarity of the current (I 
 318:..\src/control.c **** inline int32 motor_current_pid_2(int32 wanted_curr, int32 measured_curr)
 319:..\src/control.c **** {
 667              		.loc 1 319 0
 668              		.cfi_startproc
 669              		@ args = 0, pretend = 0, frame = 16
 670              		@ frame_needed = 0, uses_anonymous_args = 0
 671              	.LVL52:
 672 0000 00B5     		push	{lr}
 673              		.cfi_def_cfa_offset 4
 674              		.cfi_offset 14, -4
 675 0002 85B0     		sub	sp, sp, #20
 676              		.cfi_def_cfa_offset 24
 320:..\src/control.c **** 	volatile int32 curr_p = 0, curr_i = 0;
 677              		.loc 1 320 0
 678 0004 0023     		movs	r3, #0
 679 0006 0393     		str	r3, [sp, #12]
 680 0008 0293     		str	r3, [sp, #8]
 321:..\src/control.c **** 	volatile int32 curr_pwm = 0;
 681              		.loc 1 321 0
 682 000a 0193     		str	r3, [sp, #4]
 683              	.LVL53:
 322:..\src/control.c **** 	int32 sign = 0;
 323:..\src/control.c **** 	int32 uint_wanted_curr = 0;
 324:..\src/control.c **** 	int32 motor_current = 0;
 325:..\src/control.c **** 	int32 shifted_measured_curr = 0;
 326:..\src/control.c **** 	
 327:..\src/control.c **** 	//Clip out of range values
 328:..\src/control.c **** 	if(wanted_curr >= CURRENT_POS_LIMIT)
 684              		.loc 1 328 0
 685 000c 40F23973 		movw	r3, #1849
 686 0010 9842     		cmp	r0, r3
 687 0012 01DD     		ble	.L50
 329:..\src/control.c **** 		wanted_curr = CURRENT_POS_LIMIT;
 688              		.loc 1 329 0
 689 0014 40F23A70 		movw	r0, #1850
 690              	.LVL54:
 691              	.L50:
 330:..\src/control.c **** 	if(wanted_curr <= CURRENT_NEG_LIMIT)
 692              		.loc 1 330 0
 693 0018 6FF4E763 		mvn	r3, #1848
 694 001c 9842     		cmp	r0, r3
ARM GAS  C:\Users\Alex\AppData\Local\Temp\cc258SWo.s 			page 19


 695 001e 00DA     		bge	.L51
 331:..\src/control.c **** 		wanted_curr = CURRENT_NEG_LIMIT;		
 696              		.loc 1 331 0
 697 0020 3748     		ldr	r0, .L66
 698              	.LVL55:
 699              	.L51:
 332:..\src/control.c **** 	ctrl.current.setpoint_val = wanted_curr;
 700              		.loc 1 332 0
 701 0022 384B     		ldr	r3, .L66+4
 702 0024 9863     		str	r0, [r3, #56]
 333:..\src/control.c **** 	
 334:..\src/control.c **** 	//Sign extracted from wanted_curr:
 335:..\src/control.c **** 	if(wanted_curr < 0)
 703              		.loc 1 335 0
 704 0026 0028     		cmp	r0, #0
 705 0028 04DA     		bge	.L52
 706              	.LVL56:
 336:..\src/control.c **** 	{
 337:..\src/control.c **** 		sign = (-1)*PWM_SIGN;
 338:..\src/control.c **** 		MotorDirection_Control = 0;		//MotorDirection_Write(0);
 707              		.loc 1 338 0
 708 002a 0022     		movs	r2, #0
 709 002c 364B     		ldr	r3, .L66+8
 710 002e 1A70     		strb	r2, [r3]
 339:..\src/control.c **** 		uint_wanted_curr = -wanted_curr;
 711              		.loc 1 339 0
 712 0030 4042     		negs	r0, r0
 713              	.LVL57:
 714 0032 02E0     		b	.L53
 715              	.LVL58:
 716              	.L52:
 340:..\src/control.c **** 	}
 341:..\src/control.c **** 	else
 342:..\src/control.c **** 	{
 343:..\src/control.c **** 		sign = (1)*PWM_SIGN;
 344:..\src/control.c **** 		MotorDirection_Control = 1;		//MotorDirection_Write(1);
 717              		.loc 1 344 0
 718 0034 0122     		movs	r2, #1
 719 0036 344B     		ldr	r3, .L66+8
 720 0038 1A70     		strb	r2, [r3]
 721              	.LVL59:
 722              	.L53:
 345:..\src/control.c **** 		uint_wanted_curr = wanted_curr;
 346:..\src/control.c **** 	}
 347:..\src/control.c **** 	
 348:..\src/control.c **** 	//At this point 'uint_wanted_curr' is always a positive value.
 349:..\src/control.c **** 	//This is our setpoint.
 350:..\src/control.c **** 	
 351:..\src/control.c **** 	//From ADC value to motor current:
 352:..\src/control.c **** 	shifted_measured_curr = measured_curr + CURRENT_ZERO;
 723              		.loc 1 352 0
 724 003a 01F61B02 		addw	r2, r1, #2075
 725              	.LVL60:
 353:..\src/control.c **** 	if(shifted_measured_curr <= CURRENT_ZERO)
 726              		.loc 1 353 0
 727 003e 40F61B03 		movw	r3, #2075
 728 0042 9A42     		cmp	r2, r3
ARM GAS  C:\Users\Alex\AppData\Local\Temp\cc258SWo.s 			page 20


 729 0044 00DC     		bgt	.L54
 354:..\src/control.c **** 	{
 355:..\src/control.c **** 		//We are driving the motor (Q1 or Q3)
 356:..\src/control.c **** 		motor_current = CURRENT_ZERO - shifted_measured_curr;
 730              		.loc 1 356 0
 731 0046 4942     		negs	r1, r1
 732              	.LVL61:
 733              	.L54:
 357:..\src/control.c **** 	}
 358:..\src/control.c **** 	else
 359:..\src/control.c **** 	{
 360:..\src/control.c **** 		motor_current =  shifted_measured_curr - CURRENT_ZERO;
 361:..\src/control.c **** 	}
 362:..\src/control.c **** 	//ToDo above code seems complex for no valid reason
 363:..\src/control.c **** 	
 364:..\src/control.c **** 	//At this point 'motor_current' is always a positive value.
 365:..\src/control.c **** 	//This is our measured value.
 366:..\src/control.c **** 	
 367:..\src/control.c **** 	//Error and integral of errors:
 368:..\src/control.c **** 	ctrl.current.error = uint_wanted_curr - motor_current;					//Actual error
 734              		.loc 1 368 0
 735 0048 401A     		subs	r0, r0, r1
 736              	.LVL62:
 737 004a 2E4B     		ldr	r3, .L66+4
 738 004c D863     		str	r0, [r3, #60]
 369:..\src/control.c **** 	ctrl.current.error_sum = ctrl.current.error_sum + ctrl.current.error;	//Cumulative error
 739              		.loc 1 369 0
 740 004e 596C     		ldr	r1, [r3, #68]
 741              	.LVL63:
 742 0050 DA6B     		ldr	r2, [r3, #60]
 743              	.LVL64:
 744 0052 0A44     		add	r2, r2, r1
 745 0054 5A64     		str	r2, [r3, #68]
 370:..\src/control.c **** 	
 371:..\src/control.c **** 	//Saturate cumulative error
 372:..\src/control.c **** 	if(ctrl.current.error_sum >= MAX_CUMULATIVE_ERROR)
 746              		.loc 1 372 0
 747 0056 5B6C     		ldr	r3, [r3, #68]
 748 0058 B3F57A7F 		cmp	r3, #1000
 749 005c 03DB     		blt	.L55
 373:..\src/control.c **** 		ctrl.current.error_sum = MAX_CUMULATIVE_ERROR;
 750              		.loc 1 373 0
 751 005e 4FF47A72 		mov	r2, #1000
 752 0062 284B     		ldr	r3, .L66+4
 753 0064 5A64     		str	r2, [r3, #68]
 754              	.L55:
 374:..\src/control.c **** 	if(ctrl.current.error_sum <= -MAX_CUMULATIVE_ERROR)
 755              		.loc 1 374 0
 756 0066 274B     		ldr	r3, .L66+4
 757 0068 5B6C     		ldr	r3, [r3, #68]
 758 006a 13F57A7F 		cmn	r3, #1000
 759 006e 02DC     		bgt	.L56
 375:..\src/control.c **** 		ctrl.current.error_sum = -MAX_CUMULATIVE_ERROR;
 760              		.loc 1 375 0
 761 0070 264A     		ldr	r2, .L66+12
 762 0072 244B     		ldr	r3, .L66+4
 763 0074 5A64     		str	r2, [r3, #68]
ARM GAS  C:\Users\Alex\AppData\Local\Temp\cc258SWo.s 			page 21


 764              	.L56:
 376:..\src/control.c **** 	
 377:..\src/control.c **** 	//Proportional term
 378:..\src/control.c **** 	curr_p = (int) (ctrl.current.gain.I_KP * ctrl.current.error) / 100;
 765              		.loc 1 378 0
 766 0076 2348     		ldr	r0, .L66+4
 767 0078 028D     		ldrh	r2, [r0, #40]
 768 007a 92B2     		uxth	r2, r2
 769 007c C36B     		ldr	r3, [r0, #60]
 770 007e 03FB02F2 		mul	r2, r3, r2
 771 0082 2349     		ldr	r1, .L66+16
 772 0084 81FB02E3 		smull	lr, r3, r1, r2
 773 0088 D217     		asrs	r2, r2, #31
 774 008a C2EB6312 		rsb	r2, r2, r3, asr #5
 775 008e 0392     		str	r2, [sp, #12]
 379:..\src/control.c **** 	//Integral term
 380:..\src/control.c **** 	curr_i = (int)(ctrl.current.gain.I_KI * ctrl.current.error_sum) / 100;
 776              		.loc 1 380 0
 777 0090 438D     		ldrh	r3, [r0, #42]
 778 0092 9BB2     		uxth	r3, r3
 779 0094 426C     		ldr	r2, [r0, #68]
 780 0096 02FB03F3 		mul	r3, r2, r3
 781 009a 81FB0321 		smull	r2, r1, r1, r3
 782 009e DB17     		asrs	r3, r3, #31
 783 00a0 C3EB6113 		rsb	r3, r3, r1, asr #5
 784 00a4 0293     		str	r3, [sp, #8]
 381:..\src/control.c **** 	//Add differential term here if needed
 382:..\src/control.c **** 	//In both cases we divide by 100 to get a finer gain adjustement w/ integer values.
 383:..\src/control.c **** 	
 384:..\src/control.c **** 	//Output
 385:..\src/control.c **** 	curr_pwm = curr_p + curr_i;
 785              		.loc 1 385 0
 786 00a6 039A     		ldr	r2, [sp, #12]
 787 00a8 029B     		ldr	r3, [sp, #8]
 788 00aa 1344     		add	r3, r3, r2
 789 00ac 0193     		str	r3, [sp, #4]
 386:..\src/control.c **** 	
 387:..\src/control.c **** 	//Saturates PWM
 388:..\src/control.c **** 	if(curr_pwm >= POS_PWM_LIMIT)
 790              		.loc 1 388 0
 791 00ae 019B     		ldr	r3, [sp, #4]
 792 00b0 B3F53E7F 		cmp	r3, #760
 793 00b4 02DB     		blt	.L57
 389:..\src/control.c **** 		curr_pwm = POS_PWM_LIMIT;
 794              		.loc 1 389 0
 795 00b6 4FF43E73 		mov	r3, #760
 796 00ba 0193     		str	r3, [sp, #4]
 797              	.L57:
 390:..\src/control.c **** 	if(curr_pwm <= 0)	//Should not happen
 798              		.loc 1 390 0
 799 00bc 019B     		ldr	r3, [sp, #4]
 800 00be 002B     		cmp	r3, #0
 801 00c0 01DC     		bgt	.L58
 391:..\src/control.c **** 		curr_pwm = 0;
 802              		.loc 1 391 0
 803 00c2 0023     		movs	r3, #0
 804 00c4 0193     		str	r3, [sp, #4]
ARM GAS  C:\Users\Alex\AppData\Local\Temp\cc258SWo.s 			page 22


 805              	.L58:
 392:..\src/control.c **** 	
 393:..\src/control.c **** 	//Apply PWM
 394:..\src/control.c **** 	//motor_open_speed_2(curr_pwm, sign);
 395:..\src/control.c **** 	//Integrated to avoid a function call and a double saturation:
 396:..\src/control.c **** 	
 397:..\src/control.c **** 	//Write duty cycle to PWM module (avoiding double function calls)
 398:..\src/control.c **** 	curr_pwm = PWM1DC(curr_pwm);
 806              		.loc 1 398 0
 807 00c6 019B     		ldr	r3, [sp, #4]
 808 00c8 2A2B     		cmp	r3, #42
 809 00ca 01DD     		ble	.L63
 810              		.loc 1 398 0 is_stmt 0 discriminator 1
 811 00cc 019B     		ldr	r3, [sp, #4]
 812 00ce 00E0     		b	.L59
 813              	.L63:
 814              		.loc 1 398 0
 815 00d0 2A23     		movs	r3, #42
 816              	.L59:
 817              		.loc 1 398 0 discriminator 4
 818 00d2 0193     		str	r3, [sp, #4]
 399:..\src/control.c **** 	CY_SET_REG16(PWM_1_COMPARE1_LSB_PTR, (uint16)curr_pwm);					//PWM_1_WriteCompare1((uint16)curr_pwm
 819              		.loc 1 399 0 is_stmt 1 discriminator 4
 820 00d4 019B     		ldr	r3, [sp, #4]
 821 00d6 9BB2     		uxth	r3, r3
 822 00d8 0E4A     		ldr	r2, .L66+20
 823 00da 1380     		strh	r3, [r2]	@ movhi
 400:..\src/control.c **** 	CY_SET_REG16(PWM_1_COMPARE2_LSB_PTR, (uint16)(PWM2DC(curr_pwm)));	//PWM_1_WriteCompare2((uint16)((
 824              		.loc 1 400 0 discriminator 4
 825 00dc 019B     		ldr	r3, [sp, #4]
 826 00de 283B     		subs	r3, r3, #40
 827 00e0 152B     		cmp	r3, #21
 828 00e2 04DD     		ble	.L64
 829              		.loc 1 400 0 is_stmt 0 discriminator 1
 830 00e4 019B     		ldr	r3, [sp, #4]
 831 00e6 283B     		subs	r3, r3, #40
 832 00e8 C3F34F03 		ubfx	r3, r3, #1, #16
 833 00ec 00E0     		b	.L60
 834              	.L64:
 835              		.loc 1 400 0
 836 00ee 0A23     		movs	r3, #10
 837              	.L60:
 838              		.loc 1 400 0 discriminator 4
 839 00f0 094A     		ldr	r2, .L66+24
 840 00f2 1380     		strh	r3, [r2]	@ movhi
 401:..\src/control.c **** 	//Compare 2 can't be 0 or the ADC won't trigger => that's why I'm adding 1
 402:..\src/control.c **** 	
 403:..\src/control.c **** 	//ToDo: where's the sign applied???
 404:..\src/control.c **** 	
 405:..\src/control.c **** 	return ctrl.current.error;
 841              		.loc 1 405 0 is_stmt 1 discriminator 4
 842 00f4 034B     		ldr	r3, .L66+4
 843 00f6 D86B     		ldr	r0, [r3, #60]
 406:..\src/control.c **** }
 844              		.loc 1 406 0 discriminator 4
 845 00f8 05B0     		add	sp, sp, #20
 846              		.cfi_def_cfa_offset 4
ARM GAS  C:\Users\Alex\AppData\Local\Temp\cc258SWo.s 			page 23


 847              		@ sp needed
 848 00fa 5DF804FB 		ldr	pc, [sp], #4
 849              	.L67:
 850 00fe 00BF     		.align	2
 851              	.L66:
 852 0100 C6F8FFFF 		.word	-1850
 853 0104 00000000 		.word	ctrl
 854 0108 77650040 		.word	1073767799
 855 010c 18FCFFFF 		.word	-1000
 856 0110 1F85EB51 		.word	1374389535
 857 0114 506A0040 		.word	1073769040
 858 0118 706A0040 		.word	1073769072
 859              		.cfi_endproc
 860              	.LFE68:
 861              		.size	motor_current_pid_2, .-motor_current_pid_2
 862              		.section	.text.motor_impedance_encoder,"ax",%progbits
 863              		.align	2
 864              		.global	motor_impedance_encoder
 865              		.thumb
 866              		.thumb_func
 867              		.type	motor_impedance_encoder, %function
 868              	motor_impedance_encoder:
 869              	.LFB69:
 407:..\src/control.c **** 
 408:..\src/control.c **** // Impedance controller -- EJ Rouse, 8/11/14
 409:..\src/control.c **** // There will be filter transients for first few iterations -- maybe turn loops off for 100 ms?
 410:..\src/control.c **** // Variables created: stiffness, damping, prev_enc_count
 411:..\src/control.c **** int motor_impedance_encoder(int wanted_pos, int new_enc_count)
 412:..\src/control.c **** {
 870              		.loc 1 412 0
 871              		.cfi_startproc
 872              		@ args = 0, pretend = 0, frame = 32
 873              		@ frame_needed = 0, uses_anonymous_args = 0
 874              	.LVL65:
 875 0000 2DE9F04F 		push	{r4, r5, r6, r7, r8, r9, r10, fp, lr}
 876              		.cfi_def_cfa_offset 36
 877              		.cfi_offset 4, -36
 878              		.cfi_offset 5, -32
 879              		.cfi_offset 6, -28
 880              		.cfi_offset 7, -24
 881              		.cfi_offset 8, -20
 882              		.cfi_offset 9, -16
 883              		.cfi_offset 10, -12
 884              		.cfi_offset 11, -8
 885              		.cfi_offset 14, -4
 886 0004 89B0     		sub	sp, sp, #36
 887              		.cfi_def_cfa_offset 72
 888              	.LVL66:
 413:..\src/control.c **** 	// Initialize vars
 414:..\src/control.c **** 	int i_k = 0, i_b = 0;	
 415:..\src/control.c **** 	static long long prev_enc_count = 0, prev_vel1 = 0, prev_vel2 = 0, prev_vel3 = 0;
 416:..\src/control.c **** 	static long long prev_filt1 = 0, prev_filt2 = 0, prev_filt3 = 0; 
 417:..\src/control.c **** 	long long current_vel = 0, filt_vel = 0, current_val = 0;
 418:..\src/control.c **** 	static int enc_t0 = 0, enc_tm1 = 0, enc_tm2 = 0, enc_tm3 = 0, enc_tm4 = 0, enc_tm5 = 0, enc_tm6 = 
 419:..\src/control.c **** 	long long motor_direction = new_enc_count - prev_enc_count;
 889              		.loc 1 419 0
 890 0006 0A46     		mov	r2, r1
ARM GAS  C:\Users\Alex\AppData\Local\Temp\cc258SWo.s 			page 24


 891 0008 CB17     		asrs	r3, r1, #31
 892 000a CDE90023 		strd	r2, [sp]
 893              	.LVL67:
 420:..\src/control.c **** 	int modifier = 0;
 421:..\src/control.c **** 	
 422:..\src/control.c **** 	//Test code:
 423:..\src/control.c **** 	if(motor_direction <= 0)
 424:..\src/control.c **** 	{
 425:..\src/control.c **** 		//MotorDirection_Write(0);
 426:..\src/control.c **** 		//modifier = 50;
 427:..\src/control.c **** 	}
 428:..\src/control.c **** 	else
 429:..\src/control.c **** 	{
 430:..\src/control.c **** 		//MotorDirection_Write(1);
 431:..\src/control.c **** 		modifier = 0;
 432:..\src/control.c **** 	}
 433:..\src/control.c **** 	//End of test code
 434:..\src/control.c **** 
 435:..\src/control.c **** 	ctrl.impedance.error = new_enc_count - wanted_pos;		//Actual error
 894              		.loc 1 435 0
 895 000e 0B1A     		subs	r3, r1, r0
 896 0010 654E     		ldr	r6, .L70
 897 0012 C6F89430 		str	r3, [r6, #148]
 436:..\src/control.c **** 	in_control.setp = wanted_pos;
 898              		.loc 1 436 0
 899 0016 DFF8A4C1 		ldr	ip, .L70+20
 900 001a CCF80400 		str	r0, [ip, #4]
 437:..\src/control.c **** 	in_control.actual_val = new_enc_count;
 901              		.loc 1 437 0
 902 001e CCF80810 		str	r1, [ip, #8]
 438:..\src/control.c **** 	in_control.error = ctrl.impedance.error;
 903              		.loc 1 438 0
 904 0022 D6F89430 		ldr	r3, [r6, #148]
 905 0026 CCF80C30 		str	r3, [ip, #12]
 439:..\src/control.c **** 	
 440:..\src/control.c **** 	//Current for stiffness term. Gain factor depends on the encoder count.
 441:..\src/control.c **** 	#if(ACTIVE_PROJECT == PROJECT_CSEA_KNEE)
 442:..\src/control.c **** 		i_k = ctrl.impedance.gain.Z_K * (ctrl.impedance.error >> 4);
 443:..\src/control.c **** 	#else
 444:..\src/control.c **** 		i_k = ctrl.impedance.gain.Z_K * (ctrl.impedance.error >> 8);
 906              		.loc 1 444 0
 907 002a B6F88030 		ldrh	r3, [r6, #128]
 908 002e 9BB2     		uxth	r3, r3
 909 0030 0393     		str	r3, [sp, #12]
 910 0032 D6F89430 		ldr	r3, [r6, #148]
 911 0036 1A12     		asrs	r2, r3, #8
 912              	.LVL68:
 913 0038 0492     		str	r2, [sp, #16]
 914              	.LVL69:
 445:..\src/control.c **** 	#endif
 446:..\src/control.c **** 	
 447:..\src/control.c **** 	
 448:..\src/control.c **** 	//Velocity measured on n cycles:
 449:..\src/control.c **** 	enc_tm9 = enc_tm8; enc_tm8 = enc_tm7; enc_tm7 = enc_tm6; enc_tm6 = enc_tm5; enc_tm5 = enc_tm4; enc
 915              		.loc 1 449 0
 916 003a 5C4B     		ldr	r3, .L70+4
 917 003c 1A68     		ldr	r2, [r3]
ARM GAS  C:\Users\Alex\AppData\Local\Temp\cc258SWo.s 			page 25


 918              	.LVL70:
 919 003e 0592     		str	r2, [sp, #20]
 920 0040 5A60     		str	r2, [r3, #4]
 921 0042 9A68     		ldr	r2, [r3, #8]
 922 0044 0692     		str	r2, [sp, #24]
 923 0046 1A60     		str	r2, [r3]
 924 0048 DC68     		ldr	r4, [r3, #12]
 925 004a 9C60     		str	r4, [r3, #8]
 926 004c 1D69     		ldr	r5, [r3, #16]
 927 004e 0795     		str	r5, [sp, #28]
 928 0050 DD60     		str	r5, [r3, #12]
 929 0052 D3F81480 		ldr	r8, [r3, #20]
 930 0056 C3F81080 		str	r8, [r3, #16]
 931 005a D3F818A0 		ldr	r10, [r3, #24]
 932 005e C3F814A0 		str	r10, [r3, #20]
 933 0062 D3F81C90 		ldr	r9, [r3, #28]
 934 0066 C3F81890 		str	r9, [r3, #24]
 935 006a 1D6A     		ldr	r5, [r3, #32]
 936 006c DD61     		str	r5, [r3, #28]
 937 006e 5A6A     		ldr	r2, [r3, #36]
 938 0070 1A62     		str	r2, [r3, #32]
 450:..\src/control.c **** 	enc_t0 = new_enc_count;
 939              		.loc 1 450 0
 940 0072 5962     		str	r1, [r3, #36]
 451:..\src/control.c **** 	
 452:..\src/control.c **** 	//Damping term
 453:..\src/control.c **** 	//Difference velocity
 454:..\src/control.c **** 	//current_vel = (enc_t0 - enc_tm4);
 455:..\src/control.c **** 	//debug_var = current_vel;
 456:..\src/control.c **** 
 457:..\src/control.c ****  	filt_vel = (57*enc_t0)/220 + (73*enc_tm1)/660 - enc_tm2/264 - (37*enc_tm3)/440 - (43*enc_tm4)/330
 941              		.loc 1 457 0
 942 0074 C1EBC107 		rsb	r7, r1, r1, lsl #3
 943 0078 01EBC707 		add	r7, r1, r7, lsl #3
 944 007c DFF840E1 		ldr	lr, .L70+24
 945 0080 8EFB071B 		smull	r1, fp, lr, r7
 946              	.LVL71:
 947 0084 F917     		asrs	r1, r7, #31
 948 0086 C1EBEB01 		rsb	r1, r1, fp, asr #3
 949 008a 02EBC207 		add	r7, r2, r2, lsl #3
 950 008e 02EBC702 		add	r2, r2, r7, lsl #3
 951 0092 474F     		ldr	r7, .L70+8
 952 0094 87FB020B 		smull	r0, fp, r7, r2
 953              	.LVL72:
 954 0098 D217     		asrs	r2, r2, #31
 955 009a C2EB2B22 		rsb	r2, r2, fp, asr #8
 956 009e 1144     		add	r1, r1, r2
 957 00a0 444A     		ldr	r2, .L70+12
 958 00a2 82FB050B 		smull	r0, fp, r2, r5
 959 00a6 ED17     		asrs	r5, r5, #31
 960 00a8 C5EBAB15 		rsb	r5, r5, fp, asr #6
 961 00ac 491B     		subs	r1, r1, r5
 962 00ae 09EBC905 		add	r5, r9, r9, lsl #3
 963 00b2 09EB8509 		add	r9, r9, r5, lsl #2
 964 00b6 8EFB0905 		smull	r0, r5, lr, r9
 965 00ba 4FEAE979 		asr	r9, r9, #31
 966 00be C9EB2519 		rsb	r9, r9, r5, asr #4
ARM GAS  C:\Users\Alex\AppData\Local\Temp\cc258SWo.s 			page 26


 967 00c2 C9EB0101 		rsb	r1, r9, r1
 968 00c6 2B25     		movs	r5, #43
 969 00c8 05FB0AFA 		mul	r10, r5, r10
 970 00cc 87FB0A05 		smull	r0, r5, r7, r10
 971 00d0 4FEAEA7A 		asr	r10, r10, #31
 972 00d4 CAEBE51A 		rsb	r10, r10, r5, asr #7
 973 00d8 CAEB0101 		rsb	r1, r10, r1
 974 00dc 08EB4805 		add	r5, r8, r8, lsl #1
 975 00e0 C8EB0518 		rsb	r8, r8, r5, lsl #4
 976 00e4 87FB0805 		smull	r0, r5, r7, r8
 977 00e8 4FEAE878 		asr	r8, r8, #31
 978 00ec C8EBE518 		rsb	r8, r8, r5, asr #7
 979 00f0 C8EB0101 		rsb	r1, r8, r1
 980 00f4 4FF0350B 		mov	fp, #53
 981 00f8 079D     		ldr	r5, [sp, #28]
 982 00fa 0BFB05FB 		mul	fp, fp, r5
 983 00fe 8EFB0B0E 		smull	r0, lr, lr, fp
 984 0102 4FEAEB7B 		asr	fp, fp, #31
 985 0106 CBEB2E1B 		rsb	fp, fp, lr, asr #4
 986 010a CBEB0101 		rsb	r1, fp, r1
 987 010e 04EB0414 		add	r4, r4, r4, lsl #4
 988 0112 82FB0402 		smull	r0, r2, r2, r4
 989 0116 E417     		asrs	r4, r4, #31
 990 0118 C4EBA212 		rsb	r2, r4, r2, asr #6
 991 011c 8A1A     		subs	r2, r1, r2
 992 011e 0699     		ldr	r1, [sp, #24]
 993 0120 01EB0110 		add	r0, r1, r1, lsl #4
 994 0124 87FB00E7 		smull	lr, r7, r7, r0
 995 0128 C017     		asrs	r0, r0, #31
 996 012a C0EB2720 		rsb	r0, r0, r7, asr #8
 997 012e 0244     		add	r2, r2, r0
 998 0130 0599     		ldr	r1, [sp, #20]
 999 0132 01EB4104 		add	r4, r1, r1, lsl #1
 1000 0136 2049     		ldr	r1, .L70+16
 1001 0138 81FB0401 		smull	r0, r1, r1, r4
 1002 013c E417     		asrs	r4, r4, #31
 1003 013e C4EBE104 		rsb	r4, r4, r1, asr #3
 1004 0142 2244     		add	r2, r2, r4
 1005 0144 1046     		mov	r0, r2
 1006 0146 D117     		asrs	r1, r2, #31
 1007              	.LVL73:
 458:..\src/control.c ****  	debug_var = filt_vel;
 1008              		.loc 1 458 0
 1009 0148 9A62     		str	r2, [r3, #40]
 459:..\src/control.c **** 	
 460:..\src/control.c ****  	i_b = ctrl.impedance.gain.Z_B * (filt_vel >> 5);
 1010              		.loc 1 460 0
 1011 014a B6F88240 		ldrh	r4, [r6, #130]
 1012 014e A4B2     		uxth	r4, r4
 1013 0150 5209     		lsrs	r2, r2, #5
 1014 0152 42EAC162 		orr	r2, r2, r1, lsl #27
 1015 0156 02FB04F2 		mul	r2, r2, r4
 1016              	.LVL74:
 461:..\src/control.c **** 	i_b += modifier;
 462:..\src/control.c **** 
 463:..\src/control.c **** 	//Output
 464:..\src/control.c **** 	current_val = (i_k + i_b);		// Impedance command, motor current in terms of effort (A)
ARM GAS  C:\Users\Alex\AppData\Local\Temp\cc258SWo.s 			page 27


 1017              		.loc 1 464 0
 1018 015a 039C     		ldr	r4, [sp, #12]
 1019 015c 049D     		ldr	r5, [sp, #16]
 1020 015e 05FB0422 		mla	r2, r5, r4, r2
 1021              	.LVL75:
 465:..\src/control.c **** 	
 466:..\src/control.c **** 	// Changes variables for derivative filtering
 467:..\src/control.c **** 	prev_enc_count = new_enc_count;
 1022              		.loc 1 467 0
 1023 0162 DDE90045 		ldrd	r4, [sp]
 1024 0166 C3E90C45 		strd	r4, [r3, #48]
 468:..\src/control.c **** 	prev_vel3 = prev_vel2;
 1025              		.loc 1 468 0
 1026 016a D3E91045 		ldrd	r4, [r3, #64]
 1027 016e C3E90E45 		strd	r4, [r3, #56]
 469:..\src/control.c **** 	prev_vel2 = prev_vel1;
 1028              		.loc 1 469 0
 1029 0172 D3E91245 		ldrd	r4, [r3, #72]
 1030 0176 C3E91045 		strd	r4, [r3, #64]
 470:..\src/control.c **** 	prev_vel1 = current_vel;
 1031              		.loc 1 470 0
 1032 017a 0024     		movs	r4, #0
 1033 017c 0025     		movs	r5, #0
 1034 017e C3E91245 		strd	r4, [r3, #72]
 471:..\src/control.c **** 	prev_filt3 = prev_filt2;
 1035              		.loc 1 471 0
 1036 0182 D3E91645 		ldrd	r4, [r3, #88]
 1037 0186 C3E91445 		strd	r4, [r3, #80]
 472:..\src/control.c **** 	prev_filt2 = prev_filt1;
 1038              		.loc 1 472 0
 1039 018a D3E91845 		ldrd	r4, [r3, #96]
 1040 018e C3E91645 		strd	r4, [r3, #88]
 473:..\src/control.c **** 	prev_filt1 = filt_vel;
 1041              		.loc 1 473 0
 1042 0192 C3E91801 		strd	r0, [r3, #96]
 474:..\src/control.c **** 
 475:..\src/control.c **** 	ctrl.current.setpoint_val = (int32)current_val;
 1043              		.loc 1 475 0
 1044 0196 B263     		str	r2, [r6, #56]
 476:..\src/control.c **** 	in_control.output = ctrl.current.setpoint_val;
 1045              		.loc 1 476 0
 1046 0198 B36B     		ldr	r3, [r6, #56]
 1047 019a CCF81030 		str	r3, [ip, #16]
 477:..\src/control.c **** 
 478:..\src/control.c **** 	return ctrl.impedance.error;
 1048              		.loc 1 478 0
 1049 019e D6F89400 		ldr	r0, [r6, #148]
 1050              	.LVL76:
 479:..\src/control.c **** }
 1051              		.loc 1 479 0
 1052 01a2 09B0     		add	sp, sp, #36
 1053              		.cfi_def_cfa_offset 36
 1054              	.LVL77:
 1055              		@ sp needed
 1056 01a4 BDE8F08F 		pop	{r4, r5, r6, r7, r8, r9, r10, fp, pc}
 1057              	.LVL78:
 1058              	.L71:
ARM GAS  C:\Users\Alex\AppData\Local\Temp\cc258SWo.s 			page 28


 1059              		.align	2
 1060              	.L70:
 1061 01a8 00000000 		.word	ctrl
 1062 01ac 00000000 		.word	.LANCHOR0
 1063 01b0 35064C63 		.word	1665926709
 1064 01b4 E1830F3E 		.word	1041204193
 1065 01b8 67666666 		.word	1717986919
 1066 01bc 00000000 		.word	in_control
 1067 01c0 95204F09 		.word	156180629
 1068              		.cfi_endproc
 1069              	.LFE69:
 1070              		.size	motor_impedance_encoder, .-motor_impedance_encoder
 1071              		.section	.text.test_current_tracking_blocking,"ax",%progbits
 1072              		.align	2
 1073              		.global	test_current_tracking_blocking
 1074              		.thumb
 1075              		.thumb_func
 1076              		.type	test_current_tracking_blocking, %function
 1077              	test_current_tracking_blocking:
 1078              	.LFB70:
 480:..\src/control.c **** 
 481:..\src/control.c **** //****************************************************************************
 482:..\src/control.c **** // Test Function(s) - Use with care!
 483:..\src/control.c **** //****************************************************************************
 484:..\src/control.c **** 
 485:..\src/control.c **** //Use this to test the current controller
 486:..\src/control.c **** void test_current_tracking_blocking(void)
 487:..\src/control.c **** {
 1079              		.loc 1 487 0
 1080              		.cfi_startproc
 1081              		@ args = 0, pretend = 0, frame = 0
 1082              		@ frame_needed = 0, uses_anonymous_args = 0
 1083 0000 08B5     		push	{r3, lr}
 1084              		.cfi_def_cfa_offset 8
 1085              		.cfi_offset 3, -8
 1086              		.cfi_offset 14, -4
 488:..\src/control.c **** 	init_sine_gen();
 1087              		.loc 1 488 0
 1088 0002 FFF7FEFF 		bl	init_sine_gen
 1089              	.LVL79:
 489:..\src/control.c **** 	ctrl.active_ctrl = CTRL_CURRENT;
 1090              		.loc 1 489 0
 1091 0006 0D4B     		ldr	r3, .L75
 1092 0008 0322     		movs	r2, #3
 1093 000a 1A70     		strb	r2, [r3]
 490:..\src/control.c **** 	ctrl.current.gain.I_KP = 30;
 1094              		.loc 1 490 0
 1095 000c 1E22     		movs	r2, #30
 1096 000e 1A85     		strh	r2, [r3, #40]	@ movhi
 491:..\src/control.c **** 	ctrl.current.gain.I_KI = 25;
 1097              		.loc 1 491 0
 1098 0010 1922     		movs	r2, #25
 1099 0012 5A85     		strh	r2, [r3, #42]	@ movhi
 492:..\src/control.c **** 	Coast_Brake_Write(1);	//Brake
 1100              		.loc 1 492 0
 1101 0014 0120     		movs	r0, #1
 1102 0016 FFF7FEFF 		bl	Coast_Brake_Write
ARM GAS  C:\Users\Alex\AppData\Local\Temp\cc258SWo.s 			page 29


 1103              	.LVL80:
 1104              	.L73:
 493:..\src/control.c **** 	
 494:..\src/control.c **** 	uint16 val = 0;
 495:..\src/control.c **** 	while(1)
 496:..\src/control.c **** 	{
 497:..\src/control.c **** 		//val = output_sine();
 498:..\src/control.c **** 		//val = output_arb();		
 499:..\src/control.c **** 		//ctrl.current.setpoint_val = val*2 + 125;
 500:..\src/control.c **** 		
 501:..\src/control.c **** 		//RGB LED = Hall code:
 502:..\src/control.c **** 		LED_R_Write(EX1_Read());
 1105              		.loc 1 502 0 discriminator 1
 1106 001a FFF7FEFF 		bl	EX1_Read
 1107              	.LVL81:
 1108 001e FFF7FEFF 		bl	LED_R_Write
 1109              	.LVL82:
 503:..\src/control.c **** 		LED_G_Write(EX2_Read());
 1110              		.loc 1 503 0 discriminator 1
 1111 0022 FFF7FEFF 		bl	EX2_Read
 1112              	.LVL83:
 1113 0026 FFF7FEFF 		bl	LED_G_Write
 1114              	.LVL84:
 504:..\src/control.c **** 		LED_B_Write(EX3_Read());
 1115              		.loc 1 504 0 discriminator 1
 1116 002a FFF7FEFF 		bl	EX3_Read
 1117              	.LVL85:
 1118 002e FFF7FEFF 		bl	LED_B_Write
 1119              	.LVL86:
 505:..\src/control.c **** 		
 506:..\src/control.c **** 		val = 200;	//output_step();
 507:..\src/control.c **** 		ctrl.current.setpoint_val = val;
 1120              		.loc 1 507 0 discriminator 1
 1121 0032 C822     		movs	r2, #200
 1122 0034 014B     		ldr	r3, .L75
 1123 0036 9A63     		str	r2, [r3, #56]
 508:..\src/control.c **** 	}
 1124              		.loc 1 508 0 discriminator 1
 1125 0038 EFE7     		b	.L73
 1126              	.L76:
 1127 003a 00BF     		.align	2
 1128              	.L75:
 1129 003c 00000000 		.word	ctrl
 1130              		.cfi_endproc
 1131              	.LFE70:
 1132              		.size	test_current_tracking_blocking, .-test_current_tracking_blocking
 1133              		.section	.text.motor_cancel_damping_test_code_blocking,"ax",%progbits
 1134              		.align	2
 1135              		.global	motor_cancel_damping_test_code_blocking
 1136              		.thumb
 1137              		.thumb_func
 1138              		.type	motor_cancel_damping_test_code_blocking, %function
 1139              	motor_cancel_damping_test_code_blocking:
 1140              	.LFB71:
 509:..\src/control.c **** }
 510:..\src/control.c **** 
 511:..\src/control.c **** //Can we cancel the damping by changing the Hall direction based on the encoder? Yes.
ARM GAS  C:\Users\Alex\AppData\Local\Temp\cc258SWo.s 			page 30


 512:..\src/control.c **** void motor_cancel_damping_test_code_blocking(void)
 513:..\src/control.c **** {
 1141              		.loc 1 513 0
 1142              		.cfi_startproc
 1143              		@ Volatile: function does not return.
 1144              		@ args = 0, pretend = 0, frame = 0
 1145              		@ frame_needed = 0, uses_anonymous_args = 0
 1146 0000 08B5     		push	{r3, lr}
 1147              		.cfi_def_cfa_offset 8
 1148              		.cfi_offset 3, -8
 1149              		.cfi_offset 14, -4
 514:..\src/control.c **** 	ctrl.active_ctrl = CTRL_OPEN;	
 1150              		.loc 1 514 0
 1151 0002 0120     		movs	r0, #1
 1152 0004 144B     		ldr	r3, .L82
 1153 0006 1870     		strb	r0, [r3]
 515:..\src/control.c **** 	Coast_Brake_Write(1);	//Brake
 1154              		.loc 1 515 0
 1155 0008 FFF7FEFF 		bl	Coast_Brake_Write
 1156              	.LVL87:
 516:..\src/control.c **** 	motor_open_speed_1(0);
 1157              		.loc 1 516 0
 1158 000c 0020     		movs	r0, #0
 1159 000e FFF7FEFF 		bl	motor_open_speed_1
 1160              	.LVL88:
 1161              	.L80:
 517:..\src/control.c **** 	
 518:..\src/control.c **** 	while(1)
 519:..\src/control.c **** 	{	
 520:..\src/control.c **** 		//RGB LED = Hall code:
 521:..\src/control.c **** 		LED_R_Write(EX1_Read());
 1162              		.loc 1 521 0
 1163 0012 FFF7FEFF 		bl	EX1_Read
 1164              	.LVL89:
 1165 0016 FFF7FEFF 		bl	LED_R_Write
 1166              	.LVL90:
 522:..\src/control.c **** 		LED_G_Write(EX2_Read());
 1167              		.loc 1 522 0
 1168 001a FFF7FEFF 		bl	EX2_Read
 1169              	.LVL91:
 1170 001e FFF7FEFF 		bl	LED_G_Write
 1171              	.LVL92:
 523:..\src/control.c **** 		LED_B_Write(EX3_Read());
 1172              		.loc 1 523 0
 1173 0022 FFF7FEFF 		bl	EX3_Read
 1174              	.LVL93:
 1175 0026 FFF7FEFF 		bl	LED_B_Write
 1176              	.LVL94:
 524:..\src/control.c **** 		
 525:..\src/control.c **** 		//Refresh encoder data:
 526:..\src/control.c **** 		encoder.count_last = encoder.count;	
 1177              		.loc 1 526 0
 1178 002a 0C4C     		ldr	r4, .L82+4
 1179 002c 2368     		ldr	r3, [r4]
 1180 002e 6360     		str	r3, [r4, #4]
 527:..\src/control.c **** 		encoder.count = QuadDec_1_GetCounter();
 1181              		.loc 1 527 0
ARM GAS  C:\Users\Alex\AppData\Local\Temp\cc258SWo.s 			page 31


 1182 0030 FFF7FEFF 		bl	QuadDec_1_GetCounter
 1183              	.LVL95:
 1184 0034 2060     		str	r0, [r4]
 528:..\src/control.c **** 		encoder.count_dif = encoder.count - encoder.count_last;
 1185              		.loc 1 528 0
 1186 0036 6368     		ldr	r3, [r4, #4]
 1187 0038 C01A     		subs	r0, r0, r3
 1188 003a A060     		str	r0, [r4, #8]
 529:..\src/control.c **** 		
 530:..\src/control.c **** 		//Act based on the sign:
 531:..\src/control.c **** 		if(encoder.count_dif >= 0)
 1189              		.loc 1 531 0
 1190 003c 0028     		cmp	r0, #0
 1191 003e 03DB     		blt	.L78
 532:..\src/control.c **** 		{
 533:..\src/control.c **** 			MotorDirection_Write(0);
 1192              		.loc 1 533 0
 1193 0040 0020     		movs	r0, #0
 1194 0042 FFF7FEFF 		bl	MotorDirection_Write
 1195              	.LVL96:
 1196 0046 02E0     		b	.L79
 1197              	.L78:
 534:..\src/control.c **** 		}
 535:..\src/control.c **** 		else
 536:..\src/control.c **** 		{
 537:..\src/control.c **** 			MotorDirection_Write(1);
 1198              		.loc 1 537 0
 1199 0048 0120     		movs	r0, #1
 1200 004a FFF7FEFF 		bl	MotorDirection_Write
 1201              	.LVL97:
 1202              	.L79:
 538:..\src/control.c **** 		}		
 539:..\src/control.c **** 		
 540:..\src/control.c **** 		//Loop delay (otherwise we don't get a good difference)
 541:..\src/control.c **** 		CyDelay(10);
 1203              		.loc 1 541 0
 1204 004e 0A20     		movs	r0, #10
 1205 0050 FFF7FEFF 		bl	CyDelay
 1206              	.LVL98:
 542:..\src/control.c **** 	}
 1207              		.loc 1 542 0
 1208 0054 DDE7     		b	.L80
 1209              	.L83:
 1210 0056 00BF     		.align	2
 1211              	.L82:
 1212 0058 00000000 		.word	ctrl
 1213 005c 00000000 		.word	encoder
 1214              		.cfi_endproc
 1215              	.LFE71:
 1216              		.size	motor_cancel_damping_test_code_blocking, .-motor_cancel_damping_test_code_blocking
 1217              		.section	.text.in_control_combine,"ax",%progbits
 1218              		.align	2
 1219              		.global	in_control_combine
 1220              		.thumb
 1221              		.thumb_func
 1222              		.type	in_control_combine, %function
 1223              	in_control_combine:
ARM GAS  C:\Users\Alex\AppData\Local\Temp\cc258SWo.s 			page 32


 1224              	.LFB72:
 543:..\src/control.c **** }
 544:..\src/control.c **** 
 545:..\src/control.c **** //in_control.combined = [CTRL2:0][MOT_DIR][PWM]
 546:..\src/control.c **** void in_control_combine(void)
 547:..\src/control.c **** {
 1225              		.loc 1 547 0
 1226              		.cfi_startproc
 1227              		@ args = 0, pretend = 0, frame = 0
 1228              		@ frame_needed = 0, uses_anonymous_args = 0
 1229              		@ link register save eliminated.
 1230              	.LVL99:
 548:..\src/control.c **** 	uint16_t tmp = 0;
 549:..\src/control.c **** 	
 550:..\src/control.c **** 	tmp = ((in_control.controller & 0x03) << 13) | ((in_control.mot_dir & 0x01) << 12) | (in_control.p
 1231              		.loc 1 550 0
 1232 0000 0748     		ldr	r0, .L85
 1233 0002 0378     		ldrb	r3, [r0]	@ zero_extendqisi2
 1234 0004 03F00303 		and	r3, r3, #3
 1235 0008 827D     		ldrb	r2, [r0, #22]	@ zero_extendqisi2
 1236 000a 02F00102 		and	r2, r2, #1
 1237 000e 1203     		lsls	r2, r2, #12
 1238 0010 818A     		ldrh	r1, [r0, #20]
 1239 0012 42EA4333 		orr	r3, r2, r3, lsl #13
 1240 0016 C1F30B02 		ubfx	r2, r1, #0, #12
 1241 001a 1343     		orrs	r3, r3, r2
 1242              	.LVL100:
 551:..\src/control.c **** 	in_control.combined = tmp;
 1243              		.loc 1 551 0
 1244 001c 4383     		strh	r3, [r0, #26]	@ movhi
 1245 001e 7047     		bx	lr
 1246              	.L86:
 1247              		.align	2
 1248              	.L85:
 1249 0020 00000000 		.word	in_control
 1250              		.cfi_endproc
 1251              	.LFE72:
 1252              		.size	in_control_combine, .-in_control_combine
 1253              		.section	.text.in_control_get_pwm_dir,"ax",%progbits
 1254              		.align	2
 1255              		.global	in_control_get_pwm_dir
 1256              		.thumb
 1257              		.thumb_func
 1258              		.type	in_control_get_pwm_dir, %function
 1259              	in_control_get_pwm_dir:
 1260              	.LFB73:
 552:..\src/control.c **** }
 553:..\src/control.c **** 
 554:..\src/control.c **** //Reads the PWM and MOTOR_DIR values from hardware:
 555:..\src/control.c **** void in_control_get_pwm_dir(void)
 556:..\src/control.c **** {
 1261              		.loc 1 556 0
 1262              		.cfi_startproc
 1263              		@ args = 0, pretend = 0, frame = 0
 1264              		@ frame_needed = 0, uses_anonymous_args = 0
 1265 0000 10B5     		push	{r4, lr}
 1266              		.cfi_def_cfa_offset 8
ARM GAS  C:\Users\Alex\AppData\Local\Temp\cc258SWo.s 			page 33


 1267              		.cfi_offset 4, -8
 1268              		.cfi_offset 14, -4
 557:..\src/control.c **** 	in_control.pwm = PWM_1_ReadCompare1();
 1269              		.loc 1 557 0
 1270 0002 FFF7FEFF 		bl	PWM_1_ReadCompare1
 1271              	.LVL101:
 1272 0006 80B2     		uxth	r0, r0
 1273 0008 024C     		ldr	r4, .L89
 1274 000a A082     		strh	r0, [r4, #20]	@ movhi
 558:..\src/control.c **** 	in_control.mot_dir = MotorDirection_Read();
 1275              		.loc 1 558 0
 1276 000c FFF7FEFF 		bl	MotorDirection_Read
 1277              	.LVL102:
 1278 0010 A075     		strb	r0, [r4, #22]
 1279 0012 10BD     		pop	{r4, pc}
 1280              	.L90:
 1281              		.align	2
 1282              	.L89:
 1283 0014 00000000 		.word	in_control
 1284              		.cfi_endproc
 1285              	.LFE73:
 1286              		.size	in_control_get_pwm_dir, .-in_control_get_pwm_dir
 1287              		.global	debug_var
 1288              		.comm	in_control,60,4
 1289              		.comm	ctrl,164,4
 1290              		.bss
 1291              		.align	3
 1292              		.set	.LANCHOR0,. + 0
 1293              		.type	enc_tm8.10539, %object
 1294              		.size	enc_tm8.10539, 4
 1295              	enc_tm8.10539:
 1296 0000 00000000 		.space	4
 1297              		.type	enc_tm9.10540, %object
 1298              		.size	enc_tm9.10540, 4
 1299              	enc_tm9.10540:
 1300 0004 00000000 		.space	4
 1301              		.type	enc_tm7.10538, %object
 1302              		.size	enc_tm7.10538, 4
 1303              	enc_tm7.10538:
 1304 0008 00000000 		.space	4
 1305              		.type	enc_tm6.10537, %object
 1306              		.size	enc_tm6.10537, 4
 1307              	enc_tm6.10537:
 1308 000c 00000000 		.space	4
 1309              		.type	enc_tm5.10536, %object
 1310              		.size	enc_tm5.10536, 4
 1311              	enc_tm5.10536:
 1312 0010 00000000 		.space	4
 1313              		.type	enc_tm4.10535, %object
 1314              		.size	enc_tm4.10535, 4
 1315              	enc_tm4.10535:
 1316 0014 00000000 		.space	4
 1317              		.type	enc_tm3.10534, %object
 1318              		.size	enc_tm3.10534, 4
 1319              	enc_tm3.10534:
 1320 0018 00000000 		.space	4
 1321              		.type	enc_tm2.10533, %object
ARM GAS  C:\Users\Alex\AppData\Local\Temp\cc258SWo.s 			page 34


 1322              		.size	enc_tm2.10533, 4
 1323              	enc_tm2.10533:
 1324 001c 00000000 		.space	4
 1325              		.type	enc_tm1.10532, %object
 1326              		.size	enc_tm1.10532, 4
 1327              	enc_tm1.10532:
 1328 0020 00000000 		.space	4
 1329              		.type	enc_t0.10531, %object
 1330              		.size	enc_t0.10531, 4
 1331              	enc_t0.10531:
 1332 0024 00000000 		.space	4
 1333              		.type	debug_var, %object
 1334              		.size	debug_var, 4
 1335              	debug_var:
 1336 0028 00000000 		.space	4
 1337 002c 00000000 		.space	4
 1338              		.type	prev_enc_count.10521, %object
 1339              		.size	prev_enc_count.10521, 8
 1340              	prev_enc_count.10521:
 1341 0030 00000000 		.space	8
 1341      00000000 
 1342              		.type	prev_vel3.10524, %object
 1343              		.size	prev_vel3.10524, 8
 1344              	prev_vel3.10524:
 1345 0038 00000000 		.space	8
 1345      00000000 
 1346              		.type	prev_vel2.10523, %object
 1347              		.size	prev_vel2.10523, 8
 1348              	prev_vel2.10523:
 1349 0040 00000000 		.space	8
 1349      00000000 
 1350              		.type	prev_vel1.10522, %object
 1351              		.size	prev_vel1.10522, 8
 1352              	prev_vel1.10522:
 1353 0048 00000000 		.space	8
 1353      00000000 
 1354              		.type	prev_filt3.10527, %object
 1355              		.size	prev_filt3.10527, 8
 1356              	prev_filt3.10527:
 1357 0050 00000000 		.space	8
 1357      00000000 
 1358              		.type	prev_filt2.10526, %object
 1359              		.size	prev_filt2.10526, 8
 1360              	prev_filt2.10526:
 1361 0058 00000000 		.space	8
 1361      00000000 
 1362              		.type	prev_filt1.10525, %object
 1363              		.size	prev_filt1.10525, 8
 1364              	prev_filt1.10525:
 1365 0060 00000000 		.space	8
 1365      00000000 
 1366              		.text
 1367              	.Letext0:
 1368              		.file 2 "c:\\program files (x86)\\cypress\\psoc creator\\3.3\\psoc creator\\import\\gnu\\arm\\4.9.
 1369              		.file 3 "c:\\program files (x86)\\cypress\\psoc creator\\3.3\\psoc creator\\import\\gnu\\arm\\4.9.
 1370              		.file 4 "Generated_Source\\PSoC5/cytypes.h"
 1371              		.file 5 "..\\inc/../../flexsea-system/inc/flexsea_cmd_control.h"
ARM GAS  C:\Users\Alex\AppData\Local\Temp\cc258SWo.s 			page 35


 1372              		.file 6 "..\\inc/../../flexsea-system/inc/flexsea_system.h"
 1373              		.file 7 "Generated_Source\\PSoC5/core_cm3.h"
 1374              		.file 8 "..\\inc/main_fsm.h"
 1375              		.file 9 "..\\inc/ext_input.h"
 1376              		.file 10 "..\\inc/motor.h"
 1377              		.file 11 "Generated_Source\\PSoC5/Coast_Brake.h"
 1378              		.file 12 "Generated_Source\\PSoC5/QuadDec_1.h"
 1379              		.file 13 "Generated_Source\\PSoC5/EX1.h"
 1380              		.file 14 "Generated_Source\\PSoC5/LED_R.h"
 1381              		.file 15 "Generated_Source\\PSoC5/EX2.h"
 1382              		.file 16 "Generated_Source\\PSoC5/LED_G.h"
 1383              		.file 17 "Generated_Source\\PSoC5/EX3.h"
 1384              		.file 18 "Generated_Source\\PSoC5/LED_B.h"
 1385              		.file 19 "Generated_Source\\PSoC5/MotorDirection.h"
 1386              		.file 20 "Generated_Source\\PSoC5/CyLib.h"
 1387              		.file 21 "Generated_Source\\PSoC5/PWM_1.h"
 1388              		.file 22 "..\\inc/trapez.h"
 1389              		.file 23 "..\\inc/gen_waveform.h"