ARM GAS  C:\Users\Alex\AppData\Local\Temp\cccCDN48.s 			page 1


   1              		.syntax unified
   2              		.cpu cortex-m3
   3              		.fpu softvfp
   4              		.eabi_attribute 20, 1
   5              		.eabi_attribute 21, 1
   6              		.eabi_attribute 23, 3
   7              		.eabi_attribute 24, 1
   8              		.eabi_attribute 25, 1
   9              		.eabi_attribute 26, 1
  10              		.eabi_attribute 30, 1
  11              		.eabi_attribute 34, 1
  12              		.eabi_attribute 18, 4
  13              		.thumb
  14              		.file	"cyfitter_cfg.c"
  15              		.text
  16              	.Ltext0:
  17              		.cfi_sections	.debug_frame
  18              		.section	.text.CyClockStartupError,"ax",%progbits
  19              		.align	2
  20              		.thumb
  21              		.thumb_func
  22              		.type	CyClockStartupError, %function
  23              	CyClockStartupError:
  24              	.LFB3:
  25              		.file 1 ".\\Generated_Source\\PSoC5\\cyfitter_cfg.c"
   1:.\Generated_Source\PSoC5/cyfitter_cfg.c **** /*******************************************************************************
   2:.\Generated_Source\PSoC5/cyfitter_cfg.c **** * File Name: cyfitter_cfg.c
   3:.\Generated_Source\PSoC5/cyfitter_cfg.c **** * 
   4:.\Generated_Source\PSoC5/cyfitter_cfg.c **** * PSoC Creator  3.3 CP2
   5:.\Generated_Source\PSoC5/cyfitter_cfg.c **** *
   6:.\Generated_Source\PSoC5/cyfitter_cfg.c **** * Description:
   7:.\Generated_Source\PSoC5/cyfitter_cfg.c **** * This file contains device initialization code.
   8:.\Generated_Source\PSoC5/cyfitter_cfg.c **** * Except for the user defined sections in CyClockStartupError(), this file should not be modified.
   9:.\Generated_Source\PSoC5/cyfitter_cfg.c **** * This file is automatically generated by PSoC Creator.
  10:.\Generated_Source\PSoC5/cyfitter_cfg.c **** *
  11:.\Generated_Source\PSoC5/cyfitter_cfg.c **** ********************************************************************************
  12:.\Generated_Source\PSoC5/cyfitter_cfg.c **** * Copyright (c) 2007-2015 Cypress Semiconductor.  All rights reserved.
  13:.\Generated_Source\PSoC5/cyfitter_cfg.c **** * You may use this file only in accordance with the license, terms, conditions, 
  14:.\Generated_Source\PSoC5/cyfitter_cfg.c **** * disclaimers, and limitations in the end user license agreement accompanying 
  15:.\Generated_Source\PSoC5/cyfitter_cfg.c **** * the software package with which this file was provided.
  16:.\Generated_Source\PSoC5/cyfitter_cfg.c **** ********************************************************************************/
  17:.\Generated_Source\PSoC5/cyfitter_cfg.c **** 
  18:.\Generated_Source\PSoC5/cyfitter_cfg.c **** #include <string.h>
  19:.\Generated_Source\PSoC5/cyfitter_cfg.c **** #include "cytypes.h"
  20:.\Generated_Source\PSoC5/cyfitter_cfg.c **** #include "cydevice_trm.h"
  21:.\Generated_Source\PSoC5/cyfitter_cfg.c **** #include "cyfitter.h"
  22:.\Generated_Source\PSoC5/cyfitter_cfg.c **** #include "CyLib.h"
  23:.\Generated_Source\PSoC5/cyfitter_cfg.c **** #include "cyfitter_cfg.h"
  24:.\Generated_Source\PSoC5/cyfitter_cfg.c **** 
  25:.\Generated_Source\PSoC5/cyfitter_cfg.c **** #define CY_NEED_CYCLOCKSTARTUPERROR 1
  26:.\Generated_Source\PSoC5/cyfitter_cfg.c **** 
  27:.\Generated_Source\PSoC5/cyfitter_cfg.c **** 
  28:.\Generated_Source\PSoC5/cyfitter_cfg.c **** #if defined(__GNUC__) || defined(__ARMCC_VERSION)
  29:.\Generated_Source\PSoC5/cyfitter_cfg.c ****     #define CYPACKED 
  30:.\Generated_Source\PSoC5/cyfitter_cfg.c ****     #define CYPACKED_ATTR __attribute__ ((packed))
  31:.\Generated_Source\PSoC5/cyfitter_cfg.c ****     #define CYALIGNED __attribute__ ((aligned))
  32:.\Generated_Source\PSoC5/cyfitter_cfg.c ****     #define CY_CFG_UNUSED __attribute__ ((unused))
ARM GAS  C:\Users\Alex\AppData\Local\Temp\cccCDN48.s 			page 2


  33:.\Generated_Source\PSoC5/cyfitter_cfg.c ****     #ifndef CY_CFG_SECTION
  34:.\Generated_Source\PSoC5/cyfitter_cfg.c ****         #define CY_CFG_SECTION __attribute__ ((section(".psocinit")))
  35:.\Generated_Source\PSoC5/cyfitter_cfg.c ****     #endif
  36:.\Generated_Source\PSoC5/cyfitter_cfg.c ****     
  37:.\Generated_Source\PSoC5/cyfitter_cfg.c ****     #if defined(__ARMCC_VERSION)
  38:.\Generated_Source\PSoC5/cyfitter_cfg.c ****         #define CY_CFG_MEMORY_BARRIER() __memory_changed()
  39:.\Generated_Source\PSoC5/cyfitter_cfg.c ****     #else
  40:.\Generated_Source\PSoC5/cyfitter_cfg.c ****         #define CY_CFG_MEMORY_BARRIER() __sync_synchronize()
  41:.\Generated_Source\PSoC5/cyfitter_cfg.c ****     #endif
  42:.\Generated_Source\PSoC5/cyfitter_cfg.c ****     
  43:.\Generated_Source\PSoC5/cyfitter_cfg.c **** #elif defined(__ICCARM__)
  44:.\Generated_Source\PSoC5/cyfitter_cfg.c ****     #include <intrinsics.h>
  45:.\Generated_Source\PSoC5/cyfitter_cfg.c **** 
  46:.\Generated_Source\PSoC5/cyfitter_cfg.c ****     #define CYPACKED __packed
  47:.\Generated_Source\PSoC5/cyfitter_cfg.c ****     #define CYPACKED_ATTR 
  48:.\Generated_Source\PSoC5/cyfitter_cfg.c ****     #define CYALIGNED _Pragma("data_alignment=4")
  49:.\Generated_Source\PSoC5/cyfitter_cfg.c ****     #define CY_CFG_UNUSED _Pragma("diag_suppress=Pe177")
  50:.\Generated_Source\PSoC5/cyfitter_cfg.c ****     #define CY_CFG_SECTION _Pragma("location=\".psocinit\"")
  51:.\Generated_Source\PSoC5/cyfitter_cfg.c ****     
  52:.\Generated_Source\PSoC5/cyfitter_cfg.c ****     #define CY_CFG_MEMORY_BARRIER() __DMB()
  53:.\Generated_Source\PSoC5/cyfitter_cfg.c ****     
  54:.\Generated_Source\PSoC5/cyfitter_cfg.c **** #else
  55:.\Generated_Source\PSoC5/cyfitter_cfg.c ****     #error Unsupported toolchain
  56:.\Generated_Source\PSoC5/cyfitter_cfg.c **** #endif
  57:.\Generated_Source\PSoC5/cyfitter_cfg.c **** 
  58:.\Generated_Source\PSoC5/cyfitter_cfg.c **** 
  59:.\Generated_Source\PSoC5/cyfitter_cfg.c **** CY_CFG_UNUSED
  60:.\Generated_Source\PSoC5/cyfitter_cfg.c **** static void CYMEMZERO(void *s, size_t n);
  61:.\Generated_Source\PSoC5/cyfitter_cfg.c **** CY_CFG_UNUSED
  62:.\Generated_Source\PSoC5/cyfitter_cfg.c **** static void CYMEMZERO(void *s, size_t n)
  63:.\Generated_Source\PSoC5/cyfitter_cfg.c **** {
  64:.\Generated_Source\PSoC5/cyfitter_cfg.c **** 	(void)memset(s, 0, n);
  65:.\Generated_Source\PSoC5/cyfitter_cfg.c **** }
  66:.\Generated_Source\PSoC5/cyfitter_cfg.c **** CY_CFG_UNUSED
  67:.\Generated_Source\PSoC5/cyfitter_cfg.c **** static void CYCONFIGCPY(void *dest, const void *src, size_t n);
  68:.\Generated_Source\PSoC5/cyfitter_cfg.c **** CY_CFG_UNUSED
  69:.\Generated_Source\PSoC5/cyfitter_cfg.c **** static void CYCONFIGCPY(void *dest, const void *src, size_t n)
  70:.\Generated_Source\PSoC5/cyfitter_cfg.c **** {
  71:.\Generated_Source\PSoC5/cyfitter_cfg.c **** 	(void)memcpy(dest, src, n);
  72:.\Generated_Source\PSoC5/cyfitter_cfg.c **** }
  73:.\Generated_Source\PSoC5/cyfitter_cfg.c **** CY_CFG_UNUSED
  74:.\Generated_Source\PSoC5/cyfitter_cfg.c **** static void CYCONFIGCPYCODE(void *dest, const void *src, size_t n);
  75:.\Generated_Source\PSoC5/cyfitter_cfg.c **** CY_CFG_UNUSED
  76:.\Generated_Source\PSoC5/cyfitter_cfg.c **** static void CYCONFIGCPYCODE(void *dest, const void *src, size_t n)
  77:.\Generated_Source\PSoC5/cyfitter_cfg.c **** {
  78:.\Generated_Source\PSoC5/cyfitter_cfg.c **** 	(void)memcpy(dest, src, n);
  79:.\Generated_Source\PSoC5/cyfitter_cfg.c **** }
  80:.\Generated_Source\PSoC5/cyfitter_cfg.c **** 
  81:.\Generated_Source\PSoC5/cyfitter_cfg.c **** 
  82:.\Generated_Source\PSoC5/cyfitter_cfg.c **** 
  83:.\Generated_Source\PSoC5/cyfitter_cfg.c **** /* Clock startup error codes                                                   */
  84:.\Generated_Source\PSoC5/cyfitter_cfg.c **** #define CYCLOCKSTART_NO_ERROR    0u
  85:.\Generated_Source\PSoC5/cyfitter_cfg.c **** #define CYCLOCKSTART_XTAL_ERROR  1u
  86:.\Generated_Source\PSoC5/cyfitter_cfg.c **** #define CYCLOCKSTART_32KHZ_ERROR 2u
  87:.\Generated_Source\PSoC5/cyfitter_cfg.c **** #define CYCLOCKSTART_PLL_ERROR   3u
  88:.\Generated_Source\PSoC5/cyfitter_cfg.c **** 
  89:.\Generated_Source\PSoC5/cyfitter_cfg.c **** #ifdef CY_NEED_CYCLOCKSTARTUPERROR
ARM GAS  C:\Users\Alex\AppData\Local\Temp\cccCDN48.s 			page 3


  90:.\Generated_Source\PSoC5/cyfitter_cfg.c **** /*******************************************************************************
  91:.\Generated_Source\PSoC5/cyfitter_cfg.c **** * Function Name: CyClockStartupError
  92:.\Generated_Source\PSoC5/cyfitter_cfg.c **** ********************************************************************************
  93:.\Generated_Source\PSoC5/cyfitter_cfg.c **** * Summary:
  94:.\Generated_Source\PSoC5/cyfitter_cfg.c **** *  If an error is encountered during clock configuration (crystal startup error,
  95:.\Generated_Source\PSoC5/cyfitter_cfg.c **** *  PLL lock error, etc.), the system will end up here.  Unless reimplemented by
  96:.\Generated_Source\PSoC5/cyfitter_cfg.c **** *  the customer, this function will stop in an infinite loop.
  97:.\Generated_Source\PSoC5/cyfitter_cfg.c **** *
  98:.\Generated_Source\PSoC5/cyfitter_cfg.c **** * Parameters:
  99:.\Generated_Source\PSoC5/cyfitter_cfg.c **** *   void
 100:.\Generated_Source\PSoC5/cyfitter_cfg.c **** *
 101:.\Generated_Source\PSoC5/cyfitter_cfg.c **** * Return:
 102:.\Generated_Source\PSoC5/cyfitter_cfg.c **** *   void
 103:.\Generated_Source\PSoC5/cyfitter_cfg.c **** *
 104:.\Generated_Source\PSoC5/cyfitter_cfg.c **** *******************************************************************************/
 105:.\Generated_Source\PSoC5/cyfitter_cfg.c **** CY_CFG_UNUSED
 106:.\Generated_Source\PSoC5/cyfitter_cfg.c **** static void CyClockStartupError(uint8 errorCode);
 107:.\Generated_Source\PSoC5/cyfitter_cfg.c **** CY_CFG_UNUSED
 108:.\Generated_Source\PSoC5/cyfitter_cfg.c **** static void CyClockStartupError(uint8 errorCode)
 109:.\Generated_Source\PSoC5/cyfitter_cfg.c **** {
  26              		.loc 1 109 0
  27              		.cfi_startproc
  28              		@ Volatile: function does not return.
  29              		@ args = 0, pretend = 0, frame = 0
  30              		@ frame_needed = 0, uses_anonymous_args = 0
  31              		@ link register save eliminated.
  32              	.LVL0:
  33              	.L2:
 110:.\Generated_Source\PSoC5/cyfitter_cfg.c ****     /* To remove the compiler warning if errorCode not used.                */
 111:.\Generated_Source\PSoC5/cyfitter_cfg.c ****     errorCode = errorCode;
 112:.\Generated_Source\PSoC5/cyfitter_cfg.c **** 
 113:.\Generated_Source\PSoC5/cyfitter_cfg.c ****     /* `#START CyClockStartupError` */
 114:.\Generated_Source\PSoC5/cyfitter_cfg.c **** 
 115:.\Generated_Source\PSoC5/cyfitter_cfg.c ****     /* If we have a clock startup error (bad MHz crystal, PLL lock, etc.),  */
 116:.\Generated_Source\PSoC5/cyfitter_cfg.c ****     /* we will end up here to allow the customer to implement something to  */
 117:.\Generated_Source\PSoC5/cyfitter_cfg.c ****     /* deal with the clock condition.                                       */
 118:.\Generated_Source\PSoC5/cyfitter_cfg.c **** 
 119:.\Generated_Source\PSoC5/cyfitter_cfg.c ****     /* `#END` */
 120:.\Generated_Source\PSoC5/cyfitter_cfg.c **** 
 121:.\Generated_Source\PSoC5/cyfitter_cfg.c ****     /* If nothing else, stop here since the clocks have not started         */
 122:.\Generated_Source\PSoC5/cyfitter_cfg.c ****     /* correctly.                                                           */
 123:.\Generated_Source\PSoC5/cyfitter_cfg.c ****     while(1) {}
  34              		.loc 1 123 0 discriminator 1
  35 0000 FEE7     		b	.L2
  36              		.cfi_endproc
  37              	.LFE3:
  38              		.size	CyClockStartupError, .-CyClockStartupError
  39 0002 00BF     		.section	.text.cfg_write_bytes32,"ax",%progbits
  40              		.align	2
  41              		.thumb
  42              		.thumb_func
  43              		.type	cfg_write_bytes32, %function
  44              	cfg_write_bytes32:
  45              	.LFB4:
 124:.\Generated_Source\PSoC5/cyfitter_cfg.c **** }
 125:.\Generated_Source\PSoC5/cyfitter_cfg.c **** #endif
 126:.\Generated_Source\PSoC5/cyfitter_cfg.c **** 
ARM GAS  C:\Users\Alex\AppData\Local\Temp\cccCDN48.s 			page 4


 127:.\Generated_Source\PSoC5/cyfitter_cfg.c **** #define CY_CFG_BASE_ADDR_COUNT 43u
 128:.\Generated_Source\PSoC5/cyfitter_cfg.c **** CYPACKED typedef struct
 129:.\Generated_Source\PSoC5/cyfitter_cfg.c **** {
 130:.\Generated_Source\PSoC5/cyfitter_cfg.c **** 	uint8 offset;
 131:.\Generated_Source\PSoC5/cyfitter_cfg.c **** 	uint8 value;
 132:.\Generated_Source\PSoC5/cyfitter_cfg.c **** } CYPACKED_ATTR cy_cfg_addrvalue_t;
 133:.\Generated_Source\PSoC5/cyfitter_cfg.c **** 
 134:.\Generated_Source\PSoC5/cyfitter_cfg.c **** #define cy_cfg_addr_table ((const uint32 CYFAR *)0x48000000u)
 135:.\Generated_Source\PSoC5/cyfitter_cfg.c **** #define cy_cfg_data_table ((const cy_cfg_addrvalue_t CYFAR *)0x480000ACu)
 136:.\Generated_Source\PSoC5/cyfitter_cfg.c **** 
 137:.\Generated_Source\PSoC5/cyfitter_cfg.c **** /* IDMUX_IRQ Address: CYREG_IDMUX_IRQ_CTL0 Size (bytes): 8 */
 138:.\Generated_Source\PSoC5/cyfitter_cfg.c **** #define BS_IDMUX_IRQ_VAL ((const uint8 CYFAR *)0x48001198u)
 139:.\Generated_Source\PSoC5/cyfitter_cfg.c **** 
 140:.\Generated_Source\PSoC5/cyfitter_cfg.c **** /* UDB_1_0_0_CONFIG Address: CYDEV_UCFG_B1_P2_U0_BASE Size (bytes): 128 */
 141:.\Generated_Source\PSoC5/cyfitter_cfg.c **** #define BS_UDB_1_0_0_CONFIG_VAL ((const uint8 CYFAR *)0x480011A0u)
 142:.\Generated_Source\PSoC5/cyfitter_cfg.c **** 
 143:.\Generated_Source\PSoC5/cyfitter_cfg.c **** /* UDB_1_1_0_CONFIG Address: CYDEV_UCFG_B1_P3_U1_BASE Size (bytes): 128 */
 144:.\Generated_Source\PSoC5/cyfitter_cfg.c **** #define BS_UDB_1_1_0_CONFIG_VAL ((const uint8 CYFAR *)0x48001220u)
 145:.\Generated_Source\PSoC5/cyfitter_cfg.c **** 
 146:.\Generated_Source\PSoC5/cyfitter_cfg.c **** /* UDB_0_1_1_CONFIG Address: CYDEV_UCFG_B1_P4_U0_BASE Size (bytes): 128 */
 147:.\Generated_Source\PSoC5/cyfitter_cfg.c **** #define BS_UDB_0_1_1_CONFIG_VAL ((const uint8 CYFAR *)0x480012A0u)
 148:.\Generated_Source\PSoC5/cyfitter_cfg.c **** 
 149:.\Generated_Source\PSoC5/cyfitter_cfg.c **** /* UDB_0_0_0_CONFIG Address: CYDEV_UCFG_B1_P5_U0_BASE Size (bytes): 128 */
 150:.\Generated_Source\PSoC5/cyfitter_cfg.c **** #define BS_UDB_0_0_0_CONFIG_VAL ((const uint8 CYFAR *)0x48001320u)
 151:.\Generated_Source\PSoC5/cyfitter_cfg.c **** 
 152:.\Generated_Source\PSoC5/cyfitter_cfg.c **** /* UDB_0_0_1_CONFIG Address: CYDEV_UCFG_B1_P5_U1_BASE Size (bytes): 128 */
 153:.\Generated_Source\PSoC5/cyfitter_cfg.c **** #define BS_UDB_0_0_1_CONFIG_VAL ((const uint8 CYFAR *)0x480013A0u)
 154:.\Generated_Source\PSoC5/cyfitter_cfg.c **** 
 155:.\Generated_Source\PSoC5/cyfitter_cfg.c **** /* UCFG_BCTL0 Address: CYREG_BCTL0_MDCLK_EN Size (bytes): 16 */
 156:.\Generated_Source\PSoC5/cyfitter_cfg.c **** #define BS_UCFG_BCTL0_VAL ((const uint8 CYFAR *)0x48001420u)
 157:.\Generated_Source\PSoC5/cyfitter_cfg.c **** 
 158:.\Generated_Source\PSoC5/cyfitter_cfg.c **** /* IOPINS0_0 Address: CYREG_PRT0_DM0 Size (bytes): 8 */
 159:.\Generated_Source\PSoC5/cyfitter_cfg.c **** #define BS_IOPINS0_0_VAL ((const uint8 CYFAR *)0x48001430u)
 160:.\Generated_Source\PSoC5/cyfitter_cfg.c **** 
 161:.\Generated_Source\PSoC5/cyfitter_cfg.c **** /* IOPINS0_7 Address: CYREG_PRT12_DR Size (bytes): 10 */
 162:.\Generated_Source\PSoC5/cyfitter_cfg.c **** #define BS_IOPINS0_7_VAL ((const uint8 CYFAR *)0x48001438u)
 163:.\Generated_Source\PSoC5/cyfitter_cfg.c **** 
 164:.\Generated_Source\PSoC5/cyfitter_cfg.c **** /* IOPINS0_8 Address: CYREG_PRT15_DR Size (bytes): 10 */
 165:.\Generated_Source\PSoC5/cyfitter_cfg.c **** #define BS_IOPINS0_8_VAL ((const uint8 CYFAR *)0x48001444u)
 166:.\Generated_Source\PSoC5/cyfitter_cfg.c **** 
 167:.\Generated_Source\PSoC5/cyfitter_cfg.c **** /* IOPINS0_1 Address: CYREG_PRT1_DM0 Size (bytes): 8 */
 168:.\Generated_Source\PSoC5/cyfitter_cfg.c **** #define BS_IOPINS0_1_VAL ((const uint8 CYFAR *)0x48001450u)
 169:.\Generated_Source\PSoC5/cyfitter_cfg.c **** 
 170:.\Generated_Source\PSoC5/cyfitter_cfg.c **** /* IOPINS0_2 Address: CYREG_PRT2_DR Size (bytes): 10 */
 171:.\Generated_Source\PSoC5/cyfitter_cfg.c **** #define BS_IOPINS0_2_VAL ((const uint8 CYFAR *)0x48001458u)
 172:.\Generated_Source\PSoC5/cyfitter_cfg.c **** 
 173:.\Generated_Source\PSoC5/cyfitter_cfg.c **** /* IOPINS0_3 Address: CYREG_PRT3_DM0 Size (bytes): 8 */
 174:.\Generated_Source\PSoC5/cyfitter_cfg.c **** #define BS_IOPINS0_3_VAL ((const uint8 CYFAR *)0x48001464u)
 175:.\Generated_Source\PSoC5/cyfitter_cfg.c **** 
 176:.\Generated_Source\PSoC5/cyfitter_cfg.c **** /* IOPINS0_4 Address: CYREG_PRT4_DR Size (bytes): 10 */
 177:.\Generated_Source\PSoC5/cyfitter_cfg.c **** #define BS_IOPINS0_4_VAL ((const uint8 CYFAR *)0x4800146Cu)
 178:.\Generated_Source\PSoC5/cyfitter_cfg.c **** 
 179:.\Generated_Source\PSoC5/cyfitter_cfg.c **** /* IOPINS0_5 Address: CYREG_PRT5_DM0 Size (bytes): 8 */
 180:.\Generated_Source\PSoC5/cyfitter_cfg.c **** #define BS_IOPINS0_5_VAL ((const uint8 CYFAR *)0x48001478u)
 181:.\Generated_Source\PSoC5/cyfitter_cfg.c **** 
 182:.\Generated_Source\PSoC5/cyfitter_cfg.c **** /* IOPINS0_6 Address: CYREG_PRT6_DR Size (bytes): 10 */
 183:.\Generated_Source\PSoC5/cyfitter_cfg.c **** #define BS_IOPINS0_6_VAL ((const uint8 CYFAR *)0x48001480u)
ARM GAS  C:\Users\Alex\AppData\Local\Temp\cccCDN48.s 			page 5


 184:.\Generated_Source\PSoC5/cyfitter_cfg.c **** 
 185:.\Generated_Source\PSoC5/cyfitter_cfg.c **** /* CYDEV_CLKDIST_ACFG0_CFG0 Address: CYREG_CLKDIST_ACFG0_CFG0 Size (bytes): 12 */
 186:.\Generated_Source\PSoC5/cyfitter_cfg.c **** #define BS_CYDEV_CLKDIST_ACFG0_CFG0_VAL ((const uint8 CYFAR *)0x4800148Cu)
 187:.\Generated_Source\PSoC5/cyfitter_cfg.c **** 
 188:.\Generated_Source\PSoC5/cyfitter_cfg.c **** /* PHUB_CFGMEM10 Address: CYREG_PHUB_CFGMEM10_CFG0 Size (bytes): 4 */
 189:.\Generated_Source\PSoC5/cyfitter_cfg.c **** #define BS_PHUB_CFGMEM10_VAL ((const uint8 CYFAR *)0x48001498u)
 190:.\Generated_Source\PSoC5/cyfitter_cfg.c **** 
 191:.\Generated_Source\PSoC5/cyfitter_cfg.c **** /* PHUB_CFGMEM3 Address: CYREG_PHUB_CFGMEM3_CFG0 Size (bytes): 4 */
 192:.\Generated_Source\PSoC5/cyfitter_cfg.c **** #define BS_PHUB_CFGMEM3_VAL ((const uint8 CYFAR *)0x4800149Cu)
 193:.\Generated_Source\PSoC5/cyfitter_cfg.c **** 
 194:.\Generated_Source\PSoC5/cyfitter_cfg.c **** /* PHUB_CFGMEM4 Address: CYREG_PHUB_CFGMEM4_CFG0 Size (bytes): 4 */
 195:.\Generated_Source\PSoC5/cyfitter_cfg.c **** #define BS_PHUB_CFGMEM4_VAL ((const uint8 CYFAR *)0x480014A0u)
 196:.\Generated_Source\PSoC5/cyfitter_cfg.c **** 
 197:.\Generated_Source\PSoC5/cyfitter_cfg.c **** /* PHUB_CFGMEM5 Address: CYREG_PHUB_CFGMEM5_CFG0 Size (bytes): 4 */
 198:.\Generated_Source\PSoC5/cyfitter_cfg.c **** #define BS_PHUB_CFGMEM5_VAL ((const uint8 CYFAR *)0x480014A4u)
 199:.\Generated_Source\PSoC5/cyfitter_cfg.c **** 
 200:.\Generated_Source\PSoC5/cyfitter_cfg.c **** /* PHUB_CFGMEM6 Address: CYREG_PHUB_CFGMEM6_CFG0 Size (bytes): 4 */
 201:.\Generated_Source\PSoC5/cyfitter_cfg.c **** #define BS_PHUB_CFGMEM6_VAL ((const uint8 CYFAR *)0x480014A8u)
 202:.\Generated_Source\PSoC5/cyfitter_cfg.c **** 
 203:.\Generated_Source\PSoC5/cyfitter_cfg.c **** 
 204:.\Generated_Source\PSoC5/cyfitter_cfg.c **** /*******************************************************************************
 205:.\Generated_Source\PSoC5/cyfitter_cfg.c **** * Function Name: cfg_write_bytes32
 206:.\Generated_Source\PSoC5/cyfitter_cfg.c **** ********************************************************************************
 207:.\Generated_Source\PSoC5/cyfitter_cfg.c **** * Summary:
 208:.\Generated_Source\PSoC5/cyfitter_cfg.c **** *  This function is used for setting up the chip configuration areas that
 209:.\Generated_Source\PSoC5/cyfitter_cfg.c **** *  contain relatively sparse data.
 210:.\Generated_Source\PSoC5/cyfitter_cfg.c **** *
 211:.\Generated_Source\PSoC5/cyfitter_cfg.c **** * Parameters:
 212:.\Generated_Source\PSoC5/cyfitter_cfg.c **** *   void
 213:.\Generated_Source\PSoC5/cyfitter_cfg.c **** *
 214:.\Generated_Source\PSoC5/cyfitter_cfg.c **** * Return:
 215:.\Generated_Source\PSoC5/cyfitter_cfg.c **** *   void
 216:.\Generated_Source\PSoC5/cyfitter_cfg.c **** *
 217:.\Generated_Source\PSoC5/cyfitter_cfg.c **** *******************************************************************************/
 218:.\Generated_Source\PSoC5/cyfitter_cfg.c **** static void cfg_write_bytes32(const uint32 addr_table[], const cy_cfg_addrvalue_t data_table[]);
 219:.\Generated_Source\PSoC5/cyfitter_cfg.c **** static void cfg_write_bytes32(const uint32 addr_table[], const cy_cfg_addrvalue_t data_table[])
 220:.\Generated_Source\PSoC5/cyfitter_cfg.c **** {
  46              		.loc 1 220 0
  47              		.cfi_startproc
  48              		@ args = 0, pretend = 0, frame = 0
  49              		@ frame_needed = 0, uses_anonymous_args = 0
  50              		@ link register save eliminated.
  51              	.LVL1:
  52 0000 F0B4     		push	{r4, r5, r6, r7}
  53              		.cfi_def_cfa_offset 16
  54              		.cfi_offset 4, -16
  55              		.cfi_offset 5, -12
  56              		.cfi_offset 6, -8
  57              		.cfi_offset 7, -4
  58              	.LVL2:
 221:.\Generated_Source\PSoC5/cyfitter_cfg.c **** 	/* For 32-bit little-endian architectures */
 222:.\Generated_Source\PSoC5/cyfitter_cfg.c **** 	uint32 i, j = 0u;
  59              		.loc 1 222 0
  60 0002 0022     		movs	r2, #0
 223:.\Generated_Source\PSoC5/cyfitter_cfg.c **** 	for (i = 0u; i < CY_CFG_BASE_ADDR_COUNT; i++)
  61              		.loc 1 223 0
  62 0004 1746     		mov	r7, r2
ARM GAS  C:\Users\Alex\AppData\Local\Temp\cccCDN48.s 			page 6


  63 0006 11E0     		b	.L4
  64              	.LVL3:
  65              	.L7:
  66              	.LBB2:
 224:.\Generated_Source\PSoC5/cyfitter_cfg.c **** 	{
 225:.\Generated_Source\PSoC5/cyfitter_cfg.c **** 		uint32 baseAddr = addr_table[i];
  67              		.loc 1 225 0
  68 0008 50F82760 		ldr	r6, [r0, r7, lsl #2]
  69              	.LVL4:
 226:.\Generated_Source\PSoC5/cyfitter_cfg.c **** 		uint8 count = (uint8)baseAddr;
  70              		.loc 1 226 0
  71 000c F3B2     		uxtb	r3, r6
  72              	.LVL5:
 227:.\Generated_Source\PSoC5/cyfitter_cfg.c **** 		baseAddr &= 0xFFFFFF00u;
  73              		.loc 1 227 0
  74 000e 26F0FF06 		bic	r6, r6, #255
  75              	.LVL6:
 228:.\Generated_Source\PSoC5/cyfitter_cfg.c **** 		while (count != 0u)
  76              		.loc 1 228 0
  77 0012 08E0     		b	.L5
  78              	.L6:
 229:.\Generated_Source\PSoC5/cyfitter_cfg.c **** 		{
 230:.\Generated_Source\PSoC5/cyfitter_cfg.c **** 			CY_SET_XTND_REG8((void CYFAR *)(baseAddr + data_table[j].offset), data_table[j].value);
  79              		.loc 1 230 0
  80 0014 01EB4205 		add	r5, r1, r2, lsl #1
  81 0018 11F81240 		ldrb	r4, [r1, r2, lsl #1]	@ zero_extendqisi2
  82 001c 6D78     		ldrb	r5, [r5, #1]	@ zero_extendqisi2
  83 001e A555     		strb	r5, [r4, r6]
 231:.\Generated_Source\PSoC5/cyfitter_cfg.c **** 			j++;
  84              		.loc 1 231 0
  85 0020 0132     		adds	r2, r2, #1
  86              	.LVL7:
 232:.\Generated_Source\PSoC5/cyfitter_cfg.c **** 			count--;
  87              		.loc 1 232 0
  88 0022 013B     		subs	r3, r3, #1
  89              	.LVL8:
  90 0024 DBB2     		uxtb	r3, r3
  91              	.LVL9:
  92              	.L5:
 228:.\Generated_Source\PSoC5/cyfitter_cfg.c **** 		{
  93              		.loc 1 228 0
  94 0026 002B     		cmp	r3, #0
  95 0028 F4D1     		bne	.L6
  96              	.LBE2:
 223:.\Generated_Source\PSoC5/cyfitter_cfg.c **** 	{
  97              		.loc 1 223 0 discriminator 2
  98 002a 0137     		adds	r7, r7, #1
  99              	.LVL10:
 100              	.L4:
 223:.\Generated_Source\PSoC5/cyfitter_cfg.c **** 	{
 101              		.loc 1 223 0 is_stmt 0 discriminator 1
 102 002c 2A2F     		cmp	r7, #42
 103 002e EBD9     		bls	.L7
 233:.\Generated_Source\PSoC5/cyfitter_cfg.c **** 		}
 234:.\Generated_Source\PSoC5/cyfitter_cfg.c **** 	}
 235:.\Generated_Source\PSoC5/cyfitter_cfg.c **** }
 104              		.loc 1 235 0 is_stmt 1
ARM GAS  C:\Users\Alex\AppData\Local\Temp\cccCDN48.s 			page 7


 105 0030 F0BC     		pop	{r4, r5, r6, r7}
 106              		.cfi_restore 7
 107              		.cfi_restore 6
 108              		.cfi_restore 5
 109              		.cfi_restore 4
 110              		.cfi_def_cfa_offset 0
 111              	.LVL11:
 112 0032 7047     		bx	lr
 113              		.cfi_endproc
 114              	.LFE4:
 115              		.size	cfg_write_bytes32, .-cfg_write_bytes32
 116              		.section	.text.AnalogSetDefault,"ax",%progbits
 117              		.align	2
 118              		.thumb
 119              		.thumb_func
 120              		.type	AnalogSetDefault, %function
 121              	AnalogSetDefault:
 122              	.LFB6:
 236:.\Generated_Source\PSoC5/cyfitter_cfg.c **** 
 237:.\Generated_Source\PSoC5/cyfitter_cfg.c **** /*******************************************************************************
 238:.\Generated_Source\PSoC5/cyfitter_cfg.c **** * Function Name: ClockSetup
 239:.\Generated_Source\PSoC5/cyfitter_cfg.c **** ********************************************************************************
 240:.\Generated_Source\PSoC5/cyfitter_cfg.c **** *
 241:.\Generated_Source\PSoC5/cyfitter_cfg.c **** * Summary:
 242:.\Generated_Source\PSoC5/cyfitter_cfg.c **** *  Performs the initialization of all of the clocks in the device based on the
 243:.\Generated_Source\PSoC5/cyfitter_cfg.c **** *  settings in the Clock tab of the DWR.  This includes enabling the requested
 244:.\Generated_Source\PSoC5/cyfitter_cfg.c **** *  clocks and setting the necessary dividers to produce the desired frequency. 
 245:.\Generated_Source\PSoC5/cyfitter_cfg.c **** *
 246:.\Generated_Source\PSoC5/cyfitter_cfg.c **** * Parameters:
 247:.\Generated_Source\PSoC5/cyfitter_cfg.c **** *  void
 248:.\Generated_Source\PSoC5/cyfitter_cfg.c **** *
 249:.\Generated_Source\PSoC5/cyfitter_cfg.c **** * Return:
 250:.\Generated_Source\PSoC5/cyfitter_cfg.c **** *  void
 251:.\Generated_Source\PSoC5/cyfitter_cfg.c **** *
 252:.\Generated_Source\PSoC5/cyfitter_cfg.c **** *******************************************************************************/
 253:.\Generated_Source\PSoC5/cyfitter_cfg.c **** static void ClockSetup(void);
 254:.\Generated_Source\PSoC5/cyfitter_cfg.c **** static void ClockSetup(void)
 255:.\Generated_Source\PSoC5/cyfitter_cfg.c **** {
 256:.\Generated_Source\PSoC5/cyfitter_cfg.c **** 	uint32 timeout;
 257:.\Generated_Source\PSoC5/cyfitter_cfg.c **** 	uint8 pllLock;
 258:.\Generated_Source\PSoC5/cyfitter_cfg.c **** 
 259:.\Generated_Source\PSoC5/cyfitter_cfg.c **** 
 260:.\Generated_Source\PSoC5/cyfitter_cfg.c **** 	/* Configure Digital Clocks based on settings from Clock DWR */
 261:.\Generated_Source\PSoC5/cyfitter_cfg.c **** 	CY_SET_XTND_REG16((void CYFAR *)(CYREG_CLKDIST_DCFG0_CFG0), 0x0001u);
 262:.\Generated_Source\PSoC5/cyfitter_cfg.c **** 	CY_SET_XTND_REG8((void CYFAR *)(CYREG_CLKDIST_DCFG0_CFG0 + 0x2u), 0x18u);
 263:.\Generated_Source\PSoC5/cyfitter_cfg.c **** 	CY_SET_XTND_REG16((void CYFAR *)(CYREG_CLKDIST_DCFG1_CFG0), 0x000Cu);
 264:.\Generated_Source\PSoC5/cyfitter_cfg.c **** 	CY_SET_XTND_REG8((void CYFAR *)(CYREG_CLKDIST_DCFG1_CFG0 + 0x2u), 0x18u);
 265:.\Generated_Source\PSoC5/cyfitter_cfg.c **** 	CY_SET_XTND_REG16((void CYFAR *)(CYREG_CLKDIST_DCFG2_CFG0), 0x0007u);
 266:.\Generated_Source\PSoC5/cyfitter_cfg.c **** 	CY_SET_XTND_REG8((void CYFAR *)(CYREG_CLKDIST_DCFG2_CFG0 + 0x2u), 0x1Fu);
 267:.\Generated_Source\PSoC5/cyfitter_cfg.c **** 	CY_SET_XTND_REG16((void CYFAR *)(CYREG_CLKDIST_DCFG3_CFG0), 0x0000u);
 268:.\Generated_Source\PSoC5/cyfitter_cfg.c **** 	CY_SET_XTND_REG8((void CYFAR *)(CYREG_CLKDIST_DCFG3_CFG0 + 0x2u), 0x50u);
 269:.\Generated_Source\PSoC5/cyfitter_cfg.c **** 	CY_SET_XTND_REG16((void CYFAR *)(CYREG_CLKDIST_DCFG4_CFG0), 0x0005u);
 270:.\Generated_Source\PSoC5/cyfitter_cfg.c **** 	CY_SET_XTND_REG8((void CYFAR *)(CYREG_CLKDIST_DCFG4_CFG0 + 0x2u), 0x18u);
 271:.\Generated_Source\PSoC5/cyfitter_cfg.c **** 	CY_SET_XTND_REG16((void CYFAR *)(CYREG_CLKDIST_DCFG5_CFG0), 0x0004u);
 272:.\Generated_Source\PSoC5/cyfitter_cfg.c **** 	CY_SET_XTND_REG8((void CYFAR *)(CYREG_CLKDIST_DCFG5_CFG0 + 0x2u), 0x18u);
 273:.\Generated_Source\PSoC5/cyfitter_cfg.c **** 	CY_SET_XTND_REG16((void CYFAR *)(CYREG_CLKDIST_DCFG6_CFG0), 0x0027u);
 274:.\Generated_Source\PSoC5/cyfitter_cfg.c **** 	CY_SET_XTND_REG8((void CYFAR *)(CYREG_CLKDIST_DCFG6_CFG0 + 0x2u), 0x18u);
ARM GAS  C:\Users\Alex\AppData\Local\Temp\cccCDN48.s 			page 8


 275:.\Generated_Source\PSoC5/cyfitter_cfg.c **** 
 276:.\Generated_Source\PSoC5/cyfitter_cfg.c **** 	/* Configure Analog Clocks based on settings from Clock DWR */
 277:.\Generated_Source\PSoC5/cyfitter_cfg.c **** 	CYCONFIGCPY((void CYFAR *)(CYREG_CLKDIST_ACFG0_CFG0), (const void CYFAR *)(BS_CYDEV_CLKDIST_ACFG0_
 278:.\Generated_Source\PSoC5/cyfitter_cfg.c **** 
 279:.\Generated_Source\PSoC5/cyfitter_cfg.c **** 	/* Configure ILO based on settings from Clock DWR */
 280:.\Generated_Source\PSoC5/cyfitter_cfg.c **** 	CY_SET_XTND_REG8((void CYFAR *)(CYREG_SLOWCLK_ILO_CR0), 0x06u);
 281:.\Generated_Source\PSoC5/cyfitter_cfg.c **** 
 282:.\Generated_Source\PSoC5/cyfitter_cfg.c **** 	/* Configure XTAL based on settings from Clock DWR */
 283:.\Generated_Source\PSoC5/cyfitter_cfg.c **** 	CY_SET_XTND_REG16((void CYFAR *)(CYREG_FASTCLK_XMHZ_CFG0), 0x550Eu);
 284:.\Generated_Source\PSoC5/cyfitter_cfg.c **** 	CY_SET_XTND_REG8((void CYFAR *)(CYREG_FASTCLK_XMHZ_CSR), 0x05u);
 285:.\Generated_Source\PSoC5/cyfitter_cfg.c **** 	/* Wait up to 130000us for the XTAL to lock */
 286:.\Generated_Source\PSoC5/cyfitter_cfg.c **** 	CY_GET_XTND_REG8((void CYFAR *)CYREG_FASTCLK_XMHZ_CSR);
 287:.\Generated_Source\PSoC5/cyfitter_cfg.c **** 	for (timeout = 130000u / 10u; (timeout > 0u) && ((CY_GET_XTND_REG8((void CYFAR *)CYREG_FASTCLK_XMH
 288:.\Generated_Source\PSoC5/cyfitter_cfg.c **** 	{ 
 289:.\Generated_Source\PSoC5/cyfitter_cfg.c **** 		
 290:.\Generated_Source\PSoC5/cyfitter_cfg.c **** 		CyDelayCycles(10u * 48u); /* Delay 10us based on 48MHz clock */
 291:.\Generated_Source\PSoC5/cyfitter_cfg.c **** 	}
 292:.\Generated_Source\PSoC5/cyfitter_cfg.c **** 	if (timeout == 0u)
 293:.\Generated_Source\PSoC5/cyfitter_cfg.c **** 	{
 294:.\Generated_Source\PSoC5/cyfitter_cfg.c **** 		CyClockStartupError(CYCLOCKSTART_XTAL_ERROR);
 295:.\Generated_Source\PSoC5/cyfitter_cfg.c **** 	}
 296:.\Generated_Source\PSoC5/cyfitter_cfg.c **** 
 297:.\Generated_Source\PSoC5/cyfitter_cfg.c **** 	/* Configure PLL based on settings from Clock DWR */
 298:.\Generated_Source\PSoC5/cyfitter_cfg.c **** 	CY_SET_XTND_REG16((void CYFAR *)(CYREG_FASTCLK_PLL_P), 0x0528u);
 299:.\Generated_Source\PSoC5/cyfitter_cfg.c **** 	CY_SET_XTND_REG8((void CYFAR *)(CYREG_CLKDIST_CR), 0x01u);
 300:.\Generated_Source\PSoC5/cyfitter_cfg.c **** 	CY_SET_XTND_REG16((void CYFAR *)(CYREG_FASTCLK_PLL_CFG0), 0x2251u);
 301:.\Generated_Source\PSoC5/cyfitter_cfg.c **** 	/* Wait up to 250us for the PLL to lock */
 302:.\Generated_Source\PSoC5/cyfitter_cfg.c **** 	pllLock = 0u;
 303:.\Generated_Source\PSoC5/cyfitter_cfg.c **** 	for (timeout = 250u / 10u; (timeout > 0u) && (pllLock != 0x03u); timeout--)
 304:.\Generated_Source\PSoC5/cyfitter_cfg.c **** 	{ 
 305:.\Generated_Source\PSoC5/cyfitter_cfg.c **** 		pllLock = 0x03u & ((uint8)((uint8)pllLock << 1) | ((CY_GET_XTND_REG8((void CYFAR *)CYREG_FASTCLK_
 306:.\Generated_Source\PSoC5/cyfitter_cfg.c **** 		CyDelayCycles(10u * 48u); /* Delay 10us based on 48MHz clock */
 307:.\Generated_Source\PSoC5/cyfitter_cfg.c **** 	}
 308:.\Generated_Source\PSoC5/cyfitter_cfg.c **** 	/* If we ran out of time the PLL didn't lock so go to the error function */
 309:.\Generated_Source\PSoC5/cyfitter_cfg.c **** 	if (timeout == 0u)
 310:.\Generated_Source\PSoC5/cyfitter_cfg.c **** 	{
 311:.\Generated_Source\PSoC5/cyfitter_cfg.c **** 		CyClockStartupError(CYCLOCKSTART_PLL_ERROR);
 312:.\Generated_Source\PSoC5/cyfitter_cfg.c **** 	}
 313:.\Generated_Source\PSoC5/cyfitter_cfg.c **** 
 314:.\Generated_Source\PSoC5/cyfitter_cfg.c **** 	/* Configure Bus/Master Clock based on settings from Clock DWR */
 315:.\Generated_Source\PSoC5/cyfitter_cfg.c **** 	CY_SET_XTND_REG16((void CYFAR *)(CYREG_CLKDIST_MSTR0), 0x0100u);
 316:.\Generated_Source\PSoC5/cyfitter_cfg.c **** 
 317:.\Generated_Source\PSoC5/cyfitter_cfg.c **** 	/* Configure IMO based on settings from Clock DWR */
 318:.\Generated_Source\PSoC5/cyfitter_cfg.c **** 	CY_SET_XTND_REG8((void CYFAR *)(CYREG_FASTCLK_IMO_CR), 0x52u);
 319:.\Generated_Source\PSoC5/cyfitter_cfg.c **** 	CY_SET_XTND_REG8((void CYFAR *)(CYREG_IMO_TR1), (CY_GET_XTND_REG8((void CYFAR *)CYREG_FLSHID_CUST_
 320:.\Generated_Source\PSoC5/cyfitter_cfg.c **** 	CY_SET_XTND_REG8((void CYFAR *)(CYREG_CLKDIST_MSTR0), 0x07u);
 321:.\Generated_Source\PSoC5/cyfitter_cfg.c **** 	CY_SET_XTND_REG8((void CYFAR *)(CYREG_CLKDIST_BCFG0), 0x00u);
 322:.\Generated_Source\PSoC5/cyfitter_cfg.c **** 	CY_SET_XTND_REG8((void CYFAR *)(CYREG_CLKDIST_BCFG2), 0x48u);
 323:.\Generated_Source\PSoC5/cyfitter_cfg.c **** 	CY_SET_XTND_REG8((void CYFAR *)(CYREG_CLKDIST_MSTR0), 0x00u);
 324:.\Generated_Source\PSoC5/cyfitter_cfg.c **** 
 325:.\Generated_Source\PSoC5/cyfitter_cfg.c **** 	/* Configure USB Clock based on settings from Clock DWR */
 326:.\Generated_Source\PSoC5/cyfitter_cfg.c **** 	CY_SET_XTND_REG8((void CYFAR *)(CYREG_CLKDIST_UCFG), 0x00u);
 327:.\Generated_Source\PSoC5/cyfitter_cfg.c **** 	CY_SET_XTND_REG8((void CYFAR *)(CYREG_CLKDIST_LD), 0x02u);
 328:.\Generated_Source\PSoC5/cyfitter_cfg.c **** 	CY_SET_XTND_REG8((void CYFAR *)(CYREG_CLKDIST_DLY1), 0x04u);
 329:.\Generated_Source\PSoC5/cyfitter_cfg.c **** 
 330:.\Generated_Source\PSoC5/cyfitter_cfg.c **** 	CY_SET_XTND_REG8((void CYFAR *)(CYREG_PM_ACT_CFG2), ((CY_GET_XTND_REG8((void CYFAR *)CYREG_PM_ACT_
 331:.\Generated_Source\PSoC5/cyfitter_cfg.c **** 	CY_SET_XTND_REG8((void CYFAR *)(CYREG_PM_ACT_CFG1), ((CY_GET_XTND_REG8((void CYFAR *)CYREG_PM_ACT_
ARM GAS  C:\Users\Alex\AppData\Local\Temp\cccCDN48.s 			page 9


 332:.\Generated_Source\PSoC5/cyfitter_cfg.c **** 	CY_SET_XTND_REG8((void CYFAR *)(CYREG_PM_ACT_CFG0), ((CY_GET_XTND_REG8((void CYFAR *)CYREG_PM_ACT_
 333:.\Generated_Source\PSoC5/cyfitter_cfg.c **** }
 334:.\Generated_Source\PSoC5/cyfitter_cfg.c **** 
 335:.\Generated_Source\PSoC5/cyfitter_cfg.c **** 
 336:.\Generated_Source\PSoC5/cyfitter_cfg.c **** /* Analog API Functions */
 337:.\Generated_Source\PSoC5/cyfitter_cfg.c **** 
 338:.\Generated_Source\PSoC5/cyfitter_cfg.c **** 
 339:.\Generated_Source\PSoC5/cyfitter_cfg.c **** /*******************************************************************************
 340:.\Generated_Source\PSoC5/cyfitter_cfg.c **** * Function Name: AnalogSetDefault
 341:.\Generated_Source\PSoC5/cyfitter_cfg.c **** ********************************************************************************
 342:.\Generated_Source\PSoC5/cyfitter_cfg.c **** *
 343:.\Generated_Source\PSoC5/cyfitter_cfg.c **** * Summary:
 344:.\Generated_Source\PSoC5/cyfitter_cfg.c **** *  Sets up the analog portions of the chip to default values based on chip
 345:.\Generated_Source\PSoC5/cyfitter_cfg.c **** *  configuration options from the project.
 346:.\Generated_Source\PSoC5/cyfitter_cfg.c **** *
 347:.\Generated_Source\PSoC5/cyfitter_cfg.c **** * Parameters:
 348:.\Generated_Source\PSoC5/cyfitter_cfg.c **** *  void
 349:.\Generated_Source\PSoC5/cyfitter_cfg.c **** *
 350:.\Generated_Source\PSoC5/cyfitter_cfg.c **** * Return:
 351:.\Generated_Source\PSoC5/cyfitter_cfg.c **** *  void
 352:.\Generated_Source\PSoC5/cyfitter_cfg.c **** *
 353:.\Generated_Source\PSoC5/cyfitter_cfg.c **** *******************************************************************************/
 354:.\Generated_Source\PSoC5/cyfitter_cfg.c **** static void AnalogSetDefault(void);
 355:.\Generated_Source\PSoC5/cyfitter_cfg.c **** static void AnalogSetDefault(void)
 356:.\Generated_Source\PSoC5/cyfitter_cfg.c **** {
 123              		.loc 1 356 0
 124              		.cfi_startproc
 125              		@ args = 0, pretend = 0, frame = 0
 126              		@ frame_needed = 0, uses_anonymous_args = 0
 127              		@ link register save eliminated.
 128 0000 F0B4     		push	{r4, r5, r6, r7}
 129              		.cfi_def_cfa_offset 16
 130              		.cfi_offset 4, -16
 131              		.cfi_offset 5, -12
 132              		.cfi_offset 6, -8
 133              		.cfi_offset 7, -4
 357:.\Generated_Source\PSoC5/cyfitter_cfg.c **** 	uint8 bg_xover_inl_trim = CY_GET_XTND_REG8((void CYFAR *)(CYREG_FLSHID_MFG_CFG_BG_XOVER_INL_TRIM +
 134              		.loc 1 357 0
 135 0002 254B     		ldr	r3, .L11
 136 0004 1B78     		ldrb	r3, [r3]	@ zero_extendqisi2
 137 0006 DBB2     		uxtb	r3, r3
 138              	.LVL12:
 358:.\Generated_Source\PSoC5/cyfitter_cfg.c **** 	uint8 cr4 = CY_GET_XTND_REG8((void CYFAR *)(CYREG_RESET_CR4));
 139              		.loc 1 358 0
 140 0008 2448     		ldr	r0, .L11+4
 141 000a 0278     		ldrb	r2, [r0]	@ zero_extendqisi2
 142 000c D2B2     		uxtb	r2, r2
 143              	.LVL13:
 359:.\Generated_Source\PSoC5/cyfitter_cfg.c **** 	uint8 cr5 = CY_GET_XTND_REG8((void CYFAR *)(CYREG_RESET_CR5));
 144              		.loc 1 359 0
 145 000e 244C     		ldr	r4, .L11+8
 146 0010 2178     		ldrb	r1, [r4]	@ zero_extendqisi2
 147 0012 C9B2     		uxtb	r1, r1
 148              	.LVL14:
 360:.\Generated_Source\PSoC5/cyfitter_cfg.c **** 	CY_SET_XTND_REG8((void CYFAR *)(CYREG_BG_DFT0), (bg_xover_inl_trim & 0x07u));
 149              		.loc 1 360 0
 150 0014 03F00706 		and	r6, r3, #7
ARM GAS  C:\Users\Alex\AppData\Local\Temp\cccCDN48.s 			page 10


 151 0018 224D     		ldr	r5, .L11+12
 152 001a 2E70     		strb	r6, [r5]
 361:.\Generated_Source\PSoC5/cyfitter_cfg.c **** 	CY_SET_XTND_REG8((void CYFAR *)(CYREG_BG_DFT1), ((bg_xover_inl_trim >> 4) & 0x0Fu));
 153              		.loc 1 361 0
 154 001c 1B09     		lsrs	r3, r3, #4
 155              	.LVL15:
 156 001e 0135     		adds	r5, r5, #1
 157 0020 2B70     		strb	r3, [r5]
 362:.\Generated_Source\PSoC5/cyfitter_cfg.c **** 	/* Disable PRES while setting up SAR voltage reference */
 363:.\Generated_Source\PSoC5/cyfitter_cfg.c **** 	CY_SET_XTND_REG8((void CYFAR *)(CYREG_RESET_CR4), (cr4 | 0x03u));
 158              		.loc 1 363 0
 159 0022 42F00303 		orr	r3, r2, #3
 160 0026 0370     		strb	r3, [r0]
 364:.\Generated_Source\PSoC5/cyfitter_cfg.c **** 	CY_SET_XTND_REG8((void CYFAR *)(CYREG_RESET_CR5), (cr5 | 0x03u));
 161              		.loc 1 364 0
 162 0028 41F00303 		orr	r3, r1, #3
 163 002c 2370     		strb	r3, [r4]
 365:.\Generated_Source\PSoC5/cyfitter_cfg.c **** 	CY_SET_XTND_REG8((void CYFAR *)CYREG_PRT1_AG, 0x14u);
 164              		.loc 1 365 0
 165 002e 1425     		movs	r5, #20
 166 0030 1D4B     		ldr	r3, .L11+16
 167 0032 1D70     		strb	r5, [r3]
 366:.\Generated_Source\PSoC5/cyfitter_cfg.c **** 	CY_SET_XTND_REG16((void CYFAR *)CYREG_PRT3_AMUX, 0xC00Fu);
 168              		.loc 1 366 0
 169 0034 4CF20F05 		movw	r5, #49167
 170 0038 1F33     		adds	r3, r3, #31
 171 003a 1D80     		strh	r5, [r3]	@ movhi
 367:.\Generated_Source\PSoC5/cyfitter_cfg.c **** 	CY_SET_XTND_REG8((void CYFAR *)CYREG_PRT4_AG, 0x02u);
 172              		.loc 1 367 0
 173 003c 0225     		movs	r5, #2
 174 003e 1133     		adds	r3, r3, #17
 175 0040 1D70     		strb	r5, [r3]
 368:.\Generated_Source\PSoC5/cyfitter_cfg.c **** 	CY_SET_XTND_REG8((void CYFAR *)CYREG_SAR0_CSR1, 0x40u);
 176              		.loc 1 368 0
 177 0042 4023     		movs	r3, #64
 178 0044 194D     		ldr	r5, .L11+20
 179 0046 2B70     		strb	r3, [r5]
 369:.\Generated_Source\PSoC5/cyfitter_cfg.c **** 	CY_SET_XTND_REG8((void CYFAR *)CYREG_SAR0_CSR3, 0x40u);
 180              		.loc 1 369 0
 181 0048 0235     		adds	r5, r5, #2
 182 004a 2B70     		strb	r3, [r5]
 370:.\Generated_Source\PSoC5/cyfitter_cfg.c **** 	CY_SET_XTND_REG8((void CYFAR *)CYREG_SAR1_CSR1, 0x40u);
 183              		.loc 1 370 0
 184 004c 0635     		adds	r5, r5, #6
 185 004e 2B70     		strb	r3, [r5]
 371:.\Generated_Source\PSoC5/cyfitter_cfg.c **** 	CY_SET_XTND_REG8((void CYFAR *)CYREG_SAR1_CSR3, 0x40u);
 186              		.loc 1 371 0
 187 0050 0235     		adds	r5, r5, #2
 188 0052 2B70     		strb	r3, [r5]
 372:.\Generated_Source\PSoC5/cyfitter_cfg.c **** 	CY_SET_XTND_REG8((void CYFAR *)CYREG_SC2_SW0, 0x04u);
 189              		.loc 1 372 0
 190 0054 0426     		movs	r6, #4
 191 0056 05F21515 		addw	r5, r5, #277
 192 005a 2E70     		strb	r6, [r5]
 373:.\Generated_Source\PSoC5/cyfitter_cfg.c **** 	CY_SET_XTND_REG8((void CYFAR *)CYREG_SC3_SW0, 0x01u);
 193              		.loc 1 373 0
 194 005c 0126     		movs	r6, #1
ARM GAS  C:\Users\Alex\AppData\Local\Temp\cccCDN48.s 			page 11


 195 005e 1035     		adds	r5, r5, #16
 196 0060 2E70     		strb	r6, [r5]
 374:.\Generated_Source\PSoC5/cyfitter_cfg.c **** 	CY_SET_XTND_REG8((void CYFAR *)CYREG_DAC3_SW0, 0x20u);
 197              		.loc 1 374 0
 198 0062 2025     		movs	r5, #32
 199 0064 124E     		ldr	r6, .L11+24
 200 0066 3570     		strb	r5, [r6]
 375:.\Generated_Source\PSoC5/cyfitter_cfg.c **** 	CY_SET_XTND_REG8((void CYFAR *)CYREG_DSM0_SW0, 0x80u);
 201              		.loc 1 375 0
 202 0068 8027     		movs	r7, #128
 203 006a 6836     		adds	r6, r6, #104
 204 006c 3770     		strb	r7, [r6]
 376:.\Generated_Source\PSoC5/cyfitter_cfg.c **** 	CY_SET_XTND_REG8((void CYFAR *)CYREG_SAR0_SW3, 0x20u);
 205              		.loc 1 376 0
 206 006e 2336     		adds	r6, r6, #35
 207 0070 3570     		strb	r5, [r6]
 377:.\Generated_Source\PSoC5/cyfitter_cfg.c **** 	CY_SET_XTND_REG8((void CYFAR *)CYREG_SAR1_SW0, 0x40u);
 208              		.loc 1 377 0
 209 0072 0536     		adds	r6, r6, #5
 210 0074 3370     		strb	r3, [r6]
 378:.\Generated_Source\PSoC5/cyfitter_cfg.c **** 	CY_SET_XTND_REG8((void CYFAR *)CYREG_SAR1_SW3, 0x20u);
 211              		.loc 1 378 0
 212 0076 0F4B     		ldr	r3, .L11+28
 213 0078 1D70     		strb	r5, [r3]
 379:.\Generated_Source\PSoC5/cyfitter_cfg.c **** 	CY_SET_XTND_REG32((void CYFAR *)CYREG_OPAMP0_MX, 0x02020102u);
 214              		.loc 1 379 0
 215 007a 0F4D     		ldr	r5, .L11+32
 216 007c 1533     		adds	r3, r3, #21
 217 007e 1D60     		str	r5, [r3]
 380:.\Generated_Source\PSoC5/cyfitter_cfg.c **** 	CY_SET_XTND_REG8((void CYFAR *)CYREG_BUS_SW0, 0x94u);
 218              		.loc 1 380 0
 219 0080 9425     		movs	r5, #148
 220 0082 1833     		adds	r3, r3, #24
 221 0084 1D70     		strb	r5, [r3]
 381:.\Generated_Source\PSoC5/cyfitter_cfg.c **** 	CY_SET_XTND_REG8((void CYFAR *)(CYREG_RESET_CR5), (cr5));
 222              		.loc 1 381 0
 223 0086 2170     		strb	r1, [r4]
 382:.\Generated_Source\PSoC5/cyfitter_cfg.c **** 	CY_SET_XTND_REG8((void CYFAR *)(CYREG_RESET_CR4), (cr4));
 224              		.loc 1 382 0
 225 0088 0270     		strb	r2, [r0]
 383:.\Generated_Source\PSoC5/cyfitter_cfg.c **** 	CY_SET_XTND_REG8((void CYFAR *)CYREG_PUMP_CR0, 0x44u);
 226              		.loc 1 383 0
 227 008a 4422     		movs	r2, #68
 228              	.LVL16:
 229 008c A3F2E223 		subw	r3, r3, #738
 230 0090 1A70     		strb	r2, [r3]
 231              	.LVL17:
 384:.\Generated_Source\PSoC5/cyfitter_cfg.c **** }
 232              		.loc 1 384 0
 233 0092 F0BC     		pop	{r4, r5, r6, r7}
 234              		.cfi_restore 7
 235              		.cfi_restore 6
 236              		.cfi_restore 5
 237              		.cfi_restore 4
 238              		.cfi_def_cfa_offset 0
 239 0094 7047     		bx	lr
 240              	.L12:
ARM GAS  C:\Users\Alex\AppData\Local\Temp\cccCDN48.s 			page 12


 241 0096 00BF     		.align	2
 242              	.L11:
 243 0098 CF010049 		.word	1224737231
 244 009c F8460040 		.word	1073759992
 245 00a0 F9460040 		.word	1073759993
 246 00a4 6E580040 		.word	1073764462
 247 00a8 1D510040 		.word	1073762589
 248 00ac 01590040 		.word	1073764609
 249 00b0 985A0040 		.word	1073765016
 250 00b4 2B5B0040 		.word	1073765163
 251 00b8 02010202 		.word	33685762
 252              		.cfi_endproc
 253              	.LFE6:
 254              		.size	AnalogSetDefault, .-AnalogSetDefault
 255              		.section	.text.CYMEMZERO,"ax",%progbits
 256              		.align	2
 257              		.thumb
 258              		.thumb_func
 259              		.type	CYMEMZERO, %function
 260              	CYMEMZERO:
 261              	.LFB0:
  63:.\Generated_Source\PSoC5/cyfitter_cfg.c **** 	(void)memset(s, 0, n);
 262              		.loc 1 63 0
 263              		.cfi_startproc
 264              		@ args = 0, pretend = 0, frame = 0
 265              		@ frame_needed = 0, uses_anonymous_args = 0
 266              	.LVL18:
 267 0000 08B5     		push	{r3, lr}
 268              		.cfi_def_cfa_offset 8
 269              		.cfi_offset 3, -8
 270              		.cfi_offset 14, -4
 271 0002 0A46     		mov	r2, r1
  64:.\Generated_Source\PSoC5/cyfitter_cfg.c **** }
 272              		.loc 1 64 0
 273 0004 0021     		movs	r1, #0
 274              	.LVL19:
 275 0006 FFF7FEFF 		bl	memset
 276              	.LVL20:
 277 000a 08BD     		pop	{r3, pc}
 278              		.cfi_endproc
 279              	.LFE0:
 280              		.size	CYMEMZERO, .-CYMEMZERO
 281              		.section	.text.CYCONFIGCPY,"ax",%progbits
 282              		.align	2
 283              		.thumb
 284              		.thumb_func
 285              		.type	CYCONFIGCPY, %function
 286              	CYCONFIGCPY:
 287              	.LFB1:
  70:.\Generated_Source\PSoC5/cyfitter_cfg.c **** 	(void)memcpy(dest, src, n);
 288              		.loc 1 70 0
 289              		.cfi_startproc
 290              		@ args = 0, pretend = 0, frame = 0
 291              		@ frame_needed = 0, uses_anonymous_args = 0
 292              	.LVL21:
 293 0000 08B5     		push	{r3, lr}
 294              		.cfi_def_cfa_offset 8
ARM GAS  C:\Users\Alex\AppData\Local\Temp\cccCDN48.s 			page 13


 295              		.cfi_offset 3, -8
 296              		.cfi_offset 14, -4
  71:.\Generated_Source\PSoC5/cyfitter_cfg.c **** }
 297              		.loc 1 71 0
 298 0002 FFF7FEFF 		bl	memcpy
 299              	.LVL22:
 300 0006 08BD     		pop	{r3, pc}
 301              		.cfi_endproc
 302              	.LFE1:
 303              		.size	CYCONFIGCPY, .-CYCONFIGCPY
 304              		.section	.text.ClockSetup,"ax",%progbits
 305              		.align	2
 306              		.thumb
 307              		.thumb_func
 308              		.type	ClockSetup, %function
 309              	ClockSetup:
 310              	.LFB5:
 255:.\Generated_Source\PSoC5/cyfitter_cfg.c **** 	uint32 timeout;
 311              		.loc 1 255 0
 312              		.cfi_startproc
 313              		@ args = 0, pretend = 0, frame = 0
 314              		@ frame_needed = 0, uses_anonymous_args = 0
 315 0000 38B5     		push	{r3, r4, r5, lr}
 316              		.cfi_def_cfa_offset 16
 317              		.cfi_offset 3, -16
 318              		.cfi_offset 4, -12
 319              		.cfi_offset 5, -8
 320              		.cfi_offset 14, -4
 261:.\Generated_Source\PSoC5/cyfitter_cfg.c **** 	CY_SET_XTND_REG8((void CYFAR *)(CYREG_CLKDIST_DCFG0_CFG0 + 0x2u), 0x18u);
 321              		.loc 1 261 0
 322 0002 0122     		movs	r2, #1
 323 0004 4B4B     		ldr	r3, .L27
 324 0006 1A80     		strh	r2, [r3]	@ movhi
 262:.\Generated_Source\PSoC5/cyfitter_cfg.c **** 	CY_SET_XTND_REG16((void CYFAR *)(CYREG_CLKDIST_DCFG1_CFG0), 0x000Cu);
 325              		.loc 1 262 0
 326 0008 1823     		movs	r3, #24
 327 000a 4B4A     		ldr	r2, .L27+4
 328 000c 1370     		strb	r3, [r2]
 263:.\Generated_Source\PSoC5/cyfitter_cfg.c **** 	CY_SET_XTND_REG8((void CYFAR *)(CYREG_CLKDIST_DCFG1_CFG0 + 0x2u), 0x18u);
 329              		.loc 1 263 0
 330 000e 0C22     		movs	r2, #12
 331 0010 4A49     		ldr	r1, .L27+8
 332 0012 0A80     		strh	r2, [r1]	@ movhi
 264:.\Generated_Source\PSoC5/cyfitter_cfg.c **** 	CY_SET_XTND_REG16((void CYFAR *)(CYREG_CLKDIST_DCFG2_CFG0), 0x0007u);
 333              		.loc 1 264 0
 334 0014 0231     		adds	r1, r1, #2
 335 0016 0B70     		strb	r3, [r1]
 265:.\Generated_Source\PSoC5/cyfitter_cfg.c **** 	CY_SET_XTND_REG8((void CYFAR *)(CYREG_CLKDIST_DCFG2_CFG0 + 0x2u), 0x1Fu);
 336              		.loc 1 265 0
 337 0018 0720     		movs	r0, #7
 338 001a 0231     		adds	r1, r1, #2
 339 001c 0880     		strh	r0, [r1]	@ movhi
 266:.\Generated_Source\PSoC5/cyfitter_cfg.c **** 	CY_SET_XTND_REG16((void CYFAR *)(CYREG_CLKDIST_DCFG3_CFG0), 0x0000u);
 340              		.loc 1 266 0
 341 001e 1F20     		movs	r0, #31
 342 0020 0231     		adds	r1, r1, #2
 343 0022 0870     		strb	r0, [r1]
ARM GAS  C:\Users\Alex\AppData\Local\Temp\cccCDN48.s 			page 14


 267:.\Generated_Source\PSoC5/cyfitter_cfg.c **** 	CY_SET_XTND_REG8((void CYFAR *)(CYREG_CLKDIST_DCFG3_CFG0 + 0x2u), 0x50u);
 344              		.loc 1 267 0
 345 0024 0020     		movs	r0, #0
 346 0026 0231     		adds	r1, r1, #2
 347 0028 0880     		strh	r0, [r1]	@ movhi
 268:.\Generated_Source\PSoC5/cyfitter_cfg.c **** 	CY_SET_XTND_REG16((void CYFAR *)(CYREG_CLKDIST_DCFG4_CFG0), 0x0005u);
 348              		.loc 1 268 0
 349 002a 5020     		movs	r0, #80
 350 002c 0231     		adds	r1, r1, #2
 351 002e 0870     		strb	r0, [r1]
 269:.\Generated_Source\PSoC5/cyfitter_cfg.c **** 	CY_SET_XTND_REG8((void CYFAR *)(CYREG_CLKDIST_DCFG4_CFG0 + 0x2u), 0x18u);
 352              		.loc 1 269 0
 353 0030 0524     		movs	r4, #5
 354 0032 0231     		adds	r1, r1, #2
 355 0034 0C80     		strh	r4, [r1]	@ movhi
 270:.\Generated_Source\PSoC5/cyfitter_cfg.c **** 	CY_SET_XTND_REG16((void CYFAR *)(CYREG_CLKDIST_DCFG5_CFG0), 0x0004u);
 356              		.loc 1 270 0
 357 0036 0231     		adds	r1, r1, #2
 358 0038 0B70     		strb	r3, [r1]
 271:.\Generated_Source\PSoC5/cyfitter_cfg.c **** 	CY_SET_XTND_REG8((void CYFAR *)(CYREG_CLKDIST_DCFG5_CFG0 + 0x2u), 0x18u);
 359              		.loc 1 271 0
 360 003a 0420     		movs	r0, #4
 361 003c 0231     		adds	r1, r1, #2
 362 003e 0880     		strh	r0, [r1]	@ movhi
 272:.\Generated_Source\PSoC5/cyfitter_cfg.c **** 	CY_SET_XTND_REG16((void CYFAR *)(CYREG_CLKDIST_DCFG6_CFG0), 0x0027u);
 363              		.loc 1 272 0
 364 0040 0231     		adds	r1, r1, #2
 365 0042 0B70     		strb	r3, [r1]
 273:.\Generated_Source\PSoC5/cyfitter_cfg.c **** 	CY_SET_XTND_REG8((void CYFAR *)(CYREG_CLKDIST_DCFG6_CFG0 + 0x2u), 0x18u);
 366              		.loc 1 273 0
 367 0044 2720     		movs	r0, #39
 368 0046 0231     		adds	r1, r1, #2
 369 0048 0880     		strh	r0, [r1]	@ movhi
 274:.\Generated_Source\PSoC5/cyfitter_cfg.c **** 
 370              		.loc 1 274 0
 371 004a 0231     		adds	r1, r1, #2
 372 004c 0B70     		strb	r3, [r1]
 277:.\Generated_Source\PSoC5/cyfitter_cfg.c **** 
 373              		.loc 1 277 0
 374 004e 3C48     		ldr	r0, .L27+12
 375 0050 3C49     		ldr	r1, .L27+16
 376 0052 FFF7FEFF 		bl	CYCONFIGCPY
 377              	.LVL23:
 280:.\Generated_Source\PSoC5/cyfitter_cfg.c **** 
 378              		.loc 1 280 0
 379 0056 0622     		movs	r2, #6
 380 0058 3B4B     		ldr	r3, .L27+20
 381 005a 1A70     		strb	r2, [r3]
 283:.\Generated_Source\PSoC5/cyfitter_cfg.c **** 	CY_SET_XTND_REG8((void CYFAR *)(CYREG_FASTCLK_XMHZ_CSR), 0x05u);
 382              		.loc 1 283 0
 383 005c 45F20E52 		movw	r2, #21774
 384 0060 EE3B     		subs	r3, r3, #238
 385 0062 1A80     		strh	r2, [r3]	@ movhi
 284:.\Generated_Source\PSoC5/cyfitter_cfg.c **** 	/* Wait up to 130000us for the XTAL to lock */
 386              		.loc 1 284 0
 387 0064 023B     		subs	r3, r3, #2
 388 0066 1C70     		strb	r4, [r3]
ARM GAS  C:\Users\Alex\AppData\Local\Temp\cccCDN48.s 			page 15


 286:.\Generated_Source\PSoC5/cyfitter_cfg.c **** 	for (timeout = 130000u / 10u; (timeout > 0u) && ((CY_GET_XTND_REG8((void CYFAR *)CYREG_FASTCLK_XMH
 389              		.loc 1 286 0
 390 0068 1B78     		ldrb	r3, [r3]	@ zero_extendqisi2
 391              	.LVL24:
 287:.\Generated_Source\PSoC5/cyfitter_cfg.c **** 	{ 
 392              		.loc 1 287 0
 393 006a 43F2C824 		movw	r4, #13000
 394 006e 04E0     		b	.L18
 395              	.LVL25:
 396              	.L20:
 290:.\Generated_Source\PSoC5/cyfitter_cfg.c **** 	}
 397              		.loc 1 290 0 discriminator 4
 398 0070 4FF4F070 		mov	r0, #480
 399 0074 FFF7FEFF 		bl	CyDelayCycles
 400              	.LVL26:
 287:.\Generated_Source\PSoC5/cyfitter_cfg.c **** 	{ 
 401              		.loc 1 287 0 discriminator 4
 402 0078 013C     		subs	r4, r4, #1
 403              	.LVL27:
 404              	.L18:
 287:.\Generated_Source\PSoC5/cyfitter_cfg.c **** 	{ 
 405              		.loc 1 287 0 is_stmt 0 discriminator 1
 406 007a 24B1     		cbz	r4, .L19
 287:.\Generated_Source\PSoC5/cyfitter_cfg.c **** 	{ 
 407              		.loc 1 287 0 discriminator 3
 408 007c 334B     		ldr	r3, .L27+24
 409 007e 1B78     		ldrb	r3, [r3]	@ zero_extendqisi2
 410 0080 13F0800F 		tst	r3, #128
 411 0084 F4D1     		bne	.L20
 412              	.L19:
 292:.\Generated_Source\PSoC5/cyfitter_cfg.c **** 	{
 413              		.loc 1 292 0 is_stmt 1
 414 0086 14B9     		cbnz	r4, .L21
 294:.\Generated_Source\PSoC5/cyfitter_cfg.c **** 	}
 415              		.loc 1 294 0
 416 0088 0120     		movs	r0, #1
 417 008a FFF7FEFF 		bl	CyClockStartupError
 418              	.LVL28:
 419              	.L21:
 298:.\Generated_Source\PSoC5/cyfitter_cfg.c **** 	CY_SET_XTND_REG8((void CYFAR *)(CYREG_CLKDIST_CR), 0x01u);
 420              		.loc 1 298 0
 421 008e 4FF4A562 		mov	r2, #1320
 422 0092 2F4B     		ldr	r3, .L27+28
 423 0094 1A80     		strh	r2, [r3]	@ movhi
 299:.\Generated_Source\PSoC5/cyfitter_cfg.c **** 	CY_SET_XTND_REG16((void CYFAR *)(CYREG_FASTCLK_PLL_CFG0), 0x2251u);
 424              		.loc 1 299 0
 425 0096 0122     		movs	r2, #1
 426 0098 4FF04023 		mov	r3, #1073758208
 427 009c 1A70     		strb	r2, [r3]
 300:.\Generated_Source\PSoC5/cyfitter_cfg.c **** 	/* Wait up to 250us for the PLL to lock */
 428              		.loc 1 300 0
 429 009e 42F25122 		movw	r2, #8785
 430 00a2 03F50873 		add	r3, r3, #544
 431 00a6 1A80     		strh	r2, [r3]	@ movhi
 432              	.LVL29:
 302:.\Generated_Source\PSoC5/cyfitter_cfg.c **** 	for (timeout = 250u / 10u; (timeout > 0u) && (pllLock != 0x03u); timeout--)
 433              		.loc 1 302 0
ARM GAS  C:\Users\Alex\AppData\Local\Temp\cccCDN48.s 			page 16


 434 00a8 0024     		movs	r4, #0
 303:.\Generated_Source\PSoC5/cyfitter_cfg.c **** 	{ 
 435              		.loc 1 303 0
 436 00aa 1925     		movs	r5, #25
 437 00ac 0CE0     		b	.L22
 438              	.LVL30:
 439              	.L24:
 305:.\Generated_Source\PSoC5/cyfitter_cfg.c **** 		CyDelayCycles(10u * 48u); /* Delay 10us based on 48MHz clock */
 440              		.loc 1 305 0 discriminator 4
 441 00ae 294B     		ldr	r3, .L27+32
 442 00b0 1B78     		ldrb	r3, [r3]	@ zero_extendqisi2
 443 00b2 03F00103 		and	r3, r3, #1
 444 00b6 43EA4404 		orr	r4, r3, r4, lsl #1
 445              	.LVL31:
 446 00ba 04F00304 		and	r4, r4, #3
 447              	.LVL32:
 306:.\Generated_Source\PSoC5/cyfitter_cfg.c **** 	}
 448              		.loc 1 306 0 discriminator 4
 449 00be 4FF4F070 		mov	r0, #480
 450 00c2 FFF7FEFF 		bl	CyDelayCycles
 451              	.LVL33:
 303:.\Generated_Source\PSoC5/cyfitter_cfg.c **** 	{ 
 452              		.loc 1 303 0 discriminator 4
 453 00c6 013D     		subs	r5, r5, #1
 454              	.LVL34:
 455              	.L22:
 303:.\Generated_Source\PSoC5/cyfitter_cfg.c **** 	{ 
 456              		.loc 1 303 0 is_stmt 0 discriminator 1
 457 00c8 0DB1     		cbz	r5, .L23
 303:.\Generated_Source\PSoC5/cyfitter_cfg.c **** 	{ 
 458              		.loc 1 303 0 discriminator 3
 459 00ca 032C     		cmp	r4, #3
 460 00cc EFD1     		bne	.L24
 461              	.L23:
 309:.\Generated_Source\PSoC5/cyfitter_cfg.c **** 	{
 462              		.loc 1 309 0 is_stmt 1
 463 00ce 15B9     		cbnz	r5, .L25
 311:.\Generated_Source\PSoC5/cyfitter_cfg.c **** 	}
 464              		.loc 1 311 0
 465 00d0 0320     		movs	r0, #3
 466 00d2 FFF7FEFF 		bl	CyClockStartupError
 467              	.LVL35:
 468              	.L25:
 315:.\Generated_Source\PSoC5/cyfitter_cfg.c **** 
 469              		.loc 1 315 0
 470 00d6 204A     		ldr	r2, .L27+36
 471 00d8 4FF48073 		mov	r3, #256
 472 00dc 1380     		strh	r3, [r2]	@ movhi
 318:.\Generated_Source\PSoC5/cyfitter_cfg.c **** 	CY_SET_XTND_REG8((void CYFAR *)(CYREG_IMO_TR1), (CY_GET_XTND_REG8((void CYFAR *)CYREG_FLSHID_CUST_
 473              		.loc 1 318 0
 474 00de 5221     		movs	r1, #82
 475 00e0 1E4B     		ldr	r3, .L27+40
 476 00e2 1970     		strb	r1, [r3]
 319:.\Generated_Source\PSoC5/cyfitter_cfg.c **** 	CY_SET_XTND_REG8((void CYFAR *)(CYREG_CLKDIST_MSTR0), 0x07u);
 477              		.loc 1 319 0
 478 00e4 1E4B     		ldr	r3, .L27+44
 479 00e6 1B78     		ldrb	r3, [r3]	@ zero_extendqisi2
ARM GAS  C:\Users\Alex\AppData\Local\Temp\cccCDN48.s 			page 17


 480 00e8 DBB2     		uxtb	r3, r3
 481 00ea 1E49     		ldr	r1, .L27+48
 482 00ec 0B70     		strb	r3, [r1]
 320:.\Generated_Source\PSoC5/cyfitter_cfg.c **** 	CY_SET_XTND_REG8((void CYFAR *)(CYREG_CLKDIST_BCFG0), 0x00u);
 483              		.loc 1 320 0
 484 00ee 0723     		movs	r3, #7
 485 00f0 1370     		strb	r3, [r2]
 321:.\Generated_Source\PSoC5/cyfitter_cfg.c **** 	CY_SET_XTND_REG8((void CYFAR *)(CYREG_CLKDIST_BCFG2), 0x48u);
 486              		.loc 1 321 0
 487 00f2 0023     		movs	r3, #0
 488 00f4 A1F29B61 		subw	r1, r1, #1691
 489 00f8 0B70     		strb	r3, [r1]
 322:.\Generated_Source\PSoC5/cyfitter_cfg.c **** 	CY_SET_XTND_REG8((void CYFAR *)(CYREG_CLKDIST_MSTR0), 0x00u);
 490              		.loc 1 322 0
 491 00fa 4820     		movs	r0, #72
 492 00fc 0231     		adds	r1, r1, #2
 493 00fe 0870     		strb	r0, [r1]
 323:.\Generated_Source\PSoC5/cyfitter_cfg.c **** 
 494              		.loc 1 323 0
 495 0100 1370     		strb	r3, [r2]
 326:.\Generated_Source\PSoC5/cyfitter_cfg.c **** 	CY_SET_XTND_REG8((void CYFAR *)(CYREG_CLKDIST_LD), 0x02u);
 496              		.loc 1 326 0
 497 0102 0532     		adds	r2, r2, #5
 498 0104 1370     		strb	r3, [r2]
 327:.\Generated_Source\PSoC5/cyfitter_cfg.c **** 	CY_SET_XTND_REG8((void CYFAR *)(CYREG_CLKDIST_DLY1), 0x04u);
 499              		.loc 1 327 0
 500 0106 0222     		movs	r2, #2
 501 0108 174B     		ldr	r3, .L27+52
 502 010a 1A70     		strb	r2, [r3]
 328:.\Generated_Source\PSoC5/cyfitter_cfg.c **** 
 503              		.loc 1 328 0
 504 010c 0422     		movs	r2, #4
 505 010e 0A33     		adds	r3, r3, #10
 506 0110 1A70     		strb	r2, [r3]
 330:.\Generated_Source\PSoC5/cyfitter_cfg.c **** 	CY_SET_XTND_REG8((void CYFAR *)(CYREG_PM_ACT_CFG1), ((CY_GET_XTND_REG8((void CYFAR *)CYREG_PM_ACT_
 507              		.loc 1 330 0
 508 0112 164A     		ldr	r2, .L27+56
 509 0114 1378     		ldrb	r3, [r2]	@ zero_extendqisi2
 510 0116 43F07F03 		orr	r3, r3, #127
 511 011a 1370     		strb	r3, [r2]
 331:.\Generated_Source\PSoC5/cyfitter_cfg.c **** 	CY_SET_XTND_REG8((void CYFAR *)(CYREG_PM_ACT_CFG0), ((CY_GET_XTND_REG8((void CYFAR *)CYREG_PM_ACT_
 512              		.loc 1 331 0
 513 011c 013A     		subs	r2, r2, #1
 514 011e 1378     		ldrb	r3, [r2]	@ zero_extendqisi2
 515 0120 43F00703 		orr	r3, r3, #7
 516 0124 1370     		strb	r3, [r2]
 332:.\Generated_Source\PSoC5/cyfitter_cfg.c **** }
 517              		.loc 1 332 0
 518 0126 013A     		subs	r2, r2, #1
 519 0128 1378     		ldrb	r3, [r2]	@ zero_extendqisi2
 520 012a 43F08003 		orr	r3, r3, #128
 521 012e 1370     		strb	r3, [r2]
 522 0130 38BD     		pop	{r3, r4, r5, pc}
 523              	.LVL36:
 524              	.L28:
 525 0132 00BF     		.align	2
 526              	.L27:
ARM GAS  C:\Users\Alex\AppData\Local\Temp\cccCDN48.s 			page 18


 527 0134 80400040 		.word	1073758336
 528 0138 82400040 		.word	1073758338
 529 013c 84400040 		.word	1073758340
 530 0140 00410040 		.word	1073758464
 531 0144 8C140048 		.word	1207964812
 532 0148 00430040 		.word	1073758976
 533 014c 10420040 		.word	1073758736
 534 0150 22420040 		.word	1073758754
 535 0154 25420040 		.word	1073758757
 536 0158 04400040 		.word	1073758212
 537 015c 00420040 		.word	1073758720
 538 0160 0F010049 		.word	1224737039
 539 0164 A1460040 		.word	1073759905
 540 0168 01400040 		.word	1073758209
 541 016c A2430040 		.word	1073759138
 542              		.cfi_endproc
 543              	.LFE5:
 544              		.size	ClockSetup, .-ClockSetup
 545              		.section	.text.SetAnalogRoutingPumps,"ax",%progbits
 546              		.align	2
 547              		.global	SetAnalogRoutingPumps
 548              		.thumb
 549              		.thumb_func
 550              		.type	SetAnalogRoutingPumps, %function
 551              	SetAnalogRoutingPumps:
 552              	.LFB7:
 385:.\Generated_Source\PSoC5/cyfitter_cfg.c **** 
 386:.\Generated_Source\PSoC5/cyfitter_cfg.c **** 
 387:.\Generated_Source\PSoC5/cyfitter_cfg.c **** /*******************************************************************************
 388:.\Generated_Source\PSoC5/cyfitter_cfg.c **** * Function Name: SetAnalogRoutingPumps
 389:.\Generated_Source\PSoC5/cyfitter_cfg.c **** ********************************************************************************
 390:.\Generated_Source\PSoC5/cyfitter_cfg.c **** *
 391:.\Generated_Source\PSoC5/cyfitter_cfg.c **** * Summary:
 392:.\Generated_Source\PSoC5/cyfitter_cfg.c **** * Enables or disables the analog pumps feeding analog routing switches.
 393:.\Generated_Source\PSoC5/cyfitter_cfg.c **** * Intended to be called at startup, based on the Vdda system configuration;
 394:.\Generated_Source\PSoC5/cyfitter_cfg.c **** * may be called during operation when the user informs us that the Vdda voltage
 395:.\Generated_Source\PSoC5/cyfitter_cfg.c **** * crossed the pump threshold.
 396:.\Generated_Source\PSoC5/cyfitter_cfg.c **** *
 397:.\Generated_Source\PSoC5/cyfitter_cfg.c **** * Parameters:
 398:.\Generated_Source\PSoC5/cyfitter_cfg.c **** *  enabled - 1 to enable the pumps, 0 to disable the pumps
 399:.\Generated_Source\PSoC5/cyfitter_cfg.c **** *
 400:.\Generated_Source\PSoC5/cyfitter_cfg.c **** * Return:
 401:.\Generated_Source\PSoC5/cyfitter_cfg.c **** *  void
 402:.\Generated_Source\PSoC5/cyfitter_cfg.c **** *
 403:.\Generated_Source\PSoC5/cyfitter_cfg.c **** *******************************************************************************/
 404:.\Generated_Source\PSoC5/cyfitter_cfg.c **** void SetAnalogRoutingPumps(uint8 enabled)
 405:.\Generated_Source\PSoC5/cyfitter_cfg.c **** {
 553              		.loc 1 405 0
 554              		.cfi_startproc
 555              		@ args = 0, pretend = 0, frame = 0
 556              		@ frame_needed = 0, uses_anonymous_args = 0
 557              		@ link register save eliminated.
 558              	.LVL37:
 406:.\Generated_Source\PSoC5/cyfitter_cfg.c **** 	uint8 regValue = CY_GET_XTND_REG8((void CYFAR *)CYREG_PUMP_CR0);
 559              		.loc 1 406 0
 560 0000 054B     		ldr	r3, .L32
 561 0002 1B78     		ldrb	r3, [r3]	@ zero_extendqisi2
ARM GAS  C:\Users\Alex\AppData\Local\Temp\cccCDN48.s 			page 19


 562 0004 DBB2     		uxtb	r3, r3
 563              	.LVL38:
 407:.\Generated_Source\PSoC5/cyfitter_cfg.c **** 	if (enabled != 0u)
 564              		.loc 1 407 0
 565 0006 10B1     		cbz	r0, .L30
 408:.\Generated_Source\PSoC5/cyfitter_cfg.c **** 	{
 409:.\Generated_Source\PSoC5/cyfitter_cfg.c **** 		regValue |= 0x22u;
 566              		.loc 1 409 0
 567 0008 43F02203 		orr	r3, r3, #34
 568              	.LVL39:
 569 000c 01E0     		b	.L31
 570              	.L30:
 410:.\Generated_Source\PSoC5/cyfitter_cfg.c **** 	}
 411:.\Generated_Source\PSoC5/cyfitter_cfg.c **** 	else
 412:.\Generated_Source\PSoC5/cyfitter_cfg.c **** 	{
 413:.\Generated_Source\PSoC5/cyfitter_cfg.c **** 		regValue &= (uint8)~0x22u;
 571              		.loc 1 413 0
 572 000e 03F0DD03 		and	r3, r3, #221
 573              	.LVL40:
 574              	.L31:
 414:.\Generated_Source\PSoC5/cyfitter_cfg.c **** 	}
 415:.\Generated_Source\PSoC5/cyfitter_cfg.c **** 	CY_SET_XTND_REG8((void CYFAR *)CYREG_PUMP_CR0, regValue);
 575              		.loc 1 415 0
 576 0012 014A     		ldr	r2, .L32
 577 0014 1370     		strb	r3, [r2]
 578 0016 7047     		bx	lr
 579              	.L33:
 580              		.align	2
 581              	.L32:
 582 0018 76580040 		.word	1073764470
 583              		.cfi_endproc
 584              	.LFE7:
 585              		.size	SetAnalogRoutingPumps, .-SetAnalogRoutingPumps
 586              		.section	.text.AMux_1_Set,"ax",%progbits
 587              		.align	2
 588              		.global	AMux_1_Set
 589              		.thumb
 590              		.thumb_func
 591              		.type	AMux_1_Set, %function
 592              	AMux_1_Set:
 593              	.LFB8:
 416:.\Generated_Source\PSoC5/cyfitter_cfg.c **** }
 417:.\Generated_Source\PSoC5/cyfitter_cfg.c **** 
 418:.\Generated_Source\PSoC5/cyfitter_cfg.c **** #define CY_AMUX_UNUSED CYREG_BOOST_SR
 419:.\Generated_Source\PSoC5/cyfitter_cfg.c **** static uint8 CYXDATA * const CYCODE AMux_1__outerAddr[6] = {
 420:.\Generated_Source\PSoC5/cyfitter_cfg.c **** 	(uint8 CYXDATA *)CYREG_SC2_SW8, 
 421:.\Generated_Source\PSoC5/cyfitter_cfg.c **** 	(uint8 CYXDATA *)CYREG_SC3_SW8, 
 422:.\Generated_Source\PSoC5/cyfitter_cfg.c **** 	(uint8 CYXDATA *)CYREG_PRT0_AMUX, 
 423:.\Generated_Source\PSoC5/cyfitter_cfg.c **** 	(uint8 CYXDATA *)CYREG_PRT0_AG, 
 424:.\Generated_Source\PSoC5/cyfitter_cfg.c **** 	(uint8 CYXDATA *)CYREG_PRT4_AG, 
 425:.\Generated_Source\PSoC5/cyfitter_cfg.c **** 	(uint8 CYXDATA *)CYREG_PRT6_AG, 
 426:.\Generated_Source\PSoC5/cyfitter_cfg.c **** };
 427:.\Generated_Source\PSoC5/cyfitter_cfg.c **** 
 428:.\Generated_Source\PSoC5/cyfitter_cfg.c **** static const uint8 CYCODE AMux_1__outerMask[6] = {
 429:.\Generated_Source\PSoC5/cyfitter_cfg.c **** 	0x10u, 
 430:.\Generated_Source\PSoC5/cyfitter_cfg.c **** 	0x10u, 
 431:.\Generated_Source\PSoC5/cyfitter_cfg.c **** 	0x20u, 
ARM GAS  C:\Users\Alex\AppData\Local\Temp\cccCDN48.s 			page 20


 432:.\Generated_Source\PSoC5/cyfitter_cfg.c **** 	0x01u, 
 433:.\Generated_Source\PSoC5/cyfitter_cfg.c **** 	0x01u, 
 434:.\Generated_Source\PSoC5/cyfitter_cfg.c **** 	0x80u, 
 435:.\Generated_Source\PSoC5/cyfitter_cfg.c **** };
 436:.\Generated_Source\PSoC5/cyfitter_cfg.c **** 
 437:.\Generated_Source\PSoC5/cyfitter_cfg.c **** static uint8 CYXDATA * const CYCODE AMux_1__innerAddr[3] = {
 438:.\Generated_Source\PSoC5/cyfitter_cfg.c **** 	(uint8 CYXDATA *)CYREG_SAR0_SW0, 
 439:.\Generated_Source\PSoC5/cyfitter_cfg.c **** 	(uint8 CYXDATA *)CYREG_SAR0_SW3, 
 440:.\Generated_Source\PSoC5/cyfitter_cfg.c **** 	(uint8 CYXDATA *)CYREG_SAR0_SW0, 
 441:.\Generated_Source\PSoC5/cyfitter_cfg.c **** };
 442:.\Generated_Source\PSoC5/cyfitter_cfg.c **** 
 443:.\Generated_Source\PSoC5/cyfitter_cfg.c **** static const uint8 CYCODE AMux_1__innerMask[3] = {
 444:.\Generated_Source\PSoC5/cyfitter_cfg.c **** 	0x10u, 
 445:.\Generated_Source\PSoC5/cyfitter_cfg.c **** 	0x01u, 
 446:.\Generated_Source\PSoC5/cyfitter_cfg.c **** 	0x08u, 
 447:.\Generated_Source\PSoC5/cyfitter_cfg.c **** };
 448:.\Generated_Source\PSoC5/cyfitter_cfg.c **** 
 449:.\Generated_Source\PSoC5/cyfitter_cfg.c **** static const uint8 CYCODE AMux_1__innerMap[6] = {
 450:.\Generated_Source\PSoC5/cyfitter_cfg.c **** 	0u, 
 451:.\Generated_Source\PSoC5/cyfitter_cfg.c **** 	0u, 
 452:.\Generated_Source\PSoC5/cyfitter_cfg.c **** 	1u, 
 453:.\Generated_Source\PSoC5/cyfitter_cfg.c **** 	0u, 
 454:.\Generated_Source\PSoC5/cyfitter_cfg.c **** 	0u, 
 455:.\Generated_Source\PSoC5/cyfitter_cfg.c **** 	2u, 
 456:.\Generated_Source\PSoC5/cyfitter_cfg.c **** };
 457:.\Generated_Source\PSoC5/cyfitter_cfg.c **** 
 458:.\Generated_Source\PSoC5/cyfitter_cfg.c **** static uint8 AMux_1__armsEnabled = 0u;
 459:.\Generated_Source\PSoC5/cyfitter_cfg.c **** static uint8 AMux_1__refCnt[] = {0u, 0u, 0u};
 460:.\Generated_Source\PSoC5/cyfitter_cfg.c **** 
 461:.\Generated_Source\PSoC5/cyfitter_cfg.c **** /*******************************************************************************
 462:.\Generated_Source\PSoC5/cyfitter_cfg.c **** * Function Name: AMux_1_Set
 463:.\Generated_Source\PSoC5/cyfitter_cfg.c **** ********************************************************************************
 464:.\Generated_Source\PSoC5/cyfitter_cfg.c **** * Summary:
 465:.\Generated_Source\PSoC5/cyfitter_cfg.c **** *  This function is used to set a particular channel as active on the AMux.
 466:.\Generated_Source\PSoC5/cyfitter_cfg.c **** *
 467:.\Generated_Source\PSoC5/cyfitter_cfg.c **** * Parameters:  
 468:.\Generated_Source\PSoC5/cyfitter_cfg.c **** *   channel - The mux channel input to set as active
 469:.\Generated_Source\PSoC5/cyfitter_cfg.c **** *
 470:.\Generated_Source\PSoC5/cyfitter_cfg.c **** * Return:
 471:.\Generated_Source\PSoC5/cyfitter_cfg.c **** *   void
 472:.\Generated_Source\PSoC5/cyfitter_cfg.c **** *
 473:.\Generated_Source\PSoC5/cyfitter_cfg.c **** *******************************************************************************/
 474:.\Generated_Source\PSoC5/cyfitter_cfg.c **** void AMux_1_Set(uint8 channel)
 475:.\Generated_Source\PSoC5/cyfitter_cfg.c **** {
 594              		.loc 1 475 0
 595              		.cfi_startproc
 596              		@ args = 0, pretend = 0, frame = 0
 597              		@ frame_needed = 0, uses_anonymous_args = 0
 598              		@ link register save eliminated.
 476:.\Generated_Source\PSoC5/cyfitter_cfg.c **** 	uint8 i;
 477:.\Generated_Source\PSoC5/cyfitter_cfg.c **** 	uint8 channelMask = (1UL << channel);
 599              		.loc 1 477 0
 600 0000 0123     		movs	r3, #1
 601 0002 8340     		lsls	r3, r3, r0
 602 0004 DBB2     		uxtb	r3, r3
 478:.\Generated_Source\PSoC5/cyfitter_cfg.c **** 	if ((channel < 6u) && ((AMux_1__armsEnabled & channelMask) == ((uint32)0u)))
 603              		.loc 1 478 0
ARM GAS  C:\Users\Alex\AppData\Local\Temp\cccCDN48.s 			page 21


 604 0006 0528     		cmp	r0, #5
 605 0008 25D8     		bhi	.L39
 606              		.loc 1 478 0 is_stmt 0 discriminator 1
 607 000a 134A     		ldr	r2, .L40
 608 000c 1278     		ldrb	r2, [r2]	@ zero_extendqisi2
 609 000e 1A42     		tst	r2, r3
 610 0010 21D1     		bne	.L39
 475:.\Generated_Source\PSoC5/cyfitter_cfg.c **** 	uint8 i;
 611              		.loc 1 475 0 is_stmt 1
 612 0012 10B4     		push	{r4}
 613              		.cfi_def_cfa_offset 4
 614              		.cfi_offset 4, -4
 479:.\Generated_Source\PSoC5/cyfitter_cfg.c **** 	{
 480:.\Generated_Source\PSoC5/cyfitter_cfg.c **** 		AMux_1__armsEnabled |= channelMask;
 615              		.loc 1 480 0
 616 0014 1049     		ldr	r1, .L40
 617 0016 1343     		orrs	r3, r3, r2
 618 0018 0B70     		strb	r3, [r1]
 481:.\Generated_Source\PSoC5/cyfitter_cfg.c **** 		*AMux_1__outerAddr[channel] |= AMux_1__outerMask[channel];
 619              		.loc 1 481 0
 620 001a 104B     		ldr	r3, .L40+4
 621 001c 53F82020 		ldr	r2, [r3, r0, lsl #2]
 622 0020 1844     		add	r0, r0, r3
 623 0022 047E     		ldrb	r4, [r0, #24]	@ zero_extendqisi2
 624 0024 1378     		ldrb	r3, [r2]	@ zero_extendqisi2
 625 0026 2343     		orrs	r3, r3, r4
 626 0028 1370     		strb	r3, [r2]
 482:.\Generated_Source\PSoC5/cyfitter_cfg.c **** 		i = AMux_1__innerMap[channel];
 627              		.loc 1 482 0
 628 002a 90F82030 		ldrb	r3, [r0, #32]	@ zero_extendqisi2
 483:.\Generated_Source\PSoC5/cyfitter_cfg.c **** 		if (AMux_1__refCnt[i] == 0u)
 629              		.loc 1 483 0
 630 002e 1944     		add	r1, r1, r3
 631 0030 0A79     		ldrb	r2, [r1, #4]	@ zero_extendqisi2
 632 0032 4AB9     		cbnz	r2, .L36
 484:.\Generated_Source\PSoC5/cyfitter_cfg.c **** 		{
 485:.\Generated_Source\PSoC5/cyfitter_cfg.c **** 			*AMux_1__innerAddr[i] |= AMux_1__innerMask[i];
 633              		.loc 1 485 0
 634 0034 094A     		ldr	r2, .L40+4
 635 0036 02EB8301 		add	r1, r2, r3, lsl #2
 636 003a 896A     		ldr	r1, [r1, #40]
 637 003c 1A44     		add	r2, r2, r3
 638 003e 92F83400 		ldrb	r0, [r2, #52]	@ zero_extendqisi2
 639 0042 0A78     		ldrb	r2, [r1]	@ zero_extendqisi2
 640 0044 0243     		orrs	r2, r2, r0
 641 0046 0A70     		strb	r2, [r1]
 642              	.L36:
 486:.\Generated_Source\PSoC5/cyfitter_cfg.c **** 		}
 487:.\Generated_Source\PSoC5/cyfitter_cfg.c **** 		AMux_1__refCnt[i]++;
 643              		.loc 1 487 0
 644 0048 034A     		ldr	r2, .L40
 645 004a 1344     		add	r3, r3, r2
 646 004c 1A79     		ldrb	r2, [r3, #4]	@ zero_extendqisi2
 647 004e 0132     		adds	r2, r2, #1
 648 0050 1A71     		strb	r2, [r3, #4]
 488:.\Generated_Source\PSoC5/cyfitter_cfg.c **** 	}
 489:.\Generated_Source\PSoC5/cyfitter_cfg.c **** }
ARM GAS  C:\Users\Alex\AppData\Local\Temp\cccCDN48.s 			page 22


 649              		.loc 1 489 0
 650 0052 5DF8044B 		ldr	r4, [sp], #4
 651              		.cfi_restore 4
 652              		.cfi_def_cfa_offset 0
 653              	.L39:
 654 0056 7047     		bx	lr
 655              	.L41:
 656              		.align	2
 657              	.L40:
 658 0058 00000000 		.word	.LANCHOR0
 659 005c 00000000 		.word	.LANCHOR1
 660              		.cfi_endproc
 661              	.LFE8:
 662              		.size	AMux_1_Set, .-AMux_1_Set
 663              		.section	.text.AMux_1_Unset,"ax",%progbits
 664              		.align	2
 665              		.global	AMux_1_Unset
 666              		.thumb
 667              		.thumb_func
 668              		.type	AMux_1_Unset, %function
 669              	AMux_1_Unset:
 670              	.LFB9:
 490:.\Generated_Source\PSoC5/cyfitter_cfg.c **** 
 491:.\Generated_Source\PSoC5/cyfitter_cfg.c **** /*******************************************************************************
 492:.\Generated_Source\PSoC5/cyfitter_cfg.c **** * Function Name: AMux_1_Unset
 493:.\Generated_Source\PSoC5/cyfitter_cfg.c **** ********************************************************************************
 494:.\Generated_Source\PSoC5/cyfitter_cfg.c **** * Summary:
 495:.\Generated_Source\PSoC5/cyfitter_cfg.c **** *  This function is used to clear a particular channel from being active on the
 496:.\Generated_Source\PSoC5/cyfitter_cfg.c **** *  AMux.
 497:.\Generated_Source\PSoC5/cyfitter_cfg.c **** *
 498:.\Generated_Source\PSoC5/cyfitter_cfg.c **** * Parameters:  
 499:.\Generated_Source\PSoC5/cyfitter_cfg.c **** *   channel - The mux channel input to mark inactive
 500:.\Generated_Source\PSoC5/cyfitter_cfg.c **** *
 501:.\Generated_Source\PSoC5/cyfitter_cfg.c **** * Return:
 502:.\Generated_Source\PSoC5/cyfitter_cfg.c **** *   void
 503:.\Generated_Source\PSoC5/cyfitter_cfg.c **** *
 504:.\Generated_Source\PSoC5/cyfitter_cfg.c **** *******************************************************************************/
 505:.\Generated_Source\PSoC5/cyfitter_cfg.c **** void AMux_1_Unset(uint8 channel)
 506:.\Generated_Source\PSoC5/cyfitter_cfg.c **** {
 671              		.loc 1 506 0
 672              		.cfi_startproc
 673              		@ args = 0, pretend = 0, frame = 0
 674              		@ frame_needed = 0, uses_anonymous_args = 0
 675              		@ link register save eliminated.
 507:.\Generated_Source\PSoC5/cyfitter_cfg.c **** 	uint8 i;
 508:.\Generated_Source\PSoC5/cyfitter_cfg.c **** 	uint8 channelMask = (1UL << channel);
 676              		.loc 1 508 0
 677 0000 0123     		movs	r3, #1
 678 0002 8340     		lsls	r3, r3, r0
 679 0004 DBB2     		uxtb	r3, r3
 509:.\Generated_Source\PSoC5/cyfitter_cfg.c **** 	if ((channel < 6u) && ((AMux_1__armsEnabled & channelMask) != ((uint32)0u)))
 680              		.loc 1 509 0
 681 0006 0528     		cmp	r0, #5
 682 0008 26D8     		bhi	.L46
 683              		.loc 1 509 0 is_stmt 0 discriminator 1
 684 000a 144A     		ldr	r2, .L47
 685 000c 1278     		ldrb	r2, [r2]	@ zero_extendqisi2
ARM GAS  C:\Users\Alex\AppData\Local\Temp\cccCDN48.s 			page 23


 686 000e 1A42     		tst	r2, r3
 687 0010 22D0     		beq	.L46
 506:.\Generated_Source\PSoC5/cyfitter_cfg.c **** 	uint8 i;
 688              		.loc 1 506 0 is_stmt 1
 689 0012 10B4     		push	{r4}
 690              		.cfi_def_cfa_offset 4
 691              		.cfi_offset 4, -4
 510:.\Generated_Source\PSoC5/cyfitter_cfg.c **** 	{
 511:.\Generated_Source\PSoC5/cyfitter_cfg.c **** 		AMux_1__armsEnabled &= (uint8)~channelMask;
 692              		.loc 1 511 0
 693 0014 1149     		ldr	r1, .L47
 694 0016 22EA0303 		bic	r3, r2, r3
 695 001a 0B70     		strb	r3, [r1]
 512:.\Generated_Source\PSoC5/cyfitter_cfg.c **** 		*AMux_1__outerAddr[channel] &= (uint8)~AMux_1__outerMask[channel];
 696              		.loc 1 512 0
 697 001c 104B     		ldr	r3, .L47+4
 698 001e 53F82020 		ldr	r2, [r3, r0, lsl #2]
 699 0022 1844     		add	r0, r0, r3
 700 0024 047E     		ldrb	r4, [r0, #24]	@ zero_extendqisi2
 701 0026 1378     		ldrb	r3, [r2]	@ zero_extendqisi2
 702 0028 23EA0403 		bic	r3, r3, r4
 703 002c 1370     		strb	r3, [r2]
 513:.\Generated_Source\PSoC5/cyfitter_cfg.c **** 		i = AMux_1__innerMap[channel];
 704              		.loc 1 513 0
 705 002e 90F82000 		ldrb	r0, [r0, #32]	@ zero_extendqisi2
 514:.\Generated_Source\PSoC5/cyfitter_cfg.c **** 		AMux_1__refCnt[i]--;
 706              		.loc 1 514 0
 707 0032 0A18     		adds	r2, r1, r0
 708 0034 1379     		ldrb	r3, [r2, #4]	@ zero_extendqisi2
 709 0036 013B     		subs	r3, r3, #1
 710 0038 DBB2     		uxtb	r3, r3
 711 003a 1371     		strb	r3, [r2, #4]
 515:.\Generated_Source\PSoC5/cyfitter_cfg.c **** 		if (AMux_1__refCnt[i] == 0)
 712              		.loc 1 515 0
 713 003c 53B9     		cbnz	r3, .L42
 516:.\Generated_Source\PSoC5/cyfitter_cfg.c **** 		{
 517:.\Generated_Source\PSoC5/cyfitter_cfg.c **** 			*AMux_1__innerAddr[i] &= (uint8)~AMux_1__innerMask[i];
 714              		.loc 1 517 0
 715 003e 084B     		ldr	r3, .L47+4
 716 0040 03EB8002 		add	r2, r3, r0, lsl #2
 717 0044 926A     		ldr	r2, [r2, #40]
 718 0046 1844     		add	r0, r0, r3
 719 0048 90F83410 		ldrb	r1, [r0, #52]	@ zero_extendqisi2
 720 004c 1378     		ldrb	r3, [r2]	@ zero_extendqisi2
 721 004e 23EA0103 		bic	r3, r3, r1
 722 0052 1370     		strb	r3, [r2]
 723              	.L42:
 518:.\Generated_Source\PSoC5/cyfitter_cfg.c **** 		}
 519:.\Generated_Source\PSoC5/cyfitter_cfg.c **** 	}
 520:.\Generated_Source\PSoC5/cyfitter_cfg.c **** }
 724              		.loc 1 520 0
 725 0054 5DF8044B 		ldr	r4, [sp], #4
 726              		.cfi_restore 4
 727              		.cfi_def_cfa_offset 0
 728              	.L46:
 729 0058 7047     		bx	lr
 730              	.L48:
ARM GAS  C:\Users\Alex\AppData\Local\Temp\cccCDN48.s 			page 24


 731 005a 00BF     		.align	2
 732              	.L47:
 733 005c 00000000 		.word	.LANCHOR0
 734 0060 00000000 		.word	.LANCHOR1
 735              		.cfi_endproc
 736              	.LFE9:
 737              		.size	AMux_1_Unset, .-AMux_1_Unset
 738              		.section	.text.ADC_DelSig_1_AMux_Set,"ax",%progbits
 739              		.align	2
 740              		.global	ADC_DelSig_1_AMux_Set
 741              		.thumb
 742              		.thumb_func
 743              		.type	ADC_DelSig_1_AMux_Set, %function
 744              	ADC_DelSig_1_AMux_Set:
 745              	.LFB10:
 521:.\Generated_Source\PSoC5/cyfitter_cfg.c **** 
 522:.\Generated_Source\PSoC5/cyfitter_cfg.c **** /* This is an implementation detail of the AMux. Code that depends on it may be
 523:.\Generated_Source\PSoC5/cyfitter_cfg.c ****    incompatible with other versions of PSoC Creator. */
 524:.\Generated_Source\PSoC5/cyfitter_cfg.c **** uint8 CYXDATA * const CYCODE ADC_DelSig_1_AMux__addrTable[2] = {
 525:.\Generated_Source\PSoC5/cyfitter_cfg.c **** 	(uint8 CYXDATA *)CYREG_DSM0_SW3, 
 526:.\Generated_Source\PSoC5/cyfitter_cfg.c **** 	(uint8 CYXDATA *)CY_AMUX_UNUSED, 
 527:.\Generated_Source\PSoC5/cyfitter_cfg.c **** };
 528:.\Generated_Source\PSoC5/cyfitter_cfg.c **** 
 529:.\Generated_Source\PSoC5/cyfitter_cfg.c **** /* This is an implementation detail of the AMux. Code that depends on it may be
 530:.\Generated_Source\PSoC5/cyfitter_cfg.c ****    incompatible with other versions of PSoC Creator. */
 531:.\Generated_Source\PSoC5/cyfitter_cfg.c **** const uint8 CYCODE ADC_DelSig_1_AMux__maskTable[2] = {
 532:.\Generated_Source\PSoC5/cyfitter_cfg.c **** 	0x40u, 
 533:.\Generated_Source\PSoC5/cyfitter_cfg.c **** 	0x00u, 
 534:.\Generated_Source\PSoC5/cyfitter_cfg.c **** };
 535:.\Generated_Source\PSoC5/cyfitter_cfg.c **** 
 536:.\Generated_Source\PSoC5/cyfitter_cfg.c **** /*******************************************************************************
 537:.\Generated_Source\PSoC5/cyfitter_cfg.c **** * Function Name: ADC_DelSig_1_AMux_Set
 538:.\Generated_Source\PSoC5/cyfitter_cfg.c **** ********************************************************************************
 539:.\Generated_Source\PSoC5/cyfitter_cfg.c **** * Summary:
 540:.\Generated_Source\PSoC5/cyfitter_cfg.c **** *  This function is used to set a particular channel as active on the AMux.
 541:.\Generated_Source\PSoC5/cyfitter_cfg.c **** *
 542:.\Generated_Source\PSoC5/cyfitter_cfg.c **** * Parameters:  
 543:.\Generated_Source\PSoC5/cyfitter_cfg.c **** *   channel - The mux channel input to set as active
 544:.\Generated_Source\PSoC5/cyfitter_cfg.c **** *
 545:.\Generated_Source\PSoC5/cyfitter_cfg.c **** * Return:
 546:.\Generated_Source\PSoC5/cyfitter_cfg.c **** *   void
 547:.\Generated_Source\PSoC5/cyfitter_cfg.c **** *
 548:.\Generated_Source\PSoC5/cyfitter_cfg.c **** *******************************************************************************/
 549:.\Generated_Source\PSoC5/cyfitter_cfg.c **** void ADC_DelSig_1_AMux_Set(uint8 channel)
 550:.\Generated_Source\PSoC5/cyfitter_cfg.c **** {
 746              		.loc 1 550 0
 747              		.cfi_startproc
 748              		@ args = 0, pretend = 0, frame = 0
 749              		@ frame_needed = 0, uses_anonymous_args = 0
 750              		@ link register save eliminated.
 751              	.LVL41:
 551:.\Generated_Source\PSoC5/cyfitter_cfg.c **** 	if (channel < 2)
 752              		.loc 1 551 0
 753 0000 0128     		cmp	r0, #1
 754 0002 09D8     		bhi	.L49
 552:.\Generated_Source\PSoC5/cyfitter_cfg.c **** 	{
 553:.\Generated_Source\PSoC5/cyfitter_cfg.c **** 		*ADC_DelSig_1_AMux__addrTable[channel] |= ADC_DelSig_1_AMux__maskTable[channel];
ARM GAS  C:\Users\Alex\AppData\Local\Temp\cccCDN48.s 			page 25


 755              		.loc 1 553 0
 756 0004 054B     		ldr	r3, .L51
 757 0006 03EB8002 		add	r2, r3, r0, lsl #2
 758 000a 926B     		ldr	r2, [r2, #56]
 759 000c 1844     		add	r0, r0, r3
 760              	.LVL42:
 761 000e 90F84010 		ldrb	r1, [r0, #64]	@ zero_extendqisi2
 762 0012 1378     		ldrb	r3, [r2]	@ zero_extendqisi2
 763 0014 0B43     		orrs	r3, r3, r1
 764 0016 1370     		strb	r3, [r2]
 765              	.L49:
 766 0018 7047     		bx	lr
 767              	.L52:
 768 001a 00BF     		.align	2
 769              	.L51:
 770 001c 00000000 		.word	.LANCHOR1
 771              		.cfi_endproc
 772              	.LFE10:
 773              		.size	ADC_DelSig_1_AMux_Set, .-ADC_DelSig_1_AMux_Set
 774              		.section	.text.ADC_DelSig_1_AMux_Unset,"ax",%progbits
 775              		.align	2
 776              		.global	ADC_DelSig_1_AMux_Unset
 777              		.thumb
 778              		.thumb_func
 779              		.type	ADC_DelSig_1_AMux_Unset, %function
 780              	ADC_DelSig_1_AMux_Unset:
 781              	.LFB11:
 554:.\Generated_Source\PSoC5/cyfitter_cfg.c **** 	}
 555:.\Generated_Source\PSoC5/cyfitter_cfg.c **** }
 556:.\Generated_Source\PSoC5/cyfitter_cfg.c **** 
 557:.\Generated_Source\PSoC5/cyfitter_cfg.c **** /*******************************************************************************
 558:.\Generated_Source\PSoC5/cyfitter_cfg.c **** * Function Name: ADC_DelSig_1_AMux_Unset
 559:.\Generated_Source\PSoC5/cyfitter_cfg.c **** ********************************************************************************
 560:.\Generated_Source\PSoC5/cyfitter_cfg.c **** * Summary:
 561:.\Generated_Source\PSoC5/cyfitter_cfg.c **** *  This function is used to clear a particular channel from being active on the
 562:.\Generated_Source\PSoC5/cyfitter_cfg.c **** *  AMux.
 563:.\Generated_Source\PSoC5/cyfitter_cfg.c **** *
 564:.\Generated_Source\PSoC5/cyfitter_cfg.c **** * Parameters:  
 565:.\Generated_Source\PSoC5/cyfitter_cfg.c **** *   channel - The mux channel input to mark inactive
 566:.\Generated_Source\PSoC5/cyfitter_cfg.c **** *
 567:.\Generated_Source\PSoC5/cyfitter_cfg.c **** * Return:
 568:.\Generated_Source\PSoC5/cyfitter_cfg.c **** *   void
 569:.\Generated_Source\PSoC5/cyfitter_cfg.c **** *
 570:.\Generated_Source\PSoC5/cyfitter_cfg.c **** *******************************************************************************/
 571:.\Generated_Source\PSoC5/cyfitter_cfg.c **** void ADC_DelSig_1_AMux_Unset(uint8 channel)
 572:.\Generated_Source\PSoC5/cyfitter_cfg.c **** {
 782              		.loc 1 572 0
 783              		.cfi_startproc
 784              		@ args = 0, pretend = 0, frame = 0
 785              		@ frame_needed = 0, uses_anonymous_args = 0
 786              		@ link register save eliminated.
 787              	.LVL43:
 573:.\Generated_Source\PSoC5/cyfitter_cfg.c **** 	if (channel < 2)
 788              		.loc 1 573 0
 789 0000 0128     		cmp	r0, #1
 790 0002 0AD8     		bhi	.L53
 574:.\Generated_Source\PSoC5/cyfitter_cfg.c **** 	{
ARM GAS  C:\Users\Alex\AppData\Local\Temp\cccCDN48.s 			page 26


 575:.\Generated_Source\PSoC5/cyfitter_cfg.c **** 		*ADC_DelSig_1_AMux__addrTable[channel] &= (uint8)~ADC_DelSig_1_AMux__maskTable[channel];
 791              		.loc 1 575 0
 792 0004 054B     		ldr	r3, .L55
 793 0006 03EB8002 		add	r2, r3, r0, lsl #2
 794 000a 926B     		ldr	r2, [r2, #56]
 795 000c 1844     		add	r0, r0, r3
 796              	.LVL44:
 797 000e 90F84010 		ldrb	r1, [r0, #64]	@ zero_extendqisi2
 798 0012 1378     		ldrb	r3, [r2]	@ zero_extendqisi2
 799 0014 23EA0103 		bic	r3, r3, r1
 800 0018 1370     		strb	r3, [r2]
 801              	.L53:
 802 001a 7047     		bx	lr
 803              	.L56:
 804              		.align	2
 805              	.L55:
 806 001c 00000000 		.word	.LANCHOR1
 807              		.cfi_endproc
 808              	.LFE11:
 809              		.size	ADC_DelSig_1_AMux_Unset, .-ADC_DelSig_1_AMux_Unset
 810              		.section	.text.cyfitter_cfg,"ax",%progbits
 811              		.align	2
 812              		.global	cyfitter_cfg
 813              		.thumb
 814              		.thumb_func
 815              		.type	cyfitter_cfg, %function
 816              	cyfitter_cfg:
 817              	.LFB12:
 576:.\Generated_Source\PSoC5/cyfitter_cfg.c **** 	}
 577:.\Generated_Source\PSoC5/cyfitter_cfg.c **** }
 578:.\Generated_Source\PSoC5/cyfitter_cfg.c **** 
 579:.\Generated_Source\PSoC5/cyfitter_cfg.c **** 
 580:.\Generated_Source\PSoC5/cyfitter_cfg.c **** 
 581:.\Generated_Source\PSoC5/cyfitter_cfg.c **** /*******************************************************************************
 582:.\Generated_Source\PSoC5/cyfitter_cfg.c **** * Function Name: cyfitter_cfg
 583:.\Generated_Source\PSoC5/cyfitter_cfg.c **** ********************************************************************************
 584:.\Generated_Source\PSoC5/cyfitter_cfg.c **** * Summary:
 585:.\Generated_Source\PSoC5/cyfitter_cfg.c **** *  This function is called by the start-up code for the selected device. It
 586:.\Generated_Source\PSoC5/cyfitter_cfg.c **** *  performs all of the necessary device configuration based on the design
 587:.\Generated_Source\PSoC5/cyfitter_cfg.c **** *  settings.  This includes settings from the Design Wide Resources (DWR) such
 588:.\Generated_Source\PSoC5/cyfitter_cfg.c **** *  as Clocks and Pins as well as any component configuration that is necessary.
 589:.\Generated_Source\PSoC5/cyfitter_cfg.c **** *
 590:.\Generated_Source\PSoC5/cyfitter_cfg.c **** * Parameters:  
 591:.\Generated_Source\PSoC5/cyfitter_cfg.c **** *   void
 592:.\Generated_Source\PSoC5/cyfitter_cfg.c **** *
 593:.\Generated_Source\PSoC5/cyfitter_cfg.c **** * Return:
 594:.\Generated_Source\PSoC5/cyfitter_cfg.c **** *   void
 595:.\Generated_Source\PSoC5/cyfitter_cfg.c **** *
 596:.\Generated_Source\PSoC5/cyfitter_cfg.c **** *******************************************************************************/
 597:.\Generated_Source\PSoC5/cyfitter_cfg.c **** 
 598:.\Generated_Source\PSoC5/cyfitter_cfg.c **** void cyfitter_cfg(void)
 599:.\Generated_Source\PSoC5/cyfitter_cfg.c **** {
 818              		.loc 1 599 0
 819              		.cfi_startproc
 820              		@ args = 0, pretend = 0, frame = 0
 821              		@ frame_needed = 0, uses_anonymous_args = 0
 822 0000 38B5     		push	{r3, r4, r5, lr}
ARM GAS  C:\Users\Alex\AppData\Local\Temp\cccCDN48.s 			page 27


 823              		.cfi_def_cfa_offset 16
 824              		.cfi_offset 3, -16
 825              		.cfi_offset 4, -12
 826              		.cfi_offset 5, -8
 827              		.cfi_offset 14, -4
 600:.\Generated_Source\PSoC5/cyfitter_cfg.c **** #ifdef CYGlobalIntDisable
 601:.\Generated_Source\PSoC5/cyfitter_cfg.c **** 	/* Disable interrupts by default. Let user enable if/when they want. */
 602:.\Generated_Source\PSoC5/cyfitter_cfg.c **** 	CYGlobalIntDisable
 828              		.loc 1 602 0
 829              	@ 602 ".\Generated_Source\PSoC5\cyfitter_cfg.c" 1
 830 0002 72B6     		CPSID   i
 831              	@ 0 "" 2
 603:.\Generated_Source\PSoC5/cyfitter_cfg.c **** #endif
 604:.\Generated_Source\PSoC5/cyfitter_cfg.c **** 
 605:.\Generated_Source\PSoC5/cyfitter_cfg.c **** 	/* Enable/Disable Debug functionality based on settings from System DWR */
 606:.\Generated_Source\PSoC5/cyfitter_cfg.c **** 	CY_SET_XTND_REG8((void CYFAR *)CYREG_MLOGIC_DEBUG, (CY_GET_XTND_REG8((void CYFAR *)CYREG_MLOGIC_DE
 832              		.loc 1 606 0
 833              		.thumb
 834 0004 594A     		ldr	r2, .L63
 835 0006 1378     		ldrb	r3, [r2]	@ zero_extendqisi2
 836 0008 43F00403 		orr	r3, r3, #4
 837 000c 1370     		strb	r3, [r2]
 838              	.LVL45:
 839              	.LBB3:
 607:.\Generated_Source\PSoC5/cyfitter_cfg.c **** 
 608:.\Generated_Source\PSoC5/cyfitter_cfg.c **** 	{
 609:.\Generated_Source\PSoC5/cyfitter_cfg.c **** 
 610:.\Generated_Source\PSoC5/cyfitter_cfg.c **** 		CYPACKED typedef struct {
 611:.\Generated_Source\PSoC5/cyfitter_cfg.c **** 			void CYFAR *address;
 612:.\Generated_Source\PSoC5/cyfitter_cfg.c **** 			uint16 size;
 613:.\Generated_Source\PSoC5/cyfitter_cfg.c **** 		} CYPACKED_ATTR cfg_memset_t;
 614:.\Generated_Source\PSoC5/cyfitter_cfg.c **** 
 615:.\Generated_Source\PSoC5/cyfitter_cfg.c **** 
 616:.\Generated_Source\PSoC5/cyfitter_cfg.c **** 		CYPACKED typedef struct {
 617:.\Generated_Source\PSoC5/cyfitter_cfg.c **** 			void CYFAR *dest;
 618:.\Generated_Source\PSoC5/cyfitter_cfg.c **** 			const void CYFAR *src;
 619:.\Generated_Source\PSoC5/cyfitter_cfg.c **** 			uint16 size;
 620:.\Generated_Source\PSoC5/cyfitter_cfg.c **** 		} CYPACKED_ATTR cfg_memcpy_t;
 621:.\Generated_Source\PSoC5/cyfitter_cfg.c **** 
 622:.\Generated_Source\PSoC5/cyfitter_cfg.c **** 		static const cfg_memset_t CYCODE cfg_memset_list [] = {
 623:.\Generated_Source\PSoC5/cyfitter_cfg.c **** 			/* address, size */
 624:.\Generated_Source\PSoC5/cyfitter_cfg.c **** 			{(void CYFAR *)(CYREG_I2C_XCFG), 25u},
 625:.\Generated_Source\PSoC5/cyfitter_cfg.c **** 			{(void CYFAR *)(CYREG_TMR0_CFG0), 36u},
 626:.\Generated_Source\PSoC5/cyfitter_cfg.c **** 			{(void CYFAR *)(CYDEV_UCFG_B0_P0_U0_BASE), 4096u},
 627:.\Generated_Source\PSoC5/cyfitter_cfg.c **** 			{(void CYFAR *)(CYDEV_UCFG_B1_P2_U1_BASE), 512u},
 628:.\Generated_Source\PSoC5/cyfitter_cfg.c **** 			{(void CYFAR *)(CYDEV_UCFG_B1_P3_ROUTE_BASE), 256u},
 629:.\Generated_Source\PSoC5/cyfitter_cfg.c **** 			{(void CYFAR *)(CYDEV_UCFG_B1_P4_U1_BASE), 384u},
 630:.\Generated_Source\PSoC5/cyfitter_cfg.c **** 			{(void CYFAR *)(CYDEV_UCFG_B1_P5_ROUTE_BASE), 256u},
 631:.\Generated_Source\PSoC5/cyfitter_cfg.c **** 			{(void CYFAR *)(CYDEV_UCFG_DSI0_BASE), 2560u},
 632:.\Generated_Source\PSoC5/cyfitter_cfg.c **** 			{(void CYFAR *)(CYDEV_UCFG_DSI12_BASE), 512u},
 633:.\Generated_Source\PSoC5/cyfitter_cfg.c **** 			{(void CYFAR *)(CYREG_BCTL1_MDCLK_EN), 16u},
 634:.\Generated_Source\PSoC5/cyfitter_cfg.c **** 		};
 635:.\Generated_Source\PSoC5/cyfitter_cfg.c **** 
 636:.\Generated_Source\PSoC5/cyfitter_cfg.c **** 		static const cfg_memcpy_t CYCODE cfg_memcpy_list [] = {
 637:.\Generated_Source\PSoC5/cyfitter_cfg.c **** 			/* dest, src, size */
 638:.\Generated_Source\PSoC5/cyfitter_cfg.c **** 			{(void CYFAR *)(CYREG_IDMUX_IRQ_CTL0), BS_IDMUX_IRQ_VAL, 8u},
 639:.\Generated_Source\PSoC5/cyfitter_cfg.c **** 			{(void CYFAR *)(CYDEV_UCFG_B1_P2_U0_BASE), BS_UDB_1_0_0_CONFIG_VAL, 128u},
ARM GAS  C:\Users\Alex\AppData\Local\Temp\cccCDN48.s 			page 28


 640:.\Generated_Source\PSoC5/cyfitter_cfg.c **** 			{(void CYFAR *)(CYDEV_UCFG_B1_P3_U1_BASE), BS_UDB_1_1_0_CONFIG_VAL, 128u},
 641:.\Generated_Source\PSoC5/cyfitter_cfg.c **** 			{(void CYFAR *)(CYDEV_UCFG_B1_P4_U0_BASE), BS_UDB_0_1_1_CONFIG_VAL, 128u},
 642:.\Generated_Source\PSoC5/cyfitter_cfg.c **** 			{(void CYFAR *)(CYDEV_UCFG_B1_P5_U0_BASE), BS_UDB_0_0_0_CONFIG_VAL, 128u},
 643:.\Generated_Source\PSoC5/cyfitter_cfg.c **** 			{(void CYFAR *)(CYDEV_UCFG_B1_P5_U1_BASE), BS_UDB_0_0_1_CONFIG_VAL, 128u},
 644:.\Generated_Source\PSoC5/cyfitter_cfg.c **** 			{(void CYFAR *)(CYREG_BCTL0_MDCLK_EN), BS_UCFG_BCTL0_VAL, 16u},
 645:.\Generated_Source\PSoC5/cyfitter_cfg.c **** 		};
 646:.\Generated_Source\PSoC5/cyfitter_cfg.c **** 
 647:.\Generated_Source\PSoC5/cyfitter_cfg.c **** 		uint8 CYDATA i;
 648:.\Generated_Source\PSoC5/cyfitter_cfg.c **** 
 649:.\Generated_Source\PSoC5/cyfitter_cfg.c **** 		/* Zero out critical memory blocks before beginning configuration */
 650:.\Generated_Source\PSoC5/cyfitter_cfg.c **** 		for (i = 0u; i < (sizeof(cfg_memset_list)/sizeof(cfg_memset_list[0])); i++)
 840              		.loc 1 650 0
 841 000e 0024     		movs	r4, #0
 842 0010 0BE0     		b	.L58
 843              	.LVL46:
 844              	.L59:
 845              	.LBB4:
 651:.\Generated_Source\PSoC5/cyfitter_cfg.c **** 		{
 652:.\Generated_Source\PSoC5/cyfitter_cfg.c **** 			const cfg_memset_t CYCODE * CYDATA ms = &cfg_memset_list[i];
 653:.\Generated_Source\PSoC5/cyfitter_cfg.c **** 			CYMEMZERO(ms->address, (size_t)(uint32)(ms->size));
 846              		.loc 1 653 0 discriminator 3
 847 0012 5749     		ldr	r1, .L63+4
 848 0014 6300     		lsls	r3, r4, #1
 849 0016 1A19     		adds	r2, r3, r4
 850 0018 5200     		lsls	r2, r2, #1
 851 001a 0A44     		add	r2, r2, r1
 852 001c 506C     		ldr	r0, [r2, #68]	@ unaligned
 853 001e B2F84810 		ldrh	r1, [r2, #72]
 854 0022 FFF7FEFF 		bl	CYMEMZERO
 855              	.LVL47:
 856              	.LBE4:
 650:.\Generated_Source\PSoC5/cyfitter_cfg.c **** 		{
 857              		.loc 1 650 0 discriminator 3
 858 0026 0134     		adds	r4, r4, #1
 859              	.LVL48:
 860 0028 E4B2     		uxtb	r4, r4
 861              	.LVL49:
 862              	.L58:
 650:.\Generated_Source\PSoC5/cyfitter_cfg.c **** 		{
 863              		.loc 1 650 0 is_stmt 0 discriminator 1
 864 002a 092C     		cmp	r4, #9
 865 002c F1D9     		bls	.L59
 866 002e 0024     		movs	r4, #0
 867              	.LVL50:
 868 0030 10E0     		b	.L60
 869              	.LVL51:
 870              	.L61:
 871              	.LBB5:
 654:.\Generated_Source\PSoC5/cyfitter_cfg.c **** 		}
 655:.\Generated_Source\PSoC5/cyfitter_cfg.c **** 
 656:.\Generated_Source\PSoC5/cyfitter_cfg.c **** 		/* Copy device configuration data into registers */
 657:.\Generated_Source\PSoC5/cyfitter_cfg.c **** 		for (i = 0u; i < (sizeof(cfg_memcpy_list)/sizeof(cfg_memcpy_list[0])); i++)
 658:.\Generated_Source\PSoC5/cyfitter_cfg.c **** 		{
 659:.\Generated_Source\PSoC5/cyfitter_cfg.c **** 			const cfg_memcpy_t CYCODE * CYDATA mc = &cfg_memcpy_list[i];
 660:.\Generated_Source\PSoC5/cyfitter_cfg.c **** 			void * CYDATA destPtr = mc->dest;
 872              		.loc 1 660 0 is_stmt 1 discriminator 3
 873 0032 4F49     		ldr	r1, .L63+4
ARM GAS  C:\Users\Alex\AppData\Local\Temp\cccCDN48.s 			page 29


 874 0034 A300     		lsls	r3, r4, #2
 875 0036 1A19     		adds	r2, r3, r4
 876 0038 5200     		lsls	r2, r2, #1
 877 003a 0A44     		add	r2, r2, r1
 878 003c 52F8800F 		ldr	r0, [r2, #128]!	@ unaligned
 879              	.LVL52:
 661:.\Generated_Source\PSoC5/cyfitter_cfg.c **** 			const void * CYDATA srcPtr = mc->src;
 662:.\Generated_Source\PSoC5/cyfitter_cfg.c **** 			uint16 CYDATA numBytes = mc->size;
 880              		.loc 1 662 0 discriminator 3
 881 0040 2344     		add	r3, r3, r4
 882 0042 5B00     		lsls	r3, r3, #1
 883 0044 0B44     		add	r3, r3, r1
 884              	.LVL53:
 663:.\Generated_Source\PSoC5/cyfitter_cfg.c **** 			CYCONFIGCPY(destPtr, srcPtr, numBytes);
 885              		.loc 1 663 0 discriminator 3
 886 0046 5168     		ldr	r1, [r2, #4]	@ unaligned
 887              	.LVL54:
 888 0048 B3F88820 		ldrh	r2, [r3, #136]
 889 004c FFF7FEFF 		bl	CYCONFIGCPY
 890              	.LVL55:
 891              	.LBE5:
 657:.\Generated_Source\PSoC5/cyfitter_cfg.c **** 		{
 892              		.loc 1 657 0 discriminator 3
 893 0050 0134     		adds	r4, r4, #1
 894              	.LVL56:
 895 0052 E4B2     		uxtb	r4, r4
 896              	.LVL57:
 897              	.L60:
 657:.\Generated_Source\PSoC5/cyfitter_cfg.c **** 		{
 898              		.loc 1 657 0 is_stmt 0 discriminator 1
 899 0054 062C     		cmp	r4, #6
 900 0056 ECD9     		bls	.L61
 664:.\Generated_Source\PSoC5/cyfitter_cfg.c **** 		}
 665:.\Generated_Source\PSoC5/cyfitter_cfg.c **** 
 666:.\Generated_Source\PSoC5/cyfitter_cfg.c **** 		cfg_write_bytes32(cy_cfg_addr_table, cy_cfg_data_table);
 901              		.loc 1 666 0 is_stmt 1
 902 0058 4FF09040 		mov	r0, #1207959552
 903 005c 4549     		ldr	r1, .L63+8
 904 005e FFF7FEFF 		bl	cfg_write_bytes32
 905              	.LVL58:
 667:.\Generated_Source\PSoC5/cyfitter_cfg.c **** 
 668:.\Generated_Source\PSoC5/cyfitter_cfg.c **** 		/* Perform normal device configuration. Order is not critical for these items. */
 669:.\Generated_Source\PSoC5/cyfitter_cfg.c **** 		CY_SET_XTND_REG8((void CYFAR *)(CYREG_DSM0_CR3), 0x0Au);
 906              		.loc 1 669 0
 907 0062 0A24     		movs	r4, #10
 908              	.LVL59:
 909 0064 444B     		ldr	r3, .L63+12
 910 0066 1C70     		strb	r4, [r3]
 670:.\Generated_Source\PSoC5/cyfitter_cfg.c **** 		CY_SET_XTND_REG8((void CYFAR *)(CYREG_DSM0_CLK), 0x02u);
 911              		.loc 1 670 0
 912 0068 0222     		movs	r2, #2
 913 006a 03F52173 		add	r3, r3, #644
 914 006e 1A70     		strb	r2, [r3]
 671:.\Generated_Source\PSoC5/cyfitter_cfg.c **** 		CYMEMZERO((void CYFAR *)(CYREG_PHUB_CFGMEM0_CFG0), 4u);
 915              		.loc 1 671 0
 916 0070 4248     		ldr	r0, .L63+16
 917 0072 0421     		movs	r1, #4
ARM GAS  C:\Users\Alex\AppData\Local\Temp\cccCDN48.s 			page 30


 918 0074 FFF7FEFF 		bl	CYMEMZERO
 919              	.LVL60:
 672:.\Generated_Source\PSoC5/cyfitter_cfg.c **** 		CYCONFIGCPY((void CYFAR *)(CYREG_PHUB_CFGMEM10_CFG0), (const void CYFAR *)(BS_PHUB_CFGMEM10_VAL),
 920              		.loc 1 672 0
 921 0078 4148     		ldr	r0, .L63+20
 922 007a 4249     		ldr	r1, .L63+24
 923 007c 0422     		movs	r2, #4
 924 007e FFF7FEFF 		bl	CYCONFIGCPY
 925              	.LVL61:
 673:.\Generated_Source\PSoC5/cyfitter_cfg.c **** 		CYMEMZERO((void CYFAR *)(CYREG_PHUB_CFGMEM1_CFG0), 4u);
 926              		.loc 1 673 0
 927 0082 4148     		ldr	r0, .L63+28
 928 0084 0421     		movs	r1, #4
 929 0086 FFF7FEFF 		bl	CYMEMZERO
 930              	.LVL62:
 674:.\Generated_Source\PSoC5/cyfitter_cfg.c **** 		CYMEMZERO((void CYFAR *)(CYREG_PHUB_CFGMEM2_CFG0), 4u);
 931              		.loc 1 674 0
 932 008a 4048     		ldr	r0, .L63+32
 933 008c 0421     		movs	r1, #4
 934 008e FFF7FEFF 		bl	CYMEMZERO
 935              	.LVL63:
 675:.\Generated_Source\PSoC5/cyfitter_cfg.c **** 		CYCONFIGCPY((void CYFAR *)(CYREG_PHUB_CFGMEM3_CFG0), (const void CYFAR *)(BS_PHUB_CFGMEM3_VAL), 4
 936              		.loc 1 675 0
 937 0092 3F48     		ldr	r0, .L63+36
 938 0094 3F49     		ldr	r1, .L63+40
 939 0096 0422     		movs	r2, #4
 940 0098 FFF7FEFF 		bl	CYCONFIGCPY
 941              	.LVL64:
 676:.\Generated_Source\PSoC5/cyfitter_cfg.c **** 		CYCONFIGCPY((void CYFAR *)(CYREG_PHUB_CFGMEM4_CFG0), (const void CYFAR *)(BS_PHUB_CFGMEM4_VAL), 4
 942              		.loc 1 676 0
 943 009c 3E48     		ldr	r0, .L63+44
 944 009e 3F49     		ldr	r1, .L63+48
 945 00a0 0422     		movs	r2, #4
 946 00a2 FFF7FEFF 		bl	CYCONFIGCPY
 947              	.LVL65:
 677:.\Generated_Source\PSoC5/cyfitter_cfg.c **** 		CYCONFIGCPY((void CYFAR *)(CYREG_PHUB_CFGMEM5_CFG0), (const void CYFAR *)(BS_PHUB_CFGMEM5_VAL), 4
 948              		.loc 1 677 0
 949 00a6 3E48     		ldr	r0, .L63+52
 950 00a8 3E49     		ldr	r1, .L63+56
 951 00aa 0422     		movs	r2, #4
 952 00ac FFF7FEFF 		bl	CYCONFIGCPY
 953              	.LVL66:
 678:.\Generated_Source\PSoC5/cyfitter_cfg.c **** 		CYCONFIGCPY((void CYFAR *)(CYREG_PHUB_CFGMEM6_CFG0), (const void CYFAR *)(BS_PHUB_CFGMEM6_VAL), 4
 954              		.loc 1 678 0
 955 00b0 3D48     		ldr	r0, .L63+60
 956 00b2 3E49     		ldr	r1, .L63+64
 957 00b4 0422     		movs	r2, #4
 958 00b6 FFF7FEFF 		bl	CYCONFIGCPY
 959              	.LVL67:
 679:.\Generated_Source\PSoC5/cyfitter_cfg.c **** 
 680:.\Generated_Source\PSoC5/cyfitter_cfg.c **** 		/* Enable digital routing */
 681:.\Generated_Source\PSoC5/cyfitter_cfg.c **** 		CY_SET_XTND_REG8((void CYFAR *)CYREG_BCTL0_BANK_CTL, CY_GET_XTND_REG8((void CYFAR *)CYREG_BCTL0_B
 960              		.loc 1 681 0
 961 00ba 3D4A     		ldr	r2, .L63+68
 962 00bc 1378     		ldrb	r3, [r2]	@ zero_extendqisi2
 963 00be 43F00203 		orr	r3, r3, #2
 964 00c2 1370     		strb	r3, [r2]
ARM GAS  C:\Users\Alex\AppData\Local\Temp\cccCDN48.s 			page 31


 682:.\Generated_Source\PSoC5/cyfitter_cfg.c **** 		CY_SET_XTND_REG8((void CYFAR *)CYREG_BCTL1_BANK_CTL, CY_GET_XTND_REG8((void CYFAR *)CYREG_BCTL1_B
 965              		.loc 1 682 0
 966 00c4 1032     		adds	r2, r2, #16
 967 00c6 1378     		ldrb	r3, [r2]	@ zero_extendqisi2
 968 00c8 43F00203 		orr	r3, r3, #2
 969 00cc 1370     		strb	r3, [r2]
 683:.\Generated_Source\PSoC5/cyfitter_cfg.c **** 
 684:.\Generated_Source\PSoC5/cyfitter_cfg.c **** 		/* Enable UDB array */
 685:.\Generated_Source\PSoC5/cyfitter_cfg.c **** 		CY_SET_XTND_REG8((void CYFAR *)CYREG_PM_ACT_CFG0, CY_GET_XTND_REG8((void CYFAR *)CYREG_PM_ACT_CFG
 970              		.loc 1 685 0
 971 00ce 394D     		ldr	r5, .L63+72
 972 00d0 2B78     		ldrb	r3, [r5]	@ zero_extendqisi2
 973 00d2 43F04003 		orr	r3, r3, #64
 974 00d6 2B70     		strb	r3, [r5]
 686:.\Generated_Source\PSoC5/cyfitter_cfg.c **** 		CY_SET_XTND_REG8((void CYFAR *)CYREG_PM_AVAIL_CR2, CY_GET_XTND_REG8((void CYFAR *)CYREG_PM_AVAIL_
 975              		.loc 1 686 0
 976 00d8 A2F58632 		sub	r2, r2, #68608
 977 00dc 513A     		subs	r2, r2, #81
 978 00de 1378     		ldrb	r3, [r2]	@ zero_extendqisi2
 979 00e0 43F01003 		orr	r3, r3, #16
 980 00e4 1370     		strb	r3, [r2]
 981              	.LBE3:
 687:.\Generated_Source\PSoC5/cyfitter_cfg.c **** 	}
 688:.\Generated_Source\PSoC5/cyfitter_cfg.c **** 
 689:.\Generated_Source\PSoC5/cyfitter_cfg.c **** 
 690:.\Generated_Source\PSoC5/cyfitter_cfg.c **** 	/* Perform second pass device configuration. These items must be configured in specific order afte
 691:.\Generated_Source\PSoC5/cyfitter_cfg.c **** 	CYCONFIGCPY((void CYFAR *)(CYREG_PRT0_DM0), (const void CYFAR *)(BS_IOPINS0_0_VAL), 8u);
 982              		.loc 1 691 0
 983 00e6 3448     		ldr	r0, .L63+76
 984 00e8 3449     		ldr	r1, .L63+80
 985 00ea 0822     		movs	r2, #8
 986 00ec FFF7FEFF 		bl	CYCONFIGCPY
 987              	.LVL68:
 692:.\Generated_Source\PSoC5/cyfitter_cfg.c **** 	CYCONFIGCPY((void CYFAR *)(CYREG_PRT12_DR), (const void CYFAR *)(BS_IOPINS0_7_VAL), 10u);
 988              		.loc 1 692 0
 989 00f0 3348     		ldr	r0, .L63+84
 990 00f2 3449     		ldr	r1, .L63+88
 991 00f4 2246     		mov	r2, r4
 992 00f6 FFF7FEFF 		bl	CYCONFIGCPY
 993              	.LVL69:
 693:.\Generated_Source\PSoC5/cyfitter_cfg.c **** 	CYCONFIGCPY((void CYFAR *)(CYREG_PRT15_DR), (const void CYFAR *)(BS_IOPINS0_8_VAL), 10u);
 994              		.loc 1 693 0
 995 00fa 3348     		ldr	r0, .L63+92
 996 00fc 3349     		ldr	r1, .L63+96
 997 00fe 2246     		mov	r2, r4
 998 0100 FFF7FEFF 		bl	CYCONFIGCPY
 999              	.LVL70:
 694:.\Generated_Source\PSoC5/cyfitter_cfg.c **** 	CYCONFIGCPY((void CYFAR *)(CYREG_PRT1_DM0), (const void CYFAR *)(BS_IOPINS0_1_VAL), 8u);
 1000              		.loc 1 694 0
 1001 0104 3248     		ldr	r0, .L63+100
 1002 0106 3349     		ldr	r1, .L63+104
 1003 0108 0822     		movs	r2, #8
 1004 010a FFF7FEFF 		bl	CYCONFIGCPY
 1005              	.LVL71:
 695:.\Generated_Source\PSoC5/cyfitter_cfg.c **** 	CYCONFIGCPY((void CYFAR *)(CYREG_PRT2_DR), (const void CYFAR *)(BS_IOPINS0_2_VAL), 10u);
 1006              		.loc 1 695 0
 1007 010e 3248     		ldr	r0, .L63+108
ARM GAS  C:\Users\Alex\AppData\Local\Temp\cccCDN48.s 			page 32


 1008 0110 3249     		ldr	r1, .L63+112
 1009 0112 2246     		mov	r2, r4
 1010 0114 FFF7FEFF 		bl	CYCONFIGCPY
 1011              	.LVL72:
 696:.\Generated_Source\PSoC5/cyfitter_cfg.c **** 	CYCONFIGCPY((void CYFAR *)(CYREG_PRT3_DM0), (const void CYFAR *)(BS_IOPINS0_3_VAL), 8u);
 1012              		.loc 1 696 0
 1013 0118 3148     		ldr	r0, .L63+116
 1014 011a 3249     		ldr	r1, .L63+120
 1015 011c 0822     		movs	r2, #8
 1016 011e FFF7FEFF 		bl	CYCONFIGCPY
 1017              	.LVL73:
 697:.\Generated_Source\PSoC5/cyfitter_cfg.c **** 	CYCONFIGCPY((void CYFAR *)(CYREG_PRT4_DR), (const void CYFAR *)(BS_IOPINS0_4_VAL), 10u);
 1018              		.loc 1 697 0
 1019 0122 3148     		ldr	r0, .L63+124
 1020 0124 3149     		ldr	r1, .L63+128
 1021 0126 2246     		mov	r2, r4
 1022 0128 FFF7FEFF 		bl	CYCONFIGCPY
 1023              	.LVL74:
 698:.\Generated_Source\PSoC5/cyfitter_cfg.c **** 	CYCONFIGCPY((void CYFAR *)(CYREG_PRT5_DM0), (const void CYFAR *)(BS_IOPINS0_5_VAL), 8u);
 1024              		.loc 1 698 0
 1025 012c 3048     		ldr	r0, .L63+132
 1026 012e 3149     		ldr	r1, .L63+136
 1027 0130 0822     		movs	r2, #8
 1028 0132 FFF7FEFF 		bl	CYCONFIGCPY
 1029              	.LVL75:
 699:.\Generated_Source\PSoC5/cyfitter_cfg.c **** 	CYCONFIGCPY((void CYFAR *)(CYREG_PRT6_DR), (const void CYFAR *)(BS_IOPINS0_6_VAL), 10u);
 1030              		.loc 1 699 0
 1031 0136 3048     		ldr	r0, .L63+140
 1032 0138 3049     		ldr	r1, .L63+144
 1033 013a 2246     		mov	r2, r4
 1034 013c FFF7FEFF 		bl	CYCONFIGCPY
 1035              	.LVL76:
 700:.\Generated_Source\PSoC5/cyfitter_cfg.c **** 	CY_SET_XTND_REG8((void CYFAR *)(CYREG_B0_P2_U1_CFG27), 0x84u);
 1036              		.loc 1 700 0
 1037 0140 8422     		movs	r2, #132
 1038 0142 2F4B     		ldr	r3, .L63+148
 1039 0144 1A70     		strb	r2, [r3]
 701:.\Generated_Source\PSoC5/cyfitter_cfg.c **** 	/* Switch Boost to the precision bandgap reference from its internal reference */
 702:.\Generated_Source\PSoC5/cyfitter_cfg.c **** 	CY_SET_REG8((void CYXDATA *)CYREG_BOOST_CR2, (CY_GET_REG8((void CYXDATA *)CYREG_BOOST_CR2) | 0x08u
 1040              		.loc 1 702 0
 1041 0146 2F4A     		ldr	r2, .L63+152
 1042 0148 1378     		ldrb	r3, [r2]	@ zero_extendqisi2
 1043 014a 43F00803 		orr	r3, r3, #8
 1044 014e 1370     		strb	r3, [r2]
 703:.\Generated_Source\PSoC5/cyfitter_cfg.c **** 
 704:.\Generated_Source\PSoC5/cyfitter_cfg.c **** 	/* Set Flash Cycles based on max possible frequency in case a glitch occurs during ClockSetup(). *
 705:.\Generated_Source\PSoC5/cyfitter_cfg.c **** 	CY_SET_XTND_REG8((void CYFAR *)(CYREG_CACHE_CC_CTL), (((CYDEV_INSTRUCT_CACHE_ENABLED) != 0) ? 0x61
 1045              		.loc 1 705 0
 1046 0150 6122     		movs	r2, #97
 1047 0152 2D4B     		ldr	r3, .L63+156
 1048 0154 1A70     		strb	r2, [r3]
 706:.\Generated_Source\PSoC5/cyfitter_cfg.c **** 	/* Setup clocks based on selections from Clock DWR */
 707:.\Generated_Source\PSoC5/cyfitter_cfg.c **** 	ClockSetup();
 1049              		.loc 1 707 0
 1050 0156 FFF7FEFF 		bl	ClockSetup
 1051              	.LVL77:
 708:.\Generated_Source\PSoC5/cyfitter_cfg.c **** 
ARM GAS  C:\Users\Alex\AppData\Local\Temp\cccCDN48.s 			page 33


 709:.\Generated_Source\PSoC5/cyfitter_cfg.c **** 	/* Perform basic analog initialization to defaults */
 710:.\Generated_Source\PSoC5/cyfitter_cfg.c **** 	AnalogSetDefault();
 1052              		.loc 1 710 0
 1053 015a FFF7FEFF 		bl	AnalogSetDefault
 1054              	.LVL78:
 711:.\Generated_Source\PSoC5/cyfitter_cfg.c **** 
 712:.\Generated_Source\PSoC5/cyfitter_cfg.c **** 	/* Configure alternate active mode */
 713:.\Generated_Source\PSoC5/cyfitter_cfg.c **** 	CYCONFIGCPY((void CYFAR *)CYDEV_PM_STBY_BASE, (const void CYFAR *)CYDEV_PM_ACT_BASE, 14u);
 1055              		.loc 1 713 0
 1056 015e 2B48     		ldr	r0, .L63+160
 1057 0160 2946     		mov	r1, r5
 1058 0162 0E22     		movs	r2, #14
 1059 0164 FFF7FEFF 		bl	CYCONFIGCPY
 1060              	.LVL79:
 1061 0168 38BD     		pop	{r3, r4, r5, pc}
 1062              	.L64:
 1063 016a 00BF     		.align	2
 1064              	.L63:
 1065 016c E8460040 		.word	1073759976
 1066 0170 00000000 		.word	.LANCHOR1
 1067 0174 AC000048 		.word	1207959724
 1068 0178 83580040 		.word	1073764483
 1069 017c 00760040 		.word	1073772032
 1070 0180 50760040 		.word	1073772112
 1071 0184 98140048 		.word	1207964824
 1072 0188 08760040 		.word	1073772040
 1073 018c 10760040 		.word	1073772048
 1074 0190 18760040 		.word	1073772056
 1075 0194 9C140048 		.word	1207964828
 1076 0198 20760040 		.word	1073772064
 1077 019c A0140048 		.word	1207964832
 1078 01a0 28760040 		.word	1073772072
 1079 01a4 A4140048 		.word	1207964836
 1080 01a8 30760040 		.word	1073772080
 1081 01ac A8140048 		.word	1207964840
 1082 01b0 03500140 		.word	1073827843
 1083 01b4 A0430040 		.word	1073759136
 1084 01b8 02510040 		.word	1073762562
 1085 01bc 30140048 		.word	1207964720
 1086 01c0 C0510040 		.word	1073762752
 1087 01c4 38140048 		.word	1207964728
 1088 01c8 F0510040 		.word	1073762800
 1089 01cc 44140048 		.word	1207964740
 1090 01d0 12510040 		.word	1073762578
 1091 01d4 50140048 		.word	1207964752
 1092 01d8 20510040 		.word	1073762592
 1093 01dc 58140048 		.word	1207964760
 1094 01e0 32510040 		.word	1073762610
 1095 01e4 64140048 		.word	1207964772
 1096 01e8 40510040 		.word	1073762624
 1097 01ec 6C140048 		.word	1207964780
 1098 01f0 52510040 		.word	1073762642
 1099 01f4 78140048 		.word	1207964792
 1100 01f8 60510040 		.word	1073762656
 1101 01fc 80140048 		.word	1207964800
 1102 0200 DB040140 		.word	1073808603
 1103 0204 22430040 		.word	1073759010
ARM GAS  C:\Users\Alex\AppData\Local\Temp\cccCDN48.s 			page 34


 1104 0208 00480040 		.word	1073760256
 1105 020c B0430040 		.word	1073759152
 1106              		.cfi_endproc
 1107              	.LFE12:
 1108              		.size	cyfitter_cfg, .-cyfitter_cfg
 1109              		.global	ADC_DelSig_1_AMux__maskTable
 1110              		.global	ADC_DelSig_1_AMux__addrTable
 1111              		.section	.rodata
 1112              		.align	2
 1113              		.set	.LANCHOR1,. + 0
 1114              		.type	AMux_1__outerAddr, %object
 1115              		.size	AMux_1__outerAddr, 24
 1116              	AMux_1__outerAddr:
 1117 0000 285A0040 		.word	1073764904
 1118 0004 385A0040 		.word	1073764920
 1119 0008 0C510040 		.word	1073762572
 1120 000c 0D510040 		.word	1073762573
 1121 0010 4D510040 		.word	1073762637
 1122 0014 6D510040 		.word	1073762669
 1123              		.type	AMux_1__outerMask, %object
 1124              		.size	AMux_1__outerMask, 6
 1125              	AMux_1__outerMask:
 1126 0018 10       		.byte	16
 1127 0019 10       		.byte	16
 1128 001a 20       		.byte	32
 1129 001b 01       		.byte	1
 1130 001c 01       		.byte	1
 1131 001d 80       		.byte	-128
 1132 001e 0000     		.space	2
 1133              		.type	AMux_1__innerMap, %object
 1134              		.size	AMux_1__innerMap, 6
 1135              	AMux_1__innerMap:
 1136 0020 00       		.byte	0
 1137 0021 00       		.byte	0
 1138 0022 01       		.byte	1
 1139 0023 00       		.byte	0
 1140 0024 00       		.byte	0
 1141 0025 02       		.byte	2
 1142 0026 0000     		.space	2
 1143              		.type	AMux_1__innerAddr, %object
 1144              		.size	AMux_1__innerAddr, 12
 1145              	AMux_1__innerAddr:
 1146 0028 205B0040 		.word	1073765152
 1147 002c 235B0040 		.word	1073765155
 1148 0030 205B0040 		.word	1073765152
 1149              		.type	AMux_1__innerMask, %object
 1150              		.size	AMux_1__innerMask, 3
 1151              	AMux_1__innerMask:
 1152 0034 10       		.byte	16
 1153 0035 01       		.byte	1
 1154 0036 08       		.byte	8
 1155 0037 00       		.space	1
 1156              		.type	ADC_DelSig_1_AMux__addrTable, %object
 1157              		.size	ADC_DelSig_1_AMux__addrTable, 8
 1158              	ADC_DelSig_1_AMux__addrTable:
 1159 0038 035B0040 		.word	1073765123
 1160 003c 24430040 		.word	1073759012
ARM GAS  C:\Users\Alex\AppData\Local\Temp\cccCDN48.s 			page 35


 1161              		.type	ADC_DelSig_1_AMux__maskTable, %object
 1162              		.size	ADC_DelSig_1_AMux__maskTable, 2
 1163              	ADC_DelSig_1_AMux__maskTable:
 1164 0040 40       		.byte	64
 1165 0041 00       		.byte	0
 1166 0042 0000     		.space	2
 1167              		.type	cfg_memset_list.4925, %object
 1168              		.size	cfg_memset_list.4925, 60
 1169              	cfg_memset_list.4925:
 1170 0044 C8490040 		.word	1073760712
 1171 0048 1900     		.short	25
 1172 004a 004F0040 		.4byte	1073762048
 1173 004e 2400     		.short	36
 1174 0050 00000140 		.word	1073807360
 1175 0054 0010     		.short	4096
 1176 0056 80140140 		.4byte	1073812608
 1177 005a 0002     		.short	512
 1178 005c 00170140 		.word	1073813248
 1179 0060 0001     		.short	256
 1180 0062 80180140 		.4byte	1073813632
 1181 0066 8001     		.short	384
 1182 0068 001B0140 		.word	1073814272
 1183 006c 0001     		.short	256
 1184 006e 00400140 		.4byte	1073823744
 1185 0072 000A     		.short	2560
 1186 0074 004C0140 		.word	1073826816
 1187 0078 0002     		.short	512
 1188 007a 10500140 		.4byte	1073827856
 1189 007e 1000     		.short	16
 1190              		.type	cfg_memcpy_list.4926, %object
 1191              		.size	cfg_memcpy_list.4926, 70
 1192              	cfg_memcpy_list.4926:
 1193 0080 00510140 		.word	1073828096
 1194 0084 98110048 		.word	1207964056
 1195 0088 0800     		.short	8
 1196 008a 00140140 		.4byte	1073812480
 1197 008e A0110048 		.4byte	1207964064
 1198 0092 8000     		.short	128
 1199 0094 80160140 		.word	1073813120
 1200 0098 20120048 		.word	1207964192
 1201 009c 8000     		.short	128
 1202 009e 00180140 		.4byte	1073813504
 1203 00a2 A0120048 		.4byte	1207964320
 1204 00a6 8000     		.short	128
 1205 00a8 001A0140 		.word	1073814016
 1206 00ac 20130048 		.word	1207964448
 1207 00b0 8000     		.short	128
 1208 00b2 801A0140 		.4byte	1073814144
 1209 00b6 A0130048 		.4byte	1207964576
 1210 00ba 8000     		.short	128
 1211 00bc 00500140 		.word	1073827840
 1212 00c0 20140048 		.word	1207964704
 1213 00c4 1000     		.short	16
 1214 00c6 0000     		.bss
 1215              		.align	2
 1216              		.set	.LANCHOR0,. + 0
 1217              		.type	AMux_1__armsEnabled, %object
ARM GAS  C:\Users\Alex\AppData\Local\Temp\cccCDN48.s 			page 36


 1218              		.size	AMux_1__armsEnabled, 1
 1219              	AMux_1__armsEnabled:
 1220 0000 00       		.space	1
 1221 0001 000000   		.space	3
 1222              		.type	AMux_1__refCnt, %object
 1223              		.size	AMux_1__refCnt, 3
 1224              	AMux_1__refCnt:
 1225 0004 000000   		.space	3
 1226 0007 00       		.text
 1227              	.Letext0:
 1228              		.file 2 "c:\\program files (x86)\\cypress\\psoc creator\\3.3\\psoc creator\\import\\gnu\\arm\\4.9.
 1229              		.file 3 ".\\Generated_Source\\PSoC5\\cytypes.h"
 1230              		.file 4 ".\\Generated_Source\\PSoC5\\CyLib.h"