ARM GAS  C:\Users\Alex\AppData\Local\Temp\ccCm7mNM.s 			page 1


   1              		.syntax unified
   2              		.cpu cortex-m3
   3              		.fpu softvfp
   4              		.eabi_attribute 20, 1
   5              		.eabi_attribute 21, 1
   6              		.eabi_attribute 23, 3
   7              		.eabi_attribute 24, 1
   8              		.eabi_attribute 25, 1
   9              		.eabi_attribute 26, 1
  10              		.eabi_attribute 30, 1
  11              		.eabi_attribute 34, 1
  12              		.eabi_attribute 18, 4
  13              		.thumb
  14              		.file	"demo.c"
  15              		.text
  16              	.Ltext0:
  17              		.cfi_sections	.debug_frame
  18              		.global _printf_float
  19              		.global	__aeabi_i2d
  20              		.global	__aeabi_dmul
  21              		.global	__aeabi_ddiv
  22              		.global	__aeabi_d2iz
  23              		.thumb
  24              		.section	.text.csea_knee_up_down_test_demo,"ax",%progbits
  25              		.align	2
  26              		.global	csea_knee_up_down_test_demo
  27              		.thumb
  28              		.thumb_func
  29              		.type	csea_knee_up_down_test_demo, %function
  30              	csea_knee_up_down_test_demo:
  31              	.LFB63:
  32              		.file 1 "..\\src\\demo.c"
   1:..\src/demo.c **** //****************************************************************************
   2:..\src/demo.c **** // MIT Media Lab - Biomechatronics
   3:..\src/demo.c **** // Jean-Francois (Jeff) Duval
   4:..\src/demo.c **** // jfduval@media.mit.edu
   5:..\src/demo.c **** // 02/2016
   6:..\src/demo.c **** //****************************************************************************
   7:..\src/demo.c **** // demo: Demonstration Test Code
   8:..\src/demo.c **** //****************************************************************************
   9:..\src/demo.c **** 
  10:..\src/demo.c **** //****************************************************************************
  11:..\src/demo.c **** // Include(s)
  12:..\src/demo.c **** //****************************************************************************
  13:..\src/demo.c **** 
  14:..\src/demo.c **** #include "main.h"
  15:..\src/demo.c **** #include "demo.h"
  16:..\src/demo.c **** 
  17:..\src/demo.c **** //****************************************************************************
  18:..\src/demo.c **** // Variable(s)
  19:..\src/demo.c **** //****************************************************************************
  20:..\src/demo.c **** 
  21:..\src/demo.c **** 
  22:..\src/demo.c **** //****************************************************************************
  23:..\src/demo.c **** // Private Function Prototype(s):
  24:..\src/demo.c **** //****************************************************************************	
  25:..\src/demo.c **** 
ARM GAS  C:\Users\Alex\AppData\Local\Temp\ccCm7mNM.s 			page 2


  26:..\src/demo.c **** 
  27:..\src/demo.c **** //****************************************************************************
  28:..\src/demo.c **** // Public Function(s)
  29:..\src/demo.c **** //****************************************************************************
  30:..\src/demo.c **** 
  31:..\src/demo.c **** void csea_knee_up_down_test_demo(void)
  32:..\src/demo.c **** {
  33              		.loc 1 32 0
  34              		.cfi_startproc
  35              		@ args = 0, pretend = 0, frame = 32
  36              		@ frame_needed = 0, uses_anonymous_args = 0
  37 0000 2DE9F047 		push	{r4, r5, r6, r7, r8, r9, r10, lr}
  38              		.cfi_def_cfa_offset 32
  39              		.cfi_offset 4, -32
  40              		.cfi_offset 5, -28
  41              		.cfi_offset 6, -24
  42              		.cfi_offset 7, -20
  43              		.cfi_offset 8, -16
  44              		.cfi_offset 9, -12
  45              		.cfi_offset 10, -8
  46              		.cfi_offset 14, -4
  47 0004 8CB0     		sub	sp, sp, #48
  48              		.cfi_def_cfa_offset 80
  49              	.LVL0:
  33:..\src/demo.c **** 	unsigned int state = 0;
  34:..\src/demo.c **** 	unsigned int traj_calculated = 0, steps = 0;
  35:..\src/demo.c **** 	int low = 0, up = 0;
  36:..\src/demo.c **** 	volatile int32 ff = 0;
  50              		.loc 1 36 0
  51 0006 0024     		movs	r4, #0
  52 0008 0B94     		str	r4, [sp, #44]
  37:..\src/demo.c **** 	volatile double angle = 0.0, force = 0.0;
  53              		.loc 1 37 0
  54 000a 0022     		movs	r2, #0
  55 000c 0023     		movs	r3, #0
  56 000e CDE90823 		strd	r2, [sp, #32]
  57 0012 CDE90623 		strd	r2, [sp, #24]
  38:..\src/demo.c **** 	volatile int32 force_int = 0, sign = 1;
  58              		.loc 1 38 0
  59 0016 0594     		str	r4, [sp, #20]
  60 0018 0126     		movs	r6, #1
  61 001a 0496     		str	r6, [sp, #16]
  62              	.LVL1:
  39:..\src/demo.c **** 	int32 wait_cycles = 0;
  40:..\src/demo.c **** 	int32 first = 1;
  41:..\src/demo.c **** 	
  42:..\src/demo.c **** 	ctrl.active_ctrl = CTRL_POSITION;	
  63              		.loc 1 42 0
  64 001c 724D     		ldr	r5, .L17+16
  65 001e 0223     		movs	r3, #2
  66 0020 2B70     		strb	r3, [r5]
  43:..\src/demo.c **** 	Coast_Brake_Write(1);	//Brake
  67              		.loc 1 43 0
  68 0022 3046     		mov	r0, r6
  69 0024 FFF7FEFF 		bl	Coast_Brake_Write
  70              	.LVL2:
  44:..\src/demo.c **** 	motor_open_speed_1(0);
ARM GAS  C:\Users\Alex\AppData\Local\Temp\ccCm7mNM.s 			page 3


  71              		.loc 1 44 0
  72 0028 2046     		mov	r0, r4
  73 002a FFF7FEFF 		bl	motor_open_speed_1
  74              	.LVL3:
  45:..\src/demo.c **** 	
  46:..\src/demo.c **** 	//Position PID gains:
  47:..\src/demo.c **** 	ctrl.position.gain.P_KP = 22;
  75              		.loc 1 47 0
  76 002e 1623     		movs	r3, #22
  77 0030 A5F84C30 		strh	r3, [r5, #76]	@ movhi
  48:..\src/demo.c **** 	ctrl.position.gain.P_KI = 5;
  78              		.loc 1 48 0
  79 0034 0523     		movs	r3, #5
  80 0036 A5F84E30 		strh	r3, [r5, #78]	@ movhi
  49:..\src/demo.c **** 	
  50:..\src/demo.c **** 	//Starts off:
  51:..\src/demo.c **** 	LED_R_Write(1);
  81              		.loc 1 51 0
  82 003a 3046     		mov	r0, r6
  83 003c FFF7FEFF 		bl	LED_R_Write
  84              	.LVL4:
  52:..\src/demo.c **** 	LED_G_Write(1);
  85              		.loc 1 52 0
  86 0040 3046     		mov	r0, r6
  87 0042 FFF7FEFF 		bl	LED_G_Write
  88              	.LVL5:
  53:..\src/demo.c **** 	LED_B_Write(1);
  89              		.loc 1 53 0
  90 0046 3046     		mov	r0, r6
  91 0048 FFF7FEFF 		bl	LED_B_Write
  92              	.LVL6:
  39:..\src/demo.c **** 	int32 first = 1;
  93              		.loc 1 39 0
  94 004c A046     		mov	r8, r4
  35:..\src/demo.c **** 	volatile int32 ff = 0;
  95              		.loc 1 35 0
  96 004e A146     		mov	r9, r4
  34:..\src/demo.c **** 	int low = 0, up = 0;
  97              		.loc 1 34 0
  98 0050 A246     		mov	r10, r4
  99 0052 2746     		mov	r7, r4
 100              	.LVL7:
 101              	.L11:
  54:..\src/demo.c **** 	
  55:..\src/demo.c **** 	while(1)
  56:..\src/demo.c **** 	{		
  57:..\src/demo.c **** 		//Refresh encoder data:
  58:..\src/demo.c **** 		encoder.count_last = encoder.count;	
 102              		.loc 1 58 0
 103 0054 654D     		ldr	r5, .L17+20
 104 0056 2B68     		ldr	r3, [r5]
 105 0058 6B60     		str	r3, [r5, #4]
  59:..\src/demo.c **** 		encoder.count = QuadDec_1_GetCounter();
 106              		.loc 1 59 0
 107 005a FFF7FEFF 		bl	QuadDec_1_GetCounter
 108              	.LVL8:
 109 005e 2860     		str	r0, [r5]
ARM GAS  C:\Users\Alex\AppData\Local\Temp\ccCm7mNM.s 			page 4


  60:..\src/demo.c **** 		encoder.count_dif = encoder.count - encoder.count_last;
 110              		.loc 1 60 0
 111 0060 6B68     		ldr	r3, [r5, #4]
 112 0062 C01A     		subs	r0, r0, r3
 113 0064 A860     		str	r0, [r5, #8]
  61:..\src/demo.c **** 		
  62:..\src/demo.c **** 		ctrl.position.setp = trapez_get_pos(steps);	//New setpoint
 114              		.loc 1 62 0
 115 0066 5046     		mov	r0, r10
 116 0068 0021     		movs	r1, #0
 117 006a FFF7FEFF 		bl	trapez_get_pos
 118              	.LVL9:
 119 006e 5E4A     		ldr	r2, .L17+16
 120 0070 D065     		str	r0, [r2, #92]
  63:..\src/demo.c **** 		ctrl.position.pos = encoder.count;			//Current pos
 121              		.loc 1 63 0
 122 0072 2B68     		ldr	r3, [r5]
 123 0074 9365     		str	r3, [r2, #88]
  64:..\src/demo.c **** 		
  65:..\src/demo.c **** 		//PID:
  66:..\src/demo.c **** 		//motor_position_pid(ctrl.position.setp, ctrl.position.pos);
  67:..\src/demo.c **** 		
  68:..\src/demo.c **** 		//PID + Feed Forward:
  69:..\src/demo.c **** 		angle = (double)(((encoder.count - CSEA_DOWN)) / TICK_TO_ANGLE);
 124              		.loc 1 69 0
 125 0076 A3F53353 		sub	r3, r3, #11456
 126 007a 2C3B     		subs	r3, r3, #44
 127 007c 5C48     		ldr	r0, .L17+24
 128 007e 80FB0320 		smull	r2, r0, r0, r3
 129 0082 DB17     		asrs	r3, r3, #31
 130 0084 C3EBE010 		rsb	r0, r3, r0, asr #7
 131 0088 FFF7FEFF 		bl	__aeabi_i2d
 132              	.LVL10:
 133 008c CDE90801 		strd	r0, [sp, #32]
  70:..\src/demo.c **** 		force = 100*sin((angle*3.14)/180);
 134              		.loc 1 70 0
 135 0090 DDE90801 		ldrd	r0, [sp, #32]
 136 0094 50A3     		adr	r3, .L17
 137 0096 D3E90023 		ldrd	r2, [r3]
 138 009a FFF7FEFF 		bl	__aeabi_dmul
 139              	.LVL11:
 140 009e 0022     		movs	r2, #0
 141 00a0 544B     		ldr	r3, .L17+28
 142 00a2 FFF7FEFF 		bl	__aeabi_ddiv
 143              	.LVL12:
 144 00a6 FFF7FEFF 		bl	sin
 145              	.LVL13:
 146 00aa 0022     		movs	r2, #0
 147 00ac 524B     		ldr	r3, .L17+32
 148 00ae FFF7FEFF 		bl	__aeabi_dmul
 149              	.LVL14:
 150 00b2 CDE90601 		strd	r0, [sp, #24]
  71:..\src/demo.c **** 		force_int = (int32)force;
 151              		.loc 1 71 0
 152 00b6 DDE90601 		ldrd	r0, [sp, #24]
 153 00ba FFF7FEFF 		bl	__aeabi_d2iz
 154              	.LVL15:
ARM GAS  C:\Users\Alex\AppData\Local\Temp\ccCm7mNM.s 			page 5


 155 00be 0590     		str	r0, [sp, #20]
  72:..\src/demo.c **** 		ff = -sign*(force_int * FF_GAIN)/10;
 156              		.loc 1 72 0
 157 00c0 059A     		ldr	r2, [sp, #20]
 158 00c2 6FF00903 		mvn	r3, #9
 159 00c6 03FB02F2 		mul	r2, r3, r2
 160 00ca 049B     		ldr	r3, [sp, #16]
 161 00cc 03FB02F3 		mul	r3, r3, r2
 162 00d0 4A4A     		ldr	r2, .L17+36
 163 00d2 82FB0312 		smull	r1, r2, r2, r3
 164 00d6 DB17     		asrs	r3, r3, #31
 165 00d8 C3EBA203 		rsb	r3, r3, r2, asr #2
 166 00dc 0B93     		str	r3, [sp, #44]
  73:..\src/demo.c **** 		
  74:..\src/demo.c **** 		if(!first)
 167              		.loc 1 74 0
 168 00de 2EB9     		cbnz	r6, .L2
  75:..\src/demo.c **** 			motor_position_pid_ff_1(ctrl.position.setp, ctrl.position.pos, ff);
 169              		.loc 1 75 0
 170 00e0 414B     		ldr	r3, .L17+16
 171 00e2 D86D     		ldr	r0, [r3, #92]
 172 00e4 996D     		ldr	r1, [r3, #88]
 173 00e6 0B9A     		ldr	r2, [sp, #44]
 174 00e8 FFF7FEFF 		bl	motor_position_pid_ff_1
 175              	.LVL16:
 176              	.L2:
  76:..\src/demo.c **** 
  77:..\src/demo.c **** 		//motor_position_pid_ff_1(ctrl.position.pos, ctrl.position.pos, ff);	//Test only
  78:..\src/demo.c **** 		
  79:..\src/demo.c **** 		//At power-up the knee is low:
  80:..\src/demo.c **** 		low = encoder.count;
 177              		.loc 1 80 0
 178 00ec 3F4B     		ldr	r3, .L17+20
 179 00ee 1868     		ldr	r0, [r3]
 180              	.LVL17:
  81:..\src/demo.c **** 		
  82:..\src/demo.c **** 		//There are 4 possible states:
  83:..\src/demo.c **** 		switch(state)
 181              		.loc 1 83 0
 182 00f0 032C     		cmp	r4, #3
 183 00f2 6DD8     		bhi	.L3
 184 00f4 DFE804F0 		tbb	[pc, r4]
 185              	.L5:
 186 00f8 02       		.byte	(.L4-.L5)/2
 187 00f9 21       		.byte	(.L6-.L5)/2
 188 00fa 34       		.byte	(.L7-.L5)/2
 189 00fb 54       		.byte	(.L8-.L5)/2
 190              		.p2align 1
 191              	.L4:
  84:..\src/demo.c **** 		{
  85:..\src/demo.c **** 			case 0:		//Knee is low, not moving
  86:..\src/demo.c **** 			
  87:..\src/demo.c **** 				if(!traj_calculated)
 192              		.loc 1 87 0
 193 00fc 002F     		cmp	r7, #0
 194 00fe 60D0     		beq	.L12
  88:..\src/demo.c **** 				{
ARM GAS  C:\Users\Alex\AppData\Local\Temp\ccCm7mNM.s 			page 6


  89:..\src/demo.c **** 					
  90:..\src/demo.c **** 					traj_calculated = 1;
  91:..\src/demo.c **** 					wait_cycles = 70;
  92:..\src/demo.c **** 					
  93:..\src/demo.c **** 					//CyDelay(250);
  94:..\src/demo.c **** 				}
  95:..\src/demo.c **** 				else
  96:..\src/demo.c **** 				{			
  97:..\src/demo.c **** 					wait_cycles--;
 195              		.loc 1 97 0
 196 0100 08F1FF38 		add	r8, r8, #-1
 197              	.LVL18:
  98:..\src/demo.c **** 					if(wait_cycles <= 0)
 198              		.loc 1 98 0
 199 0104 B8F1000F 		cmp	r8, #0
 200 0108 62DC     		bgt	.L3
 201              	.LVL19:
  99:..\src/demo.c **** 					{
 100:..\src/demo.c **** 						state = 1;
 101:..\src/demo.c **** 						//Compute a trajectory that will bring the knee up:					
 102:..\src/demo.c **** 						steps = trapez_gen_motion_1(low, CSEA_UP, SPD_UP, ACC_UP);			
 202              		.loc 1 102 0
 203 010a 3D4A     		ldr	r2, .L17+40
 204 010c 0023     		movs	r3, #0
 205 010e CDE90023 		strd	r2, [sp]
 206 0112 3C4A     		ldr	r2, .L17+44
 207 0114 0023     		movs	r3, #0
 208 0116 CDE90223 		strd	r2, [sp, #8]
 209 011a C117     		asrs	r1, r0, #31
 210 011c 3A4A     		ldr	r2, .L17+48
 211 011e 0023     		movs	r3, #0
 212 0120 FFF7FEFF 		bl	trapez_gen_motion_1
 213              	.LVL20:
 214 0124 8246     		mov	r10, r0
 215              	.LVL21:
 103:..\src/demo.c **** 						ctrl.position.gain.P_KP = 22;
 216              		.loc 1 103 0
 217 0126 304B     		ldr	r3, .L17+16
 218 0128 1622     		movs	r2, #22
 219 012a A3F84C20 		strh	r2, [r3, #76]	@ movhi
 104:..\src/demo.c **** 						ctrl.position.gain.P_KI = 5;
 220              		.loc 1 104 0
 221 012e 0522     		movs	r2, #5
 222 0130 A3F84E20 		strh	r2, [r3, #78]	@ movhi
 223              	.LVL22:
 105:..\src/demo.c **** 						first = 0;
 224              		.loc 1 105 0
 225 0134 0026     		movs	r6, #0
 100:..\src/demo.c **** 						//Compute a trajectory that will bring the knee up:					
 226              		.loc 1 100 0
 227 0136 0124     		movs	r4, #1
 228 0138 4AE0     		b	.L3
 229              	.LVL23:
 230              	.L6:
 106:..\src/demo.c **** 					}
 107:..\src/demo.c **** 				}
 108:..\src/demo.c **** 			
ARM GAS  C:\Users\Alex\AppData\Local\Temp\ccCm7mNM.s 			page 7


 109:..\src/demo.c **** 				break;
 110:..\src/demo.c **** 			
 111:..\src/demo.c **** 			case 1: 	//Knee is rising
 112:..\src/demo.c **** 				
 113:..\src/demo.c **** 				sign = 1;	//FF
 231              		.loc 1 113 0
 232 013a 0123     		movs	r3, #1
 233 013c 0493     		str	r3, [sp, #16]
 114:..\src/demo.c **** 				
 115:..\src/demo.c **** 				if((encoder.count > (CSEA_UP - MARGIN)) && (encoder.count < (CSEA_UP + MARGIN)))
 234              		.loc 1 115 0
 235 013e A0F58B33 		sub	r3, r0, #71168
 236 0142 A3F5E573 		sub	r3, r3, #458
 237 0146 B3F53B7F 		cmp	r3, #748
 238 014a 02D8     		bhi	.L9
 116:..\src/demo.c **** 				{
 117:..\src/demo.c **** 					//We have reached our target, we can go to the next step
 118:..\src/demo.c **** 					traj_calculated = 0;
 119:..\src/demo.c **** 					up = encoder.count;
 239              		.loc 1 119 0
 240 014c 8146     		mov	r9, r0
 241              	.LVL24:
 118:..\src/demo.c **** 					up = encoder.count;
 242              		.loc 1 118 0
 243 014e 0027     		movs	r7, #0
 244              	.LVL25:
 120:..\src/demo.c **** 					state = 2;
 245              		.loc 1 120 0
 246 0150 0224     		movs	r4, #2
 247              	.LVL26:
 248              	.L9:
 121:..\src/demo.c **** 				}
 122:..\src/demo.c **** 				
 123:..\src/demo.c **** 				LED_R_Write(1);
 249              		.loc 1 123 0
 250 0152 0120     		movs	r0, #1
 251              	.LVL27:
 252 0154 FFF7FEFF 		bl	LED_R_Write
 253              	.LVL28:
 124:..\src/demo.c **** 				LED_G_Write(0);
 254              		.loc 1 124 0
 255 0158 0020     		movs	r0, #0
 256 015a FFF7FEFF 		bl	LED_G_Write
 257              	.LVL29:
 125:..\src/demo.c **** 				
 126:..\src/demo.c **** 				break;
 258              		.loc 1 126 0
 259 015e 37E0     		b	.L3
 260              	.LVL30:
 261              	.L7:
 127:..\src/demo.c **** 			
 128:..\src/demo.c **** 			case 2: 	//Knee is high, not moving
 129:..\src/demo.c **** 				
 130:..\src/demo.c **** 				if(!traj_calculated)
 262              		.loc 1 130 0
 263 0160 9FB3     		cbz	r7, .L14
 131:..\src/demo.c **** 				{
ARM GAS  C:\Users\Alex\AppData\Local\Temp\ccCm7mNM.s 			page 8


 132:..\src/demo.c **** 					traj_calculated = 1;
 133:..\src/demo.c **** 					wait_cycles = 70;
 134:..\src/demo.c **** 					
 135:..\src/demo.c **** 					//CyDelay(250);
 136:..\src/demo.c **** 				}	
 137:..\src/demo.c **** 				else
 138:..\src/demo.c **** 				{			
 139:..\src/demo.c **** 					wait_cycles--;
 264              		.loc 1 139 0
 265 0162 08F1FF38 		add	r8, r8, #-1
 266              	.LVL31:
 140:..\src/demo.c **** 					if(wait_cycles <= 0)
 267              		.loc 1 140 0
 268 0166 B8F1000F 		cmp	r8, #0
 269 016a 31DC     		bgt	.L3
 270              	.LVL32:
 141:..\src/demo.c **** 					{
 142:..\src/demo.c **** 						state = 3;
 143:..\src/demo.c **** 						//Compute a trajectory that will bring the knee up:
 144:..\src/demo.c **** 						steps = trapez_gen_motion_1(up, CSEA_DOWN, SPD_DOWN, ACC_DOWN);	
 271              		.loc 1 144 0
 272 016c 244A     		ldr	r2, .L17+40
 273 016e 0023     		movs	r3, #0
 274 0170 CDE90023 		strd	r2, [sp]
 275 0174 1AA3     		adr	r3, .L17+8
 276 0176 D3E90023 		ldrd	r2, [r3]
 277 017a CDE90223 		strd	r2, [sp, #8]
 278 017e 4846     		mov	r0, r9
 279              	.LVL33:
 280 0180 C117     		asrs	r1, r0, #31
 281 0182 42F6EC42 		movw	r2, #11500
 282 0186 0023     		movs	r3, #0
 283 0188 FFF7FEFF 		bl	trapez_gen_motion_1
 284              	.LVL34:
 285 018c 8246     		mov	r10, r0
 286              	.LVL35:
 145:..\src/demo.c **** 						ctrl.position.gain.P_KP = 5;
 287              		.loc 1 145 0
 288 018e 164B     		ldr	r3, .L17+16
 289 0190 0522     		movs	r2, #5
 290 0192 A3F84C20 		strh	r2, [r3, #76]	@ movhi
 146:..\src/demo.c **** 						ctrl.position.gain.P_KI = 7;
 291              		.loc 1 146 0
 292 0196 0722     		movs	r2, #7
 293 0198 A3F84E20 		strh	r2, [r3, #78]	@ movhi
 142:..\src/demo.c **** 						//Compute a trajectory that will bring the knee up:
 294              		.loc 1 142 0
 295 019c 0324     		movs	r4, #3
 296 019e 17E0     		b	.L3
 297              	.LVL36:
 298              	.L8:
 147:..\src/demo.c **** 					}
 148:..\src/demo.c **** 				}
 149:..\src/demo.c **** 				
 150:..\src/demo.c **** 				break;
 151:..\src/demo.c **** 			
 152:..\src/demo.c **** 			case 3:		//Knee is lowering
ARM GAS  C:\Users\Alex\AppData\Local\Temp\ccCm7mNM.s 			page 9


 153:..\src/demo.c **** 				
 154:..\src/demo.c **** 				sign = 1;	//FF
 299              		.loc 1 154 0
 300 01a0 0123     		movs	r3, #1
 301 01a2 0493     		str	r3, [sp, #16]
 155:..\src/demo.c **** 				
 156:..\src/demo.c **** 				if((encoder.count > (CSEA_DOWN - MARGIN)) && (encoder.count < (CSEA_DOWN + MARGIN)))
 302              		.loc 1 156 0
 303 01a4 A0F52D50 		sub	r0, r0, #11072
 304              	.LVL37:
 305 01a8 3638     		subs	r0, r0, #54
 306 01aa B0F53B7F 		cmp	r0, #748
 307 01ae 01D8     		bhi	.L10
 157:..\src/demo.c **** 				{
 158:..\src/demo.c **** 					//We have reached our target, we can go to the next step
 159:..\src/demo.c **** 					traj_calculated = 0;
 308              		.loc 1 159 0
 309 01b0 0027     		movs	r7, #0
 310              	.LVL38:
 160:..\src/demo.c **** 					low = encoder.count;
 161:..\src/demo.c **** 					state = 0;
 311              		.loc 1 161 0
 312 01b2 3C46     		mov	r4, r7
 313              	.LVL39:
 314              	.L10:
 162:..\src/demo.c **** 				}		
 163:..\src/demo.c **** 				
 164:..\src/demo.c **** 				LED_R_Write(0);
 315              		.loc 1 164 0
 316 01b4 0020     		movs	r0, #0
 317 01b6 FFF7FEFF 		bl	LED_R_Write
 318              	.LVL40:
 165:..\src/demo.c **** 				LED_G_Write(1);
 319              		.loc 1 165 0
 320 01ba 0120     		movs	r0, #1
 321 01bc FFF7FEFF 		bl	LED_G_Write
 322              	.LVL41:
 166:..\src/demo.c **** 				
 167:..\src/demo.c **** 				break;
 323              		.loc 1 167 0
 324 01c0 06E0     		b	.L3
 325              	.LVL42:
 326              	.L12:
  91:..\src/demo.c **** 					
 327              		.loc 1 91 0
 328 01c2 4FF04608 		mov	r8, #70
 329              	.LVL43:
  90:..\src/demo.c **** 					wait_cycles = 70;
 330              		.loc 1 90 0
 331 01c6 0127     		movs	r7, #1
 332              	.LVL44:
 333 01c8 02E0     		b	.L3
 334              	.LVL45:
 335              	.L14:
 133:..\src/demo.c **** 					
 336              		.loc 1 133 0
 337 01ca 4FF04608 		mov	r8, #70
ARM GAS  C:\Users\Alex\AppData\Local\Temp\ccCm7mNM.s 			page 10


 338              	.LVL46:
 132:..\src/demo.c **** 					wait_cycles = 70;
 339              		.loc 1 132 0
 340 01ce 0127     		movs	r7, #1
 341              	.LVL47:
 342              	.L3:
 168:..\src/demo.c **** 			
 169:..\src/demo.c **** 			default:
 170:..\src/demo.c **** 				break;
 171:..\src/demo.c **** 		}
 172:..\src/demo.c **** 		
 173:..\src/demo.c **** 		//Loop delay (otherwise we don't get a good difference)
 174:..\src/demo.c **** 		CyDelay(10);
 343              		.loc 1 174 0
 344 01d0 0A20     		movs	r0, #10
 345 01d2 FFF7FEFF 		bl	CyDelay
 346              	.LVL48:
 175:..\src/demo.c **** 	}
 347              		.loc 1 175 0
 348 01d6 3DE7     		b	.L11
 349              	.L18:
 350              		.align	3
 351              	.L17:
 352 01d8 1F85EB51 		.word	1374389535
 353 01dc B81E0940 		.word	1074339512
 354 01e0 20AA4400 		.word	4500000
 355 01e4 00000000 		.word	0
 356 01e8 00000000 		.word	ctrl
 357 01ec 00000000 		.word	encoder
 358 01f0 310CC330 		.word	818089009
 359 01f4 00806640 		.word	1080459264
 360 01f8 00005940 		.word	1079574528
 361 01fc 67666666 		.word	1717986919
 362 0200 C0CF6A00 		.word	7000000
 363 0204 00093D00 		.word	4000000
 364 0208 40190100 		.word	72000
 365              		.cfi_endproc
 366              	.LFE63:
 367              		.size	csea_knee_up_down_test_demo, .-csea_knee_up_down_test_demo
 368 020c AFF30080 		.text
 369              	.Letext0:
 370              		.file 2 "c:\\program files (x86)\\cypress\\psoc creator\\3.3\\psoc creator\\import\\gnu\\arm\\4.9.
 371              		.file 3 "c:\\program files (x86)\\cypress\\psoc creator\\3.3\\psoc creator\\import\\gnu\\arm\\4.9.
 372              		.file 4 "Generated_Source\\PSoC5/cytypes.h"
 373              		.file 5 "..\\inc/../../flexsea-system/inc/flexsea_cmd_control.h"
 374              		.file 6 "Generated_Source\\PSoC5/core_cm3.h"
 375              		.file 7 "..\\inc/control.h"
 376              		.file 8 "..\\inc/ext_input.h"
 377              		.file 9 "Generated_Source\\PSoC5/Coast_Brake.h"
 378              		.file 10 "..\\inc/motor.h"
 379              		.file 11 "Generated_Source\\PSoC5/LED_R.h"
 380              		.file 12 "Generated_Source\\PSoC5/LED_G.h"
 381              		.file 13 "Generated_Source\\PSoC5/LED_B.h"
 382              		.file 14 "..\\inc/trapez.h"
 383              		.file 15 "Generated_Source\\PSoC5/QuadDec_1.h"
 384              		.file 16 "c:\\program files (x86)\\cypress\\psoc creator\\3.3\\psoc creator\\import\\gnu\\arm\\4.9
 385              		.file 17 "Generated_Source\\PSoC5/CyLib.h"
ARM GAS  C:\Users\Alex\AppData\Local\Temp\ccCm7mNM.s 			page 11

