ARM GAS  C:\Users\Alex\AppData\Local\Temp\ccpeddBU.s 			page 1


   1              		.syntax unified
   2              		.cpu cortex-m3
   3              		.fpu softvfp
   4              		.eabi_attribute 20, 1
   5              		.eabi_attribute 21, 1
   6              		.eabi_attribute 23, 3
   7              		.eabi_attribute 24, 1
   8              		.eabi_attribute 25, 1
   9              		.eabi_attribute 26, 1
  10              		.eabi_attribute 30, 1
  11              		.eabi_attribute 34, 1
  12              		.eabi_attribute 18, 4
  13              		.thumb
  14              		.file	"DieTemp_1.c"
  15              		.text
  16              	.Ltext0:
  17              		.cfi_sections	.debug_frame
  18              		.section	.text.DieTemp_1_Start,"ax",%progbits
  19              		.align	2
  20              		.global	DieTemp_1_Start
  21              		.thumb
  22              		.thumb_func
  23              		.type	DieTemp_1_Start, %function
  24              	DieTemp_1_Start:
  25              	.LFB0:
  26              		.file 1 ".\\Generated_Source\\PSoC5\\DieTemp_1.c"
   1:.\Generated_Source\PSoC5/DieTemp_1.c **** /*******************************************************************************
   2:.\Generated_Source\PSoC5/DieTemp_1.c **** * File Name: DieTemp_1_DieTemp.c
   3:.\Generated_Source\PSoC5/DieTemp_1.c **** * Version 2.0
   4:.\Generated_Source\PSoC5/DieTemp_1.c **** *
   5:.\Generated_Source\PSoC5/DieTemp_1.c **** * Description:
   6:.\Generated_Source\PSoC5/DieTemp_1.c **** *  Provides the API to acquire the die temperature.
   7:.\Generated_Source\PSoC5/DieTemp_1.c **** *
   8:.\Generated_Source\PSoC5/DieTemp_1.c **** ********************************************************************************
   9:.\Generated_Source\PSoC5/DieTemp_1.c **** * Copyright 2008-2012, Cypress Semiconductor Corporation.  All rights reserved.
  10:.\Generated_Source\PSoC5/DieTemp_1.c **** * You may use this file only in accordance with the license, terms, conditions,
  11:.\Generated_Source\PSoC5/DieTemp_1.c **** * disclaimers, and limitations in the end user license agreement accompanying
  12:.\Generated_Source\PSoC5/DieTemp_1.c **** * the software package with which this file was provided.
  13:.\Generated_Source\PSoC5/DieTemp_1.c **** *******************************************************************************/
  14:.\Generated_Source\PSoC5/DieTemp_1.c **** 
  15:.\Generated_Source\PSoC5/DieTemp_1.c **** 
  16:.\Generated_Source\PSoC5/DieTemp_1.c **** #include <cydevice_trm.H>
  17:.\Generated_Source\PSoC5/DieTemp_1.c **** #include <DieTemp_1.h>
  18:.\Generated_Source\PSoC5/DieTemp_1.c **** 
  19:.\Generated_Source\PSoC5/DieTemp_1.c **** 
  20:.\Generated_Source\PSoC5/DieTemp_1.c **** #define DieTemp_1_NUMBER_OF_SAMPLES      (0x1u)
  21:.\Generated_Source\PSoC5/DieTemp_1.c **** #define DieTemp_1_TIMER_PERIOD           (0xFFFu)
  22:.\Generated_Source\PSoC5/DieTemp_1.c **** #define DieTemp_1_CLK_DIV_SELECT         (0x4u)
  23:.\Generated_Source\PSoC5/DieTemp_1.c **** #define DieTemp_1_SPC_CLK_PERIOD         (120u) /* In nano seconds. */
  24:.\Generated_Source\PSoC5/DieTemp_1.c **** #define DieTemp_1_NANO_TO_MILLI_FACTOR   (1000000u)
  25:.\Generated_Source\PSoC5/DieTemp_1.c **** #define DieTemp_1_FRM_EXEC_TIME          (1000u) /* In nano seconds. */
  26:.\Generated_Source\PSoC5/DieTemp_1.c **** 
  27:.\Generated_Source\PSoC5/DieTemp_1.c **** #define DieTemp_1_GET_TEMPR_TIME     (uint32)(((((uint32)1u << (DieTemp_1_NUMBER_OF_SAMPLES + 1u)))
  28:.\Generated_Source\PSoC5/DieTemp_1.c ****                                                 ((uint32)(DieTemp_1_SPC_CLK_PERIOD * \
  29:.\Generated_Source\PSoC5/DieTemp_1.c ****                                                 DieTemp_1_CLK_DIV_SELECT)) * \
  30:.\Generated_Source\PSoC5/DieTemp_1.c ****                                                 ((uint32)DieTemp_1_TIMER_PERIOD)) + \
  31:.\Generated_Source\PSoC5/DieTemp_1.c ****                                                 (uint32)DieTemp_1_FRM_EXEC_TIME)
ARM GAS  C:\Users\Alex\AppData\Local\Temp\ccpeddBU.s 			page 2


  32:.\Generated_Source\PSoC5/DieTemp_1.c **** 
  33:.\Generated_Source\PSoC5/DieTemp_1.c **** #define DieTemp_1_MAX_WAIT           (uint16)(((DieTemp_1_GET_TEMPR_TIME + \
  34:.\Generated_Source\PSoC5/DieTemp_1.c ****                                                 DieTemp_1_NANO_TO_MILLI_FACTOR) - 1u) / \
  35:.\Generated_Source\PSoC5/DieTemp_1.c ****                                                 DieTemp_1_NANO_TO_MILLI_FACTOR)  /* In milli second
  36:.\Generated_Source\PSoC5/DieTemp_1.c **** 
  37:.\Generated_Source\PSoC5/DieTemp_1.c **** static cystatus DieTemp_1_GetTempT(int16 * temperature);
  38:.\Generated_Source\PSoC5/DieTemp_1.c **** 
  39:.\Generated_Source\PSoC5/DieTemp_1.c **** 
  40:.\Generated_Source\PSoC5/DieTemp_1.c **** /*******************************************************************************
  41:.\Generated_Source\PSoC5/DieTemp_1.c **** * Function Name: DieTemp_1_Start
  42:.\Generated_Source\PSoC5/DieTemp_1.c **** ********************************************************************************
  43:.\Generated_Source\PSoC5/DieTemp_1.c **** *
  44:.\Generated_Source\PSoC5/DieTemp_1.c **** * Summary:
  45:.\Generated_Source\PSoC5/DieTemp_1.c **** *  Starts the SPC command to get the die temperature. If this function is
  46:.\Generated_Source\PSoC5/DieTemp_1.c **** *  called successfuly. The SPC will be locked and DieTemp_1_QueryDieTemp
  47:.\Generated_Source\PSoC5/DieTemp_1.c **** *  will have to be successfuly called to unlock it. CySpcUnlock() can also
  48:.\Generated_Source\PSoC5/DieTemp_1.c **** *  be called if the caller decides not to finish the temperature reading.
  49:.\Generated_Source\PSoC5/DieTemp_1.c **** *
  50:.\Generated_Source\PSoC5/DieTemp_1.c **** * Parameters:
  51:.\Generated_Source\PSoC5/DieTemp_1.c **** *  void.
  52:.\Generated_Source\PSoC5/DieTemp_1.c **** *
  53:.\Generated_Source\PSoC5/DieTemp_1.c **** * Return:
  54:.\Generated_Source\PSoC5/DieTemp_1.c **** *  CYRET_STARTED if the spc command was started sucessfuly.
  55:.\Generated_Source\PSoC5/DieTemp_1.c **** *  CYRET_UNKNOWN if the spc command failed.
  56:.\Generated_Source\PSoC5/DieTemp_1.c **** *  CYRET_LOCKED if the spc was busy.
  57:.\Generated_Source\PSoC5/DieTemp_1.c **** *
  58:.\Generated_Source\PSoC5/DieTemp_1.c **** *******************************************************************************/
  59:.\Generated_Source\PSoC5/DieTemp_1.c **** cystatus DieTemp_1_Start(void) 
  60:.\Generated_Source\PSoC5/DieTemp_1.c **** {
  27              		.loc 1 60 0
  28              		.cfi_startproc
  29              		@ args = 0, pretend = 0, frame = 0
  30              		@ frame_needed = 0, uses_anonymous_args = 0
  31 0000 10B5     		push	{r4, lr}
  32              		.cfi_def_cfa_offset 8
  33              		.cfi_offset 4, -8
  34              		.cfi_offset 14, -4
  35              	.LVL0:
  61:.\Generated_Source\PSoC5/DieTemp_1.c ****     cystatus status;
  62:.\Generated_Source\PSoC5/DieTemp_1.c **** 
  63:.\Generated_Source\PSoC5/DieTemp_1.c ****     /* Plan for failure. */
  64:.\Generated_Source\PSoC5/DieTemp_1.c ****     status = CYRET_UNKNOWN;
  65:.\Generated_Source\PSoC5/DieTemp_1.c **** 
  66:.\Generated_Source\PSoC5/DieTemp_1.c ****     /* Power up the SPC. */
  67:.\Generated_Source\PSoC5/DieTemp_1.c ****     CySpcStart();
  36              		.loc 1 67 0
  37 0002 FFF7FEFF 		bl	CySpcStart
  38              	.LVL1:
  68:.\Generated_Source\PSoC5/DieTemp_1.c **** 
  69:.\Generated_Source\PSoC5/DieTemp_1.c ****     if(CySpcLock() == CYRET_SUCCESS)
  39              		.loc 1 69 0
  40 0006 FFF7FEFF 		bl	CySpcLock
  41              	.LVL2:
  42 000a 58B9     		cbnz	r0, .L4
  70:.\Generated_Source\PSoC5/DieTemp_1.c ****     {
  71:.\Generated_Source\PSoC5/DieTemp_1.c ****         #if(CY_PSOC5A)
  72:.\Generated_Source\PSoC5/DieTemp_1.c ****             if(CYRET_STARTED == CySpcGetTemp(DieTemp_1_NUMBER_OF_SAMPLES,
ARM GAS  C:\Users\Alex\AppData\Local\Temp\ccpeddBU.s 			page 3


  73:.\Generated_Source\PSoC5/DieTemp_1.c ****                                              DieTemp_1_TIMER_PERIOD,
  74:.\Generated_Source\PSoC5/DieTemp_1.c ****                                              DieTemp_1_CLK_DIV_SELECT))
  75:.\Generated_Source\PSoC5/DieTemp_1.c ****             {
  76:.\Generated_Source\PSoC5/DieTemp_1.c ****                 status = CYRET_STARTED;
  77:.\Generated_Source\PSoC5/DieTemp_1.c ****             }
  78:.\Generated_Source\PSoC5/DieTemp_1.c ****         #else
  79:.\Generated_Source\PSoC5/DieTemp_1.c ****             if(CYRET_STARTED == CySpcGetTemp(DieTemp_1_NUMBER_OF_SAMPLES))
  43              		.loc 1 79 0
  44 000c 0120     		movs	r0, #1
  45 000e FFF7FEFF 		bl	CySpcGetTemp
  46              	.LVL3:
  47 0012 0728     		cmp	r0, #7
  48 0014 02D0     		beq	.L5
  64:.\Generated_Source\PSoC5/DieTemp_1.c **** 
  49              		.loc 1 64 0
  50 0016 4FF0FF34 		mov	r4, #-1
  51 001a 00E0     		b	.L3
  52              	.L5:
  80:.\Generated_Source\PSoC5/DieTemp_1.c ****             {
  81:.\Generated_Source\PSoC5/DieTemp_1.c ****                 status = CYRET_STARTED;
  53              		.loc 1 81 0
  54 001c 0724     		movs	r4, #7
  55              	.L3:
  56              	.LVL4:
  82:.\Generated_Source\PSoC5/DieTemp_1.c ****             }
  83:.\Generated_Source\PSoC5/DieTemp_1.c ****         #endif  /* (CY_PSOC5A) */
  84:.\Generated_Source\PSoC5/DieTemp_1.c ****         CySpcUnlock();
  57              		.loc 1 84 0
  58 001e FFF7FEFF 		bl	CySpcUnlock
  59              	.LVL5:
  60 0022 00E0     		b	.L2
  61              	.LVL6:
  62              	.L4:
  85:.\Generated_Source\PSoC5/DieTemp_1.c ****     }
  86:.\Generated_Source\PSoC5/DieTemp_1.c ****     else
  87:.\Generated_Source\PSoC5/DieTemp_1.c ****     {
  88:.\Generated_Source\PSoC5/DieTemp_1.c ****         status = CYRET_LOCKED;
  63              		.loc 1 88 0
  64 0024 0424     		movs	r4, #4
  65              	.LVL7:
  66              	.L2:
  89:.\Generated_Source\PSoC5/DieTemp_1.c ****     }
  90:.\Generated_Source\PSoC5/DieTemp_1.c ****     return (status);
  91:.\Generated_Source\PSoC5/DieTemp_1.c **** }
  67              		.loc 1 91 0
  68 0026 2046     		mov	r0, r4
  69 0028 10BD     		pop	{r4, pc}
  70              		.cfi_endproc
  71              	.LFE0:
  72              		.size	DieTemp_1_Start, .-DieTemp_1_Start
  73 002a 00BF     		.section	.text.DieTemp_1_Stop,"ax",%progbits
  74              		.align	2
  75              		.global	DieTemp_1_Stop
  76              		.thumb
  77              		.thumb_func
  78              		.type	DieTemp_1_Stop, %function
  79              	DieTemp_1_Stop:
ARM GAS  C:\Users\Alex\AppData\Local\Temp\ccpeddBU.s 			page 4


  80              	.LFB1:
  92:.\Generated_Source\PSoC5/DieTemp_1.c **** 
  93:.\Generated_Source\PSoC5/DieTemp_1.c **** 
  94:.\Generated_Source\PSoC5/DieTemp_1.c **** /*******************************************************************************
  95:.\Generated_Source\PSoC5/DieTemp_1.c **** * FUNCTION NAME:   DieTemp_1_Stop
  96:.\Generated_Source\PSoC5/DieTemp_1.c **** ********************************************************************************
  97:.\Generated_Source\PSoC5/DieTemp_1.c **** *
  98:.\Generated_Source\PSoC5/DieTemp_1.c **** * Summary:
  99:.\Generated_Source\PSoC5/DieTemp_1.c **** *  There is no need to stop or disable this component. This component is
 100:.\Generated_Source\PSoC5/DieTemp_1.c **** *  naturally a slave that sends request to SPC through SPC API of cy_boot
 101:.\Generated_Source\PSoC5/DieTemp_1.c **** *  and waits for data to be ready or in case of non-blocking operation it
 102:.\Generated_Source\PSoC5/DieTemp_1.c **** *  sends request to SPC and user can manually poll the result.
 103:.\Generated_Source\PSoC5/DieTemp_1.c **** *
 104:.\Generated_Source\PSoC5/DieTemp_1.c **** * Parameters:
 105:.\Generated_Source\PSoC5/DieTemp_1.c **** *  void
 106:.\Generated_Source\PSoC5/DieTemp_1.c **** *
 107:.\Generated_Source\PSoC5/DieTemp_1.c **** * Return:
 108:.\Generated_Source\PSoC5/DieTemp_1.c **** *  void
 109:.\Generated_Source\PSoC5/DieTemp_1.c **** *
 110:.\Generated_Source\PSoC5/DieTemp_1.c **** *******************************************************************************/
 111:.\Generated_Source\PSoC5/DieTemp_1.c **** void DieTemp_1_Stop(void) 
 112:.\Generated_Source\PSoC5/DieTemp_1.c **** {
  81              		.loc 1 112 0
  82              		.cfi_startproc
  83              		@ args = 0, pretend = 0, frame = 0
  84              		@ frame_needed = 0, uses_anonymous_args = 0
  85              		@ link register save eliminated.
  86 0000 7047     		bx	lr
  87              		.cfi_endproc
  88              	.LFE1:
  89              		.size	DieTemp_1_Stop, .-DieTemp_1_Stop
  90 0002 00BF     		.section	.text.DieTemp_1_Query,"ax",%progbits
  91              		.align	2
  92              		.global	DieTemp_1_Query
  93              		.thumb
  94              		.thumb_func
  95              		.type	DieTemp_1_Query, %function
  96              	DieTemp_1_Query:
  97              	.LFB2:
 113:.\Generated_Source\PSoC5/DieTemp_1.c ****     /* There aren't anything to stop */
 114:.\Generated_Source\PSoC5/DieTemp_1.c **** }
 115:.\Generated_Source\PSoC5/DieTemp_1.c **** 
 116:.\Generated_Source\PSoC5/DieTemp_1.c **** 
 117:.\Generated_Source\PSoC5/DieTemp_1.c **** /*******************************************************************************
 118:.\Generated_Source\PSoC5/DieTemp_1.c **** * Function Name: DieTemp_1_Query
 119:.\Generated_Source\PSoC5/DieTemp_1.c **** ********************************************************************************
 120:.\Generated_Source\PSoC5/DieTemp_1.c **** *
 121:.\Generated_Source\PSoC5/DieTemp_1.c **** * Summary:
 122:.\Generated_Source\PSoC5/DieTemp_1.c **** *  Querys the SPC to see if the termperature command is finished.
 123:.\Generated_Source\PSoC5/DieTemp_1.c **** *
 124:.\Generated_Source\PSoC5/DieTemp_1.c **** * Parameters:
 125:.\Generated_Source\PSoC5/DieTemp_1.c **** *  temperature: Address to store the two byte temperature value.
 126:.\Generated_Source\PSoC5/DieTemp_1.c **** *
 127:.\Generated_Source\PSoC5/DieTemp_1.c **** * Return:
 128:.\Generated_Source\PSoC5/DieTemp_1.c **** *  CYRET_SUCCESS if the temperature command completed sucessfully.
 129:.\Generated_Source\PSoC5/DieTemp_1.c **** *  CYRET_UNKNOWN if the there was an spc failure.
 130:.\Generated_Source\PSoC5/DieTemp_1.c **** *  CYRET_STARTED if the temperature command has not completed.
ARM GAS  C:\Users\Alex\AppData\Local\Temp\ccpeddBU.s 			page 5


 131:.\Generated_Source\PSoC5/DieTemp_1.c **** *  CYRET_TIMEOUT if waited to long before reading data.
 132:.\Generated_Source\PSoC5/DieTemp_1.c **** *
 133:.\Generated_Source\PSoC5/DieTemp_1.c **** *******************************************************************************/
 134:.\Generated_Source\PSoC5/DieTemp_1.c **** cystatus DieTemp_1_Query(int16 * temperature) 
 135:.\Generated_Source\PSoC5/DieTemp_1.c **** {
  98              		.loc 1 135 0
  99              		.cfi_startproc
 100              		@ args = 0, pretend = 0, frame = 8
 101              		@ frame_needed = 0, uses_anonymous_args = 0
 102              	.LVL8:
 103              		.loc 1 135 0
 104 0000 10B5     		push	{r4, lr}
 105              		.cfi_def_cfa_offset 8
 106              		.cfi_offset 4, -8
 107              		.cfi_offset 14, -4
 108 0002 82B0     		sub	sp, sp, #8
 109              		.cfi_def_cfa_offset 16
 136:.\Generated_Source\PSoC5/DieTemp_1.c ****     uint8 temp[2u];
 137:.\Generated_Source\PSoC5/DieTemp_1.c ****     cystatus status;
 138:.\Generated_Source\PSoC5/DieTemp_1.c **** 
 139:.\Generated_Source\PSoC5/DieTemp_1.c **** 
 140:.\Generated_Source\PSoC5/DieTemp_1.c ****     if(CY_SPC_BUSY)
 110              		.loc 1 140 0
 111 0004 154B     		ldr	r3, .L16
 112 0006 1B78     		ldrb	r3, [r3]	@ zero_extendqisi2
 113 0008 13F0020F 		tst	r3, #2
 114 000c 19D1     		bne	.L12
 115 000e 0446     		mov	r4, r0
 141:.\Generated_Source\PSoC5/DieTemp_1.c ****     {
 142:.\Generated_Source\PSoC5/DieTemp_1.c ****         if((CY_SPC_STATUS_REG>>2u) == CYRET_SUCCESS)
 116              		.loc 1 142 0
 117 0010 124B     		ldr	r3, .L16
 118 0012 1B78     		ldrb	r3, [r3]	@ zero_extendqisi2
 119 0014 9B08     		lsrs	r3, r3, #2
 120 0016 16D1     		bne	.L13
 143:.\Generated_Source\PSoC5/DieTemp_1.c ****         {
 144:.\Generated_Source\PSoC5/DieTemp_1.c ****             /* See if any data is ready. */
 145:.\Generated_Source\PSoC5/DieTemp_1.c ****             if(CySpcReadData(temp, 2u) == 2u)
 121              		.loc 1 145 0
 122 0018 01A8     		add	r0, sp, #4
 123              	.LVL9:
 124 001a 0221     		movs	r1, #2
 125 001c FFF7FEFF 		bl	CySpcReadData
 126              	.LVL10:
 127 0020 0228     		cmp	r0, #2
 128 0022 12D1     		bne	.L14
 146:.\Generated_Source\PSoC5/DieTemp_1.c ****             {
 147:.\Generated_Source\PSoC5/DieTemp_1.c ****                 if(temp[0u] == 1u)
 129              		.loc 1 147 0
 130 0024 9DF80430 		ldrb	r3, [sp, #4]	@ zero_extendqisi2
 131 0028 012B     		cmp	r3, #1
 132 002a 04D1     		bne	.L10
 148:.\Generated_Source\PSoC5/DieTemp_1.c ****                 {
 149:.\Generated_Source\PSoC5/DieTemp_1.c ****                     *temperature = (int16) ((uint16) temp[1]);
 133              		.loc 1 149 0
 134 002c 9DF80530 		ldrb	r3, [sp, #5]	@ zero_extendqisi2
 135 0030 2380     		strh	r3, [r4]	@ movhi
ARM GAS  C:\Users\Alex\AppData\Local\Temp\ccpeddBU.s 			page 6


 150:.\Generated_Source\PSoC5/DieTemp_1.c ****                 }
 151:.\Generated_Source\PSoC5/DieTemp_1.c ****                 else
 152:.\Generated_Source\PSoC5/DieTemp_1.c ****                 {
 153:.\Generated_Source\PSoC5/DieTemp_1.c ****                     *temperature = (int16) - ((int16) temp[1]);
 154:.\Generated_Source\PSoC5/DieTemp_1.c ****                 }
 155:.\Generated_Source\PSoC5/DieTemp_1.c ****                 status = CYRET_SUCCESS;
 136              		.loc 1 155 0
 137 0032 0024     		movs	r4, #0
 138              	.LVL11:
 139 0034 0BE0     		b	.L9
 140              	.LVL12:
 141              	.L10:
 153:.\Generated_Source\PSoC5/DieTemp_1.c ****                 }
 142              		.loc 1 153 0
 143 0036 9DF80530 		ldrb	r3, [sp, #5]	@ zero_extendqisi2
 144 003a 5B42     		negs	r3, r3
 145 003c 2380     		strh	r3, [r4]	@ movhi
 146              		.loc 1 155 0
 147 003e 0024     		movs	r4, #0
 148              	.LVL13:
 149 0040 05E0     		b	.L9
 150              	.LVL14:
 151              	.L12:
 156:.\Generated_Source\PSoC5/DieTemp_1.c ****             }
 157:.\Generated_Source\PSoC5/DieTemp_1.c ****             else
 158:.\Generated_Source\PSoC5/DieTemp_1.c ****             {
 159:.\Generated_Source\PSoC5/DieTemp_1.c ****                 status = CYRET_UNKNOWN;
 160:.\Generated_Source\PSoC5/DieTemp_1.c ****             }
 161:.\Generated_Source\PSoC5/DieTemp_1.c ****         }
 162:.\Generated_Source\PSoC5/DieTemp_1.c ****         else
 163:.\Generated_Source\PSoC5/DieTemp_1.c ****         {
 164:.\Generated_Source\PSoC5/DieTemp_1.c ****             status = CYRET_STARTED;
 165:.\Generated_Source\PSoC5/DieTemp_1.c ****         }
 166:.\Generated_Source\PSoC5/DieTemp_1.c ****     }
 167:.\Generated_Source\PSoC5/DieTemp_1.c ****     else
 168:.\Generated_Source\PSoC5/DieTemp_1.c ****     {
 169:.\Generated_Source\PSoC5/DieTemp_1.c ****         status = CYRET_TIMEOUT;
 152              		.loc 1 169 0
 153 0042 1024     		movs	r4, #16
 154 0044 03E0     		b	.L9
 155              	.L13:
 164:.\Generated_Source\PSoC5/DieTemp_1.c ****         }
 156              		.loc 1 164 0
 157 0046 0724     		movs	r4, #7
 158 0048 01E0     		b	.L9
 159              	.LVL15:
 160              	.L14:
 159:.\Generated_Source\PSoC5/DieTemp_1.c ****             }
 161              		.loc 1 159 0
 162 004a 4FF0FF34 		mov	r4, #-1
 163              	.LVL16:
 164              	.L9:
 170:.\Generated_Source\PSoC5/DieTemp_1.c ****     }
 171:.\Generated_Source\PSoC5/DieTemp_1.c **** 
 172:.\Generated_Source\PSoC5/DieTemp_1.c ****     if(status != CYRET_STARTED)
 165              		.loc 1 172 0
 166 004e 072C     		cmp	r4, #7
ARM GAS  C:\Users\Alex\AppData\Local\Temp\ccpeddBU.s 			page 7


 167 0050 01D0     		beq	.L11
 173:.\Generated_Source\PSoC5/DieTemp_1.c ****     {
 174:.\Generated_Source\PSoC5/DieTemp_1.c ****         /* Unlock the SPC so someone else can use it. */
 175:.\Generated_Source\PSoC5/DieTemp_1.c ****         CySpcUnlock();
 168              		.loc 1 175 0
 169 0052 FFF7FEFF 		bl	CySpcUnlock
 170              	.LVL17:
 171              	.L11:
 176:.\Generated_Source\PSoC5/DieTemp_1.c ****     }
 177:.\Generated_Source\PSoC5/DieTemp_1.c ****     return (status);
 178:.\Generated_Source\PSoC5/DieTemp_1.c **** }
 172              		.loc 1 178 0
 173 0056 2046     		mov	r0, r4
 174 0058 02B0     		add	sp, sp, #8
 175              		.cfi_def_cfa_offset 8
 176              		@ sp needed
 177 005a 10BD     		pop	{r4, pc}
 178              	.LVL18:
 179              	.L17:
 180              		.align	2
 181              	.L16:
 182 005c 22470040 		.word	1073760034
 183              		.cfi_endproc
 184              	.LFE2:
 185              		.size	DieTemp_1_Query, .-DieTemp_1_Query
 186              		.section	.text.DieTemp_1_GetTempT,"ax",%progbits
 187              		.align	2
 188              		.thumb
 189              		.thumb_func
 190              		.type	DieTemp_1_GetTempT, %function
 191              	DieTemp_1_GetTempT:
 192              	.LFB3:
 179:.\Generated_Source\PSoC5/DieTemp_1.c **** 
 180:.\Generated_Source\PSoC5/DieTemp_1.c **** 
 181:.\Generated_Source\PSoC5/DieTemp_1.c **** /*******************************************************************************
 182:.\Generated_Source\PSoC5/DieTemp_1.c **** * Function Name: DieTemp_1_GetTemp
 183:.\Generated_Source\PSoC5/DieTemp_1.c **** ********************************************************************************
 184:.\Generated_Source\PSoC5/DieTemp_1.c **** *
 185:.\Generated_Source\PSoC5/DieTemp_1.c **** * Summary:
 186:.\Generated_Source\PSoC5/DieTemp_1.c **** *  Sets up the command to get the temperature and blocks until finished. After
 187:.\Generated_Source\PSoC5/DieTemp_1.c **** *  DieTemp_1_MAX_WAIT ticks the function will return even if the
 188:.\Generated_Source\PSoC5/DieTemp_1.c **** *  SPC has not finished.
 189:.\Generated_Source\PSoC5/DieTemp_1.c **** *
 190:.\Generated_Source\PSoC5/DieTemp_1.c **** * Parameters:
 191:.\Generated_Source\PSoC5/DieTemp_1.c **** *  temperature: Address to store the two byte temperature value.
 192:.\Generated_Source\PSoC5/DieTemp_1.c **** *
 193:.\Generated_Source\PSoC5/DieTemp_1.c **** * Return:
 194:.\Generated_Source\PSoC5/DieTemp_1.c **** *  CYRET_SUCCESS if the command was completed sucessfuly.
 195:.\Generated_Source\PSoC5/DieTemp_1.c **** *  Status code from DieTemp_1_Start or DieTemp_1_Query
 196:.\Generated_Source\PSoC5/DieTemp_1.c **** *
 197:.\Generated_Source\PSoC5/DieTemp_1.c **** *******************************************************************************/
 198:.\Generated_Source\PSoC5/DieTemp_1.c **** static cystatus DieTemp_1_GetTempT(int16 * temperature) 
 199:.\Generated_Source\PSoC5/DieTemp_1.c **** {
 193              		.loc 1 199 0
 194              		.cfi_startproc
 195              		@ args = 0, pretend = 0, frame = 0
 196              		@ frame_needed = 0, uses_anonymous_args = 0
ARM GAS  C:\Users\Alex\AppData\Local\Temp\ccpeddBU.s 			page 8


 197              	.LVL19:
 198 0000 70B5     		push	{r4, r5, r6, lr}
 199              		.cfi_def_cfa_offset 16
 200              		.cfi_offset 4, -16
 201              		.cfi_offset 5, -12
 202              		.cfi_offset 6, -8
 203              		.cfi_offset 14, -4
 204 0002 0646     		mov	r6, r0
 200:.\Generated_Source\PSoC5/DieTemp_1.c ****     uint16 us;
 201:.\Generated_Source\PSoC5/DieTemp_1.c ****     cystatus status;
 202:.\Generated_Source\PSoC5/DieTemp_1.c **** 
 203:.\Generated_Source\PSoC5/DieTemp_1.c ****     /* Start the temp reading */
 204:.\Generated_Source\PSoC5/DieTemp_1.c ****     status = DieTemp_1_Start();
 205              		.loc 1 204 0
 206 0004 FFF7FEFF 		bl	DieTemp_1_Start
 207              	.LVL20:
 208 0008 0546     		mov	r5, r0
 209              	.LVL21:
 205:.\Generated_Source\PSoC5/DieTemp_1.c **** 
 206:.\Generated_Source\PSoC5/DieTemp_1.c ****     if(status == CYRET_STARTED)
 210              		.loc 1 206 0
 211 000a 0728     		cmp	r0, #7
 212 000c 17D1     		bne	.L20
 213 000e 12E0     		b	.L24
 214              	.LVL22:
 215              	.L23:
 207:.\Generated_Source\PSoC5/DieTemp_1.c ****     {
 208:.\Generated_Source\PSoC5/DieTemp_1.c ****         /**************************************************************************
 209:.\Generated_Source\PSoC5/DieTemp_1.c ****         * Wait for SPC to finish temperature reading. If state will change and SPC
 210:.\Generated_Source\PSoC5/DieTemp_1.c ****         * will finish - break cycle.
 211:.\Generated_Source\PSoC5/DieTemp_1.c ****         * DieTemp_1_MAX_WAIT is maximum time in ms to wait for SPC.
 212:.\Generated_Source\PSoC5/DieTemp_1.c ****         **************************************************************************/
 213:.\Generated_Source\PSoC5/DieTemp_1.c ****         for (us=(DieTemp_1_MAX_WAIT*1000u); us>0u; us-=10u)
 214:.\Generated_Source\PSoC5/DieTemp_1.c ****         {
 215:.\Generated_Source\PSoC5/DieTemp_1.c ****             if((CYRET_STARTED != status)&&(CY_SPC_IDLE))
 216              		.loc 1 215 0
 217 0010 072D     		cmp	r5, #7
 218 0012 04D0     		beq	.L21
 219              		.loc 1 215 0 is_stmt 0 discriminator 1
 220 0014 0B4B     		ldr	r3, .L26
 221 0016 1B78     		ldrb	r3, [r3]	@ zero_extendqisi2
 222 0018 13F0020F 		tst	r3, #2
 223 001c 0FD1     		bne	.L20
 224              	.L21:
 216:.\Generated_Source\PSoC5/DieTemp_1.c ****             {
 217:.\Generated_Source\PSoC5/DieTemp_1.c ****                 break;
 218:.\Generated_Source\PSoC5/DieTemp_1.c ****             }
 219:.\Generated_Source\PSoC5/DieTemp_1.c ****             else if(CYRET_STARTED == status)
 225              		.loc 1 219 0 is_stmt 1
 226 001e 072D     		cmp	r5, #7
 227 0020 03D1     		bne	.L22
 220:.\Generated_Source\PSoC5/DieTemp_1.c ****             {
 221:.\Generated_Source\PSoC5/DieTemp_1.c ****                 status = DieTemp_1_Query(temperature);
 228              		.loc 1 221 0
 229 0022 3046     		mov	r0, r6
 230 0024 FFF7FEFF 		bl	DieTemp_1_Query
 231              	.LVL23:
ARM GAS  C:\Users\Alex\AppData\Local\Temp\ccpeddBU.s 			page 9


 232 0028 0546     		mov	r5, r0
 233              	.LVL24:
 234              	.L22:
 222:.\Generated_Source\PSoC5/DieTemp_1.c ****             }
 223:.\Generated_Source\PSoC5/DieTemp_1.c ****             else
 224:.\Generated_Source\PSoC5/DieTemp_1.c ****             {
 225:.\Generated_Source\PSoC5/DieTemp_1.c ****                 /* SPC has not finished reading or isn't idle */
 226:.\Generated_Source\PSoC5/DieTemp_1.c ****             }
 227:.\Generated_Source\PSoC5/DieTemp_1.c ****             CyDelayUs(10u);
 235              		.loc 1 227 0 discriminator 2
 236 002a 0A20     		movs	r0, #10
 237 002c FFF7FEFF 		bl	CyDelayUs
 238              	.LVL25:
 213:.\Generated_Source\PSoC5/DieTemp_1.c ****         {
 239              		.loc 1 213 0 discriminator 2
 240 0030 0A3C     		subs	r4, r4, #10
 241              	.LVL26:
 242 0032 A4B2     		uxth	r4, r4
 243              	.LVL27:
 244 0034 01E0     		b	.L19
 245              	.LVL28:
 246              	.L24:
 247 0036 4FF4FA54 		mov	r4, #8000
 248              	.LVL29:
 249              	.L19:
 213:.\Generated_Source\PSoC5/DieTemp_1.c ****         {
 250              		.loc 1 213 0 is_stmt 0 discriminator 1
 251 003a 002C     		cmp	r4, #0
 252 003c E8D1     		bne	.L23
 253              	.LVL30:
 254              	.L20:
 228:.\Generated_Source\PSoC5/DieTemp_1.c ****         }
 229:.\Generated_Source\PSoC5/DieTemp_1.c ****     }
 230:.\Generated_Source\PSoC5/DieTemp_1.c **** 
 231:.\Generated_Source\PSoC5/DieTemp_1.c ****     return status;
 232:.\Generated_Source\PSoC5/DieTemp_1.c **** }
 255              		.loc 1 232 0 is_stmt 1
 256 003e 2846     		mov	r0, r5
 257 0040 70BD     		pop	{r4, r5, r6, pc}
 258              	.LVL31:
 259              	.L27:
 260 0042 00BF     		.align	2
 261              	.L26:
 262 0044 22470040 		.word	1073760034
 263              		.cfi_endproc
 264              	.LFE3:
 265              		.size	DieTemp_1_GetTempT, .-DieTemp_1_GetTempT
 266              		.section	.text.DieTemp_1_GetTemp,"ax",%progbits
 267              		.align	2
 268              		.global	DieTemp_1_GetTemp
 269              		.thumb
 270              		.thumb_func
 271              		.type	DieTemp_1_GetTemp, %function
 272              	DieTemp_1_GetTemp:
 273              	.LFB4:
 233:.\Generated_Source\PSoC5/DieTemp_1.c **** cystatus DieTemp_1_GetTemp(int16 * temperature) 
 234:.\Generated_Source\PSoC5/DieTemp_1.c **** {
ARM GAS  C:\Users\Alex\AppData\Local\Temp\ccpeddBU.s 			page 10


 274              		.loc 1 234 0
 275              		.cfi_startproc
 276              		@ args = 0, pretend = 0, frame = 0
 277              		@ frame_needed = 0, uses_anonymous_args = 0
 278              	.LVL32:
 279 0000 38B5     		push	{r3, r4, r5, lr}
 280              		.cfi_def_cfa_offset 16
 281              		.cfi_offset 3, -16
 282              		.cfi_offset 4, -12
 283              		.cfi_offset 5, -8
 284              		.cfi_offset 14, -4
 285 0002 0546     		mov	r5, r0
 286              	.LVL33:
 235:.\Generated_Source\PSoC5/DieTemp_1.c ****     cystatus status;
 236:.\Generated_Source\PSoC5/DieTemp_1.c ****     uint8 count = 2u;
 287              		.loc 1 236 0
 288 0004 0224     		movs	r4, #2
 237:.\Generated_Source\PSoC5/DieTemp_1.c ****     while (count != 0u)
 289              		.loc 1 237 0
 290 0006 06E0     		b	.L29
 291              	.LVL34:
 292              	.L31:
 238:.\Generated_Source\PSoC5/DieTemp_1.c ****     {
 239:.\Generated_Source\PSoC5/DieTemp_1.c ****         status = DieTemp_1_GetTempT(temperature);
 293              		.loc 1 239 0
 294 0008 2846     		mov	r0, r5
 295 000a FFF7FEFF 		bl	DieTemp_1_GetTempT
 296              	.LVL35:
 240:.\Generated_Source\PSoC5/DieTemp_1.c ****         if (status != CYRET_SUCCESS)
 297              		.loc 1 240 0
 298 000e 0346     		mov	r3, r0
 299 0010 18B9     		cbnz	r0, .L30
 241:.\Generated_Source\PSoC5/DieTemp_1.c ****         {
 242:.\Generated_Source\PSoC5/DieTemp_1.c ****             break;
 243:.\Generated_Source\PSoC5/DieTemp_1.c ****         }
 244:.\Generated_Source\PSoC5/DieTemp_1.c ****         count--;
 300              		.loc 1 244 0
 301 0012 013C     		subs	r4, r4, #1
 302              	.LVL36:
 303 0014 E4B2     		uxtb	r4, r4
 304              	.LVL37:
 305              	.L29:
 237:.\Generated_Source\PSoC5/DieTemp_1.c ****     {
 306              		.loc 1 237 0
 307 0016 002C     		cmp	r4, #0
 308 0018 F6D1     		bne	.L31
 309              	.L30:
 245:.\Generated_Source\PSoC5/DieTemp_1.c ****     }
 246:.\Generated_Source\PSoC5/DieTemp_1.c ****     return status;
 247:.\Generated_Source\PSoC5/DieTemp_1.c **** }
 310              		.loc 1 247 0
 311 001a 1846     		mov	r0, r3
 312 001c 38BD     		pop	{r3, r4, r5, pc}
 313              		.cfi_endproc
 314              	.LFE4:
 315              		.size	DieTemp_1_GetTemp, .-DieTemp_1_GetTemp
 316 001e 00BF     		.text
ARM GAS  C:\Users\Alex\AppData\Local\Temp\ccpeddBU.s 			page 11


 317              	.Letext0:
 318              		.file 2 "Generated_Source\\PSoC5/cytypes.h"
 319              		.file 3 "Generated_Source\\PSoC5/CySpc.h"
 320              		.file 4 "Generated_Source\\PSoC5/CyLib.h"