ARM GAS  C:\Users\Alex\AppData\Local\Temp\cccRnX3R.s 			page 1


   1              		.syntax unified
   2              		.cpu cortex-m3
   3              		.fpu softvfp
   4              		.eabi_attribute 20, 1
   5              		.eabi_attribute 21, 1
   6              		.eabi_attribute 23, 3
   7              		.eabi_attribute 24, 1
   8              		.eabi_attribute 25, 1
   9              		.eabi_attribute 26, 1
  10              		.eabi_attribute 30, 1
  11              		.eabi_attribute 34, 1
  12              		.eabi_attribute 18, 4
  13              		.thumb
  14              		.file	"ext_input.c"
  15              		.text
  16              	.Ltext0:
  17              		.cfi_sections	.debug_frame
  18              		.global _printf_float
  19              		.global	__paritysi2
  20              		.thumb
  21              		.section	.text.add_even_parity_msb,"ax",%progbits
  22              		.align	2
  23              		.thumb
  24              		.thumb_func
  25              		.type	add_even_parity_msb, %function
  26              	add_even_parity_msb:
  27              	.LFB76:
  28              		.file 1 "..\\src\\ext_input.c"
   1:..\src/ext_input.c **** //****************************************************************************
   2:..\src/ext_input.c **** // MIT Media Lab - Biomechatronics
   3:..\src/ext_input.c **** // Jean-Francois (Jeff) Duval
   4:..\src/ext_input.c **** // jfduval@media.mit.edu
   5:..\src/ext_input.c **** // 02/2016
   6:..\src/ext_input.c **** //****************************************************************************
   7:..\src/ext_input.c **** // ext_input: External Input Devices/Sensors
   8:..\src/ext_input.c **** //****************************************************************************
   9:..\src/ext_input.c **** 
  10:..\src/ext_input.c **** //****************************************************************************
  11:..\src/ext_input.c **** // Include(s)
  12:..\src/ext_input.c **** //****************************************************************************
  13:..\src/ext_input.c **** 
  14:..\src/ext_input.c **** #include "main.h"
  15:..\src/ext_input.c **** #include "ext_input.h"
  16:..\src/ext_input.c **** 
  17:..\src/ext_input.c **** //****************************************************************************
  18:..\src/ext_input.c **** // Variable(s)
  19:..\src/ext_input.c **** //****************************************************************************
  20:..\src/ext_input.c **** 
  21:..\src/ext_input.c **** //Encoders:
  22:..\src/ext_input.c **** struct enc_s encoder;
  23:..\src/ext_input.c **** struct as504x_s as5047, as5048b;
  24:..\src/ext_input.c **** 
  25:..\src/ext_input.c **** //Magnetic encoder, AS5047:
  26:..\src/ext_input.c **** uint16 spidata_mosi[WORDS_IN_FRAME] = {0,0,0,0,0,0,0};
  27:..\src/ext_input.c **** uint16 spidata_miso[WORDS_IN_FRAME] = {0,0,0,0,0,0,0};
  28:..\src/ext_input.c **** uint16 spidata_mosi2[WORDS_IN_FRAME];
  29:..\src/ext_input.c **** uint8 spistatus = 0;
ARM GAS  C:\Users\Alex\AppData\Local\Temp\cccRnX3R.s 			page 2


  30:..\src/ext_input.c **** uint16 angleunc = 0;
  31:..\src/ext_input.c **** uint16 as5047_angle = 0;
  32:..\src/ext_input.c **** 
  33:..\src/ext_input.c **** //Magnetic encoder, AS5048B:
  34:..\src/ext_input.c **** uint8 as5048b_bytes[10] = {0,0,0,0,0,0,0,0,0,0};
  35:..\src/ext_input.c **** uint8 as5048b_agc = 0, as5048b_diag = 0;
  36:..\src/ext_input.c **** uint16 as5048b_mag = 0, as5048b_angle = 0;
  37:..\src/ext_input.c **** 
  38:..\src/ext_input.c **** //6-ch Strain Amplifier:
  39:..\src/ext_input.c **** uint16 ext_strain[6] = {0,0,0,0,0,0};
  40:..\src/ext_input.c **** uint8 ext_strain_bytes[12];
  41:..\src/ext_input.c **** 
  42:..\src/ext_input.c **** //Battery Board:
  43:..\src/ext_input.c **** struct flexsea_batt_s flexsea_batt;
  44:..\src/ext_input.c **** 
  45:..\src/ext_input.c **** //****************************************************************************
  46:..\src/ext_input.c **** // Private Function Prototype(s):
  47:..\src/ext_input.c **** //****************************************************************************	
  48:..\src/ext_input.c **** 
  49:..\src/ext_input.c **** static uint16 add_even_parity_msb(uint16 word);
  50:..\src/ext_input.c **** 
  51:..\src/ext_input.c **** //****************************************************************************
  52:..\src/ext_input.c **** // Public Function(s)
  53:..\src/ext_input.c **** //****************************************************************************
  54:..\src/ext_input.c **** 
  55:..\src/ext_input.c **** //Initialize the quadrature encoder input (QEI) 
  56:..\src/ext_input.c **** void init_qei(void)
  57:..\src/ext_input.c **** {
  58:..\src/ext_input.c **** 	QuadDec_1_Start();
  59:..\src/ext_input.c **** 	QuadDec_1_Enable();
  60:..\src/ext_input.c **** 	QuadDec_1_SetCounter(QUAD1_INIT);
  61:..\src/ext_input.c **** }
  62:..\src/ext_input.c **** 
  63:..\src/ext_input.c **** //Updates the structure with the latest encoder value
  64:..\src/ext_input.c **** //Only deals with the Controller encoder (no commutation)
  65:..\src/ext_input.c **** int32 refresh_enc_control(void)
  66:..\src/ext_input.c **** {
  67:..\src/ext_input.c **** 	//Count: actual, last, difference
  68:..\src/ext_input.c **** 	encoder.count_last = encoder.count;
  69:..\src/ext_input.c **** 	
  70:..\src/ext_input.c **** 	#if(ENC_CONTROL == ENC_QUADRATURE)
  71:..\src/ext_input.c **** 		encoder.count = CTRL_ENC_FCT(QuadDec_1_GetCounter());
  72:..\src/ext_input.c **** 	#elif(ENC_CONTROL == ENC_ANALOG)
  73:..\src/ext_input.c **** 		encoder.count = get_analog_pos();	
  74:..\src/ext_input.c **** 	#elif(ENC_CONTROL == ENC_AS5047)
  75:..\src/ext_input.c **** 		encoder.count = CTRL_ENC_FCT(as5047.angle_cont);
  76:..\src/ext_input.c **** 	#elif(ENC_CONTROL == ENC_AS5048B)
  77:..\src/ext_input.c **** 		encoder.count = as5048b.angle_ctrl;
  78:..\src/ext_input.c ****     #elif(ENC_CONTROL == ENC_CUSTOM)
  79:..\src/ext_input.c **** 		encoder.count = CTRL_ENC_FCT(get_enc_custom());
  80:..\src/ext_input.c **** 	#endif
  81:..\src/ext_input.c **** 		
  82:..\src/ext_input.c **** 	encoder.count_dif = encoder.count - encoder.count_last;
  83:..\src/ext_input.c **** 	
  84:..\src/ext_input.c **** 	//For the position & impedance controllers we use the last count
  85:..\src/ext_input.c **** 	ctrl.position.pos = encoder.count;
  86:..\src/ext_input.c **** 	ctrl.impedance.actual_val = encoder.count;
ARM GAS  C:\Users\Alex\AppData\Local\Temp\cccRnX3R.s 			page 3


  87:..\src/ext_input.c **** 	
  88:..\src/ext_input.c **** 	return encoder.count;
  89:..\src/ext_input.c **** }
  90:..\src/ext_input.c **** //Warning: encoder.count seems to be interpreted as a uint... casting (int32) before using it works
  91:..\src/ext_input.c **** 
  92:..\src/ext_input.c **** //Encoder displayed in the GUI
  93:..\src/ext_input.c **** int32 refresh_enc_display(void)
  94:..\src/ext_input.c **** {
  95:..\src/ext_input.c **** 	int32 tmp_enc = 0;
  96:..\src/ext_input.c **** 	
  97:..\src/ext_input.c **** 	#if(ENC_DISPLAY == ENC_QUADRATURE)
  98:..\src/ext_input.c **** 		tmp_enc = CTRL_ENC_FCT(QuadDec_1_GetCounter());
  99:..\src/ext_input.c **** 	#elif(ENC_DISPLAY == ENC_ANALOG)
 100:..\src/ext_input.c **** 		tmp_enc = get_analog_pos();
 101:..\src/ext_input.c **** 	#elif(ENC_DISPLAY == ENC_AS5047)
 102:..\src/ext_input.c **** 		tmp_enc = CTRL_ENC_FCT(as5047.angle_cont);
 103:..\src/ext_input.c **** 	#elif(ENC_DISPLAY == ENC_AS5048B)
 104:..\src/ext_input.c **** 		tmp_enc = as5048b.angle_ctrl;
 105:..\src/ext_input.c ****     #elif(ENC_CONTROL == ENC_CUSTOM)
 106:..\src/ext_input.c **** 		tmp_enc = CTRL_ENC_FCT(get_enc_custom());
 107:..\src/ext_input.c **** 	#endif
 108:..\src/ext_input.c **** 	
 109:..\src/ext_input.c **** 	return tmp_enc;
 110:..\src/ext_input.c **** }
 111:..\src/ext_input.c **** 
 112:..\src/ext_input.c **** void qei_write(int32 enc)
 113:..\src/ext_input.c **** {
 114:..\src/ext_input.c **** 	#ifdef USE_QEI
 115:..\src/ext_input.c **** 	//encoder.count = enc;
 116:..\src/ext_input.c **** 	QuadDec_1_SetCounter(enc);
 117:..\src/ext_input.c **** 	//Note: the read uses CTRL_ENC_FCT(), be careful about what you write!
 118:..\src/ext_input.c **** 	#endif
 119:..\src/ext_input.c **** }
 120:..\src/ext_input.c **** 
 121:..\src/ext_input.c **** int32 qei_read(void)
 122:..\src/ext_input.c **** {
 123:..\src/ext_input.c **** 	int32 retval = 0;
 124:..\src/ext_input.c **** 	
 125:..\src/ext_input.c **** 	#ifdef USE_QEI
 126:..\src/ext_input.c **** 	retval = QuadDec_1_GetCounter();
 127:..\src/ext_input.c **** 	#endif
 128:..\src/ext_input.c **** 	
 129:..\src/ext_input.c **** 	return retval;
 130:..\src/ext_input.c **** }
 131:..\src/ext_input.c **** 
 132:..\src/ext_input.c **** void init_as5047(void)
 133:..\src/ext_input.c **** {
 134:..\src/ext_input.c **** 	//Init SPIM module:
 135:..\src/ext_input.c ****     SPIM_1_Start();
 136:..\src/ext_input.c **** }
 137:..\src/ext_input.c **** 
 138:..\src/ext_input.c **** //Read a single word
 139:..\src/ext_input.c **** uint16 as5047_read_single(uint16 reg)
 140:..\src/ext_input.c **** {
 141:..\src/ext_input.c **** 	//Clear buffers to start in a known state:
 142:..\src/ext_input.c **** 	SPIM_1_ClearTxBuffer();
 143:..\src/ext_input.c **** 	SPIM_1_ClearRxBuffer();
ARM GAS  C:\Users\Alex\AppData\Local\Temp\cccRnX3R.s 			page 4


 144:..\src/ext_input.c ****     CyDelayUs(10);
 145:..\src/ext_input.c **** 
 146:..\src/ext_input.c **** 	//Send 1st byte (reg addr)
 147:..\src/ext_input.c **** 	spidata_mosi2[0] = add_even_parity_msb(AS5047_READ | reg);
 148:..\src/ext_input.c **** 	SPIM_1_PutArray(spidata_mosi2, 1);	
 149:..\src/ext_input.c **** 	CyDelayUs(10);
 150:..\src/ext_input.c ****     spidata_miso[0] = SPIM_1_ReadRxData();
 151:..\src/ext_input.c **** 	
 152:..\src/ext_input.c **** 	//Send 2nd byte (empty, used to read)
 153:..\src/ext_input.c **** 	spidata_mosi2[0] = add_even_parity_msb(AS5047_READ | AS5047_REG_NOP);
 154:..\src/ext_input.c **** 	SPIM_1_PutArray(spidata_mosi2, 1);	
 155:..\src/ext_input.c **** 	CyDelayUs(10);
 156:..\src/ext_input.c ****     spidata_miso[1] = SPIM_1_ReadRxData();	
 157:..\src/ext_input.c **** 	
 158:..\src/ext_input.c **** 	//spidata_miso[1] contains the answer. Remove parity and return value
 159:..\src/ext_input.c **** 	//ToDo: ignore word if wrong parity
 160:..\src/ext_input.c **** 
 161:..\src/ext_input.c **** 	last_as5047_word = (spidata_miso[1] & 0x3FFF);
 162:..\src/ext_input.c **** 	as5047_angle = last_as5047_word;
 163:..\src/ext_input.c **** 	return last_as5047_word;
 164:..\src/ext_input.c **** }
 165:..\src/ext_input.c **** 
 166:..\src/ext_input.c **** //Reassembles the bytes we read in words
 167:..\src/ext_input.c **** void strain_6ch_bytes_to_words(uint8 *buf)
 168:..\src/ext_input.c **** {
 169:..\src/ext_input.c **** 	ext_strain[0] = ((((uint16)buf[0] << 8) & 0xFF00) | (uint16)buf[1]);
 170:..\src/ext_input.c **** 	ext_strain[1] = ((((uint16)buf[2] << 8) & 0xFF00) | (uint16)buf[3]);
 171:..\src/ext_input.c **** 	ext_strain[2] = ((((uint16)buf[4] << 8) & 0xFF00) | (uint16)buf[5]);
 172:..\src/ext_input.c **** 	ext_strain[3] = ((((uint16)buf[6] << 8) & 0xFF00) | (uint16)buf[7]);
 173:..\src/ext_input.c **** 	ext_strain[4] = ((((uint16)buf[8] << 8) & 0xFF00) | (uint16)buf[9]);
 174:..\src/ext_input.c **** 	ext_strain[5] = ((((uint16)buf[10] << 8) & 0xFF00) | (uint16)buf[11]);
 175:..\src/ext_input.c **** }
 176:..\src/ext_input.c **** 
 177:..\src/ext_input.c **** //Get latest readings from the 6-ch strain sensor
 178:..\src/ext_input.c **** void get_6ch_strain(void) 
 179:..\src/ext_input.c **** {
 180:..\src/ext_input.c **** 	i2c0_read(I2C_SLAVE_ADDR_6CH, MEM_R_CH1_H, ext_strain_bytes, 12);
 181:..\src/ext_input.c **** 	//strain_6ch_bytes_to_words();
 182:..\src/ext_input.c **** }
 183:..\src/ext_input.c **** 
 184:..\src/ext_input.c **** //Get latest readings from the AS5048B position sensor
 185:..\src/ext_input.c **** void get_as5048b_position(void) 
 186:..\src/ext_input.c **** {
 187:..\src/ext_input.c **** 	i2c0_read(I2C_ADDR_AS5048B, AD5048B_REG_ANGLE_H, as5048b_bytes, 2);
 188:..\src/ext_input.c **** }
 189:..\src/ext_input.c **** 
 190:..\src/ext_input.c **** //Converts from ADC reading to position
 191:..\src/ext_input.c **** int16 get_analog_pos(void)
 192:..\src/ext_input.c **** {
 193:..\src/ext_input.c **** 	#if(ACTIVE_PROJECT == PROJECT_CSEA_KNEE)
 194:..\src/ext_input.c **** 		return CTRL_ENC_FCT(adc1_res_filtered[0]);
 195:..\src/ext_input.c **** 	#else
 196:..\src/ext_input.c **** 		return 0;
 197:..\src/ext_input.c **** 	#endif
 198:..\src/ext_input.c **** }
 199:..\src/ext_input.c **** 
 200:..\src/ext_input.c **** //Move to batt_board.c/h
ARM GAS  C:\Users\Alex\AppData\Local\Temp\cccRnX3R.s 			page 5


 201:..\src/ext_input.c **** //=================
 202:..\src/ext_input.c **** 
 203:..\src/ext_input.c **** //Read from the Battery Board (I2C shared memory)
 204:..\src/ext_input.c **** void get_battery_board(void)
 205:..\src/ext_input.c **** {
 206:..\src/ext_input.c **** 	uint8 tmp_buf[8] = {0,0,0,0,0,0,0,0};
 207:..\src/ext_input.c **** 	uint8 i = 0;
 208:..\src/ext_input.c **** 	
 209:..\src/ext_input.c **** 	i2c0_read(I2C_ADDR_BATT_BOARD, MEM_BB_R_STATUS1, tmp_buf, 8);	
 210:..\src/ext_input.c **** }
 211:..\src/ext_input.c **** 
 212:..\src/ext_input.c **** //Decode and store battery board data
 213:..\src/ext_input.c **** void decode_battery_board(uint8 *buf)
 214:..\src/ext_input.c **** {
 215:..\src/ext_input.c **** 	uint8 read_offs = MEM_BB_R_STATUS1;
 216:..\src/ext_input.c **** 	flexsea_batt.status_byte = buf[MEM_BB_R_STATUS1 - read_offs];
 217:..\src/ext_input.c **** 	flexsea_batt.voltage = BYTES_TO_UINT16(buf[MEM_BB_R_VOLT_MSB - read_offs], \
 218:..\src/ext_input.c **** 											buf[MEM_BB_R_VOLT_LSB - read_offs]);
 219:..\src/ext_input.c **** 	flexsea_batt.current = (int16)BYTES_TO_UINT16( \
 220:..\src/ext_input.c **** 											buf[MEM_BB_R_CURRENT_MSB - read_offs],\
 221:..\src/ext_input.c **** 											buf[MEM_BB_R_CURRENT_LSB - read_offs]);
 222:..\src/ext_input.c **** 	flexsea_batt.temperature = buf[MEM_BB_R_TEMP - read_offs];
 223:..\src/ext_input.c **** }
 224:..\src/ext_input.c **** 
 225:..\src/ext_input.c **** //****************************************************************************
 226:..\src/ext_input.c **** // Private Function(s)
 227:..\src/ext_input.c **** //****************************************************************************
 228:..\src/ext_input.c **** 
 229:..\src/ext_input.c **** //When writing to the AS5047, MSB has to be an Even parity bit
 230:..\src/ext_input.c **** static uint16 add_even_parity_msb(uint16 word)
 231:..\src/ext_input.c **** {
  29              		.loc 1 231 0
  30              		.cfi_startproc
  31              		@ args = 0, pretend = 0, frame = 0
  32              		@ frame_needed = 0, uses_anonymous_args = 0
  33              	.LVL0:
  34 0000 10B5     		push	{r4, lr}
  35              		.cfi_def_cfa_offset 8
  36              		.cfi_offset 4, -8
  37              		.cfi_offset 14, -4
  38 0002 0446     		mov	r4, r0
  39              	.LVL1:
 232:..\src/ext_input.c **** 	uint16 ret = 0;
 233:..\src/ext_input.c **** 	
 234:..\src/ext_input.c **** 	//__builtin_parity() returns 0 for even, 1 for odd
 235:..\src/ext_input.c **** 	// MSB = 1 when it's odd
 236:..\src/ext_input.c **** 	if(__builtin_parity((int)word))
  40              		.loc 1 236 0
  41 0004 FFF7FEFF 		bl	__paritysi2
  42              	.LVL2:
  43 0008 10B1     		cbz	r0, .L2
 237:..\src/ext_input.c **** 	{
 238:..\src/ext_input.c **** 		ret = (word | PARITY_1);
  44              		.loc 1 238 0
  45 000a 44F40040 		orr	r0, r4, #32768
  46              	.LVL3:
  47 000e 10BD     		pop	{r4, pc}
ARM GAS  C:\Users\Alex\AppData\Local\Temp\cccRnX3R.s 			page 6


  48              	.LVL4:
  49              	.L2:
 239:..\src/ext_input.c **** 	}
 240:..\src/ext_input.c **** 	else
 241:..\src/ext_input.c **** 	{
 242:..\src/ext_input.c **** 		ret = (word & PARITY_0);
  50              		.loc 1 242 0
  51 0010 C4F30E00 		ubfx	r0, r4, #0, #15
  52              	.LVL5:
 243:..\src/ext_input.c **** 	}
 244:..\src/ext_input.c **** 	
 245:..\src/ext_input.c **** 	return ret;
 246:..\src/ext_input.c **** }
  53              		.loc 1 246 0
  54 0014 10BD     		pop	{r4, pc}
  55              		.cfi_endproc
  56              	.LFE76:
  57              		.size	add_even_parity_msb, .-add_even_parity_msb
  58 0016 00BF     		.section	.text.init_qei,"ax",%progbits
  59              		.align	2
  60              		.global	init_qei
  61              		.thumb
  62              		.thumb_func
  63              		.type	init_qei, %function
  64              	init_qei:
  65              	.LFB63:
  57:..\src/ext_input.c **** 	QuadDec_1_Start();
  66              		.loc 1 57 0
  67              		.cfi_startproc
  68              		@ args = 0, pretend = 0, frame = 0
  69              		@ frame_needed = 0, uses_anonymous_args = 0
  70 0000 08B5     		push	{r3, lr}
  71              		.cfi_def_cfa_offset 8
  72              		.cfi_offset 3, -8
  73              		.cfi_offset 14, -4
  58:..\src/ext_input.c **** 	QuadDec_1_Enable();
  74              		.loc 1 58 0
  75 0002 FFF7FEFF 		bl	QuadDec_1_Start
  76              	.LVL6:
  59:..\src/ext_input.c **** 	QuadDec_1_SetCounter(QUAD1_INIT);
  77              		.loc 1 59 0
  78 0006 FFF7FEFF 		bl	QuadDec_1_Enable
  79              	.LVL7:
  60:..\src/ext_input.c **** }
  80              		.loc 1 60 0
  81 000a 0020     		movs	r0, #0
  82 000c FFF7FEFF 		bl	QuadDec_1_SetCounter
  83              	.LVL8:
  84 0010 08BD     		pop	{r3, pc}
  85              		.cfi_endproc
  86              	.LFE63:
  87              		.size	init_qei, .-init_qei
  88 0012 00BF     		.section	.text.refresh_enc_control,"ax",%progbits
  89              		.align	2
  90              		.global	refresh_enc_control
  91              		.thumb
  92              		.thumb_func
ARM GAS  C:\Users\Alex\AppData\Local\Temp\cccRnX3R.s 			page 7


  93              		.type	refresh_enc_control, %function
  94              	refresh_enc_control:
  95              	.LFB64:
  66:..\src/ext_input.c **** 	//Count: actual, last, difference
  96              		.loc 1 66 0
  97              		.cfi_startproc
  98              		@ args = 0, pretend = 0, frame = 0
  99              		@ frame_needed = 0, uses_anonymous_args = 0
 100 0000 10B5     		push	{r4, lr}
 101              		.cfi_def_cfa_offset 8
 102              		.cfi_offset 4, -8
 103              		.cfi_offset 14, -4
  68:..\src/ext_input.c **** 	
 104              		.loc 1 68 0
 105 0002 074C     		ldr	r4, .L9
 106 0004 2368     		ldr	r3, [r4]
 107 0006 6360     		str	r3, [r4, #4]
  71:..\src/ext_input.c **** 	#elif(ENC_CONTROL == ENC_ANALOG)
 108              		.loc 1 71 0
 109 0008 FFF7FEFF 		bl	QuadDec_1_GetCounter
 110              	.LVL9:
 111 000c 2060     		str	r0, [r4]
  82:..\src/ext_input.c **** 	
 112              		.loc 1 82 0
 113 000e 6268     		ldr	r2, [r4, #4]
 114 0010 821A     		subs	r2, r0, r2
 115 0012 A260     		str	r2, [r4, #8]
  85:..\src/ext_input.c **** 	ctrl.impedance.actual_val = encoder.count;
 116              		.loc 1 85 0
 117 0014 034A     		ldr	r2, .L9+4
 118 0016 9065     		str	r0, [r2, #88]
  86:..\src/ext_input.c **** 	
 119              		.loc 1 86 0
 120 0018 C2F88C00 		str	r0, [r2, #140]
  89:..\src/ext_input.c **** //Warning: encoder.count seems to be interpreted as a uint... casting (int32) before using it works
 121              		.loc 1 89 0
 122 001c 10BD     		pop	{r4, pc}
 123              	.L10:
 124 001e 00BF     		.align	2
 125              	.L9:
 126 0020 00000000 		.word	encoder
 127 0024 00000000 		.word	ctrl
 128              		.cfi_endproc
 129              	.LFE64:
 130              		.size	refresh_enc_control, .-refresh_enc_control
 131              		.section	.text.refresh_enc_display,"ax",%progbits
 132              		.align	2
 133              		.global	refresh_enc_display
 134              		.thumb
 135              		.thumb_func
 136              		.type	refresh_enc_display, %function
 137              	refresh_enc_display:
 138              	.LFB65:
  94:..\src/ext_input.c **** 	int32 tmp_enc = 0;
 139              		.loc 1 94 0
 140              		.cfi_startproc
 141              		@ args = 0, pretend = 0, frame = 0
ARM GAS  C:\Users\Alex\AppData\Local\Temp\cccRnX3R.s 			page 8


 142              		@ frame_needed = 0, uses_anonymous_args = 0
 143 0000 08B5     		push	{r3, lr}
 144              		.cfi_def_cfa_offset 8
 145              		.cfi_offset 3, -8
 146              		.cfi_offset 14, -4
 147              	.LVL10:
  98:..\src/ext_input.c **** 	#elif(ENC_DISPLAY == ENC_ANALOG)
 148              		.loc 1 98 0
 149 0002 FFF7FEFF 		bl	QuadDec_1_GetCounter
 150              	.LVL11:
 110:..\src/ext_input.c **** 
 151              		.loc 1 110 0
 152 0006 08BD     		pop	{r3, pc}
 153              		.cfi_endproc
 154              	.LFE65:
 155              		.size	refresh_enc_display, .-refresh_enc_display
 156              		.section	.text.qei_write,"ax",%progbits
 157              		.align	2
 158              		.global	qei_write
 159              		.thumb
 160              		.thumb_func
 161              		.type	qei_write, %function
 162              	qei_write:
 163              	.LFB66:
 113:..\src/ext_input.c **** 	#ifdef USE_QEI
 164              		.loc 1 113 0
 165              		.cfi_startproc
 166              		@ args = 0, pretend = 0, frame = 0
 167              		@ frame_needed = 0, uses_anonymous_args = 0
 168              	.LVL12:
 169 0000 08B5     		push	{r3, lr}
 170              		.cfi_def_cfa_offset 8
 171              		.cfi_offset 3, -8
 172              		.cfi_offset 14, -4
 116:..\src/ext_input.c **** 	//Note: the read uses CTRL_ENC_FCT(), be careful about what you write!
 173              		.loc 1 116 0
 174 0002 FFF7FEFF 		bl	QuadDec_1_SetCounter
 175              	.LVL13:
 176 0006 08BD     		pop	{r3, pc}
 177              		.cfi_endproc
 178              	.LFE66:
 179              		.size	qei_write, .-qei_write
 180              		.section	.text.qei_read,"ax",%progbits
 181              		.align	2
 182              		.global	qei_read
 183              		.thumb
 184              		.thumb_func
 185              		.type	qei_read, %function
 186              	qei_read:
 187              	.LFB67:
 122:..\src/ext_input.c **** 	int32 retval = 0;
 188              		.loc 1 122 0
 189              		.cfi_startproc
 190              		@ args = 0, pretend = 0, frame = 0
 191              		@ frame_needed = 0, uses_anonymous_args = 0
 192 0000 08B5     		push	{r3, lr}
 193              		.cfi_def_cfa_offset 8
ARM GAS  C:\Users\Alex\AppData\Local\Temp\cccRnX3R.s 			page 9


 194              		.cfi_offset 3, -8
 195              		.cfi_offset 14, -4
 196              	.LVL14:
 126:..\src/ext_input.c **** 	#endif
 197              		.loc 1 126 0
 198 0002 FFF7FEFF 		bl	QuadDec_1_GetCounter
 199              	.LVL15:
 130:..\src/ext_input.c **** 
 200              		.loc 1 130 0
 201 0006 08BD     		pop	{r3, pc}
 202              		.cfi_endproc
 203              	.LFE67:
 204              		.size	qei_read, .-qei_read
 205              		.section	.text.init_as5047,"ax",%progbits
 206              		.align	2
 207              		.global	init_as5047
 208              		.thumb
 209              		.thumb_func
 210              		.type	init_as5047, %function
 211              	init_as5047:
 212              	.LFB68:
 133:..\src/ext_input.c **** 	//Init SPIM module:
 213              		.loc 1 133 0
 214              		.cfi_startproc
 215              		@ args = 0, pretend = 0, frame = 0
 216              		@ frame_needed = 0, uses_anonymous_args = 0
 217 0000 08B5     		push	{r3, lr}
 218              		.cfi_def_cfa_offset 8
 219              		.cfi_offset 3, -8
 220              		.cfi_offset 14, -4
 135:..\src/ext_input.c **** }
 221              		.loc 1 135 0
 222 0002 FFF7FEFF 		bl	SPIM_1_Start
 223              	.LVL16:
 224 0006 08BD     		pop	{r3, pc}
 225              		.cfi_endproc
 226              	.LFE68:
 227              		.size	init_as5047, .-init_as5047
 228              		.section	.text.as5047_read_single,"ax",%progbits
 229              		.align	2
 230              		.global	as5047_read_single
 231              		.thumb
 232              		.thumb_func
 233              		.type	as5047_read_single, %function
 234              	as5047_read_single:
 235              	.LFB69:
 140:..\src/ext_input.c **** 	//Clear buffers to start in a known state:
 236              		.loc 1 140 0
 237              		.cfi_startproc
 238              		@ args = 0, pretend = 0, frame = 0
 239              		@ frame_needed = 0, uses_anonymous_args = 0
 240              	.LVL17:
 241 0000 38B5     		push	{r3, r4, r5, lr}
 242              		.cfi_def_cfa_offset 16
 243              		.cfi_offset 3, -16
 244              		.cfi_offset 4, -12
 245              		.cfi_offset 5, -8
ARM GAS  C:\Users\Alex\AppData\Local\Temp\cccRnX3R.s 			page 10


 246              		.cfi_offset 14, -4
 247 0002 0446     		mov	r4, r0
 142:..\src/ext_input.c **** 	SPIM_1_ClearRxBuffer();
 248              		.loc 1 142 0
 249 0004 FFF7FEFF 		bl	SPIM_1_ClearTxBuffer
 250              	.LVL18:
 143:..\src/ext_input.c ****     CyDelayUs(10);
 251              		.loc 1 143 0
 252 0008 FFF7FEFF 		bl	SPIM_1_ClearRxBuffer
 253              	.LVL19:
 144:..\src/ext_input.c **** 
 254              		.loc 1 144 0
 255 000c 0A20     		movs	r0, #10
 256 000e FFF7FEFF 		bl	CyDelayUs
 257              	.LVL20:
 147:..\src/ext_input.c **** 	SPIM_1_PutArray(spidata_mosi2, 1);	
 258              		.loc 1 147 0
 259 0012 44F48040 		orr	r0, r4, #16384
 260 0016 FFF7FEFF 		bl	add_even_parity_msb
 261              	.LVL21:
 262 001a 114C     		ldr	r4, .L21
 263 001c 2080     		strh	r0, [r4]	@ movhi
 148:..\src/ext_input.c **** 	CyDelayUs(10);
 264              		.loc 1 148 0
 265 001e 2046     		mov	r0, r4
 266 0020 0121     		movs	r1, #1
 267 0022 FFF7FEFF 		bl	SPIM_1_PutArray
 268              	.LVL22:
 149:..\src/ext_input.c ****     spidata_miso[0] = SPIM_1_ReadRxData();
 269              		.loc 1 149 0
 270 0026 0A20     		movs	r0, #10
 271 0028 FFF7FEFF 		bl	CyDelayUs
 272              	.LVL23:
 150:..\src/ext_input.c **** 	
 273              		.loc 1 150 0
 274 002c FFF7FEFF 		bl	SPIM_1_ReadRxData
 275              	.LVL24:
 276 0030 0C4D     		ldr	r5, .L21+4
 277 0032 2880     		strh	r0, [r5]	@ movhi
 153:..\src/ext_input.c **** 	SPIM_1_PutArray(spidata_mosi2, 1);	
 278              		.loc 1 153 0
 279 0034 4FF48040 		mov	r0, #16384
 280 0038 FFF7FEFF 		bl	add_even_parity_msb
 281              	.LVL25:
 282 003c 2080     		strh	r0, [r4]	@ movhi
 154:..\src/ext_input.c **** 	CyDelayUs(10);
 283              		.loc 1 154 0
 284 003e 2046     		mov	r0, r4
 285 0040 0121     		movs	r1, #1
 286 0042 FFF7FEFF 		bl	SPIM_1_PutArray
 287              	.LVL26:
 155:..\src/ext_input.c ****     spidata_miso[1] = SPIM_1_ReadRxData();	
 288              		.loc 1 155 0
 289 0046 0A20     		movs	r0, #10
 290 0048 FFF7FEFF 		bl	CyDelayUs
 291              	.LVL27:
 156:..\src/ext_input.c **** 	
ARM GAS  C:\Users\Alex\AppData\Local\Temp\cccRnX3R.s 			page 11


 292              		.loc 1 156 0
 293 004c FFF7FEFF 		bl	SPIM_1_ReadRxData
 294              	.LVL28:
 295 0050 6880     		strh	r0, [r5, #2]	@ movhi
 161:..\src/ext_input.c **** 	as5047_angle = last_as5047_word;
 296              		.loc 1 161 0
 297 0052 C0F30D00 		ubfx	r0, r0, #0, #14
 298 0056 044B     		ldr	r3, .L21+8
 299 0058 1880     		strh	r0, [r3]	@ movhi
 162:..\src/ext_input.c **** 	return last_as5047_word;
 300              		.loc 1 162 0
 301 005a E881     		strh	r0, [r5, #14]	@ movhi
 164:..\src/ext_input.c **** 
 302              		.loc 1 164 0
 303 005c 38BD     		pop	{r3, r4, r5, pc}
 304              	.L22:
 305 005e 00BF     		.align	2
 306              	.L21:
 307 0060 00000000 		.word	spidata_mosi2
 308 0064 00000000 		.word	.LANCHOR0
 309 0068 00000000 		.word	last_as5047_word
 310              		.cfi_endproc
 311              	.LFE69:
 312              		.size	as5047_read_single, .-as5047_read_single
 313              		.section	.text.strain_6ch_bytes_to_words,"ax",%progbits
 314              		.align	2
 315              		.global	strain_6ch_bytes_to_words
 316              		.thumb
 317              		.thumb_func
 318              		.type	strain_6ch_bytes_to_words, %function
 319              	strain_6ch_bytes_to_words:
 320              	.LFB70:
 168:..\src/ext_input.c **** 	ext_strain[0] = ((((uint16)buf[0] << 8) & 0xFF00) | (uint16)buf[1]);
 321              		.loc 1 168 0
 322              		.cfi_startproc
 323              		@ args = 0, pretend = 0, frame = 0
 324              		@ frame_needed = 0, uses_anonymous_args = 0
 325              		@ link register save eliminated.
 326              	.LVL29:
 169:..\src/ext_input.c **** 	ext_strain[1] = ((((uint16)buf[2] << 8) & 0xFF00) | (uint16)buf[3]);
 327              		.loc 1 169 0
 328 0000 0178     		ldrb	r1, [r0]	@ zero_extendqisi2
 329 0002 4278     		ldrb	r2, [r0, #1]	@ zero_extendqisi2
 330 0004 0E4B     		ldr	r3, .L24
 331 0006 42EA0122 		orr	r2, r2, r1, lsl #8
 332 000a 1A82     		strh	r2, [r3, #16]	@ movhi
 170:..\src/ext_input.c **** 	ext_strain[2] = ((((uint16)buf[4] << 8) & 0xFF00) | (uint16)buf[5]);
 333              		.loc 1 170 0
 334 000c 8178     		ldrb	r1, [r0, #2]	@ zero_extendqisi2
 335 000e C278     		ldrb	r2, [r0, #3]	@ zero_extendqisi2
 336 0010 42EA0122 		orr	r2, r2, r1, lsl #8
 337 0014 5A82     		strh	r2, [r3, #18]	@ movhi
 171:..\src/ext_input.c **** 	ext_strain[3] = ((((uint16)buf[6] << 8) & 0xFF00) | (uint16)buf[7]);
 338              		.loc 1 171 0
 339 0016 0179     		ldrb	r1, [r0, #4]	@ zero_extendqisi2
 340 0018 4279     		ldrb	r2, [r0, #5]	@ zero_extendqisi2
 341 001a 42EA0122 		orr	r2, r2, r1, lsl #8
ARM GAS  C:\Users\Alex\AppData\Local\Temp\cccRnX3R.s 			page 12


 342 001e 9A82     		strh	r2, [r3, #20]	@ movhi
 172:..\src/ext_input.c **** 	ext_strain[4] = ((((uint16)buf[8] << 8) & 0xFF00) | (uint16)buf[9]);
 343              		.loc 1 172 0
 344 0020 8179     		ldrb	r1, [r0, #6]	@ zero_extendqisi2
 345 0022 C279     		ldrb	r2, [r0, #7]	@ zero_extendqisi2
 346 0024 42EA0122 		orr	r2, r2, r1, lsl #8
 347 0028 DA82     		strh	r2, [r3, #22]	@ movhi
 173:..\src/ext_input.c **** 	ext_strain[5] = ((((uint16)buf[10] << 8) & 0xFF00) | (uint16)buf[11]);
 348              		.loc 1 173 0
 349 002a 017A     		ldrb	r1, [r0, #8]	@ zero_extendqisi2
 350 002c 427A     		ldrb	r2, [r0, #9]	@ zero_extendqisi2
 351 002e 42EA0122 		orr	r2, r2, r1, lsl #8
 352 0032 1A83     		strh	r2, [r3, #24]	@ movhi
 174:..\src/ext_input.c **** }
 353              		.loc 1 174 0
 354 0034 817A     		ldrb	r1, [r0, #10]	@ zero_extendqisi2
 355 0036 C27A     		ldrb	r2, [r0, #11]	@ zero_extendqisi2
 356 0038 42EA0122 		orr	r2, r2, r1, lsl #8
 357 003c 5A83     		strh	r2, [r3, #26]	@ movhi
 358 003e 7047     		bx	lr
 359              	.L25:
 360              		.align	2
 361              	.L24:
 362 0040 00000000 		.word	.LANCHOR0
 363              		.cfi_endproc
 364              	.LFE70:
 365              		.size	strain_6ch_bytes_to_words, .-strain_6ch_bytes_to_words
 366              		.section	.text.get_6ch_strain,"ax",%progbits
 367              		.align	2
 368              		.global	get_6ch_strain
 369              		.thumb
 370              		.thumb_func
 371              		.type	get_6ch_strain, %function
 372              	get_6ch_strain:
 373              	.LFB71:
 179:..\src/ext_input.c **** 	i2c0_read(I2C_SLAVE_ADDR_6CH, MEM_R_CH1_H, ext_strain_bytes, 12);
 374              		.loc 1 179 0
 375              		.cfi_startproc
 376              		@ args = 0, pretend = 0, frame = 0
 377              		@ frame_needed = 0, uses_anonymous_args = 0
 378 0000 08B5     		push	{r3, lr}
 379              		.cfi_def_cfa_offset 8
 380              		.cfi_offset 3, -8
 381              		.cfi_offset 14, -4
 180:..\src/ext_input.c **** 	//strain_6ch_bytes_to_words();
 382              		.loc 1 180 0
 383 0002 6620     		movs	r0, #102
 384 0004 0821     		movs	r1, #8
 385 0006 024A     		ldr	r2, .L28
 386 0008 0C23     		movs	r3, #12
 387 000a FFF7FEFF 		bl	i2c0_read
 388              	.LVL30:
 389 000e 08BD     		pop	{r3, pc}
 390              	.L29:
 391              		.align	2
 392              	.L28:
 393 0010 00000000 		.word	ext_strain_bytes
ARM GAS  C:\Users\Alex\AppData\Local\Temp\cccRnX3R.s 			page 13


 394              		.cfi_endproc
 395              	.LFE71:
 396              		.size	get_6ch_strain, .-get_6ch_strain
 397              		.section	.text.get_as5048b_position,"ax",%progbits
 398              		.align	2
 399              		.global	get_as5048b_position
 400              		.thumb
 401              		.thumb_func
 402              		.type	get_as5048b_position, %function
 403              	get_as5048b_position:
 404              	.LFB72:
 186:..\src/ext_input.c **** 	i2c0_read(I2C_ADDR_AS5048B, AD5048B_REG_ANGLE_H, as5048b_bytes, 2);
 405              		.loc 1 186 0
 406              		.cfi_startproc
 407              		@ args = 0, pretend = 0, frame = 0
 408              		@ frame_needed = 0, uses_anonymous_args = 0
 409 0000 08B5     		push	{r3, lr}
 410              		.cfi_def_cfa_offset 8
 411              		.cfi_offset 3, -8
 412              		.cfi_offset 14, -4
 187:..\src/ext_input.c **** }
 413              		.loc 1 187 0
 414 0002 4020     		movs	r0, #64
 415 0004 FE21     		movs	r1, #254
 416 0006 024A     		ldr	r2, .L32
 417 0008 0223     		movs	r3, #2
 418 000a FFF7FEFF 		bl	i2c0_read
 419              	.LVL31:
 420 000e 08BD     		pop	{r3, pc}
 421              	.L33:
 422              		.align	2
 423              	.L32:
 424 0010 1C000000 		.word	.LANCHOR0+28
 425              		.cfi_endproc
 426              	.LFE72:
 427              		.size	get_as5048b_position, .-get_as5048b_position
 428              		.section	.text.get_analog_pos,"ax",%progbits
 429              		.align	2
 430              		.global	get_analog_pos
 431              		.thumb
 432              		.thumb_func
 433              		.type	get_analog_pos, %function
 434              	get_analog_pos:
 435              	.LFB73:
 192:..\src/ext_input.c **** 	#if(ACTIVE_PROJECT == PROJECT_CSEA_KNEE)
 436              		.loc 1 192 0
 437              		.cfi_startproc
 438              		@ args = 0, pretend = 0, frame = 0
 439              		@ frame_needed = 0, uses_anonymous_args = 0
 440              		@ link register save eliminated.
 198:..\src/ext_input.c **** 
 441              		.loc 1 198 0
 442 0000 0020     		movs	r0, #0
 443 0002 7047     		bx	lr
 444              		.cfi_endproc
 445              	.LFE73:
 446              		.size	get_analog_pos, .-get_analog_pos
ARM GAS  C:\Users\Alex\AppData\Local\Temp\cccRnX3R.s 			page 14


 447              		.section	.text.get_battery_board,"ax",%progbits
 448              		.align	2
 449              		.global	get_battery_board
 450              		.thumb
 451              		.thumb_func
 452              		.type	get_battery_board, %function
 453              	get_battery_board:
 454              	.LFB74:
 205:..\src/ext_input.c **** 	uint8 tmp_buf[8] = {0,0,0,0,0,0,0,0};
 455              		.loc 1 205 0
 456              		.cfi_startproc
 457              		@ args = 0, pretend = 0, frame = 8
 458              		@ frame_needed = 0, uses_anonymous_args = 0
 459 0000 00B5     		push	{lr}
 460              		.cfi_def_cfa_offset 4
 461              		.cfi_offset 14, -4
 462 0002 83B0     		sub	sp, sp, #12
 463              		.cfi_def_cfa_offset 16
 206:..\src/ext_input.c **** 	uint8 i = 0;
 464              		.loc 1 206 0
 465 0004 0023     		movs	r3, #0
 466 0006 8DF80030 		strb	r3, [sp]
 467 000a 8DF80130 		strb	r3, [sp, #1]
 468 000e 8DF80230 		strb	r3, [sp, #2]
 469 0012 8DF80330 		strb	r3, [sp, #3]
 470 0016 8DF80430 		strb	r3, [sp, #4]
 471 001a 8DF80530 		strb	r3, [sp, #5]
 472 001e 8DF80630 		strb	r3, [sp, #6]
 473 0022 8DF80730 		strb	r3, [sp, #7]
 474              	.LVL32:
 209:..\src/ext_input.c **** }
 475              		.loc 1 209 0
 476 0026 3320     		movs	r0, #51
 477 0028 0521     		movs	r1, #5
 478 002a 6A46     		mov	r2, sp
 479 002c 0823     		movs	r3, #8
 480 002e FFF7FEFF 		bl	i2c0_read
 481              	.LVL33:
 210:..\src/ext_input.c **** 
 482              		.loc 1 210 0
 483 0032 03B0     		add	sp, sp, #12
 484              		.cfi_def_cfa_offset 4
 485              		@ sp needed
 486 0034 5DF804FB 		ldr	pc, [sp], #4
 487              		.cfi_endproc
 488              	.LFE74:
 489              		.size	get_battery_board, .-get_battery_board
 490              		.section	.text.decode_battery_board,"ax",%progbits
 491              		.align	2
 492              		.global	decode_battery_board
 493              		.thumb
 494              		.thumb_func
 495              		.type	decode_battery_board, %function
 496              	decode_battery_board:
 497              	.LFB75:
 214:..\src/ext_input.c **** 	uint8 read_offs = MEM_BB_R_STATUS1;
 498              		.loc 1 214 0
ARM GAS  C:\Users\Alex\AppData\Local\Temp\cccRnX3R.s 			page 15


 499              		.cfi_startproc
 500              		@ args = 0, pretend = 0, frame = 0
 501              		@ frame_needed = 0, uses_anonymous_args = 0
 502              		@ link register save eliminated.
 503              	.LVL34:
 216:..\src/ext_input.c **** 	flexsea_batt.voltage = BYTES_TO_UINT16(buf[MEM_BB_R_VOLT_MSB - read_offs], \
 504              		.loc 1 216 0
 505 0000 0278     		ldrb	r2, [r0]	@ zero_extendqisi2
 506 0002 074B     		ldr	r3, .L38
 507 0004 5A71     		strb	r2, [r3, #5]
 217:..\src/ext_input.c **** 											buf[MEM_BB_R_VOLT_LSB - read_offs]);
 508              		.loc 1 217 0
 509 0006 8178     		ldrb	r1, [r0, #2]	@ zero_extendqisi2
 510 0008 C278     		ldrb	r2, [r0, #3]	@ zero_extendqisi2
 511 000a 02EB0122 		add	r2, r2, r1, lsl #8
 512 000e 1A80     		strh	r2, [r3]	@ movhi
 219:..\src/ext_input.c **** 											buf[MEM_BB_R_CURRENT_MSB - read_offs],\
 513              		.loc 1 219 0
 514 0010 0179     		ldrb	r1, [r0, #4]	@ zero_extendqisi2
 515 0012 4279     		ldrb	r2, [r0, #5]	@ zero_extendqisi2
 516 0014 02EB0122 		add	r2, r2, r1, lsl #8
 517 0018 5A80     		strh	r2, [r3, #2]	@ movhi
 222:..\src/ext_input.c **** }
 518              		.loc 1 222 0
 519 001a 8279     		ldrb	r2, [r0, #6]	@ zero_extendqisi2
 520 001c 1A71     		strb	r2, [r3, #4]
 521 001e 7047     		bx	lr
 522              	.L39:
 523              		.align	2
 524              	.L38:
 525 0020 00000000 		.word	flexsea_batt
 526              		.cfi_endproc
 527              	.LFE75:
 528              		.size	decode_battery_board, .-decode_battery_board
 529              		.section	.text.as5047_test_code_blocking,"ax",%progbits
 530              		.align	2
 531              		.global	as5047_test_code_blocking
 532              		.thumb
 533              		.thumb_func
 534              		.type	as5047_test_code_blocking, %function
 535              	as5047_test_code_blocking:
 536              	.LFB77:
 247:..\src/ext_input.c **** 
 248:..\src/ext_input.c **** //****************************************************************************
 249:..\src/ext_input.c **** // Test Function(s) - Use with care!
 250:..\src/ext_input.c **** //****************************************************************************
 251:..\src/ext_input.c **** 
 252:..\src/ext_input.c **** void as5047_test_code_blocking(void)
 253:..\src/ext_input.c **** {
 537              		.loc 1 253 0
 538              		.cfi_startproc
 539              		@ Volatile: function does not return.
 540              		@ args = 0, pretend = 0, frame = 0
 541              		@ frame_needed = 0, uses_anonymous_args = 0
 542 0000 08B5     		push	{r3, lr}
 543              		.cfi_def_cfa_offset 8
 544              		.cfi_offset 3, -8
ARM GAS  C:\Users\Alex\AppData\Local\Temp\cccRnX3R.s 			page 16


 545              		.cfi_offset 14, -4
 254:..\src/ext_input.c ****     //uint8 i = 0;
 255:..\src/ext_input.c ****    
 256:..\src/ext_input.c ****     //Init SPIM module:
 257:..\src/ext_input.c ****     SPIM_1_Start();
 546              		.loc 1 257 0
 547 0002 FFF7FEFF 		bl	SPIM_1_Start
 548              	.LVL35:
 258:..\src/ext_input.c ****     CyDelay(10);   
 549              		.loc 1 258 0
 550 0006 0A20     		movs	r0, #10
 551 0008 FFF7FEFF 		bl	CyDelay
 552              	.LVL36:
 259:..\src/ext_input.c **** 	
 260:..\src/ext_input.c ****     //Build the mosi packet:
 261:..\src/ext_input.c ****     spidata_mosi[0] = add_even_parity_msb(AS5047_READ | AS5047_REG_ERRFL);
 553              		.loc 1 261 0
 554 000c 44F20100 		movw	r0, #16385
 555 0010 FFF7FEFF 		bl	add_even_parity_msb
 556              	.LVL37:
 557 0014 134C     		ldr	r4, .L43
 558 0016 2085     		strh	r0, [r4, #40]	@ movhi
 262:..\src/ext_input.c ****     spidata_mosi[1] = add_even_parity_msb(AS5047_READ | AS5047_REG_PROG);
 559              		.loc 1 262 0
 560 0018 44F20300 		movw	r0, #16387
 561 001c FFF7FEFF 		bl	add_even_parity_msb
 562              	.LVL38:
 563 0020 6085     		strh	r0, [r4, #42]	@ movhi
 263:..\src/ext_input.c ****     spidata_mosi[2] = add_even_parity_msb(AS5047_READ | AS5047_REG_DIAAGC);
 564              		.loc 1 263 0
 565 0022 47F6FC70 		movw	r0, #32764
 566 0026 FFF7FEFF 		bl	add_even_parity_msb
 567              	.LVL39:
 568 002a A085     		strh	r0, [r4, #44]	@ movhi
 264:..\src/ext_input.c ****     spidata_mosi[3] = add_even_parity_msb(AS5047_READ | AS5047_REG_MAG);
 569              		.loc 1 264 0
 570 002c 47F6FD70 		movw	r0, #32765
 571 0030 FFF7FEFF 		bl	add_even_parity_msb
 572              	.LVL40:
 573 0034 E085     		strh	r0, [r4, #46]	@ movhi
 265:..\src/ext_input.c ****     spidata_mosi[4] = add_even_parity_msb(AS5047_READ | AS5047_REG_ANGLEUNC);
 574              		.loc 1 265 0
 575 0036 47F6FE70 		movw	r0, #32766
 576 003a FFF7FEFF 		bl	add_even_parity_msb
 577              	.LVL41:
 578 003e 2086     		strh	r0, [r4, #48]	@ movhi
 266:..\src/ext_input.c ****     spidata_mosi[5] = add_even_parity_msb(AS5047_READ | AS5047_REG_ANGLECOM);
 579              		.loc 1 266 0
 580 0040 47F6FF70 		movw	r0, #32767
 581 0044 FFF7FEFF 		bl	add_even_parity_msb
 582              	.LVL42:
 583 0048 6086     		strh	r0, [r4, #50]	@ movhi
 267:..\src/ext_input.c ****     spidata_mosi[6] = add_even_parity_msb(AS5047_READ | AS5047_REG_NOP);
 584              		.loc 1 267 0
 585 004a 4FF48040 		mov	r0, #16384
 586 004e FFF7FEFF 		bl	add_even_parity_msb
 587              	.LVL43:
ARM GAS  C:\Users\Alex\AppData\Local\Temp\cccRnX3R.s 			page 17


 588 0052 A086     		strh	r0, [r4, #52]	@ movhi
 589              	.L41:
 268:..\src/ext_input.c ****     
 269:..\src/ext_input.c ****     while(1)
 270:..\src/ext_input.c ****     {
 271:..\src/ext_input.c **** 		//Read all the fields:
 272:..\src/ext_input.c **** 		/*
 273:..\src/ext_input.c **** 		SPIM_1_ClearTxBuffer();
 274:..\src/ext_input.c **** 		SPIM_1_ClearRxBuffer();
 275:..\src/ext_input.c ****         CyDelay(1);
 276:..\src/ext_input.c ****        
 277:..\src/ext_input.c ****         for(i = 0; i < WORDS_IN_FRAME ; i++)
 278:..\src/ext_input.c ****         {
 279:..\src/ext_input.c **** 			spidata_mosi2[0] = spidata_mosi[i];
 280:..\src/ext_input.c **** 			SPIM_1_PutArray(spidata_mosi2, 1);
 281:..\src/ext_input.c **** 			
 282:..\src/ext_input.c **** 			CyDelayUs(15);
 283:..\src/ext_input.c ****             spidata_miso[i] = SPIM_1_ReadRxData();
 284:..\src/ext_input.c ****         }
 285:..\src/ext_input.c ****         CyDelay(4);
 286:..\src/ext_input.c ****        
 287:..\src/ext_input.c ****         //Notes: delays only present for early debugging. Minimize/remove.
 288:..\src/ext_input.c ****        
 289:..\src/ext_input.c ****         //We could commutate the motor here.
 290:..\src/ext_input.c **** 		*/
 291:..\src/ext_input.c **** 		
 292:..\src/ext_input.c **** 		//Single word:
 293:..\src/ext_input.c **** 		angleunc = as5047_read_single(AS5047_REG_ANGLEUNC);
 590              		.loc 1 293 0 discriminator 1
 591 0054 43F6FE70 		movw	r0, #16382
 592 0058 FFF7FEFF 		bl	as5047_read_single
 593              	.LVL44:
 594 005c 014B     		ldr	r3, .L43
 595 005e D886     		strh	r0, [r3, #54]	@ movhi
 294:..\src/ext_input.c ****     }
 596              		.loc 1 294 0 discriminator 1
 597 0060 F8E7     		b	.L41
 598              	.L44:
 599 0062 00BF     		.align	2
 600              	.L43:
 601 0064 00000000 		.word	.LANCHOR0
 602              		.cfi_endproc
 603              	.LFE77:
 604              		.size	as5047_test_code_blocking, .-as5047_test_code_blocking
 605              		.section	.text.strain_amp_6ch_test_code_blocking,"ax",%progbits
 606              		.align	2
 607              		.global	strain_amp_6ch_test_code_blocking
 608              		.thumb
 609              		.thumb_func
 610              		.type	strain_amp_6ch_test_code_blocking, %function
 611              	strain_amp_6ch_test_code_blocking:
 612              	.LFB78:
 295:..\src/ext_input.c **** }
 296:..\src/ext_input.c **** 
 297:..\src/ext_input.c **** void strain_amp_6ch_test_code_blocking(void)
 298:..\src/ext_input.c **** {
 613              		.loc 1 298 0
ARM GAS  C:\Users\Alex\AppData\Local\Temp\cccRnX3R.s 			page 18


 614              		.cfi_startproc
 615              		@ Volatile: function does not return.
 616              		@ args = 0, pretend = 0, frame = 0
 617              		@ frame_needed = 0, uses_anonymous_args = 0
 618 0000 08B5     		push	{r3, lr}
 619              		.cfi_def_cfa_offset 8
 620              		.cfi_offset 3, -8
 621              		.cfi_offset 14, -4
 622              	.L46:
 299:..\src/ext_input.c **** 	while(1)
 300:..\src/ext_input.c **** 	{
 301:..\src/ext_input.c **** 		i2c0_read(I2C_SLAVE_ADDR_6CH, MEM_R_CH1_H, ext_strain_bytes, 12);
 623              		.loc 1 301 0 discriminator 1
 624 0002 074C     		ldr	r4, .L48
 625 0004 6620     		movs	r0, #102
 626 0006 0821     		movs	r1, #8
 627 0008 2246     		mov	r2, r4
 628 000a 0C23     		movs	r3, #12
 629 000c FFF7FEFF 		bl	i2c0_read
 630              	.LVL45:
 302:..\src/ext_input.c **** 		strain_6ch_bytes_to_words(ext_strain_bytes);
 631              		.loc 1 302 0 discriminator 1
 632 0010 2046     		mov	r0, r4
 633 0012 FFF7FEFF 		bl	strain_6ch_bytes_to_words
 634              	.LVL46:
 303:..\src/ext_input.c **** 		CyDelay(100);
 635              		.loc 1 303 0 discriminator 1
 636 0016 6420     		movs	r0, #100
 637 0018 FFF7FEFF 		bl	CyDelay
 638              	.LVL47:
 304:..\src/ext_input.c **** 	}
 639              		.loc 1 304 0 discriminator 1
 640 001c F1E7     		b	.L46
 641              	.L49:
 642 001e 00BF     		.align	2
 643              	.L48:
 644 0020 00000000 		.word	ext_strain_bytes
 645              		.cfi_endproc
 646              	.LFE78:
 647              		.size	strain_amp_6ch_test_code_blocking, .-strain_amp_6ch_test_code_blocking
 648              		.section	.text.as5048b_test_code_blocking,"ax",%progbits
 649              		.align	2
 650              		.global	as5048b_test_code_blocking
 651              		.thumb
 652              		.thumb_func
 653              		.type	as5048b_test_code_blocking, %function
 654              	as5048b_test_code_blocking:
 655              	.LFB79:
 305:..\src/ext_input.c **** }
 306:..\src/ext_input.c **** 
 307:..\src/ext_input.c **** void as5048b_test_code_blocking(void)
 308:..\src/ext_input.c **** {
 656              		.loc 1 308 0
 657              		.cfi_startproc
 658              		@ Volatile: function does not return.
 659              		@ args = 0, pretend = 0, frame = 0
 660              		@ frame_needed = 0, uses_anonymous_args = 0
ARM GAS  C:\Users\Alex\AppData\Local\Temp\cccRnX3R.s 			page 19


 661 0000 08B5     		push	{r3, lr}
 662              		.cfi_def_cfa_offset 8
 663              		.cfi_offset 3, -8
 664              		.cfi_offset 14, -4
 665              	.L51:
 309:..\src/ext_input.c **** 	while(1)
 310:..\src/ext_input.c **** 	{
 311:..\src/ext_input.c **** 		i2c0_read(I2C_ADDR_AS5048B, AD5048B_REG_AGC, as5048b_bytes, 6);
 666              		.loc 1 311 0 discriminator 1
 667 0002 124C     		ldr	r4, .L53
 668 0004 4020     		movs	r0, #64
 669 0006 FA21     		movs	r1, #250
 670 0008 04F11C02 		add	r2, r4, #28
 671 000c 0623     		movs	r3, #6
 672 000e FFF7FEFF 		bl	i2c0_read
 673              	.LVL48:
 312:..\src/ext_input.c **** 		
 313:..\src/ext_input.c **** 		as5048b_agc = as5048b_bytes[0];
 674              		.loc 1 313 0 discriminator 1
 675 0012 237F     		ldrb	r3, [r4, #28]	@ zero_extendqisi2
 676 0014 84F83830 		strb	r3, [r4, #56]
 314:..\src/ext_input.c **** 		as5048b_diag = as5048b_bytes[1] & 0x0F;
 677              		.loc 1 314 0 discriminator 1
 678 0018 637F     		ldrb	r3, [r4, #29]	@ zero_extendqisi2
 679 001a 03F00F03 		and	r3, r3, #15
 680 001e 84F83930 		strb	r3, [r4, #57]
 315:..\src/ext_input.c **** 		as5048b_mag = (as5048b_bytes[2]<<6) + (as5048b_bytes[3]&0x3F); 
 681              		.loc 1 315 0 discriminator 1
 682 0022 A27F     		ldrb	r2, [r4, #30]	@ zero_extendqisi2
 683 0024 E37F     		ldrb	r3, [r4, #31]	@ zero_extendqisi2
 684 0026 03F03F03 		and	r3, r3, #63
 685 002a 03EB8213 		add	r3, r3, r2, lsl #6
 686 002e 6387     		strh	r3, [r4, #58]	@ movhi
 316:..\src/ext_input.c **** 		as5048b_angle = (as5048b_bytes[4]<<6) + (as5048b_bytes[5]&0x3F);
 687              		.loc 1 316 0 discriminator 1
 688 0030 94F82020 		ldrb	r2, [r4, #32]	@ zero_extendqisi2
 689 0034 94F82130 		ldrb	r3, [r4, #33]	@ zero_extendqisi2
 690 0038 03F03F03 		and	r3, r3, #63
 691 003c 03EB8213 		add	r3, r3, r2, lsl #6
 692 0040 A387     		strh	r3, [r4, #60]	@ movhi
 317:..\src/ext_input.c **** 		
 318:..\src/ext_input.c **** 		CyDelay(100);
 693              		.loc 1 318 0 discriminator 1
 694 0042 6420     		movs	r0, #100
 695 0044 FFF7FEFF 		bl	CyDelay
 696              	.LVL49:
 319:..\src/ext_input.c **** 	}
 697              		.loc 1 319 0 discriminator 1
 698 0048 DBE7     		b	.L51
 699              	.L54:
 700 004a 00BF     		.align	2
 701              	.L53:
 702 004c 00000000 		.word	.LANCHOR0
 703              		.cfi_endproc
 704              	.LFE79:
 705              		.size	as5048b_test_code_blocking, .-as5048b_test_code_blocking
 706              		.comm	flexsea_batt,6,4
ARM GAS  C:\Users\Alex\AppData\Local\Temp\cccRnX3R.s 			page 20


 707              		.comm	ext_strain_bytes,12,4
 708              		.global	ext_strain
 709              		.global	as5048b_angle
 710              		.global	as5048b_mag
 711              		.global	as5048b_diag
 712              		.global	as5048b_agc
 713              		.global	as5048b_bytes
 714              		.global	as5047_angle
 715              		.global	angleunc
 716              		.global	spistatus
 717              		.comm	spidata_mosi2,14,4
 718              		.global	spidata_miso
 719              		.global	spidata_mosi
 720              		.comm	as5048b,16,8
 721              		.comm	as5047,16,8
 722              		.comm	encoder,16,4
 723              		.bss
 724              		.align	2
 725              		.set	.LANCHOR0,. + 0
 726              		.type	spidata_miso, %object
 727              		.size	spidata_miso, 14
 728              	spidata_miso:
 729 0000 00000000 		.space	14
 729      00000000 
 729      00000000 
 729      0000
 730              		.type	as5047_angle, %object
 731              		.size	as5047_angle, 2
 732              	as5047_angle:
 733 000e 0000     		.space	2
 734              		.type	ext_strain, %object
 735              		.size	ext_strain, 12
 736              	ext_strain:
 737 0010 00000000 		.space	12
 737      00000000 
 737      00000000 
 738              		.type	as5048b_bytes, %object
 739              		.size	as5048b_bytes, 10
 740              	as5048b_bytes:
 741 001c 00000000 		.space	10
 741      00000000 
 741      0000
 742 0026 0000     		.space	2
 743              		.type	spidata_mosi, %object
 744              		.size	spidata_mosi, 14
 745              	spidata_mosi:
 746 0028 00000000 		.space	14
 746      00000000 
 746      00000000 
 746      0000
 747              		.type	angleunc, %object
 748              		.size	angleunc, 2
 749              	angleunc:
 750 0036 0000     		.space	2
 751              		.type	as5048b_agc, %object
 752              		.size	as5048b_agc, 1
 753              	as5048b_agc:
ARM GAS  C:\Users\Alex\AppData\Local\Temp\cccRnX3R.s 			page 21


 754 0038 00       		.space	1
 755              		.type	as5048b_diag, %object
 756              		.size	as5048b_diag, 1
 757              	as5048b_diag:
 758 0039 00       		.space	1
 759              		.type	as5048b_mag, %object
 760              		.size	as5048b_mag, 2
 761              	as5048b_mag:
 762 003a 0000     		.space	2
 763              		.type	as5048b_angle, %object
 764              		.size	as5048b_angle, 2
 765              	as5048b_angle:
 766 003c 0000     		.space	2
 767              		.type	spistatus, %object
 768              		.size	spistatus, 1
 769              	spistatus:
 770 003e 00       		.space	1
 771 003f 00       		.text
 772              	.Letext0:
 773              		.file 2 "c:\\program files (x86)\\cypress\\psoc creator\\3.3\\psoc creator\\import\\gnu\\arm\\4.9.
 774              		.file 3 "c:\\program files (x86)\\cypress\\psoc creator\\3.3\\psoc creator\\import\\gnu\\arm\\4.9.
 775              		.file 4 "Generated_Source\\PSoC5/cytypes.h"
 776              		.file 5 "..\\inc/ext_input.h"
 777              		.file 6 "..\\inc/../../flexsea-system/inc/flexsea_cmd_control.h"
 778              		.file 7 "Generated_Source\\PSoC5/core_cm3.h"
 779              		.file 8 "..\\inc/misc.h"
 780              		.file 9 "..\\inc/control.h"
 781              		.file 10 "Generated_Source\\PSoC5/QuadDec_1.h"
 782              		.file 11 "Generated_Source\\PSoC5/SPIM_1.h"
 783              		.file 12 "Generated_Source\\PSoC5/CyLib.h"
 784              		.file 13 "..\\inc/i2c.h"