ARM GAS  C:\Users\Alex\AppData\Local\Temp\ccssM5ca.s 			page 1


   1              		.syntax unified
   2              		.cpu cortex-m3
   3              		.fpu softvfp
   4              		.eabi_attribute 20, 1
   5              		.eabi_attribute 21, 1
   6              		.eabi_attribute 23, 3
   7              		.eabi_attribute 24, 1
   8              		.eabi_attribute 25, 1
   9              		.eabi_attribute 26, 1
  10              		.eabi_attribute 30, 1
  11              		.eabi_attribute 34, 1
  12              		.eabi_attribute 18, 4
  13              		.thumb
  14              		.file	"flexsea_cmd_sensors.c"
  15              		.text
  16              	.Ltext0:
  17              		.cfi_sections	.debug_frame
  18              		.global _printf_float
  19              		.thumb
  20              		.section	.text.tx_cmd_switch,"ax",%progbits
  21              		.align	2
  22              		.global	tx_cmd_switch
  23              		.thumb
  24              		.thumb_func
  25              		.type	tx_cmd_switch, %function
  26              	tx_cmd_switch:
  27              	.LFB63:
  28              		.file 1 "..\\..\\flexsea-system\\src\\flexsea_cmd_sensors.c"
   1:..\..\flexsea-system\src/flexsea_cmd_sensors.c **** //****************************************************************************
   2:..\..\flexsea-system\src/flexsea_cmd_sensors.c **** // MIT Media Lab - Biomechatronics
   3:..\..\flexsea-system\src/flexsea_cmd_sensors.c **** // Jean-François (Jeff) Duval
   4:..\..\flexsea-system\src/flexsea_cmd_sensors.c **** // jfduval@media.mit.edu
   5:..\..\flexsea-system\src/flexsea_cmd_sensors.c **** // 04/2016
   6:..\..\flexsea-system\src/flexsea_cmd_sensors.c **** //****************************************************************************
   7:..\..\flexsea-system\src/flexsea_cmd_sensors.c **** // flexsea_cmd_sensors: commands specific sensors
   8:..\..\flexsea-system\src/flexsea_cmd_sensors.c **** //****************************************************************************
   9:..\..\flexsea-system\src/flexsea_cmd_sensors.c **** 
  10:..\..\flexsea-system\src/flexsea_cmd_sensors.c **** #ifdef __cplusplus
  11:..\..\flexsea-system\src/flexsea_cmd_sensors.c **** extern "C" {
  12:..\..\flexsea-system\src/flexsea_cmd_sensors.c **** #endif
  13:..\..\flexsea-system\src/flexsea_cmd_sensors.c **** 
  14:..\..\flexsea-system\src/flexsea_cmd_sensors.c **** //ToDo: the ENCODER command is too "QEI" centric. Generalize.
  15:..\..\flexsea-system\src/flexsea_cmd_sensors.c **** 
  16:..\..\flexsea-system\src/flexsea_cmd_sensors.c **** //****************************************************************************
  17:..\..\flexsea-system\src/flexsea_cmd_sensors.c **** // Include(s)
  18:..\..\flexsea-system\src/flexsea_cmd_sensors.c **** //****************************************************************************
  19:..\..\flexsea-system\src/flexsea_cmd_sensors.c **** 
  20:..\..\flexsea-system\src/flexsea_cmd_sensors.c **** #include <stdio.h>
  21:..\..\flexsea-system\src/flexsea_cmd_sensors.c **** #include <stdlib.h>
  22:..\..\flexsea-system\src/flexsea_cmd_sensors.c **** #include "../inc/flexsea_system.h"
  23:..\..\flexsea-system\src/flexsea_cmd_sensors.c **** 
  24:..\..\flexsea-system\src/flexsea_cmd_sensors.c **** //Plan boards only:
  25:..\..\flexsea-system\src/flexsea_cmd_sensors.c **** #ifdef BOARD_TYPE_FLEXSEA_PLAN
  26:..\..\flexsea-system\src/flexsea_cmd_sensors.c **** //...
  27:..\..\flexsea-system\src/flexsea_cmd_sensors.c **** #endif	//BOARD_TYPE_FLEXSEA_PLAN
  28:..\..\flexsea-system\src/flexsea_cmd_sensors.c **** 
  29:..\..\flexsea-system\src/flexsea_cmd_sensors.c **** //Manage boards only:
ARM GAS  C:\Users\Alex\AppData\Local\Temp\ccssM5ca.s 			page 2


  30:..\..\flexsea-system\src/flexsea_cmd_sensors.c **** #ifdef BOARD_TYPE_FLEXSEA_MANAGE
  31:..\..\flexsea-system\src/flexsea_cmd_sensors.c **** //...
  32:..\..\flexsea-system\src/flexsea_cmd_sensors.c **** #endif	//BOARD_TYPE_FLEXSEA_MANAGE
  33:..\..\flexsea-system\src/flexsea_cmd_sensors.c **** 
  34:..\..\flexsea-system\src/flexsea_cmd_sensors.c **** //Execute boards only:
  35:..\..\flexsea-system\src/flexsea_cmd_sensors.c **** #ifdef BOARD_TYPE_FLEXSEA_EXECUTE
  36:..\..\flexsea-system\src/flexsea_cmd_sensors.c **** #include "main.h"
  37:..\..\flexsea-system\src/flexsea_cmd_sensors.c **** #endif	//BOARD_TYPE_FLEXSEA_EXECUTE
  38:..\..\flexsea-system\src/flexsea_cmd_sensors.c **** 
  39:..\..\flexsea-system\src/flexsea_cmd_sensors.c **** //Strain Amplifier boards only:
  40:..\..\flexsea-system\src/flexsea_cmd_sensors.c **** #ifdef BOARD_TYPE_FLEXSEA_STRAIN_AMP
  41:..\..\flexsea-system\src/flexsea_cmd_sensors.c **** #include "main.h"
  42:..\..\flexsea-system\src/flexsea_cmd_sensors.c **** #endif	//BOARD_TYPE_FLEXSEA_STRAIN_AMP
  43:..\..\flexsea-system\src/flexsea_cmd_sensors.c **** 
  44:..\..\flexsea-system\src/flexsea_cmd_sensors.c **** //****************************************************************************
  45:..\..\flexsea-system\src/flexsea_cmd_sensors.c **** // Variable(s)
  46:..\..\flexsea-system\src/flexsea_cmd_sensors.c **** //****************************************************************************
  47:..\..\flexsea-system\src/flexsea_cmd_sensors.c **** 
  48:..\..\flexsea-system\src/flexsea_cmd_sensors.c **** //Will change this, but for now the payloads will be stored in:
  49:..\..\flexsea-system\src/flexsea_cmd_sensors.c **** unsigned char tmp_payload_xmit[PAYLOAD_BUF_LEN];
  50:..\..\flexsea-system\src/flexsea_cmd_sensors.c **** 
  51:..\..\flexsea-system\src/flexsea_cmd_sensors.c **** //****************************************************************************
  52:..\..\flexsea-system\src/flexsea_cmd_sensors.c **** // Function(s)
  53:..\..\flexsea-system\src/flexsea_cmd_sensors.c **** //****************************************************************************
  54:..\..\flexsea-system\src/flexsea_cmd_sensors.c **** 
  55:..\..\flexsea-system\src/flexsea_cmd_sensors.c **** //Transmission of a SWITCH command: Read Manage's onboard switch
  56:..\..\flexsea-system\src/flexsea_cmd_sensors.c **** uint32_t tx_cmd_switch(uint8_t receiver, uint8_t cmd_type, uint8_t *buf, uint32_t len)
  57:..\..\flexsea-system\src/flexsea_cmd_sensors.c **** {
  29              		.loc 1 57 0
  30              		.cfi_startproc
  31              		@ args = 0, pretend = 0, frame = 0
  32              		@ frame_needed = 0, uses_anonymous_args = 0
  33              	.LVL0:
  34 0000 70B5     		push	{r4, r5, r6, lr}
  35              		.cfi_def_cfa_offset 16
  36              		.cfi_offset 4, -16
  37              		.cfi_offset 5, -12
  38              		.cfi_offset 6, -8
  39              		.cfi_offset 14, -4
  40 0002 0646     		mov	r6, r0
  41 0004 0D46     		mov	r5, r1
  42 0006 1446     		mov	r4, r2
  43              	.LVL1:
  58:..\..\flexsea-system\src/flexsea_cmd_sensors.c **** 	uint32_t bytes = 0;
  59:..\..\flexsea-system\src/flexsea_cmd_sensors.c **** 
  60:..\..\flexsea-system\src/flexsea_cmd_sensors.c **** 	//Fresh payload string:
  61:..\..\flexsea-system\src/flexsea_cmd_sensors.c **** 	prepare_empty_payload(board_id, receiver, buf, len);
  44              		.loc 1 61 0
  45 0008 0C49     		ldr	r1, .L6
  46              	.LVL2:
  47 000a 0878     		ldrb	r0, [r1]	@ zero_extendqisi2
  48              	.LVL3:
  49 000c 3146     		mov	r1, r6
  50 000e FFF7FEFF 		bl	prepare_empty_payload
  51              	.LVL4:
  62:..\..\flexsea-system\src/flexsea_cmd_sensors.c **** 
  63:..\..\flexsea-system\src/flexsea_cmd_sensors.c **** 	//Command:
ARM GAS  C:\Users\Alex\AppData\Local\Temp\ccssM5ca.s 			page 3


  64:..\..\flexsea-system\src/flexsea_cmd_sensors.c **** 	buf[P_CMDS] = 1;                     //1 command in string
  52              		.loc 1 64 0
  53 0012 0123     		movs	r3, #1
  54 0014 A370     		strb	r3, [r4, #2]
  65:..\..\flexsea-system\src/flexsea_cmd_sensors.c **** 
  66:..\..\flexsea-system\src/flexsea_cmd_sensors.c **** 	if(cmd_type == CMD_READ)
  55              		.loc 1 66 0
  56 0016 9D42     		cmp	r5, r3
  57 0018 03D1     		bne	.L2
  67:..\..\flexsea-system\src/flexsea_cmd_sensors.c **** 	{
  68:..\..\flexsea-system\src/flexsea_cmd_sensors.c **** 		buf[P_CMD1] = CMD_R(CMD_SWITCH);
  58              		.loc 1 68 0
  59 001a 5323     		movs	r3, #83
  60 001c E370     		strb	r3, [r4, #3]
  61              	.LVL5:
  69:..\..\flexsea-system\src/flexsea_cmd_sensors.c **** 
  70:..\..\flexsea-system\src/flexsea_cmd_sensors.c **** 		//Arguments:
  71:..\..\flexsea-system\src/flexsea_cmd_sensors.c **** 		//(none)
  72:..\..\flexsea-system\src/flexsea_cmd_sensors.c **** 
  73:..\..\flexsea-system\src/flexsea_cmd_sensors.c **** 		bytes = P_CMD1 + 1;     //Bytes is always last+1
  62              		.loc 1 73 0
  63 001e 0420     		movs	r0, #4
  64 0020 70BD     		pop	{r4, r5, r6, pc}
  65              	.LVL6:
  66              	.L2:
  74:..\..\flexsea-system\src/flexsea_cmd_sensors.c **** 	}
  75:..\..\flexsea-system\src/flexsea_cmd_sensors.c **** 	else if(cmd_type == CMD_WRITE)
  67              		.loc 1 75 0
  68 0022 022D     		cmp	r5, #2
  69 0024 03D1     		bne	.L4
  76:..\..\flexsea-system\src/flexsea_cmd_sensors.c **** 	{
  77:..\..\flexsea-system\src/flexsea_cmd_sensors.c **** 		//In that case Write is only used for the Reply
  78:..\..\flexsea-system\src/flexsea_cmd_sensors.c **** 
  79:..\..\flexsea-system\src/flexsea_cmd_sensors.c **** 		buf[P_CMD1] = CMD_W(CMD_SWITCH);
  70              		.loc 1 79 0
  71 0026 5223     		movs	r3, #82
  72 0028 E370     		strb	r3, [r4, #3]
  80:..\..\flexsea-system\src/flexsea_cmd_sensors.c **** 
  81:..\..\flexsea-system\src/flexsea_cmd_sensors.c **** 		#ifdef BOARD_TYPE_FLEXSEA_MANAGE
  82:..\..\flexsea-system\src/flexsea_cmd_sensors.c **** 
  83:..\..\flexsea-system\src/flexsea_cmd_sensors.c **** 		//Arguments:
  84:..\..\flexsea-system\src/flexsea_cmd_sensors.c **** 		buf[P_DATA1 + 0] = read_sw1();
  85:..\..\flexsea-system\src/flexsea_cmd_sensors.c **** 
  86:..\..\flexsea-system\src/flexsea_cmd_sensors.c **** 		bytes = P_DATA1 + 1;     //Bytes is always last+1
  87:..\..\flexsea-system\src/flexsea_cmd_sensors.c **** 
  88:..\..\flexsea-system\src/flexsea_cmd_sensors.c **** 		#else
  89:..\..\flexsea-system\src/flexsea_cmd_sensors.c **** 
  90:..\..\flexsea-system\src/flexsea_cmd_sensors.c **** 		bytes = 0;
  73              		.loc 1 90 0
  74 002a 0020     		movs	r0, #0
  75 002c 70BD     		pop	{r4, r5, r6, pc}
  76              	.LVL7:
  77              	.L4:
  91:..\..\flexsea-system\src/flexsea_cmd_sensors.c **** 
  92:..\..\flexsea-system\src/flexsea_cmd_sensors.c **** 		#endif	//BOARD_TYPE_FLEXSEA_EXECUTE
  93:..\..\flexsea-system\src/flexsea_cmd_sensors.c **** 	}
  94:..\..\flexsea-system\src/flexsea_cmd_sensors.c **** 	else
ARM GAS  C:\Users\Alex\AppData\Local\Temp\ccssM5ca.s 			page 4


  95:..\..\flexsea-system\src/flexsea_cmd_sensors.c **** 	{
  96:..\..\flexsea-system\src/flexsea_cmd_sensors.c **** 		//Invalid
  97:..\..\flexsea-system\src/flexsea_cmd_sensors.c **** 		flexsea_error(SE_INVALID_READ_TYPE);
  78              		.loc 1 97 0
  79 002e 4FF48060 		mov	r0, #1024
  80 0032 FFF7FEFF 		bl	flexsea_error
  81              	.LVL8:
  98:..\..\flexsea-system\src/flexsea_cmd_sensors.c **** 		bytes = 0;
  82              		.loc 1 98 0
  83 0036 0020     		movs	r0, #0
  84              	.LVL9:
  99:..\..\flexsea-system\src/flexsea_cmd_sensors.c **** 	}
 100:..\..\flexsea-system\src/flexsea_cmd_sensors.c **** 
 101:..\..\flexsea-system\src/flexsea_cmd_sensors.c **** 	return bytes;
 102:..\..\flexsea-system\src/flexsea_cmd_sensors.c **** }
  85              		.loc 1 102 0
  86 0038 70BD     		pop	{r4, r5, r6, pc}
  87              	.LVL10:
  88              	.L7:
  89 003a 00BF     		.align	2
  90              	.L6:
  91 003c 00000000 		.word	board_id
  92              		.cfi_endproc
  93              	.LFE63:
  94              		.size	tx_cmd_switch, .-tx_cmd_switch
  95              		.section	.text.rx_cmd_switch,"ax",%progbits
  96              		.align	2
  97              		.global	rx_cmd_switch
  98              		.thumb
  99              		.thumb_func
 100              		.type	rx_cmd_switch, %function
 101              	rx_cmd_switch:
 102              	.LFB64:
 103:..\..\flexsea-system\src/flexsea_cmd_sensors.c **** 
 104:..\..\flexsea-system\src/flexsea_cmd_sensors.c **** //Reception of a CMD_SWITCH command
 105:..\..\flexsea-system\src/flexsea_cmd_sensors.c **** void rx_cmd_switch(uint8_t *buf)
 106:..\..\flexsea-system\src/flexsea_cmd_sensors.c **** {
 103              		.loc 1 106 0
 104              		.cfi_startproc
 105              		@ args = 0, pretend = 0, frame = 0
 106              		@ frame_needed = 0, uses_anonymous_args = 0
 107              	.LVL11:
 108 0000 08B5     		push	{r3, lr}
 109              		.cfi_def_cfa_offset 8
 110              		.cfi_offset 3, -8
 111              		.cfi_offset 14, -4
 112              	.LVL12:
 107:..\..\flexsea-system\src/flexsea_cmd_sensors.c **** 	uint32_t numb = 0;
 108:..\..\flexsea-system\src/flexsea_cmd_sensors.c **** 	uint8_t tmp_sw = 0;
 109:..\..\flexsea-system\src/flexsea_cmd_sensors.c **** 
 110:..\..\flexsea-system\src/flexsea_cmd_sensors.c **** 	if(IS_CMD_RW(buf[P_CMD1]) == READ)
 113              		.loc 1 110 0
 114 0002 C378     		ldrb	r3, [r0, #3]	@ zero_extendqisi2
 115 0004 13F00103 		ands	r3, r3, #1
 116 0008 02D1     		bne	.L8
 111:..\..\flexsea-system\src/flexsea_cmd_sensors.c **** 	{
 112:..\..\flexsea-system\src/flexsea_cmd_sensors.c **** 		//Received a Read command from our master.
ARM GAS  C:\Users\Alex\AppData\Local\Temp\ccssM5ca.s 			page 5


 113:..\..\flexsea-system\src/flexsea_cmd_sensors.c **** 
 114:..\..\flexsea-system\src/flexsea_cmd_sensors.c **** 		#ifdef BOARD_TYPE_FLEXSEA_MANAGE
 115:..\..\flexsea-system\src/flexsea_cmd_sensors.c **** 
 116:..\..\flexsea-system\src/flexsea_cmd_sensors.c **** 		//Generate the reply:
 117:..\..\flexsea-system\src/flexsea_cmd_sensors.c **** 		//===================
 118:..\..\flexsea-system\src/flexsea_cmd_sensors.c **** 
 119:..\..\flexsea-system\src/flexsea_cmd_sensors.c **** 		numb = tx_cmd_switch(buf[P_XID], CMD_WRITE, tmp_payload_xmit, PAYLOAD_BUF_LEN);
 120:..\..\flexsea-system\src/flexsea_cmd_sensors.c **** 		numb = comm_gen_str(tmp_payload_xmit, comm_str_spi, numb);
 121:..\..\flexsea-system\src/flexsea_cmd_sensors.c **** 		numb = COMM_STR_BUF_LEN;    //Fixed length for now
 122:..\..\flexsea-system\src/flexsea_cmd_sensors.c **** 		//(the SPI driver will grab comm_str_spi directly)
 123:..\..\flexsea-system\src/flexsea_cmd_sensors.c **** 		//flexsea_send_serial_master(0, comm_str, numb);
 124:..\..\flexsea-system\src/flexsea_cmd_sensors.c **** 
 125:..\..\flexsea-system\src/flexsea_cmd_sensors.c **** 		#endif	//BOARD_TYPE_FLEXSEA_MANAGE
 126:..\..\flexsea-system\src/flexsea_cmd_sensors.c **** 
 127:..\..\flexsea-system\src/flexsea_cmd_sensors.c **** 	}
 128:..\..\flexsea-system\src/flexsea_cmd_sensors.c **** 	else if(IS_CMD_RW(buf[P_CMD1]) == WRITE)
 117              		.loc 1 128 0
 118 000a 0BB9     		cbnz	r3, .L8
 129:..\..\flexsea-system\src/flexsea_cmd_sensors.c **** 	{
 130:..\..\flexsea-system\src/flexsea_cmd_sensors.c **** 		//Two options: from Master of from slave (a read reply)
 131:..\..\flexsea-system\src/flexsea_cmd_sensors.c **** 
 132:..\..\flexsea-system\src/flexsea_cmd_sensors.c **** 		if(sent_from_a_slave(buf))
 119              		.loc 1 132 0
 120 000c FFF7FEFF 		bl	sent_from_a_slave
 121              	.LVL13:
 122              	.L8:
 123 0010 08BD     		pop	{r3, pc}
 124              		.cfi_endproc
 125              	.LFE64:
 126              		.size	rx_cmd_switch, .-rx_cmd_switch
 127 0012 00BF     		.section	.text.tx_cmd_encoder,"ax",%progbits
 128              		.align	2
 129              		.global	tx_cmd_encoder
 130              		.thumb
 131              		.thumb_func
 132              		.type	tx_cmd_encoder, %function
 133              	tx_cmd_encoder:
 134              	.LFB65:
 133:..\..\flexsea-system\src/flexsea_cmd_sensors.c **** 		{
 134:..\..\flexsea-system\src/flexsea_cmd_sensors.c **** 			//We received a reply to our read request
 135:..\..\flexsea-system\src/flexsea_cmd_sensors.c **** 
 136:..\..\flexsea-system\src/flexsea_cmd_sensors.c **** 			#ifdef BOARD_TYPE_FLEXSEA_PLAN
 137:..\..\flexsea-system\src/flexsea_cmd_sensors.c **** 
 138:..\..\flexsea-system\src/flexsea_cmd_sensors.c **** 			printf("Received data\n");//ToDo remove
 139:..\..\flexsea-system\src/flexsea_cmd_sensors.c **** 			manag1.sw1 = buf[P_DATA1];
 140:..\..\flexsea-system\src/flexsea_cmd_sensors.c **** 
 141:..\..\flexsea-system\src/flexsea_cmd_sensors.c **** 			#endif	//BOARD_TYPE_FLEXSEA_PLAN
 142:..\..\flexsea-system\src/flexsea_cmd_sensors.c **** 		}
 143:..\..\flexsea-system\src/flexsea_cmd_sensors.c **** 		else
 144:..\..\flexsea-system\src/flexsea_cmd_sensors.c **** 		{
 145:..\..\flexsea-system\src/flexsea_cmd_sensors.c **** 			//Master is writing a value to this board
 146:..\..\flexsea-system\src/flexsea_cmd_sensors.c **** 
 147:..\..\flexsea-system\src/flexsea_cmd_sensors.c **** 		}
 148:..\..\flexsea-system\src/flexsea_cmd_sensors.c **** 	}
 149:..\..\flexsea-system\src/flexsea_cmd_sensors.c **** }
 150:..\..\flexsea-system\src/flexsea_cmd_sensors.c **** 
 151:..\..\flexsea-system\src/flexsea_cmd_sensors.c **** //Transmission of an ENCODER command.
ARM GAS  C:\Users\Alex\AppData\Local\Temp\ccssM5ca.s 			page 6


 152:..\..\flexsea-system\src/flexsea_cmd_sensors.c **** uint32_t tx_cmd_encoder(uint8_t receiver, uint8_t cmd_type, uint8_t *buf, uint32_t len, int32_t enc
 153:..\..\flexsea-system\src/flexsea_cmd_sensors.c **** {
 135              		.loc 1 153 0
 136              		.cfi_startproc
 137              		@ args = 4, pretend = 0, frame = 8
 138              		@ frame_needed = 0, uses_anonymous_args = 0
 139              	.LVL14:
 140 0000 70B5     		push	{r4, r5, r6, lr}
 141              		.cfi_def_cfa_offset 16
 142              		.cfi_offset 4, -16
 143              		.cfi_offset 5, -12
 144              		.cfi_offset 6, -8
 145              		.cfi_offset 14, -4
 146 0002 84B0     		sub	sp, sp, #16
 147              		.cfi_def_cfa_offset 32
 148 0004 0646     		mov	r6, r0
 149 0006 0D46     		mov	r5, r1
 150 0008 1446     		mov	r4, r2
 151              	.LVL15:
 154:..\..\flexsea-system\src/flexsea_cmd_sensors.c **** 	uint32_t bytes = 0;
 155:..\..\flexsea-system\src/flexsea_cmd_sensors.c **** 	uint8_t tmp0 = 0, tmp1 = 0, tmp2 = 0, tmp3 = 0;
 152              		.loc 1 155 0
 153 000a 0021     		movs	r1, #0
 154              	.LVL16:
 155 000c 8DF80F10 		strb	r1, [sp, #15]
 156 0010 8DF80E10 		strb	r1, [sp, #14]
 157 0014 8DF80D10 		strb	r1, [sp, #13]
 158 0018 8DF80C10 		strb	r1, [sp, #12]
 156:..\..\flexsea-system\src/flexsea_cmd_sensors.c **** 
 157:..\..\flexsea-system\src/flexsea_cmd_sensors.c **** 	//Fresh payload string:
 158:..\..\flexsea-system\src/flexsea_cmd_sensors.c **** 	prepare_empty_payload(board_id, receiver, buf, len);
 159              		.loc 1 158 0
 160 001c 1849     		ldr	r1, .L16
 161 001e 0878     		ldrb	r0, [r1]	@ zero_extendqisi2
 162              	.LVL17:
 163 0020 3146     		mov	r1, r6
 164 0022 FFF7FEFF 		bl	prepare_empty_payload
 165              	.LVL18:
 159:..\..\flexsea-system\src/flexsea_cmd_sensors.c **** 
 160:..\..\flexsea-system\src/flexsea_cmd_sensors.c **** 	//Command:
 161:..\..\flexsea-system\src/flexsea_cmd_sensors.c **** 	buf[P_CMDS] = 1;                     //1 command in string
 166              		.loc 1 161 0
 167 0026 0123     		movs	r3, #1
 168 0028 A370     		strb	r3, [r4, #2]
 162:..\..\flexsea-system\src/flexsea_cmd_sensors.c **** 
 163:..\..\flexsea-system\src/flexsea_cmd_sensors.c **** 	if(cmd_type == CMD_READ)
 169              		.loc 1 163 0
 170 002a 9D42     		cmp	r5, r3
 171 002c 03D1     		bne	.L12
 164:..\..\flexsea-system\src/flexsea_cmd_sensors.c **** 	{
 165:..\..\flexsea-system\src/flexsea_cmd_sensors.c **** 		buf[P_CMD1] = CMD_R(CMD_ENCODER);
 172              		.loc 1 165 0
 173 002e 5723     		movs	r3, #87
 174 0030 E370     		strb	r3, [r4, #3]
 175              	.LVL19:
 166:..\..\flexsea-system\src/flexsea_cmd_sensors.c **** 
 167:..\..\flexsea-system\src/flexsea_cmd_sensors.c **** 		//Arguments:
ARM GAS  C:\Users\Alex\AppData\Local\Temp\ccssM5ca.s 			page 7


 168:..\..\flexsea-system\src/flexsea_cmd_sensors.c **** 		//(none)
 169:..\..\flexsea-system\src/flexsea_cmd_sensors.c **** 
 170:..\..\flexsea-system\src/flexsea_cmd_sensors.c **** 		bytes = P_CMD1 + 1;     //Bytes is always last+1
 176              		.loc 1 170 0
 177 0032 0420     		movs	r0, #4
 178 0034 21E0     		b	.L13
 179              	.LVL20:
 180              	.L12:
 171:..\..\flexsea-system\src/flexsea_cmd_sensors.c **** 	}
 172:..\..\flexsea-system\src/flexsea_cmd_sensors.c **** 	else if(cmd_type == CMD_WRITE)
 181              		.loc 1 172 0
 182 0036 022D     		cmp	r5, #2
 183 0038 1AD1     		bne	.L14
 173:..\..\flexsea-system\src/flexsea_cmd_sensors.c **** 	{
 174:..\..\flexsea-system\src/flexsea_cmd_sensors.c **** 		buf[P_CMD1] = CMD_W(CMD_ENCODER);
 184              		.loc 1 174 0
 185 003a 5623     		movs	r3, #86
 186 003c E370     		strb	r3, [r4, #3]
 175:..\..\flexsea-system\src/flexsea_cmd_sensors.c **** 
 176:..\..\flexsea-system\src/flexsea_cmd_sensors.c **** 		uint32_to_bytes((uint32_t)enc, &tmp0, &tmp1, &tmp2, &tmp3);
 187              		.loc 1 176 0
 188 003e 03AB     		add	r3, sp, #12
 189 0040 0093     		str	r3, [sp]
 190 0042 0898     		ldr	r0, [sp, #32]
 191 0044 0DF10F01 		add	r1, sp, #15
 192 0048 0DF10E02 		add	r2, sp, #14
 193 004c 0DF10D03 		add	r3, sp, #13
 194 0050 FFF7FEFF 		bl	uint32_to_bytes
 195              	.LVL21:
 177:..\..\flexsea-system\src/flexsea_cmd_sensors.c **** 
 178:..\..\flexsea-system\src/flexsea_cmd_sensors.c **** 		//Arguments:
 179:..\..\flexsea-system\src/flexsea_cmd_sensors.c **** 		buf[P_DATA1 + 0] = tmp0;
 196              		.loc 1 179 0
 197 0054 9DF80F30 		ldrb	r3, [sp, #15]	@ zero_extendqisi2
 198 0058 2371     		strb	r3, [r4, #4]
 180:..\..\flexsea-system\src/flexsea_cmd_sensors.c **** 		buf[P_DATA1 + 1] = tmp1;
 199              		.loc 1 180 0
 200 005a 9DF80E30 		ldrb	r3, [sp, #14]	@ zero_extendqisi2
 201 005e 6371     		strb	r3, [r4, #5]
 181:..\..\flexsea-system\src/flexsea_cmd_sensors.c **** 		buf[P_DATA1 + 2] = tmp2;
 202              		.loc 1 181 0
 203 0060 9DF80D30 		ldrb	r3, [sp, #13]	@ zero_extendqisi2
 204 0064 A371     		strb	r3, [r4, #6]
 182:..\..\flexsea-system\src/flexsea_cmd_sensors.c **** 		buf[P_DATA1 + 3] = tmp3;
 205              		.loc 1 182 0
 206 0066 9DF80C30 		ldrb	r3, [sp, #12]	@ zero_extendqisi2
 207 006a E371     		strb	r3, [r4, #7]
 208              	.LVL22:
 183:..\..\flexsea-system\src/flexsea_cmd_sensors.c **** 
 184:..\..\flexsea-system\src/flexsea_cmd_sensors.c **** 		bytes = P_DATA1 + 4;     //Bytes is always last+1
 209              		.loc 1 184 0
 210 006c 0820     		movs	r0, #8
 211 006e 04E0     		b	.L13
 212              	.LVL23:
 213              	.L14:
 185:..\..\flexsea-system\src/flexsea_cmd_sensors.c **** 	}
 186:..\..\flexsea-system\src/flexsea_cmd_sensors.c **** 	else
ARM GAS  C:\Users\Alex\AppData\Local\Temp\ccssM5ca.s 			page 8


 187:..\..\flexsea-system\src/flexsea_cmd_sensors.c **** 	{
 188:..\..\flexsea-system\src/flexsea_cmd_sensors.c **** 		//Invalid
 189:..\..\flexsea-system\src/flexsea_cmd_sensors.c **** 		flexsea_error(SE_INVALID_READ_TYPE);
 214              		.loc 1 189 0
 215 0070 4FF48060 		mov	r0, #1024
 216 0074 FFF7FEFF 		bl	flexsea_error
 217              	.LVL24:
 190:..\..\flexsea-system\src/flexsea_cmd_sensors.c **** 		bytes = 0;
 218              		.loc 1 190 0
 219 0078 0020     		movs	r0, #0
 220              	.LVL25:
 221              	.L13:
 191:..\..\flexsea-system\src/flexsea_cmd_sensors.c **** 	}
 192:..\..\flexsea-system\src/flexsea_cmd_sensors.c **** 
 193:..\..\flexsea-system\src/flexsea_cmd_sensors.c **** 	return bytes;
 194:..\..\flexsea-system\src/flexsea_cmd_sensors.c **** }
 222              		.loc 1 194 0
 223 007a 04B0     		add	sp, sp, #16
 224              		.cfi_def_cfa_offset 16
 225              		@ sp needed
 226 007c 70BD     		pop	{r4, r5, r6, pc}
 227              	.LVL26:
 228              	.L17:
 229 007e 00BF     		.align	2
 230              	.L16:
 231 0080 00000000 		.word	board_id
 232              		.cfi_endproc
 233              	.LFE65:
 234              		.size	tx_cmd_encoder, .-tx_cmd_encoder
 235              		.section	.text.flexsea_payload_43,"ax",%progbits
 236              		.align	2
 237              		.weak	flexsea_payload_43
 238              		.thumb
 239              		.thumb_func
 240              		.type	flexsea_payload_43, %function
 241              	flexsea_payload_43:
 242              	.LFB66:
 195:..\..\flexsea-system\src/flexsea_cmd_sensors.c **** 
 196:..\..\flexsea-system\src/flexsea_cmd_sensors.c **** //Reception of an ENCODER command
 197:..\..\flexsea-system\src/flexsea_cmd_sensors.c **** void rx_cmd_encoder(uint8_t *buf)
 198:..\..\flexsea-system\src/flexsea_cmd_sensors.c **** {
 243              		.loc 1 198 0
 244              		.cfi_startproc
 245              		@ args = 0, pretend = 0, frame = 0
 246              		@ frame_needed = 0, uses_anonymous_args = 0
 247              	.LVL27:
 248 0000 30B5     		push	{r4, r5, lr}
 249              		.cfi_def_cfa_offset 12
 250              		.cfi_offset 4, -12
 251              		.cfi_offset 5, -8
 252              		.cfi_offset 14, -4
 253 0002 83B0     		sub	sp, sp, #12
 254              		.cfi_def_cfa_offset 24
 255              	.LVL28:
 199:..\..\flexsea-system\src/flexsea_cmd_sensors.c **** 	uint32_t numb = 0;
 200:..\..\flexsea-system\src/flexsea_cmd_sensors.c **** 	int32_t tmp = 0;
 201:..\..\flexsea-system\src/flexsea_cmd_sensors.c **** 
ARM GAS  C:\Users\Alex\AppData\Local\Temp\ccssM5ca.s 			page 9


 202:..\..\flexsea-system\src/flexsea_cmd_sensors.c **** 	if(IS_CMD_RW(buf[P_CMD1]) == READ)
 256              		.loc 1 202 0
 257 0004 C378     		ldrb	r3, [r0, #3]	@ zero_extendqisi2
 258 0006 13F00103 		ands	r3, r3, #1
 259 000a 15D0     		beq	.L19
 203:..\..\flexsea-system\src/flexsea_cmd_sensors.c **** 	{
 204:..\..\flexsea-system\src/flexsea_cmd_sensors.c **** 		//Received a Read command from our master.
 205:..\..\flexsea-system\src/flexsea_cmd_sensors.c **** 
 206:..\..\flexsea-system\src/flexsea_cmd_sensors.c **** 		#ifdef BOARD_TYPE_FLEXSEA_EXECUTE
 207:..\..\flexsea-system\src/flexsea_cmd_sensors.c **** 
 208:..\..\flexsea-system\src/flexsea_cmd_sensors.c **** 		//Generate the reply:
 209:..\..\flexsea-system\src/flexsea_cmd_sensors.c **** 		//===================
 210:..\..\flexsea-system\src/flexsea_cmd_sensors.c **** 
 211:..\..\flexsea-system\src/flexsea_cmd_sensors.c **** 		numb = tx_cmd_encoder(buf[P_XID], CMD_WRITE, tmp_payload_xmit, PAYLOAD_BUF_LEN, qei_read());
 260              		.loc 1 211 0
 261 000c 0478     		ldrb	r4, [r0]	@ zero_extendqisi2
 262 000e FFF7FEFF 		bl	qei_read
 263              	.LVL29:
 264 0012 134D     		ldr	r5, .L22
 265 0014 0090     		str	r0, [sp]
 266 0016 2046     		mov	r0, r4
 267 0018 0221     		movs	r1, #2
 268 001a 2A46     		mov	r2, r5
 269 001c 2423     		movs	r3, #36
 270 001e FFF7FEFF 		bl	tx_cmd_encoder
 271              	.LVL30:
 212:..\..\flexsea-system\src/flexsea_cmd_sensors.c **** 		numb = comm_gen_str(tmp_payload_xmit, comm_str_485, numb);
 272              		.loc 1 212 0
 273 0022 104C     		ldr	r4, .L22+4
 274 0024 C2B2     		uxtb	r2, r0
 275 0026 2846     		mov	r0, r5
 276              	.LVL31:
 277 0028 2146     		mov	r1, r4
 278 002a FFF7FEFF 		bl	comm_gen_str
 279              	.LVL32:
 213:..\..\flexsea-system\src/flexsea_cmd_sensors.c **** 		numb = COMM_STR_BUF_LEN;    //Fixed length for now
 214:..\..\flexsea-system\src/flexsea_cmd_sensors.c **** 		rs485_puts(comm_str_485, numb);
 280              		.loc 1 214 0
 281 002e 2046     		mov	r0, r4
 282 0030 3021     		movs	r1, #48
 283 0032 FFF7FEFF 		bl	rs485_puts
 284              	.LVL33:
 285 0036 10E0     		b	.L18
 286              	.LVL34:
 287              	.L19:
 215:..\..\flexsea-system\src/flexsea_cmd_sensors.c **** 
 216:..\..\flexsea-system\src/flexsea_cmd_sensors.c **** 		#endif	//BOARD_TYPE_FLEXSEA_MANAGE
 217:..\..\flexsea-system\src/flexsea_cmd_sensors.c **** 
 218:..\..\flexsea-system\src/flexsea_cmd_sensors.c **** 	}
 219:..\..\flexsea-system\src/flexsea_cmd_sensors.c **** 	else if(IS_CMD_RW(buf[P_CMD1]) == WRITE)
 288              		.loc 1 219 0
 289 0038 7BB9     		cbnz	r3, .L18
 220:..\..\flexsea-system\src/flexsea_cmd_sensors.c **** 	{
 221:..\..\flexsea-system\src/flexsea_cmd_sensors.c **** 		//Two options: from Master of from slave (a read reply)
 222:..\..\flexsea-system\src/flexsea_cmd_sensors.c **** 		tmp = (int32_t)BYTES_TO_UINT32(buf[P_DATA1], buf[P_DATA1+1], buf[P_DATA1+2], buf[P_DATA1+3]);
 290              		.loc 1 222 0
 291 003a 0279     		ldrb	r2, [r0, #4]	@ zero_extendqisi2
ARM GAS  C:\Users\Alex\AppData\Local\Temp\ccssM5ca.s 			page 10


 292 003c 4379     		ldrb	r3, [r0, #5]	@ zero_extendqisi2
 293 003e 1B04     		lsls	r3, r3, #16
 294 0040 03EB0263 		add	r3, r3, r2, lsl #24
 295 0044 8279     		ldrb	r2, [r0, #6]	@ zero_extendqisi2
 296 0046 03EB0223 		add	r3, r3, r2, lsl #8
 297 004a C279     		ldrb	r2, [r0, #7]	@ zero_extendqisi2
 298 004c 9C18     		adds	r4, r3, r2
 299              	.LVL35:
 223:..\..\flexsea-system\src/flexsea_cmd_sensors.c **** 
 224:..\..\flexsea-system\src/flexsea_cmd_sensors.c **** 		if(sent_from_a_slave(buf))
 300              		.loc 1 224 0
 301 004e FFF7FEFF 		bl	sent_from_a_slave
 302              	.LVL36:
 303 0052 10B9     		cbnz	r0, .L18
 225:..\..\flexsea-system\src/flexsea_cmd_sensors.c **** 		{
 226:..\..\flexsea-system\src/flexsea_cmd_sensors.c **** 			//We received a reply to our read request
 227:..\..\flexsea-system\src/flexsea_cmd_sensors.c **** 
 228:..\..\flexsea-system\src/flexsea_cmd_sensors.c **** 			#ifdef BOARD_TYPE_FLEXSEA_PLAN
 229:..\..\flexsea-system\src/flexsea_cmd_sensors.c **** 
 230:..\..\flexsea-system\src/flexsea_cmd_sensors.c **** 			_USE_PRINTF("Encoder = %i.\n", tmp);
 231:..\..\flexsea-system\src/flexsea_cmd_sensors.c **** 
 232:..\..\flexsea-system\src/flexsea_cmd_sensors.c **** 			#endif	//BOARD_TYPE_FLEXSEA_PLAN
 233:..\..\flexsea-system\src/flexsea_cmd_sensors.c **** 		}
 234:..\..\flexsea-system\src/flexsea_cmd_sensors.c **** 		else
 235:..\..\flexsea-system\src/flexsea_cmd_sensors.c **** 		{
 236:..\..\flexsea-system\src/flexsea_cmd_sensors.c **** 			//Master is writing a value to this board
 237:..\..\flexsea-system\src/flexsea_cmd_sensors.c **** 
 238:..\..\flexsea-system\src/flexsea_cmd_sensors.c **** 			#ifdef BOARD_TYPE_FLEXSEA_EXECUTE
 239:..\..\flexsea-system\src/flexsea_cmd_sensors.c **** 
 240:..\..\flexsea-system\src/flexsea_cmd_sensors.c **** 			qei_write(tmp);
 304              		.loc 1 240 0
 305 0054 2046     		mov	r0, r4
 306 0056 FFF7FEFF 		bl	qei_write
 307              	.LVL37:
 308              	.L18:
 241:..\..\flexsea-system\src/flexsea_cmd_sensors.c **** 
 242:..\..\flexsea-system\src/flexsea_cmd_sensors.c **** 			#endif
 243:..\..\flexsea-system\src/flexsea_cmd_sensors.c **** 
 244:..\..\flexsea-system\src/flexsea_cmd_sensors.c **** 		}
 245:..\..\flexsea-system\src/flexsea_cmd_sensors.c **** 	}
 246:..\..\flexsea-system\src/flexsea_cmd_sensors.c **** }
 309              		.loc 1 246 0
 310 005a 03B0     		add	sp, sp, #12
 311              		.cfi_def_cfa_offset 12
 312              		@ sp needed
 313 005c 30BD     		pop	{r4, r5, pc}
 314              	.L23:
 315 005e 00BF     		.align	2
 316              	.L22:
 317 0060 00000000 		.word	tmp_payload_xmit
 318 0064 00000000 		.word	comm_str_1
 319              		.cfi_endproc
 320              	.LFE66:
 321              		.size	flexsea_payload_43, .-flexsea_payload_43
 322              		.section	.text.tx_cmd_strain,"ax",%progbits
 323              		.align	2
 324              		.global	tx_cmd_strain
ARM GAS  C:\Users\Alex\AppData\Local\Temp\ccssM5ca.s 			page 11


 325              		.thumb
 326              		.thumb_func
 327              		.type	tx_cmd_strain, %function
 328              	tx_cmd_strain:
 329              	.LFB67:
 247:..\..\flexsea-system\src/flexsea_cmd_sensors.c **** 
 248:..\..\flexsea-system\src/flexsea_cmd_sensors.c **** //Transmission of a STRAIN command.
 249:..\..\flexsea-system\src/flexsea_cmd_sensors.c **** //ToDo: add support for gains & offsets
 250:..\..\flexsea-system\src/flexsea_cmd_sensors.c **** uint32_t tx_cmd_strain(uint8_t receiver, uint8_t cmd_type, uint8_t *buf, uint32_t len)
 251:..\..\flexsea-system\src/flexsea_cmd_sensors.c **** {
 330              		.loc 1 251 0
 331              		.cfi_startproc
 332              		@ args = 0, pretend = 0, frame = 0
 333              		@ frame_needed = 0, uses_anonymous_args = 0
 334              	.LVL38:
 335 0000 70B5     		push	{r4, r5, r6, lr}
 336              		.cfi_def_cfa_offset 16
 337              		.cfi_offset 4, -16
 338              		.cfi_offset 5, -12
 339              		.cfi_offset 6, -8
 340              		.cfi_offset 14, -4
 341 0002 0646     		mov	r6, r0
 342 0004 0D46     		mov	r5, r1
 343 0006 1446     		mov	r4, r2
 344              	.LVL39:
 252:..\..\flexsea-system\src/flexsea_cmd_sensors.c **** 	uint32_t bytes = 0;
 253:..\..\flexsea-system\src/flexsea_cmd_sensors.c **** 	uint8_t tmp0 = 0, tmp1 = 0, tmp2 = 0, tmp3 = 0;
 254:..\..\flexsea-system\src/flexsea_cmd_sensors.c **** 
 255:..\..\flexsea-system\src/flexsea_cmd_sensors.c **** 	//Fresh payload string:
 256:..\..\flexsea-system\src/flexsea_cmd_sensors.c **** 	prepare_empty_payload(board_id, receiver, buf, len);
 345              		.loc 1 256 0
 346 0008 0C49     		ldr	r1, .L29
 347              	.LVL40:
 348 000a 0878     		ldrb	r0, [r1]	@ zero_extendqisi2
 349              	.LVL41:
 350 000c 3146     		mov	r1, r6
 351 000e FFF7FEFF 		bl	prepare_empty_payload
 352              	.LVL42:
 257:..\..\flexsea-system\src/flexsea_cmd_sensors.c **** 
 258:..\..\flexsea-system\src/flexsea_cmd_sensors.c **** 	//Command:
 259:..\..\flexsea-system\src/flexsea_cmd_sensors.c **** 	buf[P_CMDS] = 1;                     //1 command in string
 353              		.loc 1 259 0
 354 0012 0123     		movs	r3, #1
 355 0014 A370     		strb	r3, [r4, #2]
 260:..\..\flexsea-system\src/flexsea_cmd_sensors.c **** 
 261:..\..\flexsea-system\src/flexsea_cmd_sensors.c **** 	if(cmd_type == CMD_READ)
 356              		.loc 1 261 0
 357 0016 9D42     		cmp	r5, r3
 358 0018 03D1     		bne	.L25
 262:..\..\flexsea-system\src/flexsea_cmd_sensors.c **** 	{
 263:..\..\flexsea-system\src/flexsea_cmd_sensors.c **** 		buf[P_CMD1] = CMD_R(CMD_STRAIN);
 359              		.loc 1 263 0
 360 001a 5923     		movs	r3, #89
 361 001c E370     		strb	r3, [r4, #3]
 362              	.LVL43:
 264:..\..\flexsea-system\src/flexsea_cmd_sensors.c **** 
 265:..\..\flexsea-system\src/flexsea_cmd_sensors.c **** 		//Arguments:
ARM GAS  C:\Users\Alex\AppData\Local\Temp\ccssM5ca.s 			page 12


 266:..\..\flexsea-system\src/flexsea_cmd_sensors.c **** 		//(none)
 267:..\..\flexsea-system\src/flexsea_cmd_sensors.c **** 
 268:..\..\flexsea-system\src/flexsea_cmd_sensors.c **** 		bytes = P_CMD1 + 1;     //Bytes is always last+1
 363              		.loc 1 268 0
 364 001e 0420     		movs	r0, #4
 365 0020 70BD     		pop	{r4, r5, r6, pc}
 366              	.LVL44:
 367              	.L25:
 269:..\..\flexsea-system\src/flexsea_cmd_sensors.c **** 	}
 270:..\..\flexsea-system\src/flexsea_cmd_sensors.c **** 	else if(cmd_type == CMD_WRITE)
 368              		.loc 1 270 0
 369 0022 022D     		cmp	r5, #2
 370 0024 03D1     		bne	.L27
 271:..\..\flexsea-system\src/flexsea_cmd_sensors.c **** 	{
 272:..\..\flexsea-system\src/flexsea_cmd_sensors.c **** 		buf[P_CMD1] = CMD_W(CMD_STRAIN);
 371              		.loc 1 272 0
 372 0026 5823     		movs	r3, #88
 373 0028 E370     		strb	r3, [r4, #3]
 374              	.LVL45:
 273:..\..\flexsea-system\src/flexsea_cmd_sensors.c **** 
 274:..\..\flexsea-system\src/flexsea_cmd_sensors.c **** 		//ToDo gains & offsets
 275:..\..\flexsea-system\src/flexsea_cmd_sensors.c **** 		
 276:..\..\flexsea-system\src/flexsea_cmd_sensors.c **** 		#ifdef BOARD_TYPE_FLEXSEA_STRAIN_AMP
 277:..\..\flexsea-system\src/flexsea_cmd_sensors.c **** 			
 278:..\..\flexsea-system\src/flexsea_cmd_sensors.c **** 		//Arguments:	
 279:..\..\flexsea-system\src/flexsea_cmd_sensors.c **** 		uint16_to_bytes((uint16_t)strain[0].strain_filtered, &tmp0, &tmp1);		
 280:..\..\flexsea-system\src/flexsea_cmd_sensors.c **** 		buf[P_DATA1 + 0] = tmp0;
 281:..\..\flexsea-system\src/flexsea_cmd_sensors.c **** 		buf[P_DATA1 + 1] = tmp1;
 282:..\..\flexsea-system\src/flexsea_cmd_sensors.c **** 		uint16_to_bytes((uint16_t)strain[1].strain_filtered, &tmp0, &tmp1);
 283:..\..\flexsea-system\src/flexsea_cmd_sensors.c **** 		buf[P_DATA1 + 2] = tmp0;
 284:..\..\flexsea-system\src/flexsea_cmd_sensors.c **** 		buf[P_DATA1 + 3] = tmp1;
 285:..\..\flexsea-system\src/flexsea_cmd_sensors.c **** 		uint16_to_bytes((uint16_t)strain[2].strain_filtered, &tmp0, &tmp1);
 286:..\..\flexsea-system\src/flexsea_cmd_sensors.c **** 		buf[P_DATA1 + 4] = tmp0;
 287:..\..\flexsea-system\src/flexsea_cmd_sensors.c **** 		buf[P_DATA1 + 5] = tmp1;
 288:..\..\flexsea-system\src/flexsea_cmd_sensors.c **** 		uint16_to_bytes((uint16_t)strain[3].strain_filtered, &tmp0, &tmp1);
 289:..\..\flexsea-system\src/flexsea_cmd_sensors.c **** 		buf[P_DATA1 + 6] = tmp0;
 290:..\..\flexsea-system\src/flexsea_cmd_sensors.c **** 		buf[P_DATA1 + 7] = tmp1;
 291:..\..\flexsea-system\src/flexsea_cmd_sensors.c **** 		uint16_to_bytes((uint16_t)strain[4].strain_filtered, &tmp0, &tmp1);
 292:..\..\flexsea-system\src/flexsea_cmd_sensors.c **** 		buf[P_DATA1 + 8] = tmp0;
 293:..\..\flexsea-system\src/flexsea_cmd_sensors.c **** 		buf[P_DATA1 + 9] = tmp1;
 294:..\..\flexsea-system\src/flexsea_cmd_sensors.c **** 		uint16_to_bytes((uint16_t)strain[5].strain_filtered, &tmp0, &tmp1);
 295:..\..\flexsea-system\src/flexsea_cmd_sensors.c **** 		buf[P_DATA1 + 10] = tmp0;
 296:..\..\flexsea-system\src/flexsea_cmd_sensors.c **** 		buf[P_DATA1 + 11] = tmp1;
 297:..\..\flexsea-system\src/flexsea_cmd_sensors.c **** 		
 298:..\..\flexsea-system\src/flexsea_cmd_sensors.c **** 		#endif 	//BOARD_TYPE_FLEXSEA_STRAIN_AMP
 299:..\..\flexsea-system\src/flexsea_cmd_sensors.c **** 
 300:..\..\flexsea-system\src/flexsea_cmd_sensors.c **** 		bytes = P_DATA1 + 12;     //Bytes is always last+1
 375              		.loc 1 300 0
 376 002a 1020     		movs	r0, #16
 377 002c 70BD     		pop	{r4, r5, r6, pc}
 378              	.LVL46:
 379              	.L27:
 301:..\..\flexsea-system\src/flexsea_cmd_sensors.c **** 	}
 302:..\..\flexsea-system\src/flexsea_cmd_sensors.c **** 	else
 303:..\..\flexsea-system\src/flexsea_cmd_sensors.c **** 	{
 304:..\..\flexsea-system\src/flexsea_cmd_sensors.c **** 		//Invalid
 305:..\..\flexsea-system\src/flexsea_cmd_sensors.c **** 		flexsea_error(SE_INVALID_READ_TYPE);
ARM GAS  C:\Users\Alex\AppData\Local\Temp\ccssM5ca.s 			page 13


 380              		.loc 1 305 0
 381 002e 4FF48060 		mov	r0, #1024
 382 0032 FFF7FEFF 		bl	flexsea_error
 383              	.LVL47:
 306:..\..\flexsea-system\src/flexsea_cmd_sensors.c **** 		bytes = 0;
 384              		.loc 1 306 0
 385 0036 0020     		movs	r0, #0
 386              	.LVL48:
 307:..\..\flexsea-system\src/flexsea_cmd_sensors.c **** 	}
 308:..\..\flexsea-system\src/flexsea_cmd_sensors.c **** 
 309:..\..\flexsea-system\src/flexsea_cmd_sensors.c **** 	return bytes;
 310:..\..\flexsea-system\src/flexsea_cmd_sensors.c **** }
 387              		.loc 1 310 0
 388 0038 70BD     		pop	{r4, r5, r6, pc}
 389              	.LVL49:
 390              	.L30:
 391 003a 00BF     		.align	2
 392              	.L29:
 393 003c 00000000 		.word	board_id
 394              		.cfi_endproc
 395              	.LFE67:
 396              		.size	tx_cmd_strain, .-tx_cmd_strain
 397              		.section	.text.flexsea_payload_44,"ax",%progbits
 398              		.align	2
 399              		.weak	flexsea_payload_44
 400              		.thumb
 401              		.thumb_func
 402              		.type	flexsea_payload_44, %function
 403              	flexsea_payload_44:
 404              	.LFB68:
 311:..\..\flexsea-system\src/flexsea_cmd_sensors.c **** 
 312:..\..\flexsea-system\src/flexsea_cmd_sensors.c **** //Reception of a STRAIN command
 313:..\..\flexsea-system\src/flexsea_cmd_sensors.c **** void rx_cmd_strain(uint8_t *buf)
 314:..\..\flexsea-system\src/flexsea_cmd_sensors.c **** {
 405              		.loc 1 314 0
 406              		.cfi_startproc
 407              		@ args = 0, pretend = 0, frame = 0
 408              		@ frame_needed = 0, uses_anonymous_args = 0
 409              	.LVL50:
 410 0000 08B5     		push	{r3, lr}
 411              		.cfi_def_cfa_offset 8
 412              		.cfi_offset 3, -8
 413              		.cfi_offset 14, -4
 414              	.LVL51:
 315:..\..\flexsea-system\src/flexsea_cmd_sensors.c **** 	uint32_t numb = 0;
 316:..\..\flexsea-system\src/flexsea_cmd_sensors.c **** 	int32_t tmp = 0;
 317:..\..\flexsea-system\src/flexsea_cmd_sensors.c **** 
 318:..\..\flexsea-system\src/flexsea_cmd_sensors.c **** 	if(IS_CMD_RW(buf[P_CMD1]) == READ)
 415              		.loc 1 318 0
 416 0002 C378     		ldrb	r3, [r0, #3]	@ zero_extendqisi2
 417 0004 13F00103 		ands	r3, r3, #1
 418 0008 05D1     		bne	.L31
 319:..\..\flexsea-system\src/flexsea_cmd_sensors.c **** 	{
 320:..\..\flexsea-system\src/flexsea_cmd_sensors.c **** 		//Received a Read command from our master.
 321:..\..\flexsea-system\src/flexsea_cmd_sensors.c **** 
 322:..\..\flexsea-system\src/flexsea_cmd_sensors.c **** 		#ifdef BOARD_TYPE_FLEXSEA_EXECUTE
 323:..\..\flexsea-system\src/flexsea_cmd_sensors.c **** 
ARM GAS  C:\Users\Alex\AppData\Local\Temp\ccssM5ca.s 			page 14


 324:..\..\flexsea-system\src/flexsea_cmd_sensors.c **** 		//Generate the reply:
 325:..\..\flexsea-system\src/flexsea_cmd_sensors.c **** 		//===================
 326:..\..\flexsea-system\src/flexsea_cmd_sensors.c **** 
 327:..\..\flexsea-system\src/flexsea_cmd_sensors.c **** 		//ToDo...
 328:..\..\flexsea-system\src/flexsea_cmd_sensors.c **** 
 329:..\..\flexsea-system\src/flexsea_cmd_sensors.c **** 		#endif	//BOARD_TYPE_FLEXSEA_EXECUTE
 330:..\..\flexsea-system\src/flexsea_cmd_sensors.c **** 		
 331:..\..\flexsea-system\src/flexsea_cmd_sensors.c **** 		#ifdef BOARD_TYPE_FLEXSEA_STRAIN_AMP
 332:..\..\flexsea-system\src/flexsea_cmd_sensors.c **** 			
 333:..\..\flexsea-system\src/flexsea_cmd_sensors.c **** 		//Generate the reply:
 334:..\..\flexsea-system\src/flexsea_cmd_sensors.c **** 		//===================
 335:..\..\flexsea-system\src/flexsea_cmd_sensors.c **** 
 336:..\..\flexsea-system\src/flexsea_cmd_sensors.c **** 		numb = tx_cmd_strain(buf[P_XID], CMD_WRITE, tmp_payload_xmit, PAYLOAD_BUF_LEN);
 337:..\..\flexsea-system\src/flexsea_cmd_sensors.c **** 		numb = comm_gen_str(tmp_payload_xmit, comm_str_485, numb);
 338:..\..\flexsea-system\src/flexsea_cmd_sensors.c **** 		numb = COMM_STR_BUF_LEN;    //Fixed length for now
 339:..\..\flexsea-system\src/flexsea_cmd_sensors.c **** 		//rs485_puts(comm_str_485, numb);	
 340:..\..\flexsea-system\src/flexsea_cmd_sensors.c **** 		
 341:..\..\flexsea-system\src/flexsea_cmd_sensors.c **** 		#ifdef USE_USB
 342:..\..\flexsea-system\src/flexsea_cmd_sensors.c **** 		usb_puts(comm_str_485, (numb));	
 343:..\..\flexsea-system\src/flexsea_cmd_sensors.c **** 		#endif
 344:..\..\flexsea-system\src/flexsea_cmd_sensors.c **** 			
 345:..\..\flexsea-system\src/flexsea_cmd_sensors.c **** 		#endif 	//BOARD_TYPE_FLEXSEA_STRAIN_AMP
 346:..\..\flexsea-system\src/flexsea_cmd_sensors.c **** 	}
 347:..\..\flexsea-system\src/flexsea_cmd_sensors.c **** 	else if(IS_CMD_RW(buf[P_CMD1]) == WRITE)
 419              		.loc 1 347 0
 420 000a 23B9     		cbnz	r3, .L31
 348:..\..\flexsea-system\src/flexsea_cmd_sensors.c **** 	{
 349:..\..\flexsea-system\src/flexsea_cmd_sensors.c **** 		//Two options: from Master of from slave (a read reply)
 350:..\..\flexsea-system\src/flexsea_cmd_sensors.c **** 
 351:..\..\flexsea-system\src/flexsea_cmd_sensors.c **** 		if(sent_from_a_slave(buf))
 421              		.loc 1 351 0
 422 000c FFF7FEFF 		bl	sent_from_a_slave
 423              	.LVL52:
 424 0010 08B9     		cbnz	r0, .L31
 352:..\..\flexsea-system\src/flexsea_cmd_sensors.c **** 		{
 353:..\..\flexsea-system\src/flexsea_cmd_sensors.c **** 			//We received a reply to our read request
 354:..\..\flexsea-system\src/flexsea_cmd_sensors.c **** 
 355:..\..\flexsea-system\src/flexsea_cmd_sensors.c **** 			#ifdef BOARD_TYPE_FLEXSEA_PLAN
 356:..\..\flexsea-system\src/flexsea_cmd_sensors.c **** 				
 357:..\..\flexsea-system\src/flexsea_cmd_sensors.c **** 			strain[0].strain_filtered = (uint16_t)BYTES_TO_UINT16(buf[P_DATA1], buf[P_DATA1+1]);
 358:..\..\flexsea-system\src/flexsea_cmd_sensors.c **** 			strain[1].strain_filtered = (uint16_t)BYTES_TO_UINT16(buf[P_DATA1+2], buf[P_DATA1+3]);
 359:..\..\flexsea-system\src/flexsea_cmd_sensors.c **** 			strain[2].strain_filtered = (uint16_t)BYTES_TO_UINT16(buf[P_DATA1+4], buf[P_DATA1+5]);
 360:..\..\flexsea-system\src/flexsea_cmd_sensors.c **** 			strain[3].strain_filtered = (uint16_t)BYTES_TO_UINT16(buf[P_DATA1+6], buf[P_DATA1+7]);
 361:..\..\flexsea-system\src/flexsea_cmd_sensors.c **** 			strain[4].strain_filtered = (uint16_t)BYTES_TO_UINT16(buf[P_DATA1+8], buf[P_DATA1+9]);
 362:..\..\flexsea-system\src/flexsea_cmd_sensors.c **** 			strain[5].strain_filtered = (uint16_t)BYTES_TO_UINT16(buf[P_DATA1+10], buf[P_DATA1+11]);	
 363:..\..\flexsea-system\src/flexsea_cmd_sensors.c **** 
 364:..\..\flexsea-system\src/flexsea_cmd_sensors.c **** 			_USE_PRINTF("Strain[0] = %i.\n", strain[0].strain_filtered);
 365:..\..\flexsea-system\src/flexsea_cmd_sensors.c **** 
 366:..\..\flexsea-system\src/flexsea_cmd_sensors.c **** 			#endif	//BOARD_TYPE_FLEXSEA_PLAN
 367:..\..\flexsea-system\src/flexsea_cmd_sensors.c **** 		}
 368:..\..\flexsea-system\src/flexsea_cmd_sensors.c **** 		else
 369:..\..\flexsea-system\src/flexsea_cmd_sensors.c **** 		{
 370:..\..\flexsea-system\src/flexsea_cmd_sensors.c **** 			//Master is writing a value to this board
 371:..\..\flexsea-system\src/flexsea_cmd_sensors.c **** 
 372:..\..\flexsea-system\src/flexsea_cmd_sensors.c **** 			#ifdef BOARD_TYPE_FLEXSEA_EXECUTE
 373:..\..\flexsea-system\src/flexsea_cmd_sensors.c **** 
 374:..\..\flexsea-system\src/flexsea_cmd_sensors.c **** 			qei_write(tmp);
ARM GAS  C:\Users\Alex\AppData\Local\Temp\ccssM5ca.s 			page 15


 425              		.loc 1 374 0
 426 0012 FFF7FEFF 		bl	qei_write
 427              	.LVL53:
 428              	.L31:
 429 0016 08BD     		pop	{r3, pc}
 430              		.cfi_endproc
 431              	.LFE68:
 432              		.size	flexsea_payload_44, .-flexsea_payload_44
 433              		.comm	tmp_payload_xmit,36,4
 434              		.text
 435              	.Letext0:
 436              		.file 2 "c:\\program files (x86)\\cypress\\psoc creator\\3.3\\psoc creator\\import\\gnu\\arm\\4.9.
 437              		.file 3 "c:\\program files (x86)\\cypress\\psoc creator\\3.3\\psoc creator\\import\\gnu\\arm\\4.9.
 438              		.file 4 "Generated_Source\\PSoC5/cytypes.h"
 439              		.file 5 "..\\inc/flexsea_board.h"
 440              		.file 6 "c:\\flexsea_alx87grd\\flexsea-comm\\inc\\flexsea_comm.h"
 441              		.file 7 "Generated_Source\\PSoC5/core_cm3.h"
 442              		.file 8 "c:\\flexsea_alx87grd\\flexsea-comm\\inc\\flexsea.h"
 443              		.file 9 "c:\\flexsea_alx87grd\\flexsea-comm\\inc\\flexsea_payload.h"
 444              		.file 10 "..\\inc/serial.h"
 445              		.file 11 "..\\inc/ext_input.h"