ARM GAS  C:\Users\Alex\AppData\Local\Temp\ccSBFdHl.s 			page 1


   1              		.syntax unified
   2              		.cpu cortex-m3
   3              		.fpu softvfp
   4              		.eabi_attribute 20, 1
   5              		.eabi_attribute 21, 1
   6              		.eabi_attribute 23, 3
   7              		.eabi_attribute 24, 1
   8              		.eabi_attribute 25, 1
   9              		.eabi_attribute 26, 1
  10              		.eabi_attribute 30, 1
  11              		.eabi_attribute 34, 1
  12              		.eabi_attribute 18, 4
  13              		.thumb
  14              		.file	"flexsea_cmd_external.c"
  15              		.text
  16              	.Ltext0:
  17              		.cfi_sections	.debug_frame
  18              		.global _printf_float
  19              		.thumb
  20              		.section	.text.tx_cmd_exp_pwro,"ax",%progbits
  21              		.align	2
  22              		.global	tx_cmd_exp_pwro
  23              		.thumb
  24              		.thumb_func
  25              		.type	tx_cmd_exp_pwro, %function
  26              	tx_cmd_exp_pwro:
  27              	.LFB63:
  28              		.file 1 "..\\..\\flexsea-system\\src\\flexsea_cmd_external.c"
   1:..\..\flexsea-system\src/flexsea_cmd_external.c **** //****************************************************************************
   2:..\..\flexsea-system\src/flexsea_cmd_external.c **** // MIT Media Lab - Biomechatronics
   3:..\..\flexsea-system\src/flexsea_cmd_external.c **** // Jean-François (Jeff) Duval
   4:..\..\flexsea-system\src/flexsea_cmd_external.c **** // jfduval@media.mit.edu
   5:..\..\flexsea-system\src/flexsea_cmd_external.c **** // 04/2016
   6:..\..\flexsea-system\src/flexsea_cmd_external.c **** //****************************************************************************
   7:..\..\flexsea-system\src/flexsea_cmd_external.c **** // flexsea_cmd_external: External/Expansion connector
   8:..\..\flexsea-system\src/flexsea_cmd_external.c **** //****************************************************************************
   9:..\..\flexsea-system\src/flexsea_cmd_external.c **** 
  10:..\..\flexsea-system\src/flexsea_cmd_external.c **** #ifdef __cplusplus
  11:..\..\flexsea-system\src/flexsea_cmd_external.c **** extern "C" {
  12:..\..\flexsea-system\src/flexsea_cmd_external.c **** #endif
  13:..\..\flexsea-system\src/flexsea_cmd_external.c **** 
  14:..\..\flexsea-system\src/flexsea_cmd_external.c **** //****************************************************************************
  15:..\..\flexsea-system\src/flexsea_cmd_external.c **** // Include(s)
  16:..\..\flexsea-system\src/flexsea_cmd_external.c **** //****************************************************************************
  17:..\..\flexsea-system\src/flexsea_cmd_external.c **** 
  18:..\..\flexsea-system\src/flexsea_cmd_external.c **** #include "main.h"
  19:..\..\flexsea-system\src/flexsea_cmd_external.c **** #include "../inc/flexsea_system.h"
  20:..\..\flexsea-system\src/flexsea_cmd_external.c **** 
  21:..\..\flexsea-system\src/flexsea_cmd_external.c **** //****************************************************************************
  22:..\..\flexsea-system\src/flexsea_cmd_external.c **** // Variable(s)
  23:..\..\flexsea-system\src/flexsea_cmd_external.c **** //****************************************************************************
  24:..\..\flexsea-system\src/flexsea_cmd_external.c **** 
  25:..\..\flexsea-system\src/flexsea_cmd_external.c **** //Will change this, but for now the payloads will be stored in:
  26:..\..\flexsea-system\src/flexsea_cmd_external.c **** unsigned char tmp_payload_xmit[PAYLOAD_BUF_LEN];
  27:..\..\flexsea-system\src/flexsea_cmd_external.c **** 
  28:..\..\flexsea-system\src/flexsea_cmd_external.c **** //****************************************************************************
  29:..\..\flexsea-system\src/flexsea_cmd_external.c **** // Function(s)
ARM GAS  C:\Users\Alex\AppData\Local\Temp\ccSBFdHl.s 			page 2


  30:..\..\flexsea-system\src/flexsea_cmd_external.c **** //****************************************************************************
  31:..\..\flexsea-system\src/flexsea_cmd_external.c **** 
  32:..\..\flexsea-system\src/flexsea_cmd_external.c **** /*
  33:..\..\flexsea-system\src/flexsea_cmd_external.c **** //Transmission of a DIGITAL_IN command
  34:..\..\flexsea-system\src/flexsea_cmd_external.c **** uint32_t tx_cmd_digital_in(uint8_t receiver, uint8_t cmd_type, uint8_t *buf, uint32_t len)
  35:..\..\flexsea-system\src/flexsea_cmd_external.c **** {
  36:..\..\flexsea-system\src/flexsea_cmd_external.c **** 	uint32_t bytes = 0;
  37:..\..\flexsea-system\src/flexsea_cmd_external.c **** 
  38:..\..\flexsea-system\src/flexsea_cmd_external.c **** 	//Fresh payload string:
  39:..\..\flexsea-system\src/flexsea_cmd_external.c **** 	prepare_empty_payload(board_id, receiver, buf, len);
  40:..\..\flexsea-system\src/flexsea_cmd_external.c **** 
  41:..\..\flexsea-system\src/flexsea_cmd_external.c **** 	//Command:
  42:..\..\flexsea-system\src/flexsea_cmd_external.c **** 	buf[P_CMDS] = 1;                     //1 command in string
  43:..\..\flexsea-system\src/flexsea_cmd_external.c **** 
  44:..\..\flexsea-system\src/flexsea_cmd_external.c **** 	if(cmd_type == CMD_READ)
  45:..\..\flexsea-system\src/flexsea_cmd_external.c **** 	{
  46:..\..\flexsea-system\src/flexsea_cmd_external.c **** 		buf[P_CMD1] = CMD_R(CMD_DIGITAL_IN);
  47:..\..\flexsea-system\src/flexsea_cmd_external.c **** 
  48:..\..\flexsea-system\src/flexsea_cmd_external.c **** 		bytes = P_CMD1 + 1;     //Bytes is always last+1
  49:..\..\flexsea-system\src/flexsea_cmd_external.c **** 	}
  50:..\..\flexsea-system\src/flexsea_cmd_external.c **** 	else if(cmd_type == CMD_WRITE)
  51:..\..\flexsea-system\src/flexsea_cmd_external.c **** 	{
  52:..\..\flexsea-system\src/flexsea_cmd_external.c **** 		//In that case Write is only used for the Reply
  53:..\..\flexsea-system\src/flexsea_cmd_external.c **** 	
  54:..\..\flexsea-system\src/flexsea_cmd_external.c **** 		buf[P_CMD1] = CMD_W(CMD_DIGITAL_IN);
  55:..\..\flexsea-system\src/flexsea_cmd_external.c **** 
  56:..\..\flexsea-system\src/flexsea_cmd_external.c **** 		#ifdef BOARD_TYPE_FLEXSEA_EXECUTE
  57:..\..\flexsea-system\src/flexsea_cmd_external.c **** 
  58:..\..\flexsea-system\src/flexsea_cmd_external.c **** 		ToDo!
  59:..\..\flexsea-system\src/flexsea_cmd_external.c **** 		
  60:..\..\flexsea-system\src/flexsea_cmd_external.c **** 		//Arguments:
  61:..\..\flexsea-system\src/flexsea_cmd_external.c **** 		buf[P_DATA1 + 0] = read_digital_inputs();
  62:..\..\flexsea-system\src/flexsea_cmd_external.c **** 		
  63:..\..\flexsea-system\src/flexsea_cmd_external.c **** 
  64:..\..\flexsea-system\src/flexsea_cmd_external.c **** 		bytes = P_DATA1 + 1;     //Bytes is always last+1
  65:..\..\flexsea-system\src/flexsea_cmd_external.c **** 
  66:..\..\flexsea-system\src/flexsea_cmd_external.c **** 		#else
  67:..\..\flexsea-system\src/flexsea_cmd_external.c **** 
  68:..\..\flexsea-system\src/flexsea_cmd_external.c **** 		bytes = 0;
  69:..\..\flexsea-system\src/flexsea_cmd_external.c **** 
  70:..\..\flexsea-system\src/flexsea_cmd_external.c **** 		#endif	//BOARD_TYPE_FLEXSEA_APPLICATION
  71:..\..\flexsea-system\src/flexsea_cmd_external.c **** 	}
  72:..\..\flexsea-system\src/flexsea_cmd_external.c **** 	else
  73:..\..\flexsea-system\src/flexsea_cmd_external.c **** 	{
  74:..\..\flexsea-system\src/flexsea_cmd_external.c **** 		//Invalid
  75:..\..\flexsea-system\src/flexsea_cmd_external.c **** 		flexsea_error(SE_INVALID_READ_TYPE);
  76:..\..\flexsea-system\src/flexsea_cmd_external.c **** 		bytes = 0;
  77:..\..\flexsea-system\src/flexsea_cmd_external.c **** 	}
  78:..\..\flexsea-system\src/flexsea_cmd_external.c **** 
  79:..\..\flexsea-system\src/flexsea_cmd_external.c **** 	return bytes;
  80:..\..\flexsea-system\src/flexsea_cmd_external.c **** }
  81:..\..\flexsea-system\src/flexsea_cmd_external.c **** 
  82:..\..\flexsea-system\src/flexsea_cmd_external.c **** //Reception of a DIGITAL_IN command
  83:..\..\flexsea-system\src/flexsea_cmd_external.c **** void rx_cmd_digital_in(uint8_t *buf)
  84:..\..\flexsea-system\src/flexsea_cmd_external.c **** {
  85:..\..\flexsea-system\src/flexsea_cmd_external.c **** 	uint32_t numb = 0;
  86:..\..\flexsea-system\src/flexsea_cmd_external.c **** 	int8_t tmp_val1 = 0, tmp_val2 = 0, tmp_val3 = 0, tmp_val4 = 0;
ARM GAS  C:\Users\Alex\AppData\Local\Temp\ccSBFdHl.s 			page 3


  87:..\..\flexsea-system\src/flexsea_cmd_external.c **** 
  88:..\..\flexsea-system\src/flexsea_cmd_external.c **** 	if(IS_CMD_RW(buf[P_CMD1]) == READ)
  89:..\..\flexsea-system\src/flexsea_cmd_external.c **** 	{
  90:..\..\flexsea-system\src/flexsea_cmd_external.c **** 		//Received a Read command from our master, prepare a reply:
  91:..\..\flexsea-system\src/flexsea_cmd_external.c **** 
  92:..\..\flexsea-system\src/flexsea_cmd_external.c ****         #ifdef BOARD_TYPE_FLEXSEA_APPLICATION
  93:..\..\flexsea-system\src/flexsea_cmd_external.c **** 		
  94:..\..\flexsea-system\src/flexsea_cmd_external.c **** 		numb = tx_cmd_digital_in(buf[P_XID], CMD_WRITE, tmp_payload_xmit, PAYLOAD_BUF_LEN);
  95:..\..\flexsea-system\src/flexsea_cmd_external.c **** 		numb = comm_gen_str(tmp_payload_xmit, comm_str_485, numb);
  96:..\..\flexsea-system\src/flexsea_cmd_external.c **** 		//numb = COMM_STR_BUF_LEN;    //Fixed length for now
  97:..\..\flexsea-system\src/flexsea_cmd_external.c **** 		flexsea_send_serial_master(0, comm_str_485, numb+1);
  98:..\..\flexsea-system\src/flexsea_cmd_external.c **** 		
  99:..\..\flexsea-system\src/flexsea_cmd_external.c **** 		//ToDo: the reply should be managed elsewhere!
 100:..\..\flexsea-system\src/flexsea_cmd_external.c **** 		
 101:..\..\flexsea-system\src/flexsea_cmd_external.c **** 		#endif	//BOARD_TYPE_FLEXSEA_APPLICATION
 102:..\..\flexsea-system\src/flexsea_cmd_external.c **** 		
 103:..\..\flexsea-system\src/flexsea_cmd_external.c **** 	}
 104:..\..\flexsea-system\src/flexsea_cmd_external.c **** 	else if(IS_CMD_RW(buf[P_CMD1]) == WRITE)
 105:..\..\flexsea-system\src/flexsea_cmd_external.c **** 	{
 106:..\..\flexsea-system\src/flexsea_cmd_external.c **** 		//Two options: from Master of from slave (a read reply)
 107:..\..\flexsea-system\src/flexsea_cmd_external.c **** 
 108:..\..\flexsea-system\src/flexsea_cmd_external.c **** 		//Decode data:
 109:..\..\flexsea-system\src/flexsea_cmd_external.c **** 		//[...]
 110:..\..\flexsea-system\src/flexsea_cmd_external.c **** 
 111:..\..\flexsea-system\src/flexsea_cmd_external.c **** 		if(sent_from_a_slave(buf))
 112:..\..\flexsea-system\src/flexsea_cmd_external.c **** 		{
 113:..\..\flexsea-system\src/flexsea_cmd_external.c **** 			//We received a reply to our read request
 114:..\..\flexsea-system\src/flexsea_cmd_external.c **** 			
 115:..\..\flexsea-system\src/flexsea_cmd_external.c **** 			#ifdef BOARD_TYPE_FLEXSEA_EXECUTE
 116:..\..\flexsea-system\src/flexsea_cmd_external.c **** 			
 117:..\..\flexsea-system\src/flexsea_cmd_external.c **** 			ToDo!
 118:..\..\flexsea-system\src/flexsea_cmd_external.c **** 				
 119:..\..\flexsea-system\src/flexsea_cmd_external.c **** 			//As a test, we use Interface to read from Application
 120:..\..\flexsea-system\src/flexsea_cmd_external.c **** 			tmp_val1 = buf[P_DATA1 + 0];
 121:..\..\flexsea-system\src/flexsea_cmd_external.c **** 			
 122:..\..\flexsea-system\src/flexsea_cmd_external.c **** 				
 123:..\..\flexsea-system\src/flexsea_cmd_external.c **** 			#endif //BOARD_TYPE_FLEXSEA_INTERFACE
 124:..\..\flexsea-system\src/flexsea_cmd_external.c **** 		}
 125:..\..\flexsea-system\src/flexsea_cmd_external.c **** 		else
 126:..\..\flexsea-system\src/flexsea_cmd_external.c **** 		{
 127:..\..\flexsea-system\src/flexsea_cmd_external.c **** 			//Master is writing a value to this board
 128:..\..\flexsea-system\src/flexsea_cmd_external.c **** 			
 129:..\..\flexsea-system\src/flexsea_cmd_external.c **** 			//Can't write to digital inputs - nop()
 130:..\..\flexsea-system\src/flexsea_cmd_external.c **** 
 131:..\..\flexsea-system\src/flexsea_cmd_external.c **** 		}
 132:..\..\flexsea-system\src/flexsea_cmd_external.c **** 	}
 133:..\..\flexsea-system\src/flexsea_cmd_external.c **** }
 134:..\..\flexsea-system\src/flexsea_cmd_external.c **** 
 135:..\..\flexsea-system\src/flexsea_cmd_external.c **** //Transmission of an ANALOG_IN command
 136:..\..\flexsea-system\src/flexsea_cmd_external.c **** uint32_t tx_cmd_analog_in(uint8_t receiver, uint8_t cmd_type, uint8_t *buf, uint32_t len)
 137:..\..\flexsea-system\src/flexsea_cmd_external.c **** {
 138:..\..\flexsea-system\src/flexsea_cmd_external.c **** 	uint32_t bytes = 0;
 139:..\..\flexsea-system\src/flexsea_cmd_external.c **** 	uint8_t tmp0 = 0, tmp1 = 0;
 140:..\..\flexsea-system\src/flexsea_cmd_external.c **** 
 141:..\..\flexsea-system\src/flexsea_cmd_external.c **** 	//Fresh payload string:
 142:..\..\flexsea-system\src/flexsea_cmd_external.c **** 	prepare_empty_payload(board_id, receiver, buf, len);
 143:..\..\flexsea-system\src/flexsea_cmd_external.c **** 
ARM GAS  C:\Users\Alex\AppData\Local\Temp\ccSBFdHl.s 			page 4


 144:..\..\flexsea-system\src/flexsea_cmd_external.c **** 	//Command:
 145:..\..\flexsea-system\src/flexsea_cmd_external.c **** 	buf[P_CMDS] = 1;                     //1 command in string
 146:..\..\flexsea-system\src/flexsea_cmd_external.c **** 
 147:..\..\flexsea-system\src/flexsea_cmd_external.c **** 	if(cmd_type == CMD_READ)
 148:..\..\flexsea-system\src/flexsea_cmd_external.c **** 	{
 149:..\..\flexsea-system\src/flexsea_cmd_external.c **** 		buf[P_CMD1] = CMD_R(CMD_ANALOG_IN);
 150:..\..\flexsea-system\src/flexsea_cmd_external.c **** 
 151:..\..\flexsea-system\src/flexsea_cmd_external.c **** 		bytes = P_CMD1 + 1;     //Bytes is always last+1
 152:..\..\flexsea-system\src/flexsea_cmd_external.c **** 	}
 153:..\..\flexsea-system\src/flexsea_cmd_external.c **** 	else if(cmd_type == CMD_WRITE)
 154:..\..\flexsea-system\src/flexsea_cmd_external.c **** 	{
 155:..\..\flexsea-system\src/flexsea_cmd_external.c **** 		//In that case Write is only used for the Reply
 156:..\..\flexsea-system\src/flexsea_cmd_external.c **** 	
 157:..\..\flexsea-system\src/flexsea_cmd_external.c **** 		buf[P_CMD1] = CMD_W(CMD_ANALOG_IN);
 158:..\..\flexsea-system\src/flexsea_cmd_external.c **** 
 159:..\..\flexsea-system\src/flexsea_cmd_external.c **** 		#ifdef BOARD_TYPE_FLEXSEA_EXECUTE
 160:..\..\flexsea-system\src/flexsea_cmd_external.c **** 		
 161:..\..\flexsea-system\src/flexsea_cmd_external.c **** 		ToDo!
 162:..\..\flexsea-system\src/flexsea_cmd_external.c **** 
 163:..\..\flexsea-system\src/flexsea_cmd_external.c **** 		//Arguments:
 164:..\..\flexsea-system\src/flexsea_cmd_external.c **** 		uint16_to_bytes((uint16_t)adc_res[0], &tmp0, &tmp1);
 165:..\..\flexsea-system\src/flexsea_cmd_external.c **** 		buf[P_DATA1 + 0] = tmp0;
 166:..\..\flexsea-system\src/flexsea_cmd_external.c **** 		buf[P_DATA1 + 1] = tmp1;
 167:..\..\flexsea-system\src/flexsea_cmd_external.c **** 		uint16_to_bytes((uint16_t)adc_res[1], &tmp0, &tmp1);
 168:..\..\flexsea-system\src/flexsea_cmd_external.c **** 		buf[P_DATA1 + 2] = tmp0;
 169:..\..\flexsea-system\src/flexsea_cmd_external.c **** 		buf[P_DATA1 + 3] = tmp1;
 170:..\..\flexsea-system\src/flexsea_cmd_external.c **** 		uint16_to_bytes((uint16_t)adc_res[2], &tmp0, &tmp1);
 171:..\..\flexsea-system\src/flexsea_cmd_external.c **** 		buf[P_DATA1 + 4] = tmp0;
 172:..\..\flexsea-system\src/flexsea_cmd_external.c **** 		buf[P_DATA1 + 5] = tmp1;
 173:..\..\flexsea-system\src/flexsea_cmd_external.c **** 		uint16_to_bytes((uint16_t)adc_res[3], &tmp0, &tmp1);
 174:..\..\flexsea-system\src/flexsea_cmd_external.c **** 		buf[P_DATA1 + 6] = tmp0;
 175:..\..\flexsea-system\src/flexsea_cmd_external.c **** 		buf[P_DATA1 + 7] = tmp1;
 176:..\..\flexsea-system\src/flexsea_cmd_external.c **** 
 177:..\..\flexsea-system\src/flexsea_cmd_external.c **** 		bytes = P_DATA1 + 8;     //Bytes is always last+1
 178:..\..\flexsea-system\src/flexsea_cmd_external.c **** 
 179:..\..\flexsea-system\src/flexsea_cmd_external.c **** 		#else
 180:..\..\flexsea-system\src/flexsea_cmd_external.c **** 
 181:..\..\flexsea-system\src/flexsea_cmd_external.c **** 		bytes = 0;
 182:..\..\flexsea-system\src/flexsea_cmd_external.c **** 
 183:..\..\flexsea-system\src/flexsea_cmd_external.c **** 		#endif	//BOARD_TYPE_FLEXSEA_APPLICATION
 184:..\..\flexsea-system\src/flexsea_cmd_external.c **** 	}
 185:..\..\flexsea-system\src/flexsea_cmd_external.c **** 	else
 186:..\..\flexsea-system\src/flexsea_cmd_external.c **** 	{
 187:..\..\flexsea-system\src/flexsea_cmd_external.c **** 		//Invalid
 188:..\..\flexsea-system\src/flexsea_cmd_external.c **** 		flexsea_error(SE_INVALID_READ_TYPE);
 189:..\..\flexsea-system\src/flexsea_cmd_external.c **** 		bytes = 0;
 190:..\..\flexsea-system\src/flexsea_cmd_external.c **** 	}
 191:..\..\flexsea-system\src/flexsea_cmd_external.c **** 
 192:..\..\flexsea-system\src/flexsea_cmd_external.c **** 	return bytes;
 193:..\..\flexsea-system\src/flexsea_cmd_external.c **** }
 194:..\..\flexsea-system\src/flexsea_cmd_external.c **** 
 195:..\..\flexsea-system\src/flexsea_cmd_external.c **** //Reception of an ANALOG_IN command
 196:..\..\flexsea-system\src/flexsea_cmd_external.c **** void rx_cmd_analog_in(uint8_t *buf)
 197:..\..\flexsea-system\src/flexsea_cmd_external.c **** {
 198:..\..\flexsea-system\src/flexsea_cmd_external.c **** 	uint32_t numb = 0;
 199:..\..\flexsea-system\src/flexsea_cmd_external.c **** 	int16_t tmp_val1 = 0, tmp_val2 = 0, tmp_val3 = 0, tmp_val4 = 0;
 200:..\..\flexsea-system\src/flexsea_cmd_external.c **** 
ARM GAS  C:\Users\Alex\AppData\Local\Temp\ccSBFdHl.s 			page 5


 201:..\..\flexsea-system\src/flexsea_cmd_external.c **** 	if(IS_CMD_RW(buf[P_CMD1]) == READ)
 202:..\..\flexsea-system\src/flexsea_cmd_external.c **** 	{
 203:..\..\flexsea-system\src/flexsea_cmd_external.c **** 		//Received a Read command from our master, prepare a reply:
 204:..\..\flexsea-system\src/flexsea_cmd_external.c **** 
 205:..\..\flexsea-system\src/flexsea_cmd_external.c ****         #ifdef BOARD_TYPE_FLEXSEA_EXECUTE
 206:..\..\flexsea-system\src/flexsea_cmd_external.c **** 		
 207:..\..\flexsea-system\src/flexsea_cmd_external.c **** 		numb = tx_cmd_analog_in(buf[P_XID], CMD_WRITE, tmp_payload_xmit, PAYLOAD_BUF_LEN);
 208:..\..\flexsea-system\src/flexsea_cmd_external.c **** 		numb = comm_gen_str(tmp_payload_xmit, comm_str_485, numb);
 209:..\..\flexsea-system\src/flexsea_cmd_external.c **** 		//numb = COMM_STR_BUF_LEN;    //Fixed length for now
 210:..\..\flexsea-system\src/flexsea_cmd_external.c **** 		flexsea_send_serial_master(0, comm_str_485, numb+1);
 211:..\..\flexsea-system\src/flexsea_cmd_external.c **** 		
 212:..\..\flexsea-system\src/flexsea_cmd_external.c **** 		//ToDo: the reply should be managed elsewhere!
 213:..\..\flexsea-system\src/flexsea_cmd_external.c **** 		
 214:..\..\flexsea-system\src/flexsea_cmd_external.c **** 		#endif	//BOARD_TYPE_FLEXSEA_APPLICATION
 215:..\..\flexsea-system\src/flexsea_cmd_external.c **** 		
 216:..\..\flexsea-system\src/flexsea_cmd_external.c **** 	}
 217:..\..\flexsea-system\src/flexsea_cmd_external.c **** 	else if(IS_CMD_RW(buf[P_CMD1]) == WRITE)
 218:..\..\flexsea-system\src/flexsea_cmd_external.c **** 	{
 219:..\..\flexsea-system\src/flexsea_cmd_external.c **** 		//Two options: from Master of from slave (a read reply)
 220:..\..\flexsea-system\src/flexsea_cmd_external.c **** 
 221:..\..\flexsea-system\src/flexsea_cmd_external.c **** 		//Decode data:
 222:..\..\flexsea-system\src/flexsea_cmd_external.c **** 		//[...]
 223:..\..\flexsea-system\src/flexsea_cmd_external.c **** 
 224:..\..\flexsea-system\src/flexsea_cmd_external.c **** 		if(sent_from_a_slave(buf))
 225:..\..\flexsea-system\src/flexsea_cmd_external.c **** 		{
 226:..\..\flexsea-system\src/flexsea_cmd_external.c **** 			//We received a reply to our read request
 227:..\..\flexsea-system\src/flexsea_cmd_external.c **** 			
 228:..\..\flexsea-system\src/flexsea_cmd_external.c **** 			#ifdef BOARD_TYPE_FLEXSEA_EXECUTE
 229:..\..\flexsea-system\src/flexsea_cmd_external.c **** 			
 230:..\..\flexsea-system\src/flexsea_cmd_external.c **** 			ToDo!
 231:..\..\flexsea-system\src/flexsea_cmd_external.c **** 				
 232:..\..\flexsea-system\src/flexsea_cmd_external.c **** 			//As a test, we use Interface to read from Application
 233:..\..\flexsea-system\src/flexsea_cmd_external.c **** 			tmp_val1 = (int16)BYTES_TO_UINT16(buf[P_DATA1 + 0], buf[P_DATA1 + 1]);
 234:..\..\flexsea-system\src/flexsea_cmd_external.c **** 			tmp_val2 = (int16)BYTES_TO_UINT16(buf[P_DATA1 + 2], buf[P_DATA1 + 3]);
 235:..\..\flexsea-system\src/flexsea_cmd_external.c **** 			tmp_val3 = (int16)BYTES_TO_UINT16(buf[P_DATA1 + 4], buf[P_DATA1 + 5]);
 236:..\..\flexsea-system\src/flexsea_cmd_external.c **** 			tmp_val4 = (int16)BYTES_TO_UINT16(buf[P_DATA1 + 6], buf[P_DATA1 + 7]);
 237:..\..\flexsea-system\src/flexsea_cmd_external.c **** 			sdata_app_adc_res[0] = tmp_val1;
 238:..\..\flexsea-system\src/flexsea_cmd_external.c **** 			sdata_app_adc_res[1] = tmp_val2;
 239:..\..\flexsea-system\src/flexsea_cmd_external.c **** 			sdata_app_adc_res[2] = tmp_val3;
 240:..\..\flexsea-system\src/flexsea_cmd_external.c **** 			sdata_app_adc_res[3] = tmp_val4;
 241:..\..\flexsea-system\src/flexsea_cmd_external.c **** 			
 242:..\..\flexsea-system\src/flexsea_cmd_external.c **** 				
 243:..\..\flexsea-system\src/flexsea_cmd_external.c **** 			#endif //BOARD_TYPE_FLEXSEA_INTERFACE
 244:..\..\flexsea-system\src/flexsea_cmd_external.c **** 		}
 245:..\..\flexsea-system\src/flexsea_cmd_external.c **** 		else
 246:..\..\flexsea-system\src/flexsea_cmd_external.c **** 		{
 247:..\..\flexsea-system\src/flexsea_cmd_external.c **** 			//Master is writing a value to this board
 248:..\..\flexsea-system\src/flexsea_cmd_external.c **** 			
 249:..\..\flexsea-system\src/flexsea_cmd_external.c **** 			//Can't write to digital inputs - nop()
 250:..\..\flexsea-system\src/flexsea_cmd_external.c **** 
 251:..\..\flexsea-system\src/flexsea_cmd_external.c **** 		}
 252:..\..\flexsea-system\src/flexsea_cmd_external.c **** 	}
 253:..\..\flexsea-system\src/flexsea_cmd_external.c **** }
 254:..\..\flexsea-system\src/flexsea_cmd_external.c **** */
 255:..\..\flexsea-system\src/flexsea_cmd_external.c **** 
 256:..\..\flexsea-system\src/flexsea_cmd_external.c **** //Transmission of a PWRO command
 257:..\..\flexsea-system\src/flexsea_cmd_external.c **** uint32_t tx_cmd_exp_pwro(uint8_t receiver, uint8_t cmd_type, uint8_t *buf, uint32_t len, \
ARM GAS  C:\Users\Alex\AppData\Local\Temp\ccSBFdHl.s 			page 6


 258:..\..\flexsea-system\src/flexsea_cmd_external.c **** 								uint8_t pwro_pwm)
 259:..\..\flexsea-system\src/flexsea_cmd_external.c **** {
  29              		.loc 1 259 0
  30              		.cfi_startproc
  31              		@ args = 4, pretend = 0, frame = 0
  32              		@ frame_needed = 0, uses_anonymous_args = 0
  33              	.LVL0:
  34 0000 70B5     		push	{r4, r5, r6, lr}
  35              		.cfi_def_cfa_offset 16
  36              		.cfi_offset 4, -16
  37              		.cfi_offset 5, -12
  38              		.cfi_offset 6, -8
  39              		.cfi_offset 14, -4
  40 0002 0646     		mov	r6, r0
  41 0004 0D46     		mov	r5, r1
  42 0006 1446     		mov	r4, r2
  43              	.LVL1:
 260:..\..\flexsea-system\src/flexsea_cmd_external.c **** 	uint32_t bytes = 0;
 261:..\..\flexsea-system\src/flexsea_cmd_external.c **** 
 262:..\..\flexsea-system\src/flexsea_cmd_external.c **** 	//Fresh payload string:
 263:..\..\flexsea-system\src/flexsea_cmd_external.c **** 	prepare_empty_payload(board_id, receiver, buf, len);
  44              		.loc 1 263 0
  45 0008 0C49     		ldr	r1, .L6
  46              	.LVL2:
  47 000a 0878     		ldrb	r0, [r1]	@ zero_extendqisi2
  48              	.LVL3:
  49 000c 3146     		mov	r1, r6
  50 000e FFF7FEFF 		bl	prepare_empty_payload
  51              	.LVL4:
 264:..\..\flexsea-system\src/flexsea_cmd_external.c **** 
 265:..\..\flexsea-system\src/flexsea_cmd_external.c **** 	//Command:
 266:..\..\flexsea-system\src/flexsea_cmd_external.c **** 	buf[P_CMDS] = 1;                     //1 command in string
  52              		.loc 1 266 0
  53 0012 0123     		movs	r3, #1
  54 0014 A370     		strb	r3, [r4, #2]
 267:..\..\flexsea-system\src/flexsea_cmd_external.c **** 
 268:..\..\flexsea-system\src/flexsea_cmd_external.c **** 	if(cmd_type == CMD_READ)
  55              		.loc 1 268 0
  56 0016 9D42     		cmp	r5, r3
  57 0018 0ED0     		beq	.L4
 269:..\..\flexsea-system\src/flexsea_cmd_external.c **** 	{
 270:..\..\flexsea-system\src/flexsea_cmd_external.c **** 		//No arguments needed to read the clutch state
 271:..\..\flexsea-system\src/flexsea_cmd_external.c **** 
 272:..\..\flexsea-system\src/flexsea_cmd_external.c **** 		//Arguments:
 273:..\..\flexsea-system\src/flexsea_cmd_external.c **** 		//...
 274:..\..\flexsea-system\src/flexsea_cmd_external.c **** 
 275:..\..\flexsea-system\src/flexsea_cmd_external.c **** 		bytes = P_DATA1 + 0;     //Bytes is always last+1
 276:..\..\flexsea-system\src/flexsea_cmd_external.c **** 	}
 277:..\..\flexsea-system\src/flexsea_cmd_external.c **** 	else if(cmd_type == CMD_WRITE)
  58              		.loc 1 277 0
  59 001a 022D     		cmp	r5, #2
  60 001c 06D1     		bne	.L3
 278:..\..\flexsea-system\src/flexsea_cmd_external.c **** 	{
 279:..\..\flexsea-system\src/flexsea_cmd_external.c **** 		//In that case Write is only used for the Reply
 280:..\..\flexsea-system\src/flexsea_cmd_external.c **** 
 281:..\..\flexsea-system\src/flexsea_cmd_external.c **** 		buf[P_CMD1] = CMD_W(CMD_PWRO);
  61              		.loc 1 281 0
ARM GAS  C:\Users\Alex\AppData\Local\Temp\ccSBFdHl.s 			page 7


  62 001e 7A23     		movs	r3, #122
  63 0020 E370     		strb	r3, [r4, #3]
 282:..\..\flexsea-system\src/flexsea_cmd_external.c **** 
 283:..\..\flexsea-system\src/flexsea_cmd_external.c **** 		//Arguments:
 284:..\..\flexsea-system\src/flexsea_cmd_external.c **** 		buf[P_DATA1 + 0] = pwro_pwm;
  64              		.loc 1 284 0
  65 0022 9DF81030 		ldrb	r3, [sp, #16]	@ zero_extendqisi2
  66 0026 2371     		strb	r3, [r4, #4]
  67              	.LVL5:
 285:..\..\flexsea-system\src/flexsea_cmd_external.c **** 
 286:..\..\flexsea-system\src/flexsea_cmd_external.c **** 		bytes = P_DATA1 + 1;     //Bytes is always last+1
  68              		.loc 1 286 0
  69 0028 0520     		movs	r0, #5
  70 002a 70BD     		pop	{r4, r5, r6, pc}
  71              	.LVL6:
  72              	.L3:
 287:..\..\flexsea-system\src/flexsea_cmd_external.c **** 	}
 288:..\..\flexsea-system\src/flexsea_cmd_external.c **** 	else
 289:..\..\flexsea-system\src/flexsea_cmd_external.c **** 	{
 290:..\..\flexsea-system\src/flexsea_cmd_external.c **** 		//Invalid
 291:..\..\flexsea-system\src/flexsea_cmd_external.c **** 		flexsea_error(SE_INVALID_READ_TYPE);
  73              		.loc 1 291 0
  74 002c 4FF48060 		mov	r0, #1024
  75 0030 FFF7FEFF 		bl	flexsea_error
  76              	.LVL7:
 292:..\..\flexsea-system\src/flexsea_cmd_external.c **** 		bytes = 0;
  77              		.loc 1 292 0
  78 0034 0020     		movs	r0, #0
  79 0036 70BD     		pop	{r4, r5, r6, pc}
  80              	.LVL8:
  81              	.L4:
 275:..\..\flexsea-system\src/flexsea_cmd_external.c **** 	}
  82              		.loc 1 275 0
  83 0038 0420     		movs	r0, #4
  84              	.LVL9:
 293:..\..\flexsea-system\src/flexsea_cmd_external.c **** 	}
 294:..\..\flexsea-system\src/flexsea_cmd_external.c **** 
 295:..\..\flexsea-system\src/flexsea_cmd_external.c **** 	return bytes;
 296:..\..\flexsea-system\src/flexsea_cmd_external.c **** }
  85              		.loc 1 296 0
  86 003a 70BD     		pop	{r4, r5, r6, pc}
  87              	.LVL10:
  88              	.L7:
  89              		.align	2
  90              	.L6:
  91 003c 00000000 		.word	board_id
  92              		.cfi_endproc
  93              	.LFE63:
  94              		.size	tx_cmd_exp_pwro, .-tx_cmd_exp_pwro
  95              		.section	.text.flexsea_payload_61,"ax",%progbits
  96              		.align	2
  97              		.weak	flexsea_payload_61
  98              		.thumb
  99              		.thumb_func
 100              		.type	flexsea_payload_61, %function
 101              	flexsea_payload_61:
 102              	.LFB64:
ARM GAS  C:\Users\Alex\AppData\Local\Temp\ccSBFdHl.s 			page 8


 297:..\..\flexsea-system\src/flexsea_cmd_external.c **** 
 298:..\..\flexsea-system\src/flexsea_cmd_external.c **** //Reception of a PWRO command
 299:..\..\flexsea-system\src/flexsea_cmd_external.c **** void rx_cmd_exp_pwro(uint8_t *buf)
 300:..\..\flexsea-system\src/flexsea_cmd_external.c **** {
 103              		.loc 1 300 0
 104              		.cfi_startproc
 105              		@ args = 0, pretend = 0, frame = 0
 106              		@ frame_needed = 0, uses_anonymous_args = 0
 107              	.LVL11:
 108 0000 30B5     		push	{r4, r5, lr}
 109              		.cfi_def_cfa_offset 12
 110              		.cfi_offset 4, -12
 111              		.cfi_offset 5, -8
 112              		.cfi_offset 14, -4
 113 0002 83B0     		sub	sp, sp, #12
 114              		.cfi_def_cfa_offset 24
 115 0004 0446     		mov	r4, r0
 116              	.LVL12:
 301:..\..\flexsea-system\src/flexsea_cmd_external.c **** 	uint32_t numb = 0;
 302:..\..\flexsea-system\src/flexsea_cmd_external.c **** 
 303:..\..\flexsea-system\src/flexsea_cmd_external.c **** 	#if((defined BOARD_TYPE_FLEXSEA_MANAGE) || (defined BOARD_TYPE_FLEXSEA_PLAN))
 304:..\..\flexsea-system\src/flexsea_cmd_external.c **** 
 305:..\..\flexsea-system\src/flexsea_cmd_external.c **** 	//Structure pointer. Points to exec1 by default.
 306:..\..\flexsea-system\src/flexsea_cmd_external.c **** 	struct execute_s *exec_s_ptr = &exec1;
 307:..\..\flexsea-system\src/flexsea_cmd_external.c **** 
 308:..\..\flexsea-system\src/flexsea_cmd_external.c **** 	//Point to the appropriate structure:
 309:..\..\flexsea-system\src/flexsea_cmd_external.c **** 	if(buf[P_XID] == FLEXSEA_EXECUTE_1)
 310:..\..\flexsea-system\src/flexsea_cmd_external.c **** 	{
 311:..\..\flexsea-system\src/flexsea_cmd_external.c **** 		exec_s_ptr = &exec1;
 312:..\..\flexsea-system\src/flexsea_cmd_external.c **** 	}
 313:..\..\flexsea-system\src/flexsea_cmd_external.c **** 	else if(buf[P_XID] == FLEXSEA_EXECUTE_2)
 314:..\..\flexsea-system\src/flexsea_cmd_external.c **** 	{
 315:..\..\flexsea-system\src/flexsea_cmd_external.c **** 		exec_s_ptr = &exec2;
 316:..\..\flexsea-system\src/flexsea_cmd_external.c **** 	}
 317:..\..\flexsea-system\src/flexsea_cmd_external.c **** 
 318:..\..\flexsea-system\src/flexsea_cmd_external.c **** 	#endif	//((defined BOARD_TYPE_FLEXSEA_MANAGE) || (defined BOARD_TYPE_FLEXSEA_PLAN))
 319:..\..\flexsea-system\src/flexsea_cmd_external.c **** 
 320:..\..\flexsea-system\src/flexsea_cmd_external.c **** 	if(IS_CMD_RW(buf[P_CMD1]) == READ)
 117              		.loc 1 320 0
 118 0006 C378     		ldrb	r3, [r0, #3]	@ zero_extendqisi2
 119 0008 13F00103 		ands	r3, r3, #1
 120 000c 15D0     		beq	.L9
 321:..\..\flexsea-system\src/flexsea_cmd_external.c **** 	{
 322:..\..\flexsea-system\src/flexsea_cmd_external.c **** 		//Received a Read command from our master.
 323:..\..\flexsea-system\src/flexsea_cmd_external.c **** 
 324:..\..\flexsea-system\src/flexsea_cmd_external.c **** 		#ifdef BOARD_TYPE_FLEXSEA_EXECUTE
 325:..\..\flexsea-system\src/flexsea_cmd_external.c **** 
 326:..\..\flexsea-system\src/flexsea_cmd_external.c **** 		//Generate the reply:
 327:..\..\flexsea-system\src/flexsea_cmd_external.c **** 		//===================
 328:..\..\flexsea-system\src/flexsea_cmd_external.c **** 
 329:..\..\flexsea-system\src/flexsea_cmd_external.c **** 		numb = tx_cmd_exp_pwro(buf[P_XID], CMD_WRITE, tmp_payload_xmit, \
 121              		.loc 1 329 0
 122 000e 0478     		ldrb	r4, [r0]	@ zero_extendqisi2
 123 0010 FFF7FEFF 		bl	read_pwro
 124              	.LVL13:
 125 0014 104D     		ldr	r5, .L13
 126 0016 0090     		str	r0, [sp]
ARM GAS  C:\Users\Alex\AppData\Local\Temp\ccSBFdHl.s 			page 9


 127 0018 2046     		mov	r0, r4
 128 001a 0221     		movs	r1, #2
 129 001c 2A46     		mov	r2, r5
 130 001e 2423     		movs	r3, #36
 131 0020 FFF7FEFF 		bl	tx_cmd_exp_pwro
 132              	.LVL14:
 330:..\..\flexsea-system\src/flexsea_cmd_external.c **** 									PAYLOAD_BUF_LEN, read_pwro());
 331:..\..\flexsea-system\src/flexsea_cmd_external.c **** 		numb = comm_gen_str(tmp_payload_xmit, comm_str_485, numb);
 133              		.loc 1 331 0
 134 0024 0D4C     		ldr	r4, .L13+4
 135 0026 C2B2     		uxtb	r2, r0
 136 0028 2846     		mov	r0, r5
 137              	.LVL15:
 138 002a 2146     		mov	r1, r4
 139 002c FFF7FEFF 		bl	comm_gen_str
 140              	.LVL16:
 332:..\..\flexsea-system\src/flexsea_cmd_external.c **** 		numb = COMM_STR_BUF_LEN;	//Fixed length for now to accomodate the DMA
 333:..\..\flexsea-system\src/flexsea_cmd_external.c **** 
 334:..\..\flexsea-system\src/flexsea_cmd_external.c **** 		//Notify the code that a buffer is ready to be transmitted:
 335:..\..\flexsea-system\src/flexsea_cmd_external.c **** 		//xmit_flag_1 = 1;
 336:..\..\flexsea-system\src/flexsea_cmd_external.c **** 		
 337:..\..\flexsea-system\src/flexsea_cmd_external.c **** 		//(for now, send it)
 338:..\..\flexsea-system\src/flexsea_cmd_external.c **** 		rs485_puts(comm_str_485, (numb));
 141              		.loc 1 338 0
 142 0030 2046     		mov	r0, r4
 143 0032 3021     		movs	r1, #48
 144 0034 FFF7FEFF 		bl	rs485_puts
 145              	.LVL17:
 146 0038 0BE0     		b	.L8
 147              	.LVL18:
 148              	.L9:
 339:..\..\flexsea-system\src/flexsea_cmd_external.c **** 
 340:..\..\flexsea-system\src/flexsea_cmd_external.c **** 		#endif	//BOARD_TYPE_FLEXSEA_EXECUTE
 341:..\..\flexsea-system\src/flexsea_cmd_external.c **** 
 342:..\..\flexsea-system\src/flexsea_cmd_external.c **** 		#ifdef BOARD_TYPE_FLEXSEA_MANAGE
 343:..\..\flexsea-system\src/flexsea_cmd_external.c **** 		//No code (yet), you shouldn't be here...
 344:..\..\flexsea-system\src/flexsea_cmd_external.c **** 		flexsea_error(SE_CMD_NOT_PROGRAMMED);
 345:..\..\flexsea-system\src/flexsea_cmd_external.c **** 		#endif	//BOARD_TYPE_FLEXSEA_MANAGE
 346:..\..\flexsea-system\src/flexsea_cmd_external.c **** 
 347:..\..\flexsea-system\src/flexsea_cmd_external.c **** 		#ifdef BOARD_TYPE_FLEXSEA_PLAN
 348:..\..\flexsea-system\src/flexsea_cmd_external.c **** 		//No code (yet), you shouldn't be here...
 349:..\..\flexsea-system\src/flexsea_cmd_external.c **** 		flexsea_error(SE_CMD_NOT_PROGRAMMED);
 350:..\..\flexsea-system\src/flexsea_cmd_external.c **** 		#endif	//BOARD_TYPE_FLEXSEA_PLAN
 351:..\..\flexsea-system\src/flexsea_cmd_external.c **** 	}
 352:..\..\flexsea-system\src/flexsea_cmd_external.c **** 	else if(IS_CMD_RW(buf[P_CMD1]) == WRITE)
 149              		.loc 1 352 0
 150 003a 53B9     		cbnz	r3, .L8
 353:..\..\flexsea-system\src/flexsea_cmd_external.c **** 	{
 354:..\..\flexsea-system\src/flexsea_cmd_external.c **** 		//Two options: from Master of from slave (a read reply)
 355:..\..\flexsea-system\src/flexsea_cmd_external.c **** 
 356:..\..\flexsea-system\src/flexsea_cmd_external.c **** 		if(sent_from_a_slave(buf))
 151              		.loc 1 356 0
 152 003c FFF7FEFF 		bl	sent_from_a_slave
 153              	.LVL19:
 154 0040 20B1     		cbz	r0, .L11
 357:..\..\flexsea-system\src/flexsea_cmd_external.c **** 		{
 358:..\..\flexsea-system\src/flexsea_cmd_external.c **** 			//We received a reply to our read request
ARM GAS  C:\Users\Alex\AppData\Local\Temp\ccSBFdHl.s 			page 10


 359:..\..\flexsea-system\src/flexsea_cmd_external.c **** 
 360:..\..\flexsea-system\src/flexsea_cmd_external.c **** 			#ifdef BOARD_TYPE_FLEXSEA_EXECUTE
 361:..\..\flexsea-system\src/flexsea_cmd_external.c **** 			//No code (yet), you shouldn't be here...
 362:..\..\flexsea-system\src/flexsea_cmd_external.c **** 			flexsea_error(SE_CMD_NOT_PROGRAMMED);
 155              		.loc 1 362 0
 156 0042 4FF40070 		mov	r0, #512
 157 0046 FFF7FEFF 		bl	flexsea_error
 158              	.LVL20:
 159 004a 02E0     		b	.L8
 160              	.L11:
 363:..\..\flexsea-system\src/flexsea_cmd_external.c **** 			#endif	//BOARD_TYPE_FLEXSEA_EXECUTE
 364:..\..\flexsea-system\src/flexsea_cmd_external.c **** 
 365:..\..\flexsea-system\src/flexsea_cmd_external.c **** 			#if((defined BOARD_TYPE_FLEXSEA_MANAGE) || (defined BOARD_TYPE_FLEXSEA_PLAN))
 366:..\..\flexsea-system\src/flexsea_cmd_external.c **** 
 367:..\..\flexsea-system\src/flexsea_cmd_external.c **** 			//Store values:
 368:..\..\flexsea-system\src/flexsea_cmd_external.c **** 
 369:..\..\flexsea-system\src/flexsea_cmd_external.c **** 			exec_s_ptr->pwro = buf[P_DATA1+0];
 370:..\..\flexsea-system\src/flexsea_cmd_external.c **** 
 371:..\..\flexsea-system\src/flexsea_cmd_external.c **** 			#endif	//BOARD_TYPE_FLEXSEA_MANAGE
 372:..\..\flexsea-system\src/flexsea_cmd_external.c **** 
 373:..\..\flexsea-system\src/flexsea_cmd_external.c **** 			#ifdef BOARD_TYPE_FLEXSEA_PLAN
 374:..\..\flexsea-system\src/flexsea_cmd_external.c **** 
 375:..\..\flexsea-system\src/flexsea_cmd_external.c **** 			#endif	//BOARD_TYPE_FLEXSEA_PLAN
 376:..\..\flexsea-system\src/flexsea_cmd_external.c **** 		}
 377:..\..\flexsea-system\src/flexsea_cmd_external.c **** 		else
 378:..\..\flexsea-system\src/flexsea_cmd_external.c **** 		{
 379:..\..\flexsea-system\src/flexsea_cmd_external.c **** 			//Master is writing a value to this board
 380:..\..\flexsea-system\src/flexsea_cmd_external.c **** 
 381:..\..\flexsea-system\src/flexsea_cmd_external.c **** 			#ifdef BOARD_TYPE_FLEXSEA_EXECUTE
 382:..\..\flexsea-system\src/flexsea_cmd_external.c **** 
 383:..\..\flexsea-system\src/flexsea_cmd_external.c **** 			pwro_output(buf[P_DATA1+0]);
 161              		.loc 1 383 0
 162 004c 2079     		ldrb	r0, [r4, #4]	@ zero_extendqisi2
 163 004e FFF7FEFF 		bl	pwro_output
 164              	.LVL21:
 165              	.L8:
 384:..\..\flexsea-system\src/flexsea_cmd_external.c **** 
 385:..\..\flexsea-system\src/flexsea_cmd_external.c **** 			#endif	//BOARD_TYPE_FLEXSEA_EXECUTE
 386:..\..\flexsea-system\src/flexsea_cmd_external.c **** 
 387:..\..\flexsea-system\src/flexsea_cmd_external.c **** 			#ifdef BOARD_TYPE_FLEXSEA_MANAGE
 388:..\..\flexsea-system\src/flexsea_cmd_external.c **** 			//No code (yet), you shouldn't be here...
 389:..\..\flexsea-system\src/flexsea_cmd_external.c **** 			flexsea_error(SE_CMD_NOT_PROGRAMMED);
 390:..\..\flexsea-system\src/flexsea_cmd_external.c **** 			#endif	//BOARD_TYPE_FLEXSEA_MANAGE
 391:..\..\flexsea-system\src/flexsea_cmd_external.c **** 
 392:..\..\flexsea-system\src/flexsea_cmd_external.c **** 			#ifdef BOARD_TYPE_FLEXSEA_PLAN
 393:..\..\flexsea-system\src/flexsea_cmd_external.c **** 			//No code (yet), you shouldn't be here...
 394:..\..\flexsea-system\src/flexsea_cmd_external.c **** 			flexsea_error(SE_CMD_NOT_PROGRAMMED);
 395:..\..\flexsea-system\src/flexsea_cmd_external.c **** 			#endif	//BOARD_TYPE_FLEXSEA_PLAN
 396:..\..\flexsea-system\src/flexsea_cmd_external.c **** 		}
 397:..\..\flexsea-system\src/flexsea_cmd_external.c **** 	}
 398:..\..\flexsea-system\src/flexsea_cmd_external.c **** }
 166              		.loc 1 398 0
 167 0052 03B0     		add	sp, sp, #12
 168              		.cfi_def_cfa_offset 12
 169              		@ sp needed
 170 0054 30BD     		pop	{r4, r5, pc}
 171              	.L14:
ARM GAS  C:\Users\Alex\AppData\Local\Temp\ccSBFdHl.s 			page 11


 172 0056 00BF     		.align	2
 173              	.L13:
 174 0058 00000000 		.word	tmp_payload_xmit
 175 005c 00000000 		.word	comm_str_1
 176              		.cfi_endproc
 177              	.LFE64:
 178              		.size	flexsea_payload_61, .-flexsea_payload_61
 179              		.comm	tmp_payload_xmit,36,4
 180              		.text
 181              	.Letext0:
 182              		.file 2 "c:\\program files (x86)\\cypress\\psoc creator\\3.3\\psoc creator\\import\\gnu\\arm\\4.9.
 183              		.file 3 "c:\\program files (x86)\\cypress\\psoc creator\\3.3\\psoc creator\\import\\gnu\\arm\\4.9.
 184              		.file 4 "Generated_Source\\PSoC5/cytypes.h"
 185              		.file 5 "Generated_Source\\PSoC5/core_cm3.h"
 186              		.file 6 "..\\inc/flexsea_board.h"
 187              		.file 7 "c:\\flexsea_alx87grd\\flexsea-comm\\inc\\flexsea_comm.h"
 188              		.file 8 "c:\\flexsea_alx87grd\\flexsea-comm\\inc\\flexsea.h"
 189              		.file 9 "c:\\flexsea_alx87grd\\flexsea-comm\\inc\\flexsea_payload.h"
 190              		.file 10 "..\\inc/serial.h"
 191              		.file 11 "..\\inc/ext_output.h"