ARM GAS  C:\Users\Alex\AppData\Local\Temp\cchBAlOP.s 			page 1


   1              		.syntax unified
   2              		.cpu cortex-m3
   3              		.fpu softvfp
   4              		.eabi_attribute 20, 1
   5              		.eabi_attribute 21, 1
   6              		.eabi_attribute 23, 3
   7              		.eabi_attribute 24, 1
   8              		.eabi_attribute 25, 1
   9              		.eabi_attribute 26, 1
  10              		.eabi_attribute 30, 1
  11              		.eabi_attribute 34, 1
  12              		.eabi_attribute 18, 4
  13              		.thumb
  14              		.file	"flexsea_cmd_control.c"
  15              		.text
  16              	.Ltext0:
  17              		.cfi_sections	.debug_frame
  18              		.global _printf_float
  19              		.thumb
  20              		.section	.text.tx_cmd_ctrl_mode,"ax",%progbits
  21              		.align	2
  22              		.global	tx_cmd_ctrl_mode
  23              		.thumb
  24              		.thumb_func
  25              		.type	tx_cmd_ctrl_mode, %function
  26              	tx_cmd_ctrl_mode:
  27              	.LFB63:
  28              		.file 1 "..\\..\\flexsea-system\\src\\flexsea_cmd_control.c"
   1:..\..\flexsea-system\src/flexsea_cmd_control.c **** //****************************************************************************
   2:..\..\flexsea-system\src/flexsea_cmd_control.c **** // MIT Media Lab - Biomechatronics
   3:..\..\flexsea-system\src/flexsea_cmd_control.c **** // Jean-Francois (Jeff) Duval
   4:..\..\flexsea-system\src/flexsea_cmd_control.c **** // jfduval@media.mit.edu
   5:..\..\flexsea-system\src/flexsea_cmd_control.c **** // 04/2016
   6:..\..\flexsea-system\src/flexsea_cmd_control.c **** //****************************************************************************
   7:..\..\flexsea-system\src/flexsea_cmd_control.c **** // flexsea_cmd_control: commands specific to the motor & control
   8:..\..\flexsea-system\src/flexsea_cmd_control.c **** //****************************************************************************
   9:..\..\flexsea-system\src/flexsea_cmd_control.c **** 
  10:..\..\flexsea-system\src/flexsea_cmd_control.c **** #ifdef __cplusplus
  11:..\..\flexsea-system\src/flexsea_cmd_control.c **** extern "C" {
  12:..\..\flexsea-system\src/flexsea_cmd_control.c **** #endif
  13:..\..\flexsea-system\src/flexsea_cmd_control.c **** 
  14:..\..\flexsea-system\src/flexsea_cmd_control.c **** //****************************************************************************
  15:..\..\flexsea-system\src/flexsea_cmd_control.c **** // Include(s)
  16:..\..\flexsea-system\src/flexsea_cmd_control.c **** //****************************************************************************
  17:..\..\flexsea-system\src/flexsea_cmd_control.c **** 
  18:..\..\flexsea-system\src/flexsea_cmd_control.c **** #include <stdio.h>
  19:..\..\flexsea-system\src/flexsea_cmd_control.c **** #include <stdlib.h>
  20:..\..\flexsea-system\src/flexsea_cmd_control.c **** #include "../inc/flexsea_system.h"
  21:..\..\flexsea-system\src/flexsea_cmd_control.c **** #include "../inc/flexsea_cmd_control.h"
  22:..\..\flexsea-system\src/flexsea_cmd_control.c **** 
  23:..\..\flexsea-system\src/flexsea_cmd_control.c **** //Plan boards only:
  24:..\..\flexsea-system\src/flexsea_cmd_control.c **** #ifdef BOARD_TYPE_FLEXSEA_PLAN
  25:..\..\flexsea-system\src/flexsea_cmd_control.c **** //...
  26:..\..\flexsea-system\src/flexsea_cmd_control.c **** #endif	//BOARD_TYPE_FLEXSEA_PLAN
  27:..\..\flexsea-system\src/flexsea_cmd_control.c **** 
  28:..\..\flexsea-system\src/flexsea_cmd_control.c **** //Manage boards only:
  29:..\..\flexsea-system\src/flexsea_cmd_control.c **** #ifdef BOARD_TYPE_FLEXSEA_MANAGE
ARM GAS  C:\Users\Alex\AppData\Local\Temp\cchBAlOP.s 			page 2


  30:..\..\flexsea-system\src/flexsea_cmd_control.c **** //...
  31:..\..\flexsea-system\src/flexsea_cmd_control.c **** #endif	//BOARD_TYPE_FLEXSEA_MANAGE
  32:..\..\flexsea-system\src/flexsea_cmd_control.c **** 
  33:..\..\flexsea-system\src/flexsea_cmd_control.c **** //Execute boards only:
  34:..\..\flexsea-system\src/flexsea_cmd_control.c **** #ifdef BOARD_TYPE_FLEXSEA_EXECUTE
  35:..\..\flexsea-system\src/flexsea_cmd_control.c **** #include "main.h"
  36:..\..\flexsea-system\src/flexsea_cmd_control.c **** #endif	//BOARD_TYPE_FLEXSEA_EXECUTE
  37:..\..\flexsea-system\src/flexsea_cmd_control.c **** 
  38:..\..\flexsea-system\src/flexsea_cmd_control.c **** //****************************************************************************
  39:..\..\flexsea-system\src/flexsea_cmd_control.c **** // Variable(s)
  40:..\..\flexsea-system\src/flexsea_cmd_control.c **** //****************************************************************************
  41:..\..\flexsea-system\src/flexsea_cmd_control.c **** 
  42:..\..\flexsea-system\src/flexsea_cmd_control.c **** //Will change this, but for now the payloads will be stored in:
  43:..\..\flexsea-system\src/flexsea_cmd_control.c **** unsigned char tmp_payload_xmit[PAYLOAD_BUF_LEN];
  44:..\..\flexsea-system\src/flexsea_cmd_control.c **** 
  45:..\..\flexsea-system\src/flexsea_cmd_control.c **** //****************************************************************************
  46:..\..\flexsea-system\src/flexsea_cmd_control.c **** // Function(s)
  47:..\..\flexsea-system\src/flexsea_cmd_control.c **** //****************************************************************************
  48:..\..\flexsea-system\src/flexsea_cmd_control.c **** 
  49:..\..\flexsea-system\src/flexsea_cmd_control.c **** //Transmission of a CTRL_MODE command
  50:..\..\flexsea-system\src/flexsea_cmd_control.c **** uint32_t tx_cmd_ctrl_mode(uint8_t receiver, uint8_t cmd_type, uint8_t *buf, uint32_t len, int16_t c
  51:..\..\flexsea-system\src/flexsea_cmd_control.c **** {
  29              		.loc 1 51 0
  30              		.cfi_startproc
  31              		@ args = 4, pretend = 0, frame = 0
  32              		@ frame_needed = 0, uses_anonymous_args = 0
  33              	.LVL0:
  34 0000 70B5     		push	{r4, r5, r6, lr}
  35              		.cfi_def_cfa_offset 16
  36              		.cfi_offset 4, -16
  37              		.cfi_offset 5, -12
  38              		.cfi_offset 6, -8
  39              		.cfi_offset 14, -4
  40 0002 0646     		mov	r6, r0
  41 0004 0D46     		mov	r5, r1
  42 0006 1446     		mov	r4, r2
  43              	.LVL1:
  52:..\..\flexsea-system\src/flexsea_cmd_control.c **** 	uint32_t bytes = 0;
  53:..\..\flexsea-system\src/flexsea_cmd_control.c **** 
  54:..\..\flexsea-system\src/flexsea_cmd_control.c **** 	//Fresh payload string:
  55:..\..\flexsea-system\src/flexsea_cmd_control.c **** 	prepare_empty_payload(board_id, receiver, buf, len);
  44              		.loc 1 55 0
  45 0008 0D49     		ldr	r1, .L6
  46              	.LVL2:
  47 000a 0878     		ldrb	r0, [r1]	@ zero_extendqisi2
  48              	.LVL3:
  49 000c 3146     		mov	r1, r6
  50 000e FFF7FEFF 		bl	prepare_empty_payload
  51              	.LVL4:
  56:..\..\flexsea-system\src/flexsea_cmd_control.c **** 
  57:..\..\flexsea-system\src/flexsea_cmd_control.c **** 	//Command:
  58:..\..\flexsea-system\src/flexsea_cmd_control.c **** 	buf[P_CMDS] = 1;                     //1 command in string
  52              		.loc 1 58 0
  53 0012 0123     		movs	r3, #1
  54 0014 A370     		strb	r3, [r4, #2]
  59:..\..\flexsea-system\src/flexsea_cmd_control.c **** 
  60:..\..\flexsea-system\src/flexsea_cmd_control.c **** 	if(cmd_type == CMD_READ)
ARM GAS  C:\Users\Alex\AppData\Local\Temp\cchBAlOP.s 			page 3


  55              		.loc 1 60 0
  56 0016 9D42     		cmp	r5, r3
  57 0018 03D1     		bne	.L2
  61:..\..\flexsea-system\src/flexsea_cmd_control.c **** 	{
  62:..\..\flexsea-system\src/flexsea_cmd_control.c **** 		buf[P_CMD1] = CMD_R(CMD_CTRL_MODE);
  58              		.loc 1 62 0
  59 001a A123     		movs	r3, #161
  60 001c E370     		strb	r3, [r4, #3]
  61              	.LVL5:
  63:..\..\flexsea-system\src/flexsea_cmd_control.c **** 
  64:..\..\flexsea-system\src/flexsea_cmd_control.c **** 		bytes = P_CMD1 + 1;     //Bytes is always last+1
  62              		.loc 1 64 0
  63 001e 0420     		movs	r0, #4
  64 0020 70BD     		pop	{r4, r5, r6, pc}
  65              	.LVL6:
  66              	.L2:
  65:..\..\flexsea-system\src/flexsea_cmd_control.c **** 	}
  66:..\..\flexsea-system\src/flexsea_cmd_control.c **** 	else if(cmd_type == CMD_WRITE)
  67              		.loc 1 66 0
  68 0022 022D     		cmp	r5, #2
  69 0024 06D1     		bne	.L4
  67:..\..\flexsea-system\src/flexsea_cmd_control.c **** 	{
  68:..\..\flexsea-system\src/flexsea_cmd_control.c **** 		buf[P_CMD1] = CMD_W(CMD_CTRL_MODE);
  70              		.loc 1 68 0
  71 0026 A023     		movs	r3, #160
  72 0028 E370     		strb	r3, [r4, #3]
  69:..\..\flexsea-system\src/flexsea_cmd_control.c **** 
  70:..\..\flexsea-system\src/flexsea_cmd_control.c **** 		//Arguments:
  71:..\..\flexsea-system\src/flexsea_cmd_control.c **** 		buf[P_DATA1] = ctrl;
  73              		.loc 1 71 0
  74 002a BDF91030 		ldrsh	r3, [sp, #16]
  75 002e 2371     		strb	r3, [r4, #4]
  76              	.LVL7:
  72:..\..\flexsea-system\src/flexsea_cmd_control.c **** 
  73:..\..\flexsea-system\src/flexsea_cmd_control.c **** 		bytes = P_DATA1 + 1;     //Bytes is always last+1
  77              		.loc 1 73 0
  78 0030 0520     		movs	r0, #5
  79 0032 70BD     		pop	{r4, r5, r6, pc}
  80              	.LVL8:
  81              	.L4:
  74:..\..\flexsea-system\src/flexsea_cmd_control.c **** 	}
  75:..\..\flexsea-system\src/flexsea_cmd_control.c **** 	else
  76:..\..\flexsea-system\src/flexsea_cmd_control.c **** 	{
  77:..\..\flexsea-system\src/flexsea_cmd_control.c **** 		//Invalid
  78:..\..\flexsea-system\src/flexsea_cmd_control.c **** 		flexsea_error(SE_INVALID_READ_TYPE);
  82              		.loc 1 78 0
  83 0034 4FF48060 		mov	r0, #1024
  84 0038 FFF7FEFF 		bl	flexsea_error
  85              	.LVL9:
  79:..\..\flexsea-system\src/flexsea_cmd_control.c **** 		bytes = 0;
  86              		.loc 1 79 0
  87 003c 0020     		movs	r0, #0
  88              	.LVL10:
  80:..\..\flexsea-system\src/flexsea_cmd_control.c **** 	}
  81:..\..\flexsea-system\src/flexsea_cmd_control.c **** 
  82:..\..\flexsea-system\src/flexsea_cmd_control.c **** 	return bytes;
  83:..\..\flexsea-system\src/flexsea_cmd_control.c **** }
ARM GAS  C:\Users\Alex\AppData\Local\Temp\cchBAlOP.s 			page 4


  89              		.loc 1 83 0
  90 003e 70BD     		pop	{r4, r5, r6, pc}
  91              	.LVL11:
  92              	.L7:
  93              		.align	2
  94              	.L6:
  95 0040 00000000 		.word	board_id
  96              		.cfi_endproc
  97              	.LFE63:
  98              		.size	tx_cmd_ctrl_mode, .-tx_cmd_ctrl_mode
  99              		.section	.text.flexsea_payload_80,"ax",%progbits
 100              		.align	2
 101              		.weak	flexsea_payload_80
 102              		.thumb
 103              		.thumb_func
 104              		.type	flexsea_payload_80, %function
 105              	flexsea_payload_80:
 106              	.LFB64:
  84:..\..\flexsea-system\src/flexsea_cmd_control.c **** 
  85:..\..\flexsea-system\src/flexsea_cmd_control.c **** //Reception of a CTRL_MODE command
  86:..\..\flexsea-system\src/flexsea_cmd_control.c **** void rx_cmd_ctrl_mode(uint8_t *buf)
  87:..\..\flexsea-system\src/flexsea_cmd_control.c **** {
 107              		.loc 1 87 0
 108              		.cfi_startproc
 109              		@ args = 0, pretend = 0, frame = 0
 110              		@ frame_needed = 0, uses_anonymous_args = 0
 111              	.LVL12:
 112 0000 30B5     		push	{r4, r5, lr}
 113              		.cfi_def_cfa_offset 12
 114              		.cfi_offset 4, -12
 115              		.cfi_offset 5, -8
 116              		.cfi_offset 14, -4
 117 0002 83B0     		sub	sp, sp, #12
 118              		.cfi_def_cfa_offset 24
 119              	.LVL13:
  88:..\..\flexsea-system\src/flexsea_cmd_control.c **** 	uint8_t numb = 0, controller = 0;
  89:..\..\flexsea-system\src/flexsea_cmd_control.c **** 
  90:..\..\flexsea-system\src/flexsea_cmd_control.c **** 	if(IS_CMD_RW(buf[P_CMD1]) == READ)
 120              		.loc 1 90 0
 121 0004 C378     		ldrb	r3, [r0, #3]	@ zero_extendqisi2
 122 0006 13F00103 		ands	r3, r3, #1
 123 000a 14D0     		beq	.L9
  91:..\..\flexsea-system\src/flexsea_cmd_control.c **** 	{
  92:..\..\flexsea-system\src/flexsea_cmd_control.c **** 		//Received a Read command from our master, prepare a reply:
  93:..\..\flexsea-system\src/flexsea_cmd_control.c **** 
  94:..\..\flexsea-system\src/flexsea_cmd_control.c **** 		#ifdef BOARD_TYPE_FLEXSEA_EXECUTE
  95:..\..\flexsea-system\src/flexsea_cmd_control.c **** 
  96:..\..\flexsea-system\src/flexsea_cmd_control.c **** 		//Generate the reply:
  97:..\..\flexsea-system\src/flexsea_cmd_control.c **** 		numb = tx_cmd_ctrl_mode(buf[P_XID], CMD_WRITE, tmp_payload_xmit, PAYLOAD_BUF_LEN, ctrl.active_ctr
 124              		.loc 1 97 0
 125 000c 0F4B     		ldr	r3, .L12
 126 000e 1B78     		ldrb	r3, [r3]	@ zero_extendqisi2
 127 0010 0078     		ldrb	r0, [r0]	@ zero_extendqisi2
 128              	.LVL14:
 129 0012 0F4D     		ldr	r5, .L12+4
 130 0014 0093     		str	r3, [sp]
 131 0016 0221     		movs	r1, #2
ARM GAS  C:\Users\Alex\AppData\Local\Temp\cchBAlOP.s 			page 5


 132 0018 2A46     		mov	r2, r5
 133 001a 2423     		movs	r3, #36
 134 001c FFF7FEFF 		bl	tx_cmd_ctrl_mode
 135              	.LVL15:
 136 0020 C2B2     		uxtb	r2, r0
 137              	.LVL16:
  98:..\..\flexsea-system\src/flexsea_cmd_control.c **** 		numb = comm_gen_str(tmp_payload_xmit, comm_str_485, numb);
 138              		.loc 1 98 0
 139 0022 0C4C     		ldr	r4, .L12+8
 140 0024 2846     		mov	r0, r5
 141 0026 2146     		mov	r1, r4
 142 0028 FFF7FEFF 		bl	comm_gen_str
 143              	.LVL17:
 144 002c 0146     		mov	r1, r0
 145              	.LVL18:
  99:..\..\flexsea-system\src/flexsea_cmd_control.c **** 
 100:..\..\flexsea-system\src/flexsea_cmd_control.c **** 		//Notify the code that a buffer is ready to be transmitted:
 101:..\..\flexsea-system\src/flexsea_cmd_control.c **** 		//xmit_flag_1 = 1;
 102:..\..\flexsea-system\src/flexsea_cmd_control.c **** 		
 103:..\..\flexsea-system\src/flexsea_cmd_control.c **** 		//(for now, send it)
 104:..\..\flexsea-system\src/flexsea_cmd_control.c **** 		rs485_puts(comm_str_485, numb);
 146              		.loc 1 104 0
 147 002e 2046     		mov	r0, r4
 148 0030 FFF7FEFF 		bl	rs485_puts
 149              	.LVL19:
 150 0034 07E0     		b	.L8
 151              	.LVL20:
 152              	.L9:
 105:..\..\flexsea-system\src/flexsea_cmd_control.c **** 
 106:..\..\flexsea-system\src/flexsea_cmd_control.c **** 		#endif	//BOARD_TYPE_FLEXSEA_EXECUTE
 107:..\..\flexsea-system\src/flexsea_cmd_control.c **** 	}
 108:..\..\flexsea-system\src/flexsea_cmd_control.c **** 	else if(IS_CMD_RW(buf[P_CMD1]) == WRITE)
 153              		.loc 1 108 0
 154 0036 33B9     		cbnz	r3, .L8
 109:..\..\flexsea-system\src/flexsea_cmd_control.c **** 	{
 110:..\..\flexsea-system\src/flexsea_cmd_control.c **** 		//Two options: from Master of from slave (a read reply)
 111:..\..\flexsea-system\src/flexsea_cmd_control.c **** 
 112:..\..\flexsea-system\src/flexsea_cmd_control.c **** 		//Decode data:
 113:..\..\flexsea-system\src/flexsea_cmd_control.c **** 		controller = buf[P_DATA1];
 155              		.loc 1 113 0
 156 0038 0479     		ldrb	r4, [r0, #4]	@ zero_extendqisi2
 157              	.LVL21:
 114:..\..\flexsea-system\src/flexsea_cmd_control.c **** 		//ToDo store that value somewhere useful
 115:..\..\flexsea-system\src/flexsea_cmd_control.c **** 
 116:..\..\flexsea-system\src/flexsea_cmd_control.c **** 		if(sent_from_a_slave(buf))
 158              		.loc 1 116 0
 159 003a FFF7FEFF 		bl	sent_from_a_slave
 160              	.LVL22:
 161 003e 10B9     		cbnz	r0, .L8
 117:..\..\flexsea-system\src/flexsea_cmd_control.c **** 		{
 118:..\..\flexsea-system\src/flexsea_cmd_control.c **** 			//We received a reply to our read request
 119:..\..\flexsea-system\src/flexsea_cmd_control.c **** 
 120:..\..\flexsea-system\src/flexsea_cmd_control.c **** 			#if((defined BOARD_TYPE_FLEXSEA_MANAGE) || (defined BOARD_TYPE_FLEXSEA_PLAN))
 121:..\..\flexsea-system\src/flexsea_cmd_control.c **** 
 122:..\..\flexsea-system\src/flexsea_cmd_control.c **** 			//Store value:
 123:..\..\flexsea-system\src/flexsea_cmd_control.c **** 			exec1.ctrl.active_ctrl = controller;
 124:..\..\flexsea-system\src/flexsea_cmd_control.c **** 
ARM GAS  C:\Users\Alex\AppData\Local\Temp\cchBAlOP.s 			page 6


 125:..\..\flexsea-system\src/flexsea_cmd_control.c **** 			#endif	//((defined BOARD_TYPE_FLEXSEA_MANAGE) || (defined BOARD_TYPE_FLEXSEA_PLAN))
 126:..\..\flexsea-system\src/flexsea_cmd_control.c **** 		}
 127:..\..\flexsea-system\src/flexsea_cmd_control.c **** 		else
 128:..\..\flexsea-system\src/flexsea_cmd_control.c **** 		{
 129:..\..\flexsea-system\src/flexsea_cmd_control.c **** 			//Master is writing a value to this board
 130:..\..\flexsea-system\src/flexsea_cmd_control.c **** 
 131:..\..\flexsea-system\src/flexsea_cmd_control.c **** 			#ifdef BOARD_TYPE_FLEXSEA_EXECUTE
 132:..\..\flexsea-system\src/flexsea_cmd_control.c **** 
 133:..\..\flexsea-system\src/flexsea_cmd_control.c **** 			control_strategy(controller);
 162              		.loc 1 133 0
 163 0040 2046     		mov	r0, r4
 164 0042 FFF7FEFF 		bl	control_strategy
 165              	.LVL23:
 166              	.L8:
 134:..\..\flexsea-system\src/flexsea_cmd_control.c **** 
 135:..\..\flexsea-system\src/flexsea_cmd_control.c **** 			#endif	//BOARD_TYPE_FLEXSEA_EXECUTE
 136:..\..\flexsea-system\src/flexsea_cmd_control.c **** 		}
 137:..\..\flexsea-system\src/flexsea_cmd_control.c **** 	}
 138:..\..\flexsea-system\src/flexsea_cmd_control.c **** }
 167              		.loc 1 138 0
 168 0046 03B0     		add	sp, sp, #12
 169              		.cfi_def_cfa_offset 12
 170              		@ sp needed
 171 0048 30BD     		pop	{r4, r5, pc}
 172              	.L13:
 173 004a 00BF     		.align	2
 174              	.L12:
 175 004c 00000000 		.word	ctrl
 176 0050 00000000 		.word	tmp_payload_xmit
 177 0054 00000000 		.word	comm_str_1
 178              		.cfi_endproc
 179              	.LFE64:
 180              		.size	flexsea_payload_80, .-flexsea_payload_80
 181              		.section	.text.tx_cmd_ctrl_i,"ax",%progbits
 182              		.align	2
 183              		.global	tx_cmd_ctrl_i
 184              		.thumb
 185              		.thumb_func
 186              		.type	tx_cmd_ctrl_i, %function
 187              	tx_cmd_ctrl_i:
 188              	.LFB65:
 139:..\..\flexsea-system\src/flexsea_cmd_control.c **** 
 140:..\..\flexsea-system\src/flexsea_cmd_control.c **** //Transmission of a CTRL_I command
 141:..\..\flexsea-system\src/flexsea_cmd_control.c **** uint32_t tx_cmd_ctrl_i(uint8_t receiver, uint8_t cmd_type, uint8_t *buf, uint32_t len, int16_t want
 142:..\..\flexsea-system\src/flexsea_cmd_control.c **** {
 189              		.loc 1 142 0
 190              		.cfi_startproc
 191              		@ args = 8, pretend = 0, frame = 8
 192              		@ frame_needed = 0, uses_anonymous_args = 0
 193              	.LVL24:
 194 0000 70B5     		push	{r4, r5, r6, lr}
 195              		.cfi_def_cfa_offset 16
 196              		.cfi_offset 4, -16
 197              		.cfi_offset 5, -12
 198              		.cfi_offset 6, -8
 199              		.cfi_offset 14, -4
 200 0002 82B0     		sub	sp, sp, #8
ARM GAS  C:\Users\Alex\AppData\Local\Temp\cchBAlOP.s 			page 7


 201              		.cfi_def_cfa_offset 24
 202 0004 0646     		mov	r6, r0
 203 0006 0D46     		mov	r5, r1
 204 0008 1446     		mov	r4, r2
 143:..\..\flexsea-system\src/flexsea_cmd_control.c **** 	uint8_t tmp0 = 0, tmp1 = 0;
 205              		.loc 1 143 0
 206 000a 0021     		movs	r1, #0
 207              	.LVL25:
 208 000c 8DF80710 		strb	r1, [sp, #7]
 209 0010 8DF80610 		strb	r1, [sp, #6]
 210              	.LVL26:
 144:..\..\flexsea-system\src/flexsea_cmd_control.c **** 	uint32_t bytes = 0;
 145:..\..\flexsea-system\src/flexsea_cmd_control.c **** 
 146:..\..\flexsea-system\src/flexsea_cmd_control.c **** 	//Fresh payload string:
 147:..\..\flexsea-system\src/flexsea_cmd_control.c **** 	prepare_empty_payload(board_id, receiver, buf, len);
 211              		.loc 1 147 0
 212 0014 1A49     		ldr	r1, .L19
 213 0016 0878     		ldrb	r0, [r1]	@ zero_extendqisi2
 214              	.LVL27:
 215 0018 3146     		mov	r1, r6
 216 001a FFF7FEFF 		bl	prepare_empty_payload
 217              	.LVL28:
 148:..\..\flexsea-system\src/flexsea_cmd_control.c **** 
 149:..\..\flexsea-system\src/flexsea_cmd_control.c **** 	//Command:
 150:..\..\flexsea-system\src/flexsea_cmd_control.c **** 	buf[P_CMDS] = 1;                     //1 command in string
 218              		.loc 1 150 0
 219 001e 0123     		movs	r3, #1
 220 0020 A370     		strb	r3, [r4, #2]
 151:..\..\flexsea-system\src/flexsea_cmd_control.c **** 
 152:..\..\flexsea-system\src/flexsea_cmd_control.c **** 	if(cmd_type == CMD_READ)
 221              		.loc 1 152 0
 222 0022 9D42     		cmp	r5, r3
 223 0024 03D1     		bne	.L15
 153:..\..\flexsea-system\src/flexsea_cmd_control.c **** 	{
 154:..\..\flexsea-system\src/flexsea_cmd_control.c **** 		buf[P_CMD1] = CMD_R(CMD_CTRL_I);
 224              		.loc 1 154 0
 225 0026 AD23     		movs	r3, #173
 226 0028 E370     		strb	r3, [r4, #3]
 227              	.LVL29:
 155:..\..\flexsea-system\src/flexsea_cmd_control.c **** 
 156:..\..\flexsea-system\src/flexsea_cmd_control.c **** 		bytes = P_CMD1 + 1;     //Bytes is always last+1
 228              		.loc 1 156 0
 229 002a 0420     		movs	r0, #4
 230 002c 26E0     		b	.L16
 231              	.LVL30:
 232              	.L15:
 157:..\..\flexsea-system\src/flexsea_cmd_control.c **** 	}
 158:..\..\flexsea-system\src/flexsea_cmd_control.c **** 	else if(cmd_type == CMD_WRITE)
 233              		.loc 1 158 0
 234 002e 022D     		cmp	r5, #2
 235 0030 1FD1     		bne	.L17
 159:..\..\flexsea-system\src/flexsea_cmd_control.c **** 	{
 160:..\..\flexsea-system\src/flexsea_cmd_control.c **** 		buf[P_CMD1] = CMD_W(CMD_CTRL_I);
 236              		.loc 1 160 0
 237 0032 AC23     		movs	r3, #172
 238 0034 E370     		strb	r3, [r4, #3]
 161:..\..\flexsea-system\src/flexsea_cmd_control.c **** 
ARM GAS  C:\Users\Alex\AppData\Local\Temp\cchBAlOP.s 			page 8


 162:..\..\flexsea-system\src/flexsea_cmd_control.c **** 		//Arguments:
 163:..\..\flexsea-system\src/flexsea_cmd_control.c **** 		uint16_to_bytes(measured, &tmp0, &tmp1);
 239              		.loc 1 163 0
 240 0036 BDF91C00 		ldrsh	r0, [sp, #28]
 241 003a 0DF10701 		add	r1, sp, #7
 242 003e 0DF10602 		add	r2, sp, #6
 243 0042 FFF7FEFF 		bl	uint16_to_bytes
 244              	.LVL31:
 164:..\..\flexsea-system\src/flexsea_cmd_control.c **** 		buf[P_DATA1] = tmp0;
 245              		.loc 1 164 0
 246 0046 9DF80730 		ldrb	r3, [sp, #7]	@ zero_extendqisi2
 247 004a 2371     		strb	r3, [r4, #4]
 165:..\..\flexsea-system\src/flexsea_cmd_control.c **** 		buf[P_DATA1 + 1] = tmp1;
 248              		.loc 1 165 0
 249 004c 9DF80630 		ldrb	r3, [sp, #6]	@ zero_extendqisi2
 250 0050 6371     		strb	r3, [r4, #5]
 166:..\..\flexsea-system\src/flexsea_cmd_control.c **** 		uint16_to_bytes(wanted, &tmp0, &tmp1);
 251              		.loc 1 166 0
 252 0052 BDF91800 		ldrsh	r0, [sp, #24]
 253 0056 0DF10701 		add	r1, sp, #7
 254 005a 0DF10602 		add	r2, sp, #6
 255 005e FFF7FEFF 		bl	uint16_to_bytes
 256              	.LVL32:
 167:..\..\flexsea-system\src/flexsea_cmd_control.c **** 		buf[P_DATA1 + 2] = tmp0;
 257              		.loc 1 167 0
 258 0062 9DF80730 		ldrb	r3, [sp, #7]	@ zero_extendqisi2
 259 0066 A371     		strb	r3, [r4, #6]
 168:..\..\flexsea-system\src/flexsea_cmd_control.c **** 		buf[P_DATA1 + 3] = tmp1;
 260              		.loc 1 168 0
 261 0068 9DF80630 		ldrb	r3, [sp, #6]	@ zero_extendqisi2
 262 006c E371     		strb	r3, [r4, #7]
 263              	.LVL33:
 169:..\..\flexsea-system\src/flexsea_cmd_control.c **** 
 170:..\..\flexsea-system\src/flexsea_cmd_control.c **** 		bytes = P_DATA1 + 4;     //Bytes is always last+1
 264              		.loc 1 170 0
 265 006e 0820     		movs	r0, #8
 266 0070 04E0     		b	.L16
 267              	.LVL34:
 268              	.L17:
 171:..\..\flexsea-system\src/flexsea_cmd_control.c **** 	}
 172:..\..\flexsea-system\src/flexsea_cmd_control.c **** 	else
 173:..\..\flexsea-system\src/flexsea_cmd_control.c **** 	{
 174:..\..\flexsea-system\src/flexsea_cmd_control.c **** 		//Invalid
 175:..\..\flexsea-system\src/flexsea_cmd_control.c **** 		flexsea_error(SE_INVALID_READ_TYPE);
 269              		.loc 1 175 0
 270 0072 4FF48060 		mov	r0, #1024
 271 0076 FFF7FEFF 		bl	flexsea_error
 272              	.LVL35:
 176:..\..\flexsea-system\src/flexsea_cmd_control.c **** 		bytes = 0;
 273              		.loc 1 176 0
 274 007a 0020     		movs	r0, #0
 275              	.LVL36:
 276              	.L16:
 177:..\..\flexsea-system\src/flexsea_cmd_control.c **** 	}
 178:..\..\flexsea-system\src/flexsea_cmd_control.c **** 
 179:..\..\flexsea-system\src/flexsea_cmd_control.c **** 	return bytes;
 180:..\..\flexsea-system\src/flexsea_cmd_control.c **** }
ARM GAS  C:\Users\Alex\AppData\Local\Temp\cchBAlOP.s 			page 9


 277              		.loc 1 180 0
 278 007c 02B0     		add	sp, sp, #8
 279              		.cfi_def_cfa_offset 16
 280              		@ sp needed
 281 007e 70BD     		pop	{r4, r5, r6, pc}
 282              	.LVL37:
 283              	.L20:
 284              		.align	2
 285              	.L19:
 286 0080 00000000 		.word	board_id
 287              		.cfi_endproc
 288              	.LFE65:
 289              		.size	tx_cmd_ctrl_i, .-tx_cmd_ctrl_i
 290              		.section	.text.flexsea_payload_86,"ax",%progbits
 291              		.align	2
 292              		.weak	flexsea_payload_86
 293              		.thumb
 294              		.thumb_func
 295              		.type	flexsea_payload_86, %function
 296              	flexsea_payload_86:
 297              	.LFB66:
 181:..\..\flexsea-system\src/flexsea_cmd_control.c **** 
 182:..\..\flexsea-system\src/flexsea_cmd_control.c **** //Reception of a CTRL_I command
 183:..\..\flexsea-system\src/flexsea_cmd_control.c **** void rx_cmd_ctrl_i(uint8_t *buf)
 184:..\..\flexsea-system\src/flexsea_cmd_control.c **** {
 298              		.loc 1 184 0
 299              		.cfi_startproc
 300              		@ args = 0, pretend = 0, frame = 0
 301              		@ frame_needed = 0, uses_anonymous_args = 0
 302              	.LVL38:
 303 0000 30B5     		push	{r4, r5, lr}
 304              		.cfi_def_cfa_offset 12
 305              		.cfi_offset 4, -12
 306              		.cfi_offset 5, -8
 307              		.cfi_offset 14, -4
 308 0002 83B0     		sub	sp, sp, #12
 309              		.cfi_def_cfa_offset 24
 310              	.LVL39:
 185:..\..\flexsea-system\src/flexsea_cmd_control.c **** 	uint32_t numb = 0;
 186:..\..\flexsea-system\src/flexsea_cmd_control.c **** 	int16_t tmp_wanted_current = 0, tmp_measured_current = 0;
 187:..\..\flexsea-system\src/flexsea_cmd_control.c **** 
 188:..\..\flexsea-system\src/flexsea_cmd_control.c **** 	if(IS_CMD_RW(buf[P_CMD1]) == READ)
 311              		.loc 1 188 0
 312 0004 C378     		ldrb	r3, [r0, #3]	@ zero_extendqisi2
 313 0006 13F00103 		ands	r3, r3, #1
 314 000a 18D0     		beq	.L22
 189:..\..\flexsea-system\src/flexsea_cmd_control.c **** 	{
 190:..\..\flexsea-system\src/flexsea_cmd_control.c **** 		//Received a Read command from our master, prepare a reply:
 191:..\..\flexsea-system\src/flexsea_cmd_control.c **** 
 192:..\..\flexsea-system\src/flexsea_cmd_control.c **** 		#ifdef BOARD_TYPE_FLEXSEA_EXECUTE
 193:..\..\flexsea-system\src/flexsea_cmd_control.c **** 
 194:..\..\flexsea-system\src/flexsea_cmd_control.c **** 		//Generate the reply:
 195:..\..\flexsea-system\src/flexsea_cmd_control.c **** 		numb = tx_cmd_ctrl_i(buf[P_XID], CMD_WRITE, tmp_payload_xmit, PAYLOAD_BUF_LEN, \
 315              		.loc 1 195 0
 316 000c 0078     		ldrb	r0, [r0]	@ zero_extendqisi2
 317              	.LVL40:
 196:..\..\flexsea-system\src/flexsea_cmd_control.c **** 			ctrl.current.actual_val, ctrl.current.setpoint_val);
ARM GAS  C:\Users\Alex\AppData\Local\Temp\cchBAlOP.s 			page 10


 318              		.loc 1 196 0
 319 000e 184B     		ldr	r3, .L26
 320 0010 5A6B     		ldr	r2, [r3, #52]
 321 0012 9B6B     		ldr	r3, [r3, #56]
 195:..\..\flexsea-system\src/flexsea_cmd_control.c **** 			ctrl.current.actual_val, ctrl.current.setpoint_val);
 322              		.loc 1 195 0
 323 0014 174D     		ldr	r5, .L26+4
 324 0016 12B2     		sxth	r2, r2
 325 0018 0092     		str	r2, [sp]
 326 001a 1BB2     		sxth	r3, r3
 327 001c 0193     		str	r3, [sp, #4]
 328 001e 0221     		movs	r1, #2
 329 0020 2A46     		mov	r2, r5
 330 0022 2423     		movs	r3, #36
 331 0024 FFF7FEFF 		bl	tx_cmd_ctrl_i
 332              	.LVL41:
 197:..\..\flexsea-system\src/flexsea_cmd_control.c **** 		numb = comm_gen_str(tmp_payload_xmit, comm_str_485, numb);
 333              		.loc 1 197 0
 334 0028 134C     		ldr	r4, .L26+8
 335 002a C2B2     		uxtb	r2, r0
 336 002c 2846     		mov	r0, r5
 337              	.LVL42:
 338 002e 2146     		mov	r1, r4
 339 0030 FFF7FEFF 		bl	comm_gen_str
 340              	.LVL43:
 341 0034 0146     		mov	r1, r0
 342              	.LVL44:
 198:..\..\flexsea-system\src/flexsea_cmd_control.c **** 
 199:..\..\flexsea-system\src/flexsea_cmd_control.c **** 		//Notify the code that a buffer is ready to be transmitted:
 200:..\..\flexsea-system\src/flexsea_cmd_control.c **** 		//xmit_flag_1 = 1;
 201:..\..\flexsea-system\src/flexsea_cmd_control.c **** 		
 202:..\..\flexsea-system\src/flexsea_cmd_control.c **** 		//(for now, send it)
 203:..\..\flexsea-system\src/flexsea_cmd_control.c **** 		rs485_puts(comm_str_485, (numb));
 343              		.loc 1 203 0
 344 0036 2046     		mov	r0, r4
 345              	.LVL45:
 346 0038 FFF7FEFF 		bl	rs485_puts
 347              	.LVL46:
 348 003c 15E0     		b	.L21
 349              	.LVL47:
 350              	.L22:
 204:..\..\flexsea-system\src/flexsea_cmd_control.c **** 
 205:..\..\flexsea-system\src/flexsea_cmd_control.c **** 		#endif	//BOARD_TYPE_FLEXSEA_EXECUTE
 206:..\..\flexsea-system\src/flexsea_cmd_control.c **** 	}
 207:..\..\flexsea-system\src/flexsea_cmd_control.c **** 	else if(IS_CMD_RW(buf[P_CMD1]) == WRITE)
 351              		.loc 1 207 0
 352 003e A3B9     		cbnz	r3, .L21
 353              	.LVL48:
 208:..\..\flexsea-system\src/flexsea_cmd_control.c **** 	{
 209:..\..\flexsea-system\src/flexsea_cmd_control.c **** 		//Two options: from Master of from slave (a read reply)
 210:..\..\flexsea-system\src/flexsea_cmd_control.c **** 
 211:..\..\flexsea-system\src/flexsea_cmd_control.c **** 		//Decode data:
 212:..\..\flexsea-system\src/flexsea_cmd_control.c **** 		tmp_measured_current = (int16_t) (BYTES_TO_UINT16(buf[P_DATA1], buf[P_DATA1+1]));
 213:..\..\flexsea-system\src/flexsea_cmd_control.c **** 		tmp_wanted_current = (int16_t) (BYTES_TO_UINT16(buf[P_DATA1+2], buf[P_DATA1+3]));
 354              		.loc 1 213 0
 355 0040 8279     		ldrb	r2, [r0, #6]	@ zero_extendqisi2
 356 0042 C379     		ldrb	r3, [r0, #7]	@ zero_extendqisi2
ARM GAS  C:\Users\Alex\AppData\Local\Temp\cchBAlOP.s 			page 11


 357 0044 03EB0223 		add	r3, r3, r2, lsl #8
 358 0048 9CB2     		uxth	r4, r3
 359              	.LVL49:
 214:..\..\flexsea-system\src/flexsea_cmd_control.c **** 		//ToDo store that value somewhere useful
 215:..\..\flexsea-system\src/flexsea_cmd_control.c **** 
 216:..\..\flexsea-system\src/flexsea_cmd_control.c **** 		if(sent_from_a_slave(buf))
 360              		.loc 1 216 0
 361 004a FFF7FEFF 		bl	sent_from_a_slave
 362              	.LVL50:
 363 004e 20B1     		cbz	r0, .L24
 217:..\..\flexsea-system\src/flexsea_cmd_control.c **** 		{
 218:..\..\flexsea-system\src/flexsea_cmd_control.c **** 			//We received a reply to our read request
 219:..\..\flexsea-system\src/flexsea_cmd_control.c **** 
 220:..\..\flexsea-system\src/flexsea_cmd_control.c **** 			#ifdef BOARD_TYPE_FLEXSEA_EXECUTE
 221:..\..\flexsea-system\src/flexsea_cmd_control.c **** 			//No code (yet), you shouldn't be here...
 222:..\..\flexsea-system\src/flexsea_cmd_control.c **** 			flexsea_error(SE_CMD_NOT_PROGRAMMED);
 364              		.loc 1 222 0
 365 0050 4FF40070 		mov	r0, #512
 366 0054 FFF7FEFF 		bl	flexsea_error
 367              	.LVL51:
 368 0058 07E0     		b	.L21
 369              	.L24:
 223:..\..\flexsea-system\src/flexsea_cmd_control.c **** 			#endif	//BOARD_TYPE_FLEXSEA_EXECUTE
 224:..\..\flexsea-system\src/flexsea_cmd_control.c **** 
 225:..\..\flexsea-system\src/flexsea_cmd_control.c **** 			#ifdef BOARD_TYPE_FLEXSEA_MANAGE
 226:..\..\flexsea-system\src/flexsea_cmd_control.c **** 
 227:..\..\flexsea-system\src/flexsea_cmd_control.c **** 			//Store value:
 228:..\..\flexsea-system\src/flexsea_cmd_control.c **** 			exec1.current = tmp_measured_current;
 229:..\..\flexsea-system\src/flexsea_cmd_control.c **** 
 230:..\..\flexsea-system\src/flexsea_cmd_control.c **** 			#endif	//BOARD_TYPE_FLEXSEA_MANAGE
 231:..\..\flexsea-system\src/flexsea_cmd_control.c **** 
 232:..\..\flexsea-system\src/flexsea_cmd_control.c **** 			#ifdef BOARD_TYPE_FLEXSEA_PLAN
 233:..\..\flexsea-system\src/flexsea_cmd_control.c **** 
 234:..\..\flexsea-system\src/flexsea_cmd_control.c **** 			#ifdef USE_PRINTF
 235:..\..\flexsea-system\src/flexsea_cmd_control.c **** 			printf("Received CMD_CTRL_I_READ_REPLY. Wanted = %i, Measured = %i.\n", tmp_wanted_current, tmp_
 236:..\..\flexsea-system\src/flexsea_cmd_control.c **** 			#endif	//USE_PRINTF
 237:..\..\flexsea-system\src/flexsea_cmd_control.c **** 
 238:..\..\flexsea-system\src/flexsea_cmd_control.c **** 			#endif	//BOARD_TYPE_FLEXSEA_PLAN
 239:..\..\flexsea-system\src/flexsea_cmd_control.c **** 		}
 240:..\..\flexsea-system\src/flexsea_cmd_control.c **** 		else
 241:..\..\flexsea-system\src/flexsea_cmd_control.c **** 		{
 242:..\..\flexsea-system\src/flexsea_cmd_control.c **** 			//Master is writing a value to this board
 243:..\..\flexsea-system\src/flexsea_cmd_control.c **** 
 244:..\..\flexsea-system\src/flexsea_cmd_control.c **** 			#ifdef BOARD_TYPE_FLEXSEA_EXECUTE
 245:..\..\flexsea-system\src/flexsea_cmd_control.c **** 
 246:..\..\flexsea-system\src/flexsea_cmd_control.c **** 			//Only change the setpoint if we are in current control mode:
 247:..\..\flexsea-system\src/flexsea_cmd_control.c **** 			if(ctrl.active_ctrl == CTRL_CURRENT)
 370              		.loc 1 247 0
 371 005a 054B     		ldr	r3, .L26
 372 005c 1B78     		ldrb	r3, [r3]	@ zero_extendqisi2
 373 005e DBB2     		uxtb	r3, r3
 374 0060 032B     		cmp	r3, #3
 375 0062 02D1     		bne	.L21
 248:..\..\flexsea-system\src/flexsea_cmd_control.c **** 			{
 249:..\..\flexsea-system\src/flexsea_cmd_control.c **** 				ctrl.current.setpoint_val = tmp_wanted_current;
 376              		.loc 1 249 0
 377 0064 23B2     		sxth	r3, r4
ARM GAS  C:\Users\Alex\AppData\Local\Temp\cchBAlOP.s 			page 12


 378 0066 024A     		ldr	r2, .L26
 379 0068 9363     		str	r3, [r2, #56]
 380              	.LVL52:
 381              	.L21:
 250:..\..\flexsea-system\src/flexsea_cmd_control.c **** 			}
 251:..\..\flexsea-system\src/flexsea_cmd_control.c **** 
 252:..\..\flexsea-system\src/flexsea_cmd_control.c **** 			#endif	//BOARD_TYPE_FLEXSEA_EXECUTE
 253:..\..\flexsea-system\src/flexsea_cmd_control.c **** 		}
 254:..\..\flexsea-system\src/flexsea_cmd_control.c **** 	}
 255:..\..\flexsea-system\src/flexsea_cmd_control.c **** }
 382              		.loc 1 255 0
 383 006a 03B0     		add	sp, sp, #12
 384              		.cfi_def_cfa_offset 12
 385              		@ sp needed
 386 006c 30BD     		pop	{r4, r5, pc}
 387              	.L27:
 388 006e 00BF     		.align	2
 389              	.L26:
 390 0070 00000000 		.word	ctrl
 391 0074 00000000 		.word	tmp_payload_xmit
 392 0078 00000000 		.word	comm_str_1
 393              		.cfi_endproc
 394              	.LFE66:
 395              		.size	flexsea_payload_86, .-flexsea_payload_86
 396              		.section	.text.tx_cmd_ctrl_o,"ax",%progbits
 397              		.align	2
 398              		.global	tx_cmd_ctrl_o
 399              		.thumb
 400              		.thumb_func
 401              		.type	tx_cmd_ctrl_o, %function
 402              	tx_cmd_ctrl_o:
 403              	.LFB67:
 256:..\..\flexsea-system\src/flexsea_cmd_control.c **** 
 257:..\..\flexsea-system\src/flexsea_cmd_control.c **** /*
 258:..\..\flexsea-system\src/flexsea_cmd_control.c **** void test_cmd_ctrl_i(void)
 259:..\..\flexsea-system\src/flexsea_cmd_control.c **** {
 260:..\..\flexsea-system\src/flexsea_cmd_control.c **** 	//First, we generate a TX Write:
 261:..\..\flexsea-system\src/flexsea_cmd_control.c **** 	tx_cmd_ctrl_i(FLEXSEA_EXECUTE_1, CMD_WRITE, tmp_payload_xmit, PAYLOAD_BUF_LEN, -333, 666);
 262:..\..\flexsea-system\src/flexsea_cmd_control.c **** 
 263:..\..\flexsea-system\src/flexsea_cmd_control.c **** 	//Minimalist parsing:
 264:..\..\flexsea-system\src/flexsea_cmd_control.c **** 	if(CMD_7BITS(tmp_payload_xmit[CP_CMD1]) == CMD_CTRL_I)
 265:..\..\flexsea-system\src/flexsea_cmd_control.c **** 	{
 266:..\..\flexsea-system\src/flexsea_cmd_control.c **** 		//Decode it:
 267:..\..\flexsea-system\src/flexsea_cmd_control.c **** 		rx_cmd_ctrl_i(tmp_payload_xmit);
 268:..\..\flexsea-system\src/flexsea_cmd_control.c **** 	}
 269:..\..\flexsea-system\src/flexsea_cmd_control.c **** }
 270:..\..\flexsea-system\src/flexsea_cmd_control.c **** */
 271:..\..\flexsea-system\src/flexsea_cmd_control.c **** 
 272:..\..\flexsea-system\src/flexsea_cmd_control.c **** //Transmission of a CTRL_O command
 273:..\..\flexsea-system\src/flexsea_cmd_control.c **** uint32_t tx_cmd_ctrl_o(uint8_t receiver, uint8_t cmd_type, uint8_t *buf, uint32_t len, int16_t open
 274:..\..\flexsea-system\src/flexsea_cmd_control.c **** {
 404              		.loc 1 274 0
 405              		.cfi_startproc
 406              		@ args = 4, pretend = 0, frame = 8
 407              		@ frame_needed = 0, uses_anonymous_args = 0
 408              	.LVL53:
 409 0000 70B5     		push	{r4, r5, r6, lr}
ARM GAS  C:\Users\Alex\AppData\Local\Temp\cchBAlOP.s 			page 13


 410              		.cfi_def_cfa_offset 16
 411              		.cfi_offset 4, -16
 412              		.cfi_offset 5, -12
 413              		.cfi_offset 6, -8
 414              		.cfi_offset 14, -4
 415 0002 82B0     		sub	sp, sp, #8
 416              		.cfi_def_cfa_offset 24
 417 0004 0646     		mov	r6, r0
 418 0006 0D46     		mov	r5, r1
 419 0008 1446     		mov	r4, r2
 275:..\..\flexsea-system\src/flexsea_cmd_control.c **** 	uint8_t tmp0 = 0, tmp1 = 0;
 420              		.loc 1 275 0
 421 000a 0021     		movs	r1, #0
 422              	.LVL54:
 423 000c 8DF80710 		strb	r1, [sp, #7]
 424 0010 8DF80610 		strb	r1, [sp, #6]
 425              	.LVL55:
 276:..\..\flexsea-system\src/flexsea_cmd_control.c **** 	uint32_t bytes = 0;
 277:..\..\flexsea-system\src/flexsea_cmd_control.c **** 
 278:..\..\flexsea-system\src/flexsea_cmd_control.c **** 	//Fresh payload string:
 279:..\..\flexsea-system\src/flexsea_cmd_control.c **** 	prepare_empty_payload(board_id, receiver, buf, len);
 426              		.loc 1 279 0
 427 0014 1349     		ldr	r1, .L33
 428 0016 0878     		ldrb	r0, [r1]	@ zero_extendqisi2
 429              	.LVL56:
 430 0018 3146     		mov	r1, r6
 431 001a FFF7FEFF 		bl	prepare_empty_payload
 432              	.LVL57:
 280:..\..\flexsea-system\src/flexsea_cmd_control.c **** 
 281:..\..\flexsea-system\src/flexsea_cmd_control.c **** 	//Command:
 282:..\..\flexsea-system\src/flexsea_cmd_control.c **** 	buf[P_CMDS] = 1;                     //1 command in string
 433              		.loc 1 282 0
 434 001e 0123     		movs	r3, #1
 435 0020 A370     		strb	r3, [r4, #2]
 283:..\..\flexsea-system\src/flexsea_cmd_control.c **** 
 284:..\..\flexsea-system\src/flexsea_cmd_control.c **** 	if(cmd_type == CMD_READ)
 436              		.loc 1 284 0
 437 0022 9D42     		cmp	r5, r3
 438 0024 03D1     		bne	.L29
 285:..\..\flexsea-system\src/flexsea_cmd_control.c **** 	{
 286:..\..\flexsea-system\src/flexsea_cmd_control.c **** 		buf[P_CMD1] = CMD_R(CMD_CTRL_O);
 439              		.loc 1 286 0
 440 0026 AB23     		movs	r3, #171
 441 0028 E370     		strb	r3, [r4, #3]
 442              	.LVL58:
 287:..\..\flexsea-system\src/flexsea_cmd_control.c **** 
 288:..\..\flexsea-system\src/flexsea_cmd_control.c **** 		bytes = P_CMD1 + 1;     //Bytes is always last+1
 443              		.loc 1 288 0
 444 002a 0420     		movs	r0, #4
 445 002c 18E0     		b	.L30
 446              	.LVL59:
 447              	.L29:
 289:..\..\flexsea-system\src/flexsea_cmd_control.c **** 	}
 290:..\..\flexsea-system\src/flexsea_cmd_control.c **** 	else if(cmd_type == CMD_WRITE)
 448              		.loc 1 290 0
 449 002e 022D     		cmp	r5, #2
 450 0030 11D1     		bne	.L31
ARM GAS  C:\Users\Alex\AppData\Local\Temp\cchBAlOP.s 			page 14


 291:..\..\flexsea-system\src/flexsea_cmd_control.c **** 	{
 292:..\..\flexsea-system\src/flexsea_cmd_control.c **** 		buf[P_CMD1] = CMD_W(CMD_CTRL_O);
 451              		.loc 1 292 0
 452 0032 AA23     		movs	r3, #170
 453 0034 E370     		strb	r3, [r4, #3]
 293:..\..\flexsea-system\src/flexsea_cmd_control.c **** 
 294:..\..\flexsea-system\src/flexsea_cmd_control.c **** 		//Arguments:
 295:..\..\flexsea-system\src/flexsea_cmd_control.c **** 		uint16_to_bytes(open_spd, &tmp0, &tmp1);
 454              		.loc 1 295 0
 455 0036 BDF91800 		ldrsh	r0, [sp, #24]
 456 003a 0DF10701 		add	r1, sp, #7
 457 003e 0DF10602 		add	r2, sp, #6
 458 0042 FFF7FEFF 		bl	uint16_to_bytes
 459              	.LVL60:
 296:..\..\flexsea-system\src/flexsea_cmd_control.c **** 		buf[P_DATA1] = tmp0;
 460              		.loc 1 296 0
 461 0046 9DF80730 		ldrb	r3, [sp, #7]	@ zero_extendqisi2
 462 004a 2371     		strb	r3, [r4, #4]
 297:..\..\flexsea-system\src/flexsea_cmd_control.c **** 		buf[P_DATA1 + 1] = tmp1;
 463              		.loc 1 297 0
 464 004c 9DF80630 		ldrb	r3, [sp, #6]	@ zero_extendqisi2
 465 0050 6371     		strb	r3, [r4, #5]
 466              	.LVL61:
 298:..\..\flexsea-system\src/flexsea_cmd_control.c **** 
 299:..\..\flexsea-system\src/flexsea_cmd_control.c **** 		bytes = P_DATA1 + 2;     //Bytes is always last+1
 467              		.loc 1 299 0
 468 0052 0620     		movs	r0, #6
 469 0054 04E0     		b	.L30
 470              	.LVL62:
 471              	.L31:
 300:..\..\flexsea-system\src/flexsea_cmd_control.c **** 	}
 301:..\..\flexsea-system\src/flexsea_cmd_control.c **** 	else
 302:..\..\flexsea-system\src/flexsea_cmd_control.c **** 	{
 303:..\..\flexsea-system\src/flexsea_cmd_control.c **** 		//Invalid
 304:..\..\flexsea-system\src/flexsea_cmd_control.c **** 		flexsea_error(SE_INVALID_READ_TYPE);
 472              		.loc 1 304 0
 473 0056 4FF48060 		mov	r0, #1024
 474 005a FFF7FEFF 		bl	flexsea_error
 475              	.LVL63:
 305:..\..\flexsea-system\src/flexsea_cmd_control.c **** 		bytes = 0;
 476              		.loc 1 305 0
 477 005e 0020     		movs	r0, #0
 478              	.LVL64:
 479              	.L30:
 306:..\..\flexsea-system\src/flexsea_cmd_control.c **** 	}
 307:..\..\flexsea-system\src/flexsea_cmd_control.c **** 
 308:..\..\flexsea-system\src/flexsea_cmd_control.c **** 	return bytes;
 309:..\..\flexsea-system\src/flexsea_cmd_control.c **** }
 480              		.loc 1 309 0
 481 0060 02B0     		add	sp, sp, #8
 482              		.cfi_def_cfa_offset 16
 483              		@ sp needed
 484 0062 70BD     		pop	{r4, r5, r6, pc}
 485              	.LVL65:
 486              	.L34:
 487              		.align	2
 488              	.L33:
ARM GAS  C:\Users\Alex\AppData\Local\Temp\cchBAlOP.s 			page 15


 489 0064 00000000 		.word	board_id
 490              		.cfi_endproc
 491              	.LFE67:
 492              		.size	tx_cmd_ctrl_o, .-tx_cmd_ctrl_o
 493              		.section	.text.flexsea_payload_85,"ax",%progbits
 494              		.align	2
 495              		.weak	flexsea_payload_85
 496              		.thumb
 497              		.thumb_func
 498              		.type	flexsea_payload_85, %function
 499              	flexsea_payload_85:
 500              	.LFB68:
 310:..\..\flexsea-system\src/flexsea_cmd_control.c **** 
 311:..\..\flexsea-system\src/flexsea_cmd_control.c **** //Reception of a CTRL_O command
 312:..\..\flexsea-system\src/flexsea_cmd_control.c **** void rx_cmd_ctrl_o(uint8_t *buf)
 313:..\..\flexsea-system\src/flexsea_cmd_control.c **** {
 501              		.loc 1 313 0
 502              		.cfi_startproc
 503              		@ args = 0, pretend = 0, frame = 0
 504              		@ frame_needed = 0, uses_anonymous_args = 0
 505              	.LVL66:
 506 0000 30B5     		push	{r4, r5, lr}
 507              		.cfi_def_cfa_offset 12
 508              		.cfi_offset 4, -12
 509              		.cfi_offset 5, -8
 510              		.cfi_offset 14, -4
 511 0002 83B0     		sub	sp, sp, #12
 512              		.cfi_def_cfa_offset 24
 513              	.LVL67:
 314:..\..\flexsea-system\src/flexsea_cmd_control.c **** 	uint32_t numb = 0;
 315:..\..\flexsea-system\src/flexsea_cmd_control.c **** 	int16_t tmp_open_spd = 0;
 316:..\..\flexsea-system\src/flexsea_cmd_control.c **** 
 317:..\..\flexsea-system\src/flexsea_cmd_control.c **** 	if(IS_CMD_RW(buf[P_CMD1]) == READ)
 514              		.loc 1 317 0
 515 0004 C378     		ldrb	r3, [r0, #3]	@ zero_extendqisi2
 516 0006 13F00103 		ands	r3, r3, #1
 517 000a 14D0     		beq	.L36
 318:..\..\flexsea-system\src/flexsea_cmd_control.c **** 	{
 319:..\..\flexsea-system\src/flexsea_cmd_control.c **** 		//Received a Read command from our master, prepare a reply:
 320:..\..\flexsea-system\src/flexsea_cmd_control.c **** 
 321:..\..\flexsea-system\src/flexsea_cmd_control.c **** 		#ifdef BOARD_TYPE_FLEXSEA_EXECUTE
 322:..\..\flexsea-system\src/flexsea_cmd_control.c **** 
 323:..\..\flexsea-system\src/flexsea_cmd_control.c **** 		//Generate the reply:
 324:..\..\flexsea-system\src/flexsea_cmd_control.c **** 		numb = tx_cmd_ctrl_o(buf[P_XID], CMD_WRITE, tmp_payload_xmit, PAYLOAD_BUF_LEN, \
 518              		.loc 1 324 0
 519 000c 0078     		ldrb	r0, [r0]	@ zero_extendqisi2
 520              	.LVL68:
 325:..\..\flexsea-system\src/flexsea_cmd_control.c **** 			ctrl.pwm);
 521              		.loc 1 325 0
 522 000e 134B     		ldr	r3, .L39
 523 0010 5B78     		ldrb	r3, [r3, #1]	@ zero_extendqisi2
 324:..\..\flexsea-system\src/flexsea_cmd_control.c **** 			ctrl.pwm);
 524              		.loc 1 324 0
 525 0012 134D     		ldr	r5, .L39+4
 526 0014 0093     		str	r3, [sp]
 527 0016 0221     		movs	r1, #2
 528 0018 2A46     		mov	r2, r5
ARM GAS  C:\Users\Alex\AppData\Local\Temp\cchBAlOP.s 			page 16


 529 001a 2423     		movs	r3, #36
 530 001c FFF7FEFF 		bl	tx_cmd_ctrl_o
 531              	.LVL69:
 326:..\..\flexsea-system\src/flexsea_cmd_control.c **** 		numb = comm_gen_str(tmp_payload_xmit, comm_str_485, numb);
 532              		.loc 1 326 0
 533 0020 104C     		ldr	r4, .L39+8
 534 0022 C2B2     		uxtb	r2, r0
 535 0024 2846     		mov	r0, r5
 536              	.LVL70:
 537 0026 2146     		mov	r1, r4
 538 0028 FFF7FEFF 		bl	comm_gen_str
 539              	.LVL71:
 540 002c 0146     		mov	r1, r0
 541              	.LVL72:
 327:..\..\flexsea-system\src/flexsea_cmd_control.c **** 
 328:..\..\flexsea-system\src/flexsea_cmd_control.c **** 		//Notify the code that a buffer is ready to be transmitted:
 329:..\..\flexsea-system\src/flexsea_cmd_control.c **** 		//xmit_flag_1 = 1;
 330:..\..\flexsea-system\src/flexsea_cmd_control.c **** 		
 331:..\..\flexsea-system\src/flexsea_cmd_control.c **** 		//(for now, send it)
 332:..\..\flexsea-system\src/flexsea_cmd_control.c **** 		rs485_puts(comm_str_485, numb);
 542              		.loc 1 332 0
 543 002e 2046     		mov	r0, r4
 544              	.LVL73:
 545 0030 FFF7FEFF 		bl	rs485_puts
 546              	.LVL74:
 547 0034 10E0     		b	.L35
 548              	.LVL75:
 549              	.L36:
 333:..\..\flexsea-system\src/flexsea_cmd_control.c **** 
 334:..\..\flexsea-system\src/flexsea_cmd_control.c **** 		#endif	//BOARD_TYPE_FLEXSEA_EXECUTE
 335:..\..\flexsea-system\src/flexsea_cmd_control.c **** 	}
 336:..\..\flexsea-system\src/flexsea_cmd_control.c **** 	else if(IS_CMD_RW(buf[P_CMD1]) == WRITE)
 550              		.loc 1 336 0
 551 0036 7BB9     		cbnz	r3, .L35
 337:..\..\flexsea-system\src/flexsea_cmd_control.c **** 	{
 338:..\..\flexsea-system\src/flexsea_cmd_control.c **** 		//Two options: from Master of from slave (a read reply)
 339:..\..\flexsea-system\src/flexsea_cmd_control.c **** 
 340:..\..\flexsea-system\src/flexsea_cmd_control.c **** 		//Decode data:
 341:..\..\flexsea-system\src/flexsea_cmd_control.c **** 		tmp_open_spd = (int16_t) (BYTES_TO_UINT16(buf[P_DATA1], buf[P_DATA1+1]));
 552              		.loc 1 341 0
 553 0038 0279     		ldrb	r2, [r0, #4]	@ zero_extendqisi2
 554 003a 4379     		ldrb	r3, [r0, #5]	@ zero_extendqisi2
 555 003c 03EB0223 		add	r3, r3, r2, lsl #8
 556 0040 9CB2     		uxth	r4, r3
 557              	.LVL76:
 342:..\..\flexsea-system\src/flexsea_cmd_control.c **** 		//ToDo store that value somewhere useful
 343:..\..\flexsea-system\src/flexsea_cmd_control.c **** 
 344:..\..\flexsea-system\src/flexsea_cmd_control.c **** 		if(sent_from_a_slave(buf))
 558              		.loc 1 344 0
 559 0042 FFF7FEFF 		bl	sent_from_a_slave
 560              	.LVL77:
 561 0046 38B9     		cbnz	r0, .L35
 345:..\..\flexsea-system\src/flexsea_cmd_control.c **** 		{
 346:..\..\flexsea-system\src/flexsea_cmd_control.c **** 			//We received a reply to our read request
 347:..\..\flexsea-system\src/flexsea_cmd_control.c **** 
 348:..\..\flexsea-system\src/flexsea_cmd_control.c **** 			#ifdef BOARD_TYPE_FLEXSEA_MANAGE
 349:..\..\flexsea-system\src/flexsea_cmd_control.c **** 
ARM GAS  C:\Users\Alex\AppData\Local\Temp\cchBAlOP.s 			page 17


 350:..\..\flexsea-system\src/flexsea_cmd_control.c **** 			//Store value:
 351:..\..\flexsea-system\src/flexsea_cmd_control.c **** 			exec1.ctrl.pwm = tmp_open_spd;
 352:..\..\flexsea-system\src/flexsea_cmd_control.c **** 
 353:..\..\flexsea-system\src/flexsea_cmd_control.c **** 			#endif	//BOARD_TYPE_FLEXSEA_MANAGE
 354:..\..\flexsea-system\src/flexsea_cmd_control.c **** 
 355:..\..\flexsea-system\src/flexsea_cmd_control.c **** 			#ifdef BOARD_TYPE_FLEXSEA_PLAN
 356:..\..\flexsea-system\src/flexsea_cmd_control.c **** 
 357:..\..\flexsea-system\src/flexsea_cmd_control.c **** 			#ifdef USE_PRINTF
 358:..\..\flexsea-system\src/flexsea_cmd_control.c **** 			printf("Received CMD_CTRL_O. PWM DC = %i.\n", tmp_open_spd);
 359:..\..\flexsea-system\src/flexsea_cmd_control.c **** 			#endif	//USE_PRINTF
 360:..\..\flexsea-system\src/flexsea_cmd_control.c **** 
 361:..\..\flexsea-system\src/flexsea_cmd_control.c **** 			#endif	//BOARD_TYPE_FLEXSEA_PLAN
 362:..\..\flexsea-system\src/flexsea_cmd_control.c **** 		}
 363:..\..\flexsea-system\src/flexsea_cmd_control.c **** 		else
 364:..\..\flexsea-system\src/flexsea_cmd_control.c **** 		{
 365:..\..\flexsea-system\src/flexsea_cmd_control.c **** 			//Master is writing a value to this board
 366:..\..\flexsea-system\src/flexsea_cmd_control.c **** 
 367:..\..\flexsea-system\src/flexsea_cmd_control.c **** 			#ifdef BOARD_TYPE_FLEXSEA_EXECUTE
 368:..\..\flexsea-system\src/flexsea_cmd_control.c **** 
 369:..\..\flexsea-system\src/flexsea_cmd_control.c **** 			if(ctrl.active_ctrl == CTRL_OPEN)
 562              		.loc 1 369 0
 563 0048 044B     		ldr	r3, .L39
 564 004a 1B78     		ldrb	r3, [r3]	@ zero_extendqisi2
 565 004c DBB2     		uxtb	r3, r3
 566 004e 012B     		cmp	r3, #1
 567 0050 02D1     		bne	.L35
 370:..\..\flexsea-system\src/flexsea_cmd_control.c **** 			{
 371:..\..\flexsea-system\src/flexsea_cmd_control.c **** 				motor_open_speed_1(tmp_open_spd);
 568              		.loc 1 371 0
 569 0052 20B2     		sxth	r0, r4
 570 0054 FFF7FEFF 		bl	motor_open_speed_1
 571              	.LVL78:
 572              	.L35:
 372:..\..\flexsea-system\src/flexsea_cmd_control.c **** 			}
 373:..\..\flexsea-system\src/flexsea_cmd_control.c **** 
 374:..\..\flexsea-system\src/flexsea_cmd_control.c **** 			#endif	//BOARD_TYPE_FLEXSEA_EXECUTE
 375:..\..\flexsea-system\src/flexsea_cmd_control.c **** 		}
 376:..\..\flexsea-system\src/flexsea_cmd_control.c **** 	}
 377:..\..\flexsea-system\src/flexsea_cmd_control.c **** }
 573              		.loc 1 377 0
 574 0058 03B0     		add	sp, sp, #12
 575              		.cfi_def_cfa_offset 12
 576              		@ sp needed
 577 005a 30BD     		pop	{r4, r5, pc}
 578              	.L40:
 579              		.align	2
 580              	.L39:
 581 005c 00000000 		.word	ctrl
 582 0060 00000000 		.word	tmp_payload_xmit
 583 0064 00000000 		.word	comm_str_1
 584              		.cfi_endproc
 585              	.LFE68:
 586              		.size	flexsea_payload_85, .-flexsea_payload_85
 587              		.section	.text.tx_cmd_ctrl_p,"ax",%progbits
 588              		.align	2
 589              		.global	tx_cmd_ctrl_p
 590              		.thumb
ARM GAS  C:\Users\Alex\AppData\Local\Temp\cchBAlOP.s 			page 18


 591              		.thumb_func
 592              		.type	tx_cmd_ctrl_p, %function
 593              	tx_cmd_ctrl_p:
 594              	.LFB69:
 378:..\..\flexsea-system\src/flexsea_cmd_control.c **** 
 379:..\..\flexsea-system\src/flexsea_cmd_control.c **** //Transmission of a CTRL_P command
 380:..\..\flexsea-system\src/flexsea_cmd_control.c **** uint32_t tx_cmd_ctrl_p(uint8_t receiver, uint8_t cmd_type, uint8_t *buf, uint32_t len, \
 381:..\..\flexsea-system\src/flexsea_cmd_control.c **** 						int32_t pos, int32_t posi, int32_t posf, int32_t spdm, int32_t acc)
 382:..\..\flexsea-system\src/flexsea_cmd_control.c **** {
 595              		.loc 1 382 0
 596              		.cfi_startproc
 597              		@ args = 20, pretend = 0, frame = 8
 598              		@ frame_needed = 0, uses_anonymous_args = 0
 599              	.LVL79:
 600 0000 70B5     		push	{r4, r5, r6, lr}
 601              		.cfi_def_cfa_offset 16
 602              		.cfi_offset 4, -16
 603              		.cfi_offset 5, -12
 604              		.cfi_offset 6, -8
 605              		.cfi_offset 14, -4
 606 0002 84B0     		sub	sp, sp, #16
 607              		.cfi_def_cfa_offset 32
 608 0004 0646     		mov	r6, r0
 609 0006 0D46     		mov	r5, r1
 610 0008 1446     		mov	r4, r2
 383:..\..\flexsea-system\src/flexsea_cmd_control.c **** 	uint8_t tmp0 = 0, tmp1 = 0, tmp2 = 0, tmp3 = 0;
 611              		.loc 1 383 0
 612 000a 0021     		movs	r1, #0
 613              	.LVL80:
 614 000c 8DF80F10 		strb	r1, [sp, #15]
 615 0010 8DF80E10 		strb	r1, [sp, #14]
 616 0014 8DF80D10 		strb	r1, [sp, #13]
 617 0018 8DF80C10 		strb	r1, [sp, #12]
 618              	.LVL81:
 384:..\..\flexsea-system\src/flexsea_cmd_control.c **** 	uint32_t bytes = 0;
 385:..\..\flexsea-system\src/flexsea_cmd_control.c **** 
 386:..\..\flexsea-system\src/flexsea_cmd_control.c **** 	//Fresh payload string:
 387:..\..\flexsea-system\src/flexsea_cmd_control.c **** 	prepare_empty_payload(board_id, receiver, buf, len);
 619              		.loc 1 387 0
 620 001c 4449     		ldr	r1, .L46
 621 001e 0878     		ldrb	r0, [r1]	@ zero_extendqisi2
 622              	.LVL82:
 623 0020 3146     		mov	r1, r6
 624 0022 FFF7FEFF 		bl	prepare_empty_payload
 625              	.LVL83:
 388:..\..\flexsea-system\src/flexsea_cmd_control.c **** 
 389:..\..\flexsea-system\src/flexsea_cmd_control.c **** 	//Command:
 390:..\..\flexsea-system\src/flexsea_cmd_control.c **** 	buf[P_CMDS] = 1;                     //1 command in string
 626              		.loc 1 390 0
 627 0026 0123     		movs	r3, #1
 628 0028 A370     		strb	r3, [r4, #2]
 391:..\..\flexsea-system\src/flexsea_cmd_control.c **** 
 392:..\..\flexsea-system\src/flexsea_cmd_control.c **** 	if(cmd_type == CMD_READ)
 629              		.loc 1 392 0
 630 002a 9D42     		cmp	r5, r3
 631 002c 03D1     		bne	.L42
 393:..\..\flexsea-system\src/flexsea_cmd_control.c **** 	{
ARM GAS  C:\Users\Alex\AppData\Local\Temp\cchBAlOP.s 			page 19


 394:..\..\flexsea-system\src/flexsea_cmd_control.c **** 		buf[P_CMD1] = CMD_R(CMD_CTRL_P);
 632              		.loc 1 394 0
 633 002e AF23     		movs	r3, #175
 634 0030 E370     		strb	r3, [r4, #3]
 635              	.LVL84:
 395:..\..\flexsea-system\src/flexsea_cmd_control.c **** 
 396:..\..\flexsea-system\src/flexsea_cmd_control.c **** 		bytes = P_CMD1 + 1;     //Bytes is always last+1
 636              		.loc 1 396 0
 637 0032 0420     		movs	r0, #4
 638 0034 79E0     		b	.L43
 639              	.LVL85:
 640              	.L42:
 397:..\..\flexsea-system\src/flexsea_cmd_control.c **** 	}
 398:..\..\flexsea-system\src/flexsea_cmd_control.c **** 	else if(cmd_type == CMD_WRITE)
 641              		.loc 1 398 0
 642 0036 022D     		cmp	r5, #2
 643 0038 72D1     		bne	.L44
 399:..\..\flexsea-system\src/flexsea_cmd_control.c **** 	{
 400:..\..\flexsea-system\src/flexsea_cmd_control.c **** 		buf[P_CMD1] = CMD_W(CMD_CTRL_P);
 644              		.loc 1 400 0
 645 003a AE23     		movs	r3, #174
 646 003c E370     		strb	r3, [r4, #3]
 401:..\..\flexsea-system\src/flexsea_cmd_control.c **** 
 402:..\..\flexsea-system\src/flexsea_cmd_control.c **** 		//Arguments:
 403:..\..\flexsea-system\src/flexsea_cmd_control.c **** 		uint32_to_bytes((uint32_t)pos, &tmp0, &tmp1, &tmp2, &tmp3);
 647              		.loc 1 403 0
 648 003e 03AD     		add	r5, sp, #12
 649 0040 0095     		str	r5, [sp]
 650 0042 0898     		ldr	r0, [sp, #32]
 651 0044 0DF10F01 		add	r1, sp, #15
 652 0048 0DF10E02 		add	r2, sp, #14
 653 004c 0DF10D03 		add	r3, sp, #13
 654 0050 FFF7FEFF 		bl	uint32_to_bytes
 655              	.LVL86:
 404:..\..\flexsea-system\src/flexsea_cmd_control.c **** 		buf[P_DATA1 + 0] = tmp0;
 656              		.loc 1 404 0
 657 0054 9DF80F30 		ldrb	r3, [sp, #15]	@ zero_extendqisi2
 658 0058 2371     		strb	r3, [r4, #4]
 405:..\..\flexsea-system\src/flexsea_cmd_control.c **** 		buf[P_DATA1 + 1] = tmp1;
 659              		.loc 1 405 0
 660 005a 9DF80E30 		ldrb	r3, [sp, #14]	@ zero_extendqisi2
 661 005e 6371     		strb	r3, [r4, #5]
 406:..\..\flexsea-system\src/flexsea_cmd_control.c **** 		buf[P_DATA1 + 2] = tmp2;
 662              		.loc 1 406 0
 663 0060 9DF80D30 		ldrb	r3, [sp, #13]	@ zero_extendqisi2
 664 0064 A371     		strb	r3, [r4, #6]
 407:..\..\flexsea-system\src/flexsea_cmd_control.c **** 		buf[P_DATA1 + 3] = tmp3;
 665              		.loc 1 407 0
 666 0066 9DF80C30 		ldrb	r3, [sp, #12]	@ zero_extendqisi2
 667 006a E371     		strb	r3, [r4, #7]
 408:..\..\flexsea-system\src/flexsea_cmd_control.c **** 		uint32_to_bytes((uint32_t)posi, &tmp0, &tmp1, &tmp2, &tmp3);
 668              		.loc 1 408 0
 669 006c 0095     		str	r5, [sp]
 670 006e 0998     		ldr	r0, [sp, #36]
 671 0070 0DF10F01 		add	r1, sp, #15
 672 0074 0DF10E02 		add	r2, sp, #14
 673 0078 0DF10D03 		add	r3, sp, #13
ARM GAS  C:\Users\Alex\AppData\Local\Temp\cchBAlOP.s 			page 20


 674 007c FFF7FEFF 		bl	uint32_to_bytes
 675              	.LVL87:
 409:..\..\flexsea-system\src/flexsea_cmd_control.c **** 		buf[P_DATA1 + 4] = tmp0;
 676              		.loc 1 409 0
 677 0080 9DF80F30 		ldrb	r3, [sp, #15]	@ zero_extendqisi2
 678 0084 2372     		strb	r3, [r4, #8]
 410:..\..\flexsea-system\src/flexsea_cmd_control.c **** 		buf[P_DATA1 + 5] = tmp1;
 679              		.loc 1 410 0
 680 0086 9DF80E30 		ldrb	r3, [sp, #14]	@ zero_extendqisi2
 681 008a 6372     		strb	r3, [r4, #9]
 411:..\..\flexsea-system\src/flexsea_cmd_control.c **** 		buf[P_DATA1 + 6] = tmp2;
 682              		.loc 1 411 0
 683 008c 9DF80D30 		ldrb	r3, [sp, #13]	@ zero_extendqisi2
 684 0090 A372     		strb	r3, [r4, #10]
 412:..\..\flexsea-system\src/flexsea_cmd_control.c **** 		buf[P_DATA1 + 7] = tmp3;
 685              		.loc 1 412 0
 686 0092 9DF80C30 		ldrb	r3, [sp, #12]	@ zero_extendqisi2
 687 0096 E372     		strb	r3, [r4, #11]
 413:..\..\flexsea-system\src/flexsea_cmd_control.c **** 		uint32_to_bytes((uint32_t)posf, &tmp0, &tmp1, &tmp2, &tmp3);
 688              		.loc 1 413 0
 689 0098 0095     		str	r5, [sp]
 690 009a 0A98     		ldr	r0, [sp, #40]
 691 009c 0DF10F01 		add	r1, sp, #15
 692 00a0 0DF10E02 		add	r2, sp, #14
 693 00a4 0DF10D03 		add	r3, sp, #13
 694 00a8 FFF7FEFF 		bl	uint32_to_bytes
 695              	.LVL88:
 414:..\..\flexsea-system\src/flexsea_cmd_control.c **** 		buf[P_DATA1 + 8] = tmp0;
 696              		.loc 1 414 0
 697 00ac 9DF80F30 		ldrb	r3, [sp, #15]	@ zero_extendqisi2
 698 00b0 2373     		strb	r3, [r4, #12]
 415:..\..\flexsea-system\src/flexsea_cmd_control.c **** 		buf[P_DATA1 + 9] = tmp1;
 699              		.loc 1 415 0
 700 00b2 9DF80E30 		ldrb	r3, [sp, #14]	@ zero_extendqisi2
 701 00b6 6373     		strb	r3, [r4, #13]
 416:..\..\flexsea-system\src/flexsea_cmd_control.c **** 		buf[P_DATA1 + 10] = tmp2;
 702              		.loc 1 416 0
 703 00b8 9DF80D30 		ldrb	r3, [sp, #13]	@ zero_extendqisi2
 704 00bc A373     		strb	r3, [r4, #14]
 417:..\..\flexsea-system\src/flexsea_cmd_control.c **** 		buf[P_DATA1 + 11] = tmp3;
 705              		.loc 1 417 0
 706 00be 9DF80C30 		ldrb	r3, [sp, #12]	@ zero_extendqisi2
 707 00c2 E373     		strb	r3, [r4, #15]
 418:..\..\flexsea-system\src/flexsea_cmd_control.c **** 		uint32_to_bytes((uint32_t)spdm, &tmp0, &tmp1, &tmp2, &tmp3);
 708              		.loc 1 418 0
 709 00c4 0095     		str	r5, [sp]
 710 00c6 0B98     		ldr	r0, [sp, #44]
 711 00c8 0DF10F01 		add	r1, sp, #15
 712 00cc 0DF10E02 		add	r2, sp, #14
 713 00d0 0DF10D03 		add	r3, sp, #13
 714 00d4 FFF7FEFF 		bl	uint32_to_bytes
 715              	.LVL89:
 419:..\..\flexsea-system\src/flexsea_cmd_control.c **** 		buf[P_DATA1 + 12] = tmp0;
 716              		.loc 1 419 0
 717 00d8 9DF80F30 		ldrb	r3, [sp, #15]	@ zero_extendqisi2
 718 00dc 2374     		strb	r3, [r4, #16]
 420:..\..\flexsea-system\src/flexsea_cmd_control.c **** 		buf[P_DATA1 + 13] = tmp1;
ARM GAS  C:\Users\Alex\AppData\Local\Temp\cchBAlOP.s 			page 21


 719              		.loc 1 420 0
 720 00de 9DF80E30 		ldrb	r3, [sp, #14]	@ zero_extendqisi2
 721 00e2 6374     		strb	r3, [r4, #17]
 421:..\..\flexsea-system\src/flexsea_cmd_control.c **** 		buf[P_DATA1 + 14] = tmp2;
 722              		.loc 1 421 0
 723 00e4 9DF80D30 		ldrb	r3, [sp, #13]	@ zero_extendqisi2
 724 00e8 A374     		strb	r3, [r4, #18]
 422:..\..\flexsea-system\src/flexsea_cmd_control.c **** 		buf[P_DATA1 + 15] = tmp3;
 725              		.loc 1 422 0
 726 00ea 9DF80C30 		ldrb	r3, [sp, #12]	@ zero_extendqisi2
 727 00ee E374     		strb	r3, [r4, #19]
 423:..\..\flexsea-system\src/flexsea_cmd_control.c **** 		uint32_to_bytes((uint32_t)acc, &tmp0, &tmp1, &tmp2, &tmp3);
 728              		.loc 1 423 0
 729 00f0 0095     		str	r5, [sp]
 730 00f2 0C98     		ldr	r0, [sp, #48]
 731 00f4 0DF10F01 		add	r1, sp, #15
 732 00f8 0DF10E02 		add	r2, sp, #14
 733 00fc 0DF10D03 		add	r3, sp, #13
 734 0100 FFF7FEFF 		bl	uint32_to_bytes
 735              	.LVL90:
 424:..\..\flexsea-system\src/flexsea_cmd_control.c **** 		buf[P_DATA1 + 16] = tmp0;
 736              		.loc 1 424 0
 737 0104 9DF80F30 		ldrb	r3, [sp, #15]	@ zero_extendqisi2
 738 0108 2375     		strb	r3, [r4, #20]
 425:..\..\flexsea-system\src/flexsea_cmd_control.c **** 		buf[P_DATA1 + 17] = tmp1;
 739              		.loc 1 425 0
 740 010a 9DF80E30 		ldrb	r3, [sp, #14]	@ zero_extendqisi2
 741 010e 6375     		strb	r3, [r4, #21]
 426:..\..\flexsea-system\src/flexsea_cmd_control.c **** 		buf[P_DATA1 + 18] = tmp2;
 742              		.loc 1 426 0
 743 0110 9DF80D30 		ldrb	r3, [sp, #13]	@ zero_extendqisi2
 744 0114 A375     		strb	r3, [r4, #22]
 427:..\..\flexsea-system\src/flexsea_cmd_control.c **** 		buf[P_DATA1 + 19] = tmp3;
 745              		.loc 1 427 0
 746 0116 9DF80C30 		ldrb	r3, [sp, #12]	@ zero_extendqisi2
 747 011a E375     		strb	r3, [r4, #23]
 748              	.LVL91:
 428:..\..\flexsea-system\src/flexsea_cmd_control.c **** 
 429:..\..\flexsea-system\src/flexsea_cmd_control.c **** 		bytes = P_DATA1 + 20;     //Bytes is always last+1
 749              		.loc 1 429 0
 750 011c 1820     		movs	r0, #24
 751 011e 04E0     		b	.L43
 752              	.LVL92:
 753              	.L44:
 430:..\..\flexsea-system\src/flexsea_cmd_control.c **** 	}
 431:..\..\flexsea-system\src/flexsea_cmd_control.c **** 	else
 432:..\..\flexsea-system\src/flexsea_cmd_control.c **** 	{
 433:..\..\flexsea-system\src/flexsea_cmd_control.c **** 		//Invalid
 434:..\..\flexsea-system\src/flexsea_cmd_control.c **** 		flexsea_error(SE_INVALID_READ_TYPE);
 754              		.loc 1 434 0
 755 0120 4FF48060 		mov	r0, #1024
 756 0124 FFF7FEFF 		bl	flexsea_error
 757              	.LVL93:
 435:..\..\flexsea-system\src/flexsea_cmd_control.c **** 		bytes = 0;
 758              		.loc 1 435 0
 759 0128 0020     		movs	r0, #0
 760              	.LVL94:
ARM GAS  C:\Users\Alex\AppData\Local\Temp\cchBAlOP.s 			page 22


 761              	.L43:
 436:..\..\flexsea-system\src/flexsea_cmd_control.c **** 	}
 437:..\..\flexsea-system\src/flexsea_cmd_control.c **** 
 438:..\..\flexsea-system\src/flexsea_cmd_control.c **** 	return bytes;
 439:..\..\flexsea-system\src/flexsea_cmd_control.c **** }
 762              		.loc 1 439 0
 763 012a 04B0     		add	sp, sp, #16
 764              		.cfi_def_cfa_offset 16
 765              		@ sp needed
 766 012c 70BD     		pop	{r4, r5, r6, pc}
 767              	.LVL95:
 768              	.L47:
 769 012e 00BF     		.align	2
 770              	.L46:
 771 0130 00000000 		.word	board_id
 772              		.cfi_endproc
 773              	.LFE69:
 774              		.size	tx_cmd_ctrl_p, .-tx_cmd_ctrl_p
 775              		.section	.text.flexsea_payload_87,"ax",%progbits
 776              		.align	2
 777              		.weak	flexsea_payload_87
 778              		.thumb
 779              		.thumb_func
 780              		.type	flexsea_payload_87, %function
 781              	flexsea_payload_87:
 782              	.LFB70:
 440:..\..\flexsea-system\src/flexsea_cmd_control.c **** 
 441:..\..\flexsea-system\src/flexsea_cmd_control.c **** //Reception of a CTRL_P command
 442:..\..\flexsea-system\src/flexsea_cmd_control.c **** void rx_cmd_ctrl_p(uint8_t *buf)
 443:..\..\flexsea-system\src/flexsea_cmd_control.c **** {
 783              		.loc 1 443 0
 784              		.cfi_startproc
 785              		@ args = 0, pretend = 0, frame = 0
 786              		@ frame_needed = 0, uses_anonymous_args = 0
 787              	.LVL96:
 788 0000 2DE9F04F 		push	{r4, r5, r6, r7, r8, r9, r10, fp, lr}
 789              		.cfi_def_cfa_offset 36
 790              		.cfi_offset 4, -36
 791              		.cfi_offset 5, -32
 792              		.cfi_offset 6, -28
 793              		.cfi_offset 7, -24
 794              		.cfi_offset 8, -20
 795              		.cfi_offset 9, -16
 796              		.cfi_offset 10, -12
 797              		.cfi_offset 11, -8
 798              		.cfi_offset 14, -4
 799 0004 87B0     		sub	sp, sp, #28
 800              		.cfi_def_cfa_offset 64
 801              	.LVL97:
 444:..\..\flexsea-system\src/flexsea_cmd_control.c **** 	uint32_t numb = 0;
 445:..\..\flexsea-system\src/flexsea_cmd_control.c **** 	int32_t tmp_pos = 0, tmp_posi = 0, tmp_posf = 0, tmp_spdm = 0, tmp_acc = 0;
 446:..\..\flexsea-system\src/flexsea_cmd_control.c **** 	int16_t tmp_z_k = 0, tmp_z_b = 0, tmp_z_i = 0;
 447:..\..\flexsea-system\src/flexsea_cmd_control.c **** 
 448:..\..\flexsea-system\src/flexsea_cmd_control.c **** 	if(IS_CMD_RW(buf[P_CMD1]) == READ)
 802              		.loc 1 448 0
 803 0006 C378     		ldrb	r3, [r0, #3]	@ zero_extendqisi2
 804 0008 13F00103 		ands	r3, r3, #1
ARM GAS  C:\Users\Alex\AppData\Local\Temp\cchBAlOP.s 			page 23


 805 000c 1CD0     		beq	.L49
 449:..\..\flexsea-system\src/flexsea_cmd_control.c **** 	{
 450:..\..\flexsea-system\src/flexsea_cmd_control.c **** 		//Received a Read command from our master, prepare a reply:
 451:..\..\flexsea-system\src/flexsea_cmd_control.c **** 
 452:..\..\flexsea-system\src/flexsea_cmd_control.c **** 		#ifdef BOARD_TYPE_FLEXSEA_EXECUTE
 453:..\..\flexsea-system\src/flexsea_cmd_control.c **** 
 454:..\..\flexsea-system\src/flexsea_cmd_control.c **** 		//Generate the reply:
 455:..\..\flexsea-system\src/flexsea_cmd_control.c **** 		numb = tx_cmd_ctrl_p(buf[P_XID], CMD_WRITE, tmp_payload_xmit, PAYLOAD_BUF_LEN, \
 806              		.loc 1 455 0
 807 000e 0078     		ldrb	r0, [r0]	@ zero_extendqisi2
 808              	.LVL98:
 809 0010 4D4B     		ldr	r3, .L54
 810 0012 9E6D     		ldr	r6, [r3, #88]
 811 0014 1C6E     		ldr	r4, [r3, #96]
 812 0016 596E     		ldr	r1, [r3, #100]
 813 0018 9A6E     		ldr	r2, [r3, #104]
 814 001a DB6E     		ldr	r3, [r3, #108]
 815 001c 4B4D     		ldr	r5, .L54+4
 816 001e 0096     		str	r6, [sp]
 817 0020 0194     		str	r4, [sp, #4]
 818 0022 0291     		str	r1, [sp, #8]
 819 0024 0392     		str	r2, [sp, #12]
 820 0026 0493     		str	r3, [sp, #16]
 821 0028 0221     		movs	r1, #2
 822 002a 2A46     		mov	r2, r5
 823 002c 2423     		movs	r3, #36
 824 002e FFF7FEFF 		bl	tx_cmd_ctrl_p
 825              	.LVL99:
 456:..\..\flexsea-system\src/flexsea_cmd_control.c **** 			ctrl.position.pos, ctrl.position.posi, ctrl.position.posf, ctrl.position.spdm, ctrl.position.acc
 457:..\..\flexsea-system\src/flexsea_cmd_control.c **** 		numb = comm_gen_str(tmp_payload_xmit, comm_str_485, numb);
 826              		.loc 1 457 0
 827 0032 474C     		ldr	r4, .L54+8
 828 0034 C2B2     		uxtb	r2, r0
 829 0036 2846     		mov	r0, r5
 830              	.LVL100:
 831 0038 2146     		mov	r1, r4
 832 003a FFF7FEFF 		bl	comm_gen_str
 833              	.LVL101:
 834 003e 0146     		mov	r1, r0
 835              	.LVL102:
 458:..\..\flexsea-system\src/flexsea_cmd_control.c **** 
 459:..\..\flexsea-system\src/flexsea_cmd_control.c **** 		//Notify the code that a buffer is ready to be transmitted:
 460:..\..\flexsea-system\src/flexsea_cmd_control.c **** 		//xmit_flag_1 = 1;
 461:..\..\flexsea-system\src/flexsea_cmd_control.c **** 
 462:..\..\flexsea-system\src/flexsea_cmd_control.c **** 		//(for now, send it)
 463:..\..\flexsea-system\src/flexsea_cmd_control.c **** 		rs485_puts(comm_str_485, numb);
 836              		.loc 1 463 0
 837 0040 2046     		mov	r0, r4
 838              	.LVL103:
 839 0042 FFF7FEFF 		bl	rs485_puts
 840              	.LVL104:
 841 0046 7BE0     		b	.L48
 842              	.LVL105:
 843              	.L49:
 464:..\..\flexsea-system\src/flexsea_cmd_control.c **** 
 465:..\..\flexsea-system\src/flexsea_cmd_control.c **** 		#endif	//BOARD_TYPE_FLEXSEA_EXECUTE
 466:..\..\flexsea-system\src/flexsea_cmd_control.c **** 	}
ARM GAS  C:\Users\Alex\AppData\Local\Temp\cchBAlOP.s 			page 24


 467:..\..\flexsea-system\src/flexsea_cmd_control.c **** 	else if(IS_CMD_RW(buf[P_CMD1]) == WRITE)
 844              		.loc 1 467 0
 845 0048 002B     		cmp	r3, #0
 846 004a 79D1     		bne	.L48
 847              	.LVL106:
 468:..\..\flexsea-system\src/flexsea_cmd_control.c **** 	{
 469:..\..\flexsea-system\src/flexsea_cmd_control.c **** 		//Two options: from Master of from slave (a read reply)
 470:..\..\flexsea-system\src/flexsea_cmd_control.c **** 
 471:..\..\flexsea-system\src/flexsea_cmd_control.c **** 		//Decode data:
 472:..\..\flexsea-system\src/flexsea_cmd_control.c **** 		tmp_pos = (int32_t) (BYTES_TO_UINT32(buf[P_DATA1 + 0], buf[P_DATA1 + 1], buf[P_DATA1 + 2], buf[P_
 473:..\..\flexsea-system\src/flexsea_cmd_control.c **** 		tmp_posi = (int32_t) (BYTES_TO_UINT32(buf[P_DATA1 + 4], buf[P_DATA1 + 5], buf[P_DATA1 + 6], buf[P
 848              		.loc 1 473 0
 849 004c 057A     		ldrb	r5, [r0, #8]	@ zero_extendqisi2
 850 004e 437A     		ldrb	r3, [r0, #9]	@ zero_extendqisi2
 851 0050 1B04     		lsls	r3, r3, #16
 852 0052 03EB0563 		add	r3, r3, r5, lsl #24
 853 0056 857A     		ldrb	r5, [r0, #10]	@ zero_extendqisi2
 854 0058 03EB0523 		add	r3, r3, r5, lsl #8
 855 005c C57A     		ldrb	r5, [r0, #11]	@ zero_extendqisi2
 856 005e 1D44     		add	r5, r5, r3
 857              	.LVL107:
 474:..\..\flexsea-system\src/flexsea_cmd_control.c **** 		tmp_posf = (int32_t) (BYTES_TO_UINT32(buf[P_DATA1 + 8], buf[P_DATA1 + 9], buf[P_DATA1 + 10], buf[
 858              		.loc 1 474 0
 859 0060 047B     		ldrb	r4, [r0, #12]	@ zero_extendqisi2
 860 0062 437B     		ldrb	r3, [r0, #13]	@ zero_extendqisi2
 861 0064 1B04     		lsls	r3, r3, #16
 862 0066 03EB0463 		add	r3, r3, r4, lsl #24
 863 006a 847B     		ldrb	r4, [r0, #14]	@ zero_extendqisi2
 864 006c 03EB0423 		add	r3, r3, r4, lsl #8
 865 0070 C47B     		ldrb	r4, [r0, #15]	@ zero_extendqisi2
 866 0072 1C44     		add	r4, r4, r3
 867              	.LVL108:
 475:..\..\flexsea-system\src/flexsea_cmd_control.c **** 		tmp_spdm = (int32_t) (BYTES_TO_UINT32(buf[P_DATA1 + 12], buf[P_DATA1 + 13], buf[P_DATA1 + 14], bu
 868              		.loc 1 475 0
 869 0074 027C     		ldrb	r2, [r0, #16]	@ zero_extendqisi2
 870 0076 437C     		ldrb	r3, [r0, #17]	@ zero_extendqisi2
 871 0078 1B04     		lsls	r3, r3, #16
 872 007a 03EB0263 		add	r3, r3, r2, lsl #24
 873 007e 827C     		ldrb	r2, [r0, #18]	@ zero_extendqisi2
 874 0080 03EB0223 		add	r3, r3, r2, lsl #8
 875 0084 C67C     		ldrb	r6, [r0, #19]	@ zero_extendqisi2
 876 0086 1E44     		add	r6, r6, r3
 877              	.LVL109:
 476:..\..\flexsea-system\src/flexsea_cmd_control.c **** 		tmp_acc = (int32_t) (BYTES_TO_UINT32(buf[P_DATA1 + 16], buf[P_DATA1 + 17], buf[P_DATA1 + 18], buf
 878              		.loc 1 476 0
 879 0088 027D     		ldrb	r2, [r0, #20]	@ zero_extendqisi2
 880 008a 437D     		ldrb	r3, [r0, #21]	@ zero_extendqisi2
 881 008c 1B04     		lsls	r3, r3, #16
 882 008e 03EB0263 		add	r3, r3, r2, lsl #24
 883 0092 827D     		ldrb	r2, [r0, #22]	@ zero_extendqisi2
 884 0094 03EB0223 		add	r3, r3, r2, lsl #8
 885 0098 C77D     		ldrb	r7, [r0, #23]	@ zero_extendqisi2
 886 009a 1F44     		add	r7, r7, r3
 887              	.LVL110:
 477:..\..\flexsea-system\src/flexsea_cmd_control.c **** 		//ToDo store that value somewhere useful
 478:..\..\flexsea-system\src/flexsea_cmd_control.c **** 
 479:..\..\flexsea-system\src/flexsea_cmd_control.c **** 		if(sent_from_a_slave(buf))
ARM GAS  C:\Users\Alex\AppData\Local\Temp\cchBAlOP.s 			page 25


 888              		.loc 1 479 0
 889 009c FFF7FEFF 		bl	sent_from_a_slave
 890              	.LVL111:
 891 00a0 20B1     		cbz	r0, .L51
 480:..\..\flexsea-system\src/flexsea_cmd_control.c **** 		{
 481:..\..\flexsea-system\src/flexsea_cmd_control.c **** 			//We received a reply to our read request
 482:..\..\flexsea-system\src/flexsea_cmd_control.c **** 
 483:..\..\flexsea-system\src/flexsea_cmd_control.c **** 			#ifdef BOARD_TYPE_FLEXSEA_EXECUTE
 484:..\..\flexsea-system\src/flexsea_cmd_control.c **** 			//No code (yet), you shouldn't be here...
 485:..\..\flexsea-system\src/flexsea_cmd_control.c **** 			flexsea_error(SE_CMD_NOT_PROGRAMMED);
 892              		.loc 1 485 0
 893 00a2 4FF40070 		mov	r0, #512
 894 00a6 FFF7FEFF 		bl	flexsea_error
 895              	.LVL112:
 896 00aa 49E0     		b	.L48
 897              	.L51:
 486:..\..\flexsea-system\src/flexsea_cmd_control.c **** 			#endif	//BOARD_TYPE_FLEXSEA_EXECUTE
 487:..\..\flexsea-system\src/flexsea_cmd_control.c **** 
 488:..\..\flexsea-system\src/flexsea_cmd_control.c **** 			#if((defined BOARD_TYPE_FLEXSEA_MANAGE) || (defined BOARD_TYPE_FLEXSEA_PLAN))
 489:..\..\flexsea-system\src/flexsea_cmd_control.c **** 
 490:..\..\flexsea-system\src/flexsea_cmd_control.c **** 			//Store value:
 491:..\..\flexsea-system\src/flexsea_cmd_control.c **** 			exec1.ctrl.position.pos = tmp_pos;
 492:..\..\flexsea-system\src/flexsea_cmd_control.c **** 			exec1.ctrl.position.posi = tmp_posi;
 493:..\..\flexsea-system\src/flexsea_cmd_control.c **** 			exec1.ctrl.position.posf = tmp_posf;
 494:..\..\flexsea-system\src/flexsea_cmd_control.c **** 			exec1.ctrl.position.spdm = tmp_spdm;
 495:..\..\flexsea-system\src/flexsea_cmd_control.c **** 			exec1.ctrl.position.acc = tmp_acc;
 496:..\..\flexsea-system\src/flexsea_cmd_control.c **** 
 497:..\..\flexsea-system\src/flexsea_cmd_control.c **** 			#endif	//((defined BOARD_TYPE_FLEXSEA_MANAGE) || (defined BOARD_TYPE_FLEXSEA_PLAN))
 498:..\..\flexsea-system\src/flexsea_cmd_control.c **** 
 499:..\..\flexsea-system\src/flexsea_cmd_control.c **** 		}
 500:..\..\flexsea-system\src/flexsea_cmd_control.c **** 		else
 501:..\..\flexsea-system\src/flexsea_cmd_control.c **** 		{
 502:..\..\flexsea-system\src/flexsea_cmd_control.c **** 			//Master is writing a value to this board
 503:..\..\flexsea-system\src/flexsea_cmd_control.c **** 
 504:..\..\flexsea-system\src/flexsea_cmd_control.c **** 			#ifdef BOARD_TYPE_FLEXSEA_EXECUTE
 505:..\..\flexsea-system\src/flexsea_cmd_control.c **** 
 506:..\..\flexsea-system\src/flexsea_cmd_control.c **** 			//Store value:
 507:..\..\flexsea-system\src/flexsea_cmd_control.c **** 			//ctrl.position.pos = tmp_pos;
 508:..\..\flexsea-system\src/flexsea_cmd_control.c **** 			ctrl.position.posi = tmp_posi;
 898              		.loc 1 508 0
 899 00ac 264B     		ldr	r3, .L54
 900 00ae 1D66     		str	r5, [r3, #96]
 509:..\..\flexsea-system\src/flexsea_cmd_control.c **** 			ctrl.position.posf = tmp_posf;
 901              		.loc 1 509 0
 902 00b0 5C66     		str	r4, [r3, #100]
 510:..\..\flexsea-system\src/flexsea_cmd_control.c **** 			ctrl.position.spdm = tmp_spdm;
 903              		.loc 1 510 0
 904 00b2 9E66     		str	r6, [r3, #104]
 511:..\..\flexsea-system\src/flexsea_cmd_control.c **** 			ctrl.position.acc = tmp_acc;
 905              		.loc 1 511 0
 906 00b4 DF66     		str	r7, [r3, #108]
 512:..\..\flexsea-system\src/flexsea_cmd_control.c **** 
 513:..\..\flexsea-system\src/flexsea_cmd_control.c **** 			if(ctrl.active_ctrl == CTRL_POSITION)
 907              		.loc 1 513 0
 908 00b6 1B78     		ldrb	r3, [r3]	@ zero_extendqisi2
 909 00b8 DBB2     		uxtb	r3, r3
 910 00ba 022B     		cmp	r3, #2
ARM GAS  C:\Users\Alex\AppData\Local\Temp\cchBAlOP.s 			page 26


 911 00bc 10D1     		bne	.L52
 514:..\..\flexsea-system\src/flexsea_cmd_control.c **** 			{
 515:..\..\flexsea-system\src/flexsea_cmd_control.c **** 				steps = trapez_gen_motion_1(tmp_posi, tmp_posf, tmp_spdm, tmp_acc);
 912              		.loc 1 515 0
 913 00be 3246     		mov	r2, r6
 914 00c0 F317     		asrs	r3, r6, #31
 915 00c2 CDE90023 		strd	r2, [sp]
 916 00c6 3A46     		mov	r2, r7
 917 00c8 FB17     		asrs	r3, r7, #31
 918 00ca CDE90223 		strd	r2, [sp, #8]
 919 00ce 2846     		mov	r0, r5
 920 00d0 E917     		asrs	r1, r5, #31
 921 00d2 2246     		mov	r2, r4
 922 00d4 E317     		asrs	r3, r4, #31
 923 00d6 FFF7FEFF 		bl	trapez_gen_motion_1
 924              	.LVL113:
 925 00da 1E4B     		ldr	r3, .L54+12
 926 00dc 1860     		str	r0, [r3]
 927 00de 2FE0     		b	.L48
 928              	.L52:
 516:..\..\flexsea-system\src/flexsea_cmd_control.c **** 			}
 517:..\..\flexsea-system\src/flexsea_cmd_control.c **** 			else if(ctrl.active_ctrl == CTRL_IMPEDANCE)
 929              		.loc 1 517 0
 930 00e0 194B     		ldr	r3, .L54
 931 00e2 1B78     		ldrb	r3, [r3]	@ zero_extendqisi2
 932 00e4 DBB2     		uxtb	r3, r3
 933 00e6 042B     		cmp	r3, #4
 934 00e8 2AD1     		bne	.L48
 518:..\..\flexsea-system\src/flexsea_cmd_control.c **** 			{
 519:..\..\flexsea-system\src/flexsea_cmd_control.c **** 				//Backup gains
 520:..\..\flexsea-system\src/flexsea_cmd_control.c **** 				tmp_z_k = ctrl.impedance.gain.Z_K;
 935              		.loc 1 520 0
 936 00ea DFF85C80 		ldr	r8, .L54
 937 00ee B8F880B0 		ldrh	fp, [r8, #128]
 938 00f2 1FFA8BFB 		uxth	fp, fp
 939              	.LVL114:
 521:..\..\flexsea-system\src/flexsea_cmd_control.c **** 				tmp_z_b = ctrl.impedance.gain.Z_B;
 940              		.loc 1 521 0
 941 00f6 B8F882A0 		ldrh	r10, [r8, #130]
 942 00fa 1FFA8AFA 		uxth	r10, r10
 943              	.LVL115:
 522:..\..\flexsea-system\src/flexsea_cmd_control.c **** 				tmp_z_i = ctrl.impedance.gain.Z_I;
 944              		.loc 1 522 0
 945 00fe B8F88490 		ldrh	r9, [r8, #132]
 946 0102 1FFA89F9 		uxth	r9, r9
 947              	.LVL116:
 523:..\..\flexsea-system\src/flexsea_cmd_control.c **** 
 524:..\..\flexsea-system\src/flexsea_cmd_control.c **** 				//Zero them
 525:..\..\flexsea-system\src/flexsea_cmd_control.c **** 				ctrl.impedance.gain.Z_K = 0;
 948              		.loc 1 525 0
 949 0106 0023     		movs	r3, #0
 950 0108 A8F88030 		strh	r3, [r8, #128]	@ movhi
 526:..\..\flexsea-system\src/flexsea_cmd_control.c **** 				ctrl.impedance.gain.Z_B = 0;
 951              		.loc 1 526 0
 952 010c A8F88230 		strh	r3, [r8, #130]	@ movhi
 527:..\..\flexsea-system\src/flexsea_cmd_control.c **** 				ctrl.impedance.gain.Z_I = 0;
 953              		.loc 1 527 0
ARM GAS  C:\Users\Alex\AppData\Local\Temp\cchBAlOP.s 			page 27


 954 0110 A8F88430 		strh	r3, [r8, #132]	@ movhi
 528:..\..\flexsea-system\src/flexsea_cmd_control.c **** 
 529:..\..\flexsea-system\src/flexsea_cmd_control.c **** 				//New trajectory
 530:..\..\flexsea-system\src/flexsea_cmd_control.c **** 				steps = trapez_gen_motion_1(tmp_posi, tmp_posf, tmp_spdm, tmp_acc);
 955              		.loc 1 530 0
 956 0114 3246     		mov	r2, r6
 957 0116 F317     		asrs	r3, r6, #31
 958 0118 CDE90023 		strd	r2, [sp]
 959 011c 3A46     		mov	r2, r7
 960 011e FB17     		asrs	r3, r7, #31
 961 0120 CDE90223 		strd	r2, [sp, #8]
 962 0124 2846     		mov	r0, r5
 963 0126 E917     		asrs	r1, r5, #31
 964 0128 2246     		mov	r2, r4
 965 012a E317     		asrs	r3, r4, #31
 966 012c FFF7FEFF 		bl	trapez_gen_motion_1
 967              	.LVL117:
 968 0130 084B     		ldr	r3, .L54+12
 969 0132 1860     		str	r0, [r3]
 531:..\..\flexsea-system\src/flexsea_cmd_control.c **** 
 532:..\..\flexsea-system\src/flexsea_cmd_control.c **** 				//Restore gains
 533:..\..\flexsea-system\src/flexsea_cmd_control.c **** 				ctrl.impedance.gain.Z_K = tmp_z_k;
 970              		.loc 1 533 0
 971 0134 A8F880B0 		strh	fp, [r8, #128]	@ movhi
 534:..\..\flexsea-system\src/flexsea_cmd_control.c **** 				ctrl.impedance.gain.Z_B = tmp_z_b;
 972              		.loc 1 534 0
 973 0138 A8F882A0 		strh	r10, [r8, #130]	@ movhi
 535:..\..\flexsea-system\src/flexsea_cmd_control.c **** 				ctrl.impedance.gain.Z_I = tmp_z_i;
 974              		.loc 1 535 0
 975 013c A8F88490 		strh	r9, [r8, #132]	@ movhi
 976              	.LVL118:
 977              	.L48:
 536:..\..\flexsea-system\src/flexsea_cmd_control.c **** 			}
 537:..\..\flexsea-system\src/flexsea_cmd_control.c **** 
 538:..\..\flexsea-system\src/flexsea_cmd_control.c **** 
 539:..\..\flexsea-system\src/flexsea_cmd_control.c **** 			#endif	//BOARD_TYPE_FLEXSEA_EXECUTE
 540:..\..\flexsea-system\src/flexsea_cmd_control.c **** 		}
 541:..\..\flexsea-system\src/flexsea_cmd_control.c **** 	}
 542:..\..\flexsea-system\src/flexsea_cmd_control.c **** }
 978              		.loc 1 542 0
 979 0140 07B0     		add	sp, sp, #28
 980              		.cfi_def_cfa_offset 36
 981              		@ sp needed
 982 0142 BDE8F08F 		pop	{r4, r5, r6, r7, r8, r9, r10, fp, pc}
 983              	.L55:
 984 0146 00BF     		.align	2
 985              	.L54:
 986 0148 00000000 		.word	ctrl
 987 014c 00000000 		.word	tmp_payload_xmit
 988 0150 00000000 		.word	comm_str_1
 989 0154 00000000 		.word	steps
 990              		.cfi_endproc
 991              	.LFE70:
 992              		.size	flexsea_payload_87, .-flexsea_payload_87
 993              		.section	.text.tx_cmd_ctrl_i_g,"ax",%progbits
 994              		.align	2
 995              		.global	tx_cmd_ctrl_i_g
ARM GAS  C:\Users\Alex\AppData\Local\Temp\cchBAlOP.s 			page 28


 996              		.thumb
 997              		.thumb_func
 998              		.type	tx_cmd_ctrl_i_g, %function
 999              	tx_cmd_ctrl_i_g:
 1000              	.LFB71:
 543:..\..\flexsea-system\src/flexsea_cmd_control.c **** 
 544:..\..\flexsea-system\src/flexsea_cmd_control.c **** //Transmission of a CTRL_I_G command
 545:..\..\flexsea-system\src/flexsea_cmd_control.c **** uint32_t tx_cmd_ctrl_i_g(uint8_t receiver, uint8_t cmd_type, uint8_t *buf, uint32_t len, \
 546:..\..\flexsea-system\src/flexsea_cmd_control.c **** 						int16_t kp, int16_t ki, int16_t kd)
 547:..\..\flexsea-system\src/flexsea_cmd_control.c **** {
 1001              		.loc 1 547 0
 1002              		.cfi_startproc
 1003              		@ args = 12, pretend = 0, frame = 8
 1004              		@ frame_needed = 0, uses_anonymous_args = 0
 1005              	.LVL119:
 1006 0000 70B5     		push	{r4, r5, r6, lr}
 1007              		.cfi_def_cfa_offset 16
 1008              		.cfi_offset 4, -16
 1009              		.cfi_offset 5, -12
 1010              		.cfi_offset 6, -8
 1011              		.cfi_offset 14, -4
 1012 0002 82B0     		sub	sp, sp, #8
 1013              		.cfi_def_cfa_offset 24
 1014 0004 0646     		mov	r6, r0
 1015 0006 0D46     		mov	r5, r1
 1016 0008 1446     		mov	r4, r2
 548:..\..\flexsea-system\src/flexsea_cmd_control.c **** 	uint8_t tmp0 = 0, tmp1 = 0;
 1017              		.loc 1 548 0
 1018 000a 0021     		movs	r1, #0
 1019              	.LVL120:
 1020 000c 8DF80710 		strb	r1, [sp, #7]
 1021 0010 8DF80610 		strb	r1, [sp, #6]
 1022              	.LVL121:
 549:..\..\flexsea-system\src/flexsea_cmd_control.c **** 	uint32_t bytes = 0;
 550:..\..\flexsea-system\src/flexsea_cmd_control.c **** 
 551:..\..\flexsea-system\src/flexsea_cmd_control.c **** 	//Fresh payload string:
 552:..\..\flexsea-system\src/flexsea_cmd_control.c **** 	prepare_empty_payload(board_id, receiver, buf, len);
 1023              		.loc 1 552 0
 1024 0014 2149     		ldr	r1, .L61
 1025 0016 0878     		ldrb	r0, [r1]	@ zero_extendqisi2
 1026              	.LVL122:
 1027 0018 3146     		mov	r1, r6
 1028 001a FFF7FEFF 		bl	prepare_empty_payload
 1029              	.LVL123:
 553:..\..\flexsea-system\src/flexsea_cmd_control.c **** 
 554:..\..\flexsea-system\src/flexsea_cmd_control.c **** 	//Command:
 555:..\..\flexsea-system\src/flexsea_cmd_control.c **** 	buf[P_CMDS] = 1;                     //1 command in string
 1030              		.loc 1 555 0
 1031 001e 0123     		movs	r3, #1
 1032 0020 A370     		strb	r3, [r4, #2]
 556:..\..\flexsea-system\src/flexsea_cmd_control.c **** 
 557:..\..\flexsea-system\src/flexsea_cmd_control.c **** 	if(cmd_type == CMD_READ)
 1033              		.loc 1 557 0
 1034 0022 9D42     		cmp	r5, r3
 1035 0024 03D1     		bne	.L57
 558:..\..\flexsea-system\src/flexsea_cmd_control.c **** 	{
 559:..\..\flexsea-system\src/flexsea_cmd_control.c **** 		buf[P_CMD1] = CMD_R(CMD_CTRL_I_G);
ARM GAS  C:\Users\Alex\AppData\Local\Temp\cchBAlOP.s 			page 29


 1036              		.loc 1 559 0
 1037 0026 A523     		movs	r3, #165
 1038 0028 E370     		strb	r3, [r4, #3]
 1039              	.LVL124:
 560:..\..\flexsea-system\src/flexsea_cmd_control.c **** 
 561:..\..\flexsea-system\src/flexsea_cmd_control.c **** 		bytes = P_CMD1 + 1;     //Bytes is always last+1
 1040              		.loc 1 561 0
 1041 002a 0420     		movs	r0, #4
 1042 002c 34E0     		b	.L58
 1043              	.LVL125:
 1044              	.L57:
 562:..\..\flexsea-system\src/flexsea_cmd_control.c **** 	}
 563:..\..\flexsea-system\src/flexsea_cmd_control.c **** 	else if(cmd_type == CMD_WRITE)
 1045              		.loc 1 563 0
 1046 002e 022D     		cmp	r5, #2
 1047 0030 2DD1     		bne	.L59
 564:..\..\flexsea-system\src/flexsea_cmd_control.c **** 	{
 565:..\..\flexsea-system\src/flexsea_cmd_control.c **** 		buf[P_CMD1] = CMD_W(CMD_CTRL_I_G);
 1048              		.loc 1 565 0
 1049 0032 A423     		movs	r3, #164
 1050 0034 E370     		strb	r3, [r4, #3]
 566:..\..\flexsea-system\src/flexsea_cmd_control.c **** 
 567:..\..\flexsea-system\src/flexsea_cmd_control.c **** 		//Arguments:
 568:..\..\flexsea-system\src/flexsea_cmd_control.c **** 		uint16_to_bytes((uint16_t)kp, &tmp0, &tmp1);
 1051              		.loc 1 568 0
 1052 0036 BDF81800 		ldrh	r0, [sp, #24]
 1053 003a 0DF10701 		add	r1, sp, #7
 1054 003e 0DF10602 		add	r2, sp, #6
 1055 0042 FFF7FEFF 		bl	uint16_to_bytes
 1056              	.LVL126:
 569:..\..\flexsea-system\src/flexsea_cmd_control.c **** 		buf[P_DATA1 + 0] = tmp0;
 1057              		.loc 1 569 0
 1058 0046 9DF80730 		ldrb	r3, [sp, #7]	@ zero_extendqisi2
 1059 004a 2371     		strb	r3, [r4, #4]
 570:..\..\flexsea-system\src/flexsea_cmd_control.c **** 		buf[P_DATA1 + 1] = tmp1;
 1060              		.loc 1 570 0
 1061 004c 9DF80630 		ldrb	r3, [sp, #6]	@ zero_extendqisi2
 1062 0050 6371     		strb	r3, [r4, #5]
 571:..\..\flexsea-system\src/flexsea_cmd_control.c **** 		uint16_to_bytes((uint16_t)ki, &tmp0, &tmp1);
 1063              		.loc 1 571 0
 1064 0052 BDF81C00 		ldrh	r0, [sp, #28]
 1065 0056 0DF10701 		add	r1, sp, #7
 1066 005a 0DF10602 		add	r2, sp, #6
 1067 005e FFF7FEFF 		bl	uint16_to_bytes
 1068              	.LVL127:
 572:..\..\flexsea-system\src/flexsea_cmd_control.c **** 		buf[P_DATA1 + 2] = tmp0;
 1069              		.loc 1 572 0
 1070 0062 9DF80730 		ldrb	r3, [sp, #7]	@ zero_extendqisi2
 1071 0066 A371     		strb	r3, [r4, #6]
 573:..\..\flexsea-system\src/flexsea_cmd_control.c **** 		buf[P_DATA1 + 3] = tmp1;
 1072              		.loc 1 573 0
 1073 0068 9DF80630 		ldrb	r3, [sp, #6]	@ zero_extendqisi2
 1074 006c E371     		strb	r3, [r4, #7]
 574:..\..\flexsea-system\src/flexsea_cmd_control.c **** 		uint16_to_bytes((uint16_t)kd, &tmp0, &tmp1);
 1075              		.loc 1 574 0
 1076 006e BDF82000 		ldrh	r0, [sp, #32]
 1077 0072 0DF10701 		add	r1, sp, #7
ARM GAS  C:\Users\Alex\AppData\Local\Temp\cchBAlOP.s 			page 30


 1078 0076 0DF10602 		add	r2, sp, #6
 1079 007a FFF7FEFF 		bl	uint16_to_bytes
 1080              	.LVL128:
 575:..\..\flexsea-system\src/flexsea_cmd_control.c **** 		buf[P_DATA1 + 4] = tmp0;
 1081              		.loc 1 575 0
 1082 007e 9DF80730 		ldrb	r3, [sp, #7]	@ zero_extendqisi2
 1083 0082 2372     		strb	r3, [r4, #8]
 576:..\..\flexsea-system\src/flexsea_cmd_control.c **** 		buf[P_DATA1 + 5] = tmp1;
 1084              		.loc 1 576 0
 1085 0084 9DF80630 		ldrb	r3, [sp, #6]	@ zero_extendqisi2
 1086 0088 6372     		strb	r3, [r4, #9]
 1087              	.LVL129:
 577:..\..\flexsea-system\src/flexsea_cmd_control.c **** 
 578:..\..\flexsea-system\src/flexsea_cmd_control.c **** 
 579:..\..\flexsea-system\src/flexsea_cmd_control.c **** 		bytes = P_DATA1 + 6;     //Bytes is always last+1
 1088              		.loc 1 579 0
 1089 008a 0A20     		movs	r0, #10
 1090 008c 04E0     		b	.L58
 1091              	.LVL130:
 1092              	.L59:
 580:..\..\flexsea-system\src/flexsea_cmd_control.c **** 	}
 581:..\..\flexsea-system\src/flexsea_cmd_control.c **** 	else
 582:..\..\flexsea-system\src/flexsea_cmd_control.c **** 	{
 583:..\..\flexsea-system\src/flexsea_cmd_control.c **** 		//Invalid
 584:..\..\flexsea-system\src/flexsea_cmd_control.c **** 		flexsea_error(SE_INVALID_READ_TYPE);
 1093              		.loc 1 584 0
 1094 008e 4FF48060 		mov	r0, #1024
 1095 0092 FFF7FEFF 		bl	flexsea_error
 1096              	.LVL131:
 585:..\..\flexsea-system\src/flexsea_cmd_control.c **** 		bytes = 0;
 1097              		.loc 1 585 0
 1098 0096 0020     		movs	r0, #0
 1099              	.LVL132:
 1100              	.L58:
 586:..\..\flexsea-system\src/flexsea_cmd_control.c **** 	}
 587:..\..\flexsea-system\src/flexsea_cmd_control.c **** 
 588:..\..\flexsea-system\src/flexsea_cmd_control.c **** 	return bytes;
 589:..\..\flexsea-system\src/flexsea_cmd_control.c **** }
 1101              		.loc 1 589 0
 1102 0098 02B0     		add	sp, sp, #8
 1103              		.cfi_def_cfa_offset 16
 1104              		@ sp needed
 1105 009a 70BD     		pop	{r4, r5, r6, pc}
 1106              	.LVL133:
 1107              	.L62:
 1108              		.align	2
 1109              	.L61:
 1110 009c 00000000 		.word	board_id
 1111              		.cfi_endproc
 1112              	.LFE71:
 1113              		.size	tx_cmd_ctrl_i_g, .-tx_cmd_ctrl_i_g
 1114              		.section	.text.flexsea_payload_82,"ax",%progbits
 1115              		.align	2
 1116              		.weak	flexsea_payload_82
 1117              		.thumb
 1118              		.thumb_func
 1119              		.type	flexsea_payload_82, %function
ARM GAS  C:\Users\Alex\AppData\Local\Temp\cchBAlOP.s 			page 31


 1120              	flexsea_payload_82:
 1121              	.LFB72:
 590:..\..\flexsea-system\src/flexsea_cmd_control.c **** 
 591:..\..\flexsea-system\src/flexsea_cmd_control.c **** //Reception of a CTRL_I_G command
 592:..\..\flexsea-system\src/flexsea_cmd_control.c **** void rx_cmd_ctrl_i_g(uint8_t *buf)
 593:..\..\flexsea-system\src/flexsea_cmd_control.c **** {
 1122              		.loc 1 593 0
 1123              		.cfi_startproc
 1124              		@ args = 0, pretend = 0, frame = 0
 1125              		@ frame_needed = 0, uses_anonymous_args = 0
 1126              	.LVL134:
 1127 0000 70B5     		push	{r4, r5, r6, lr}
 1128              		.cfi_def_cfa_offset 16
 1129              		.cfi_offset 4, -16
 1130              		.cfi_offset 5, -12
 1131              		.cfi_offset 6, -8
 1132              		.cfi_offset 14, -4
 1133 0002 84B0     		sub	sp, sp, #16
 1134              		.cfi_def_cfa_offset 32
 1135              	.LVL135:
 594:..\..\flexsea-system\src/flexsea_cmd_control.c **** 	uint32_t numb = 0;
 595:..\..\flexsea-system\src/flexsea_cmd_control.c **** 	int16_t tmp_kp = 0, tmp_ki = 0, tmp_kd = 0;
 596:..\..\flexsea-system\src/flexsea_cmd_control.c **** 
 597:..\..\flexsea-system\src/flexsea_cmd_control.c **** 	if(IS_CMD_RW(buf[P_CMD1]) == READ)
 1136              		.loc 1 597 0
 1137 0004 C378     		ldrb	r3, [r0, #3]	@ zero_extendqisi2
 1138 0006 13F00103 		ands	r3, r3, #1
 1139 000a 1BD0     		beq	.L64
 598:..\..\flexsea-system\src/flexsea_cmd_control.c **** 	{
 599:..\..\flexsea-system\src/flexsea_cmd_control.c **** 		//Received a Read command from our master, prepare a reply:
 600:..\..\flexsea-system\src/flexsea_cmd_control.c **** 
 601:..\..\flexsea-system\src/flexsea_cmd_control.c **** 		#ifdef BOARD_TYPE_FLEXSEA_EXECUTE
 602:..\..\flexsea-system\src/flexsea_cmd_control.c **** 
 603:..\..\flexsea-system\src/flexsea_cmd_control.c **** 		//Generate the reply:
 604:..\..\flexsea-system\src/flexsea_cmd_control.c **** 		numb = tx_cmd_ctrl_i_g(buf[P_XID], CMD_WRITE, tmp_payload_xmit, PAYLOAD_BUF_LEN, \
 1140              		.loc 1 604 0
 1141 000c 0078     		ldrb	r0, [r0]	@ zero_extendqisi2
 1142              	.LVL136:
 605:..\..\flexsea-system\src/flexsea_cmd_control.c **** 			ctrl.current.gain.I_KP, ctrl.current.gain.I_KI, ctrl.current.gain.I_KD);
 1143              		.loc 1 605 0
 1144 000e 1C4B     		ldr	r3, .L68
 1145 0010 198D     		ldrh	r1, [r3, #40]
 1146 0012 5A8D     		ldrh	r2, [r3, #42]
 1147 0014 9B8D     		ldrh	r3, [r3, #44]
 604:..\..\flexsea-system\src/flexsea_cmd_control.c **** 			ctrl.current.gain.I_KP, ctrl.current.gain.I_KI, ctrl.current.gain.I_KD);
 1148              		.loc 1 604 0
 1149 0016 1B4D     		ldr	r5, .L68+4
 1150 0018 09B2     		sxth	r1, r1
 1151 001a 0091     		str	r1, [sp]
 1152 001c 12B2     		sxth	r2, r2
 1153 001e 0192     		str	r2, [sp, #4]
 1154 0020 1BB2     		sxth	r3, r3
 1155 0022 0293     		str	r3, [sp, #8]
 1156 0024 0221     		movs	r1, #2
 1157 0026 2A46     		mov	r2, r5
 1158 0028 2423     		movs	r3, #36
 1159 002a FFF7FEFF 		bl	tx_cmd_ctrl_i_g
ARM GAS  C:\Users\Alex\AppData\Local\Temp\cchBAlOP.s 			page 32


 1160              	.LVL137:
 606:..\..\flexsea-system\src/flexsea_cmd_control.c **** 		numb = comm_gen_str(tmp_payload_xmit, comm_str_485, numb);
 1161              		.loc 1 606 0
 1162 002e 164C     		ldr	r4, .L68+8
 1163 0030 C2B2     		uxtb	r2, r0
 1164 0032 2846     		mov	r0, r5
 1165              	.LVL138:
 1166 0034 2146     		mov	r1, r4
 1167 0036 FFF7FEFF 		bl	comm_gen_str
 1168              	.LVL139:
 1169 003a 0146     		mov	r1, r0
 1170              	.LVL140:
 607:..\..\flexsea-system\src/flexsea_cmd_control.c **** 
 608:..\..\flexsea-system\src/flexsea_cmd_control.c **** 		//Notify the code that a buffer is ready to be transmitted:
 609:..\..\flexsea-system\src/flexsea_cmd_control.c **** 		//xmit_flag_1 = 1;
 610:..\..\flexsea-system\src/flexsea_cmd_control.c **** 
 611:..\..\flexsea-system\src/flexsea_cmd_control.c **** 		//(for now, send it)
 612:..\..\flexsea-system\src/flexsea_cmd_control.c **** 		rs485_puts(comm_str_485, numb);
 1171              		.loc 1 612 0
 1172 003c 2046     		mov	r0, r4
 1173              	.LVL141:
 1174 003e FFF7FEFF 		bl	rs485_puts
 1175              	.LVL142:
 1176 0042 1BE0     		b	.L63
 1177              	.LVL143:
 1178              	.L64:
 613:..\..\flexsea-system\src/flexsea_cmd_control.c **** 
 614:..\..\flexsea-system\src/flexsea_cmd_control.c **** 		#endif	//BOARD_TYPE_FLEXSEA_EXECUTE
 615:..\..\flexsea-system\src/flexsea_cmd_control.c **** 	}
 616:..\..\flexsea-system\src/flexsea_cmd_control.c **** 	else if(IS_CMD_RW(buf[P_CMD1]) == WRITE)
 1179              		.loc 1 616 0
 1180 0044 D3B9     		cbnz	r3, .L63
 617:..\..\flexsea-system\src/flexsea_cmd_control.c **** 	{
 618:..\..\flexsea-system\src/flexsea_cmd_control.c **** 		//Two options: from Master of from slave (a read reply)
 619:..\..\flexsea-system\src/flexsea_cmd_control.c **** 
 620:..\..\flexsea-system\src/flexsea_cmd_control.c **** 		//Decode data:
 621:..\..\flexsea-system\src/flexsea_cmd_control.c **** 		tmp_kp = (int16_t) (BYTES_TO_UINT16(buf[P_DATA1 + 0], buf[P_DATA1 + 1]));
 1181              		.loc 1 621 0
 1182 0046 0279     		ldrb	r2, [r0, #4]	@ zero_extendqisi2
 1183 0048 4379     		ldrb	r3, [r0, #5]	@ zero_extendqisi2
 1184 004a 03EB0223 		add	r3, r3, r2, lsl #8
 1185 004e 9EB2     		uxth	r6, r3
 1186              	.LVL144:
 622:..\..\flexsea-system\src/flexsea_cmd_control.c **** 		tmp_ki = (int16_t) (BYTES_TO_UINT16(buf[P_DATA1 + 2], buf[P_DATA1 + 3]));
 1187              		.loc 1 622 0
 1188 0050 8279     		ldrb	r2, [r0, #6]	@ zero_extendqisi2
 1189 0052 C379     		ldrb	r3, [r0, #7]	@ zero_extendqisi2
 1190 0054 03EB0223 		add	r3, r3, r2, lsl #8
 1191 0058 9DB2     		uxth	r5, r3
 1192              	.LVL145:
 623:..\..\flexsea-system\src/flexsea_cmd_control.c **** 		tmp_kd = (int16_t) (BYTES_TO_UINT16(buf[P_DATA1 + 4], buf[P_DATA1 + 5]));
 1193              		.loc 1 623 0
 1194 005a 027A     		ldrb	r2, [r0, #8]	@ zero_extendqisi2
 1195 005c 437A     		ldrb	r3, [r0, #9]	@ zero_extendqisi2
 1196 005e 03EB0223 		add	r3, r3, r2, lsl #8
 1197 0062 9CB2     		uxth	r4, r3
 1198              	.LVL146:
ARM GAS  C:\Users\Alex\AppData\Local\Temp\cchBAlOP.s 			page 33


 624:..\..\flexsea-system\src/flexsea_cmd_control.c **** 		//ToDo store that value somewhere useful
 625:..\..\flexsea-system\src/flexsea_cmd_control.c **** 
 626:..\..\flexsea-system\src/flexsea_cmd_control.c **** 		if(sent_from_a_slave(buf))
 1199              		.loc 1 626 0
 1200 0064 FFF7FEFF 		bl	sent_from_a_slave
 1201              	.LVL147:
 1202 0068 20B1     		cbz	r0, .L66
 627:..\..\flexsea-system\src/flexsea_cmd_control.c **** 		{
 628:..\..\flexsea-system\src/flexsea_cmd_control.c **** 			//We received a reply to our read request
 629:..\..\flexsea-system\src/flexsea_cmd_control.c **** 
 630:..\..\flexsea-system\src/flexsea_cmd_control.c **** 			#ifdef BOARD_TYPE_FLEXSEA_EXECUTE
 631:..\..\flexsea-system\src/flexsea_cmd_control.c **** 			//No code (yet), you shouldn't be here...
 632:..\..\flexsea-system\src/flexsea_cmd_control.c **** 			flexsea_error(SE_CMD_NOT_PROGRAMMED);
 1203              		.loc 1 632 0
 1204 006a 4FF40070 		mov	r0, #512
 1205 006e FFF7FEFF 		bl	flexsea_error
 1206              	.LVL148:
 1207 0072 03E0     		b	.L63
 1208              	.L66:
 633:..\..\flexsea-system\src/flexsea_cmd_control.c **** 			#endif	//BOARD_TYPE_FLEXSEA_EXECUTE
 634:..\..\flexsea-system\src/flexsea_cmd_control.c **** 
 635:..\..\flexsea-system\src/flexsea_cmd_control.c **** 			#if((defined BOARD_TYPE_FLEXSEA_MANAGE) || (defined BOARD_TYPE_FLEXSEA_PLAN))
 636:..\..\flexsea-system\src/flexsea_cmd_control.c **** 
 637:..\..\flexsea-system\src/flexsea_cmd_control.c **** 			//Store value:
 638:..\..\flexsea-system\src/flexsea_cmd_control.c **** 			exec1.ctrl.current.gain.I_KP = tmp_kp;
 639:..\..\flexsea-system\src/flexsea_cmd_control.c **** 			exec1.ctrl.current.gain.I_KI = tmp_ki;
 640:..\..\flexsea-system\src/flexsea_cmd_control.c **** 			exec1.ctrl.current.gain.I_KD = tmp_kd;
 641:..\..\flexsea-system\src/flexsea_cmd_control.c **** 
 642:..\..\flexsea-system\src/flexsea_cmd_control.c **** 			#endif	//((defined BOARD_TYPE_FLEXSEA_MANAGE) || (defined BOARD_TYPE_FLEXSEA_PLAN))
 643:..\..\flexsea-system\src/flexsea_cmd_control.c **** 
 644:..\..\flexsea-system\src/flexsea_cmd_control.c **** 		}
 645:..\..\flexsea-system\src/flexsea_cmd_control.c **** 		else
 646:..\..\flexsea-system\src/flexsea_cmd_control.c **** 		{
 647:..\..\flexsea-system\src/flexsea_cmd_control.c **** 			//Master is writing a value to this board
 648:..\..\flexsea-system\src/flexsea_cmd_control.c **** 
 649:..\..\flexsea-system\src/flexsea_cmd_control.c **** 			#ifdef BOARD_TYPE_FLEXSEA_EXECUTE
 650:..\..\flexsea-system\src/flexsea_cmd_control.c **** 
 651:..\..\flexsea-system\src/flexsea_cmd_control.c **** 			//Store value:
 652:..\..\flexsea-system\src/flexsea_cmd_control.c **** 			ctrl.current.gain.I_KP = tmp_kp;
 1209              		.loc 1 652 0
 1210 0074 024B     		ldr	r3, .L68
 1211 0076 1E85     		strh	r6, [r3, #40]	@ movhi
 653:..\..\flexsea-system\src/flexsea_cmd_control.c **** 			ctrl.current.gain.I_KI = tmp_ki;
 1212              		.loc 1 653 0
 1213 0078 5D85     		strh	r5, [r3, #42]	@ movhi
 654:..\..\flexsea-system\src/flexsea_cmd_control.c **** 			ctrl.current.gain.I_KD = tmp_kd;
 1214              		.loc 1 654 0
 1215 007a 9C85     		strh	r4, [r3, #44]	@ movhi
 1216              	.LVL149:
 1217              	.L63:
 655:..\..\flexsea-system\src/flexsea_cmd_control.c **** 			//ToDo: do we need to call something?
 656:..\..\flexsea-system\src/flexsea_cmd_control.c **** 
 657:..\..\flexsea-system\src/flexsea_cmd_control.c **** 			#endif	//BOARD_TYPE_FLEXSEA_EXECUTE
 658:..\..\flexsea-system\src/flexsea_cmd_control.c **** 		}
 659:..\..\flexsea-system\src/flexsea_cmd_control.c **** 	}
 660:..\..\flexsea-system\src/flexsea_cmd_control.c **** }
 1218              		.loc 1 660 0
ARM GAS  C:\Users\Alex\AppData\Local\Temp\cchBAlOP.s 			page 34


 1219 007c 04B0     		add	sp, sp, #16
 1220              		.cfi_def_cfa_offset 16
 1221              		@ sp needed
 1222 007e 70BD     		pop	{r4, r5, r6, pc}
 1223              	.L69:
 1224              		.align	2
 1225              	.L68:
 1226 0080 00000000 		.word	ctrl
 1227 0084 00000000 		.word	tmp_payload_xmit
 1228 0088 00000000 		.word	comm_str_1
 1229              		.cfi_endproc
 1230              	.LFE72:
 1231              		.size	flexsea_payload_82, .-flexsea_payload_82
 1232              		.section	.text.tx_cmd_ctrl_p_g,"ax",%progbits
 1233              		.align	2
 1234              		.global	tx_cmd_ctrl_p_g
 1235              		.thumb
 1236              		.thumb_func
 1237              		.type	tx_cmd_ctrl_p_g, %function
 1238              	tx_cmd_ctrl_p_g:
 1239              	.LFB73:
 661:..\..\flexsea-system\src/flexsea_cmd_control.c **** 
 662:..\..\flexsea-system\src/flexsea_cmd_control.c **** //Transmission of a CTRL_P_G command
 663:..\..\flexsea-system\src/flexsea_cmd_control.c **** uint32_t tx_cmd_ctrl_p_g(uint8_t receiver, uint8_t cmd_type, uint8_t *buf, uint32_t len, \
 664:..\..\flexsea-system\src/flexsea_cmd_control.c **** 						int16_t kp, int16_t ki, int16_t kd)
 665:..\..\flexsea-system\src/flexsea_cmd_control.c **** {
 1240              		.loc 1 665 0
 1241              		.cfi_startproc
 1242              		@ args = 12, pretend = 0, frame = 8
 1243              		@ frame_needed = 0, uses_anonymous_args = 0
 1244              	.LVL150:
 1245 0000 70B5     		push	{r4, r5, r6, lr}
 1246              		.cfi_def_cfa_offset 16
 1247              		.cfi_offset 4, -16
 1248              		.cfi_offset 5, -12
 1249              		.cfi_offset 6, -8
 1250              		.cfi_offset 14, -4
 1251 0002 82B0     		sub	sp, sp, #8
 1252              		.cfi_def_cfa_offset 24
 1253 0004 0646     		mov	r6, r0
 1254 0006 0D46     		mov	r5, r1
 1255 0008 1446     		mov	r4, r2
 666:..\..\flexsea-system\src/flexsea_cmd_control.c **** 	uint8_t tmp0 = 0, tmp1 = 0;
 1256              		.loc 1 666 0
 1257 000a 0021     		movs	r1, #0
 1258              	.LVL151:
 1259 000c 8DF80710 		strb	r1, [sp, #7]
 1260 0010 8DF80610 		strb	r1, [sp, #6]
 1261              	.LVL152:
 667:..\..\flexsea-system\src/flexsea_cmd_control.c **** 	uint32_t bytes = 0;
 668:..\..\flexsea-system\src/flexsea_cmd_control.c **** 
 669:..\..\flexsea-system\src/flexsea_cmd_control.c **** 	//Fresh payload string:
 670:..\..\flexsea-system\src/flexsea_cmd_control.c **** 	prepare_empty_payload(board_id, receiver, buf, len);
 1262              		.loc 1 670 0
 1263 0014 2149     		ldr	r1, .L75
 1264 0016 0878     		ldrb	r0, [r1]	@ zero_extendqisi2
 1265              	.LVL153:
ARM GAS  C:\Users\Alex\AppData\Local\Temp\cchBAlOP.s 			page 35


 1266 0018 3146     		mov	r1, r6
 1267 001a FFF7FEFF 		bl	prepare_empty_payload
 1268              	.LVL154:
 671:..\..\flexsea-system\src/flexsea_cmd_control.c **** 
 672:..\..\flexsea-system\src/flexsea_cmd_control.c **** 	//Command:
 673:..\..\flexsea-system\src/flexsea_cmd_control.c **** 	buf[P_CMDS] = 1;                     //1 command in string
 1269              		.loc 1 673 0
 1270 001e 0123     		movs	r3, #1
 1271 0020 A370     		strb	r3, [r4, #2]
 674:..\..\flexsea-system\src/flexsea_cmd_control.c **** 
 675:..\..\flexsea-system\src/flexsea_cmd_control.c **** 	if(cmd_type == CMD_READ)
 1272              		.loc 1 675 0
 1273 0022 9D42     		cmp	r5, r3
 1274 0024 03D1     		bne	.L71
 676:..\..\flexsea-system\src/flexsea_cmd_control.c **** 	{
 677:..\..\flexsea-system\src/flexsea_cmd_control.c **** 		buf[P_CMD1] = CMD_R(CMD_CTRL_P_G);
 1275              		.loc 1 677 0
 1276 0026 A723     		movs	r3, #167
 1277 0028 E370     		strb	r3, [r4, #3]
 1278              	.LVL155:
 678:..\..\flexsea-system\src/flexsea_cmd_control.c **** 
 679:..\..\flexsea-system\src/flexsea_cmd_control.c **** 		bytes = P_CMD1 + 1;     //Bytes is always last+1
 1279              		.loc 1 679 0
 1280 002a 0420     		movs	r0, #4
 1281 002c 34E0     		b	.L72
 1282              	.LVL156:
 1283              	.L71:
 680:..\..\flexsea-system\src/flexsea_cmd_control.c **** 	}
 681:..\..\flexsea-system\src/flexsea_cmd_control.c **** 	else if(cmd_type == CMD_WRITE)
 1284              		.loc 1 681 0
 1285 002e 022D     		cmp	r5, #2
 1286 0030 2DD1     		bne	.L73
 682:..\..\flexsea-system\src/flexsea_cmd_control.c **** 	{
 683:..\..\flexsea-system\src/flexsea_cmd_control.c **** 		buf[P_CMD1] = CMD_W(CMD_CTRL_P_G);
 1287              		.loc 1 683 0
 1288 0032 A623     		movs	r3, #166
 1289 0034 E370     		strb	r3, [r4, #3]
 684:..\..\flexsea-system\src/flexsea_cmd_control.c **** 
 685:..\..\flexsea-system\src/flexsea_cmd_control.c **** 		//Arguments:
 686:..\..\flexsea-system\src/flexsea_cmd_control.c **** 		uint16_to_bytes((uint16_t)kp, &tmp0, &tmp1);
 1290              		.loc 1 686 0
 1291 0036 BDF81800 		ldrh	r0, [sp, #24]
 1292 003a 0DF10701 		add	r1, sp, #7
 1293 003e 0DF10602 		add	r2, sp, #6
 1294 0042 FFF7FEFF 		bl	uint16_to_bytes
 1295              	.LVL157:
 687:..\..\flexsea-system\src/flexsea_cmd_control.c **** 		buf[P_DATA1 + 0] = tmp0;
 1296              		.loc 1 687 0
 1297 0046 9DF80730 		ldrb	r3, [sp, #7]	@ zero_extendqisi2
 1298 004a 2371     		strb	r3, [r4, #4]
 688:..\..\flexsea-system\src/flexsea_cmd_control.c **** 		buf[P_DATA1 + 1] = tmp1;
 1299              		.loc 1 688 0
 1300 004c 9DF80630 		ldrb	r3, [sp, #6]	@ zero_extendqisi2
 1301 0050 6371     		strb	r3, [r4, #5]
 689:..\..\flexsea-system\src/flexsea_cmd_control.c **** 		uint16_to_bytes((uint16_t)ki, &tmp0, &tmp1);
 1302              		.loc 1 689 0
 1303 0052 BDF81C00 		ldrh	r0, [sp, #28]
ARM GAS  C:\Users\Alex\AppData\Local\Temp\cchBAlOP.s 			page 36


 1304 0056 0DF10701 		add	r1, sp, #7
 1305 005a 0DF10602 		add	r2, sp, #6
 1306 005e FFF7FEFF 		bl	uint16_to_bytes
 1307              	.LVL158:
 690:..\..\flexsea-system\src/flexsea_cmd_control.c **** 		buf[P_DATA1 + 2] = tmp0;
 1308              		.loc 1 690 0
 1309 0062 9DF80730 		ldrb	r3, [sp, #7]	@ zero_extendqisi2
 1310 0066 A371     		strb	r3, [r4, #6]
 691:..\..\flexsea-system\src/flexsea_cmd_control.c **** 		buf[P_DATA1 + 3] = tmp1;
 1311              		.loc 1 691 0
 1312 0068 9DF80630 		ldrb	r3, [sp, #6]	@ zero_extendqisi2
 1313 006c E371     		strb	r3, [r4, #7]
 692:..\..\flexsea-system\src/flexsea_cmd_control.c **** 		uint16_to_bytes((uint16_t)kd, &tmp0, &tmp1);
 1314              		.loc 1 692 0
 1315 006e BDF82000 		ldrh	r0, [sp, #32]
 1316 0072 0DF10701 		add	r1, sp, #7
 1317 0076 0DF10602 		add	r2, sp, #6
 1318 007a FFF7FEFF 		bl	uint16_to_bytes
 1319              	.LVL159:
 693:..\..\flexsea-system\src/flexsea_cmd_control.c **** 		buf[P_DATA1 + 4] = tmp0;
 1320              		.loc 1 693 0
 1321 007e 9DF80730 		ldrb	r3, [sp, #7]	@ zero_extendqisi2
 1322 0082 2372     		strb	r3, [r4, #8]
 694:..\..\flexsea-system\src/flexsea_cmd_control.c **** 		buf[P_DATA1 + 5] = tmp1;
 1323              		.loc 1 694 0
 1324 0084 9DF80630 		ldrb	r3, [sp, #6]	@ zero_extendqisi2
 1325 0088 6372     		strb	r3, [r4, #9]
 1326              	.LVL160:
 695:..\..\flexsea-system\src/flexsea_cmd_control.c **** 
 696:..\..\flexsea-system\src/flexsea_cmd_control.c **** 
 697:..\..\flexsea-system\src/flexsea_cmd_control.c **** 		bytes = P_DATA1 + 6;     //Bytes is always last+1
 1327              		.loc 1 697 0
 1328 008a 0A20     		movs	r0, #10
 1329 008c 04E0     		b	.L72
 1330              	.LVL161:
 1331              	.L73:
 698:..\..\flexsea-system\src/flexsea_cmd_control.c **** 	}
 699:..\..\flexsea-system\src/flexsea_cmd_control.c **** 	else
 700:..\..\flexsea-system\src/flexsea_cmd_control.c **** 	{
 701:..\..\flexsea-system\src/flexsea_cmd_control.c **** 		//Invalid
 702:..\..\flexsea-system\src/flexsea_cmd_control.c **** 		flexsea_error(SE_INVALID_READ_TYPE);
 1332              		.loc 1 702 0
 1333 008e 4FF48060 		mov	r0, #1024
 1334 0092 FFF7FEFF 		bl	flexsea_error
 1335              	.LVL162:
 703:..\..\flexsea-system\src/flexsea_cmd_control.c **** 		bytes = 0;
 1336              		.loc 1 703 0
 1337 0096 0020     		movs	r0, #0
 1338              	.LVL163:
 1339              	.L72:
 704:..\..\flexsea-system\src/flexsea_cmd_control.c **** 	}
 705:..\..\flexsea-system\src/flexsea_cmd_control.c **** 
 706:..\..\flexsea-system\src/flexsea_cmd_control.c **** 	return bytes;
 707:..\..\flexsea-system\src/flexsea_cmd_control.c **** }
 1340              		.loc 1 707 0
 1341 0098 02B0     		add	sp, sp, #8
 1342              		.cfi_def_cfa_offset 16
ARM GAS  C:\Users\Alex\AppData\Local\Temp\cchBAlOP.s 			page 37


 1343              		@ sp needed
 1344 009a 70BD     		pop	{r4, r5, r6, pc}
 1345              	.LVL164:
 1346              	.L76:
 1347              		.align	2
 1348              	.L75:
 1349 009c 00000000 		.word	board_id
 1350              		.cfi_endproc
 1351              	.LFE73:
 1352              		.size	tx_cmd_ctrl_p_g, .-tx_cmd_ctrl_p_g
 1353              		.section	.text.flexsea_payload_83,"ax",%progbits
 1354              		.align	2
 1355              		.weak	flexsea_payload_83
 1356              		.thumb
 1357              		.thumb_func
 1358              		.type	flexsea_payload_83, %function
 1359              	flexsea_payload_83:
 1360              	.LFB74:
 708:..\..\flexsea-system\src/flexsea_cmd_control.c **** 
 709:..\..\flexsea-system\src/flexsea_cmd_control.c **** //Reception of a CTRL_P_G command
 710:..\..\flexsea-system\src/flexsea_cmd_control.c **** void rx_cmd_ctrl_p_g(uint8_t *buf)
 711:..\..\flexsea-system\src/flexsea_cmd_control.c **** {
 1361              		.loc 1 711 0
 1362              		.cfi_startproc
 1363              		@ args = 0, pretend = 0, frame = 0
 1364              		@ frame_needed = 0, uses_anonymous_args = 0
 1365              	.LVL165:
 1366 0000 70B5     		push	{r4, r5, r6, lr}
 1367              		.cfi_def_cfa_offset 16
 1368              		.cfi_offset 4, -16
 1369              		.cfi_offset 5, -12
 1370              		.cfi_offset 6, -8
 1371              		.cfi_offset 14, -4
 1372 0002 84B0     		sub	sp, sp, #16
 1373              		.cfi_def_cfa_offset 32
 1374              	.LVL166:
 712:..\..\flexsea-system\src/flexsea_cmd_control.c **** 	uint32_t numb = 0;
 713:..\..\flexsea-system\src/flexsea_cmd_control.c **** 	int16_t tmp_kp = 0, tmp_ki = 0, tmp_kd = 0;
 714:..\..\flexsea-system\src/flexsea_cmd_control.c **** 
 715:..\..\flexsea-system\src/flexsea_cmd_control.c **** 	if(IS_CMD_RW(buf[P_CMD1]) == READ)
 1375              		.loc 1 715 0
 1376 0004 C378     		ldrb	r3, [r0, #3]	@ zero_extendqisi2
 1377 0006 13F00103 		ands	r3, r3, #1
 1378 000a 1ED0     		beq	.L78
 716:..\..\flexsea-system\src/flexsea_cmd_control.c **** 	{
 717:..\..\flexsea-system\src/flexsea_cmd_control.c **** 		//Received a Read command from our master, prepare a reply:
 718:..\..\flexsea-system\src/flexsea_cmd_control.c **** 
 719:..\..\flexsea-system\src/flexsea_cmd_control.c **** 		#ifdef BOARD_TYPE_FLEXSEA_EXECUTE
 720:..\..\flexsea-system\src/flexsea_cmd_control.c **** 
 721:..\..\flexsea-system\src/flexsea_cmd_control.c **** 		//Generate the reply:
 722:..\..\flexsea-system\src/flexsea_cmd_control.c **** 		numb = tx_cmd_ctrl_p_g(buf[P_XID], CMD_WRITE, tmp_payload_xmit, PAYLOAD_BUF_LEN, \
 1379              		.loc 1 722 0
 1380 000c 0078     		ldrb	r0, [r0]	@ zero_extendqisi2
 1381              	.LVL167:
 723:..\..\flexsea-system\src/flexsea_cmd_control.c **** 			ctrl.position.gain.P_KP, ctrl.position.gain.P_KI, ctrl.position.gain.P_KD);
 1382              		.loc 1 723 0
 1383 000e 1F4B     		ldr	r3, .L82
ARM GAS  C:\Users\Alex\AppData\Local\Temp\cchBAlOP.s 			page 38


 1384 0010 B3F84C10 		ldrh	r1, [r3, #76]
 1385 0014 B3F84E20 		ldrh	r2, [r3, #78]
 1386 0018 B3F85030 		ldrh	r3, [r3, #80]
 722:..\..\flexsea-system\src/flexsea_cmd_control.c **** 			ctrl.position.gain.P_KP, ctrl.position.gain.P_KI, ctrl.position.gain.P_KD);
 1387              		.loc 1 722 0
 1388 001c 1C4D     		ldr	r5, .L82+4
 1389 001e 09B2     		sxth	r1, r1
 1390 0020 0091     		str	r1, [sp]
 1391 0022 12B2     		sxth	r2, r2
 1392 0024 0192     		str	r2, [sp, #4]
 1393 0026 1BB2     		sxth	r3, r3
 1394 0028 0293     		str	r3, [sp, #8]
 1395 002a 0221     		movs	r1, #2
 1396 002c 2A46     		mov	r2, r5
 1397 002e 2423     		movs	r3, #36
 1398 0030 FFF7FEFF 		bl	tx_cmd_ctrl_p_g
 1399              	.LVL168:
 724:..\..\flexsea-system\src/flexsea_cmd_control.c **** 		numb = comm_gen_str(tmp_payload_xmit, comm_str_485, numb);
 1400              		.loc 1 724 0
 1401 0034 174C     		ldr	r4, .L82+8
 1402 0036 C2B2     		uxtb	r2, r0
 1403 0038 2846     		mov	r0, r5
 1404              	.LVL169:
 1405 003a 2146     		mov	r1, r4
 1406 003c FFF7FEFF 		bl	comm_gen_str
 1407              	.LVL170:
 1408 0040 0146     		mov	r1, r0
 1409              	.LVL171:
 725:..\..\flexsea-system\src/flexsea_cmd_control.c **** 
 726:..\..\flexsea-system\src/flexsea_cmd_control.c **** 		//Notify the code that a buffer is ready to be transmitted:
 727:..\..\flexsea-system\src/flexsea_cmd_control.c **** 		//xmit_flag_1 = 1;
 728:..\..\flexsea-system\src/flexsea_cmd_control.c **** 
 729:..\..\flexsea-system\src/flexsea_cmd_control.c **** 		//(for now, send it)
 730:..\..\flexsea-system\src/flexsea_cmd_control.c **** 		rs485_puts(comm_str_485, numb);
 1410              		.loc 1 730 0
 1411 0042 2046     		mov	r0, r4
 1412              	.LVL172:
 1413 0044 FFF7FEFF 		bl	rs485_puts
 1414              	.LVL173:
 1415 0048 1EE0     		b	.L77
 1416              	.LVL174:
 1417              	.L78:
 731:..\..\flexsea-system\src/flexsea_cmd_control.c **** 
 732:..\..\flexsea-system\src/flexsea_cmd_control.c **** 		#endif	//BOARD_TYPE_FLEXSEA_EXECUTE
 733:..\..\flexsea-system\src/flexsea_cmd_control.c **** 	}
 734:..\..\flexsea-system\src/flexsea_cmd_control.c **** 	else if(IS_CMD_RW(buf[P_CMD1]) == WRITE)
 1418              		.loc 1 734 0
 1419 004a EBB9     		cbnz	r3, .L77
 735:..\..\flexsea-system\src/flexsea_cmd_control.c **** 	{
 736:..\..\flexsea-system\src/flexsea_cmd_control.c **** 		//Two options: from Master of from slave (a read reply)
 737:..\..\flexsea-system\src/flexsea_cmd_control.c **** 
 738:..\..\flexsea-system\src/flexsea_cmd_control.c **** 		//Decode data:
 739:..\..\flexsea-system\src/flexsea_cmd_control.c **** 		tmp_kp = (int16_t) (BYTES_TO_UINT16(buf[P_DATA1 + 0], buf[P_DATA1 + 1]));
 1420              		.loc 1 739 0
 1421 004c 0279     		ldrb	r2, [r0, #4]	@ zero_extendqisi2
 1422 004e 4379     		ldrb	r3, [r0, #5]	@ zero_extendqisi2
 1423 0050 03EB0223 		add	r3, r3, r2, lsl #8
ARM GAS  C:\Users\Alex\AppData\Local\Temp\cchBAlOP.s 			page 39


 1424 0054 9EB2     		uxth	r6, r3
 1425              	.LVL175:
 740:..\..\flexsea-system\src/flexsea_cmd_control.c **** 		tmp_ki = (int16_t) (BYTES_TO_UINT16(buf[P_DATA1 + 2], buf[P_DATA1 + 3]));
 1426              		.loc 1 740 0
 1427 0056 8279     		ldrb	r2, [r0, #6]	@ zero_extendqisi2
 1428 0058 C379     		ldrb	r3, [r0, #7]	@ zero_extendqisi2
 1429 005a 03EB0223 		add	r3, r3, r2, lsl #8
 1430 005e 9DB2     		uxth	r5, r3
 1431              	.LVL176:
 741:..\..\flexsea-system\src/flexsea_cmd_control.c **** 		tmp_kd = (int16_t) (BYTES_TO_UINT16(buf[P_DATA1 + 4], buf[P_DATA1 + 5]));
 1432              		.loc 1 741 0
 1433 0060 027A     		ldrb	r2, [r0, #8]	@ zero_extendqisi2
 1434 0062 437A     		ldrb	r3, [r0, #9]	@ zero_extendqisi2
 1435 0064 03EB0223 		add	r3, r3, r2, lsl #8
 1436 0068 9CB2     		uxth	r4, r3
 1437              	.LVL177:
 742:..\..\flexsea-system\src/flexsea_cmd_control.c **** 		//ToDo store that value somewhere useful
 743:..\..\flexsea-system\src/flexsea_cmd_control.c **** 
 744:..\..\flexsea-system\src/flexsea_cmd_control.c **** 		if(sent_from_a_slave(buf))
 1438              		.loc 1 744 0
 1439 006a FFF7FEFF 		bl	sent_from_a_slave
 1440              	.LVL178:
 1441 006e 20B1     		cbz	r0, .L80
 745:..\..\flexsea-system\src/flexsea_cmd_control.c **** 		{
 746:..\..\flexsea-system\src/flexsea_cmd_control.c **** 			//We received a reply to our read request
 747:..\..\flexsea-system\src/flexsea_cmd_control.c **** 
 748:..\..\flexsea-system\src/flexsea_cmd_control.c **** 			#ifdef BOARD_TYPE_FLEXSEA_EXECUTE
 749:..\..\flexsea-system\src/flexsea_cmd_control.c **** 			//No code (yet), you shouldn't be here...
 750:..\..\flexsea-system\src/flexsea_cmd_control.c **** 			flexsea_error(SE_CMD_NOT_PROGRAMMED);
 1442              		.loc 1 750 0
 1443 0070 4FF40070 		mov	r0, #512
 1444 0074 FFF7FEFF 		bl	flexsea_error
 1445              	.LVL179:
 1446 0078 06E0     		b	.L77
 1447              	.L80:
 751:..\..\flexsea-system\src/flexsea_cmd_control.c **** 			#endif	//BOARD_TYPE_FLEXSEA_EXECUTE
 752:..\..\flexsea-system\src/flexsea_cmd_control.c **** 
 753:..\..\flexsea-system\src/flexsea_cmd_control.c **** 			#if((defined BOARD_TYPE_FLEXSEA_MANAGE) || (defined BOARD_TYPE_FLEXSEA_PLAN))
 754:..\..\flexsea-system\src/flexsea_cmd_control.c **** 
 755:..\..\flexsea-system\src/flexsea_cmd_control.c **** 			//Store value:
 756:..\..\flexsea-system\src/flexsea_cmd_control.c **** 			exec1.ctrl.position.gain.I_KP = tmp_kp;
 757:..\..\flexsea-system\src/flexsea_cmd_control.c **** 			exec1.ctrl.position.gain.I_KI = tmp_ki;
 758:..\..\flexsea-system\src/flexsea_cmd_control.c **** 			exec1.ctrl.position.gain.I_KD = tmp_kd;
 759:..\..\flexsea-system\src/flexsea_cmd_control.c **** 
 760:..\..\flexsea-system\src/flexsea_cmd_control.c **** 			#endif	//((defined BOARD_TYPE_FLEXSEA_MANAGE) || (defined BOARD_TYPE_FLEXSEA_PLAN))
 761:..\..\flexsea-system\src/flexsea_cmd_control.c **** 
 762:..\..\flexsea-system\src/flexsea_cmd_control.c **** 		}
 763:..\..\flexsea-system\src/flexsea_cmd_control.c **** 		else
 764:..\..\flexsea-system\src/flexsea_cmd_control.c **** 		{
 765:..\..\flexsea-system\src/flexsea_cmd_control.c **** 			//Master is writing a value to this board
 766:..\..\flexsea-system\src/flexsea_cmd_control.c **** 
 767:..\..\flexsea-system\src/flexsea_cmd_control.c **** 			#ifdef BOARD_TYPE_FLEXSEA_EXECUTE
 768:..\..\flexsea-system\src/flexsea_cmd_control.c **** 
 769:..\..\flexsea-system\src/flexsea_cmd_control.c **** 			//Store value:
 770:..\..\flexsea-system\src/flexsea_cmd_control.c **** 			ctrl.position.gain.P_KP = tmp_kp;
 1448              		.loc 1 770 0
 1449 007a 044B     		ldr	r3, .L82
ARM GAS  C:\Users\Alex\AppData\Local\Temp\cchBAlOP.s 			page 40


 1450 007c A3F84C60 		strh	r6, [r3, #76]	@ movhi
 771:..\..\flexsea-system\src/flexsea_cmd_control.c **** 			ctrl.position.gain.P_KI = tmp_ki;
 1451              		.loc 1 771 0
 1452 0080 A3F84E50 		strh	r5, [r3, #78]	@ movhi
 772:..\..\flexsea-system\src/flexsea_cmd_control.c **** 			ctrl.position.gain.P_KD = tmp_kd;
 1453              		.loc 1 772 0
 1454 0084 A3F85040 		strh	r4, [r3, #80]	@ movhi
 1455              	.LVL180:
 1456              	.L77:
 773:..\..\flexsea-system\src/flexsea_cmd_control.c **** 			//ToDo: do we need to call something?
 774:..\..\flexsea-system\src/flexsea_cmd_control.c **** 
 775:..\..\flexsea-system\src/flexsea_cmd_control.c **** 			#endif	//BOARD_TYPE_FLEXSEA_EXECUTE
 776:..\..\flexsea-system\src/flexsea_cmd_control.c **** 		}
 777:..\..\flexsea-system\src/flexsea_cmd_control.c **** 	}
 778:..\..\flexsea-system\src/flexsea_cmd_control.c **** }
 1457              		.loc 1 778 0
 1458 0088 04B0     		add	sp, sp, #16
 1459              		.cfi_def_cfa_offset 16
 1460              		@ sp needed
 1461 008a 70BD     		pop	{r4, r5, r6, pc}
 1462              	.L83:
 1463              		.align	2
 1464              	.L82:
 1465 008c 00000000 		.word	ctrl
 1466 0090 00000000 		.word	tmp_payload_xmit
 1467 0094 00000000 		.word	comm_str_1
 1468              		.cfi_endproc
 1469              	.LFE74:
 1470              		.size	flexsea_payload_83, .-flexsea_payload_83
 1471              		.section	.text.tx_cmd_ctrl_z_g,"ax",%progbits
 1472              		.align	2
 1473              		.global	tx_cmd_ctrl_z_g
 1474              		.thumb
 1475              		.thumb_func
 1476              		.type	tx_cmd_ctrl_z_g, %function
 1477              	tx_cmd_ctrl_z_g:
 1478              	.LFB75:
 779:..\..\flexsea-system\src/flexsea_cmd_control.c **** 
 780:..\..\flexsea-system\src/flexsea_cmd_control.c **** //Transmission of a CTRL_Z_G command
 781:..\..\flexsea-system\src/flexsea_cmd_control.c **** uint32_t tx_cmd_ctrl_z_g(uint8_t receiver, uint8_t cmd_type, uint8_t *buf, uint32_t len, \
 782:..\..\flexsea-system\src/flexsea_cmd_control.c **** 						int16_t zk, int16_t zb, int16_t zi)
 783:..\..\flexsea-system\src/flexsea_cmd_control.c **** {
 1479              		.loc 1 783 0
 1480              		.cfi_startproc
 1481              		@ args = 12, pretend = 0, frame = 8
 1482              		@ frame_needed = 0, uses_anonymous_args = 0
 1483              	.LVL181:
 1484 0000 70B5     		push	{r4, r5, r6, lr}
 1485              		.cfi_def_cfa_offset 16
 1486              		.cfi_offset 4, -16
 1487              		.cfi_offset 5, -12
 1488              		.cfi_offset 6, -8
 1489              		.cfi_offset 14, -4
 1490 0002 82B0     		sub	sp, sp, #8
 1491              		.cfi_def_cfa_offset 24
 1492 0004 0646     		mov	r6, r0
 1493 0006 0D46     		mov	r5, r1
ARM GAS  C:\Users\Alex\AppData\Local\Temp\cchBAlOP.s 			page 41


 1494 0008 1446     		mov	r4, r2
 784:..\..\flexsea-system\src/flexsea_cmd_control.c **** 	uint8_t tmp0 = 0, tmp1 = 0;
 1495              		.loc 1 784 0
 1496 000a 0021     		movs	r1, #0
 1497              	.LVL182:
 1498 000c 8DF80710 		strb	r1, [sp, #7]
 1499 0010 8DF80610 		strb	r1, [sp, #6]
 1500              	.LVL183:
 785:..\..\flexsea-system\src/flexsea_cmd_control.c **** 	uint32_t bytes = 0;
 786:..\..\flexsea-system\src/flexsea_cmd_control.c **** 
 787:..\..\flexsea-system\src/flexsea_cmd_control.c **** 	//Fresh payload string:
 788:..\..\flexsea-system\src/flexsea_cmd_control.c **** 	prepare_empty_payload(board_id, receiver, buf, len);
 1501              		.loc 1 788 0
 1502 0014 2149     		ldr	r1, .L89
 1503 0016 0878     		ldrb	r0, [r1]	@ zero_extendqisi2
 1504              	.LVL184:
 1505 0018 3146     		mov	r1, r6
 1506 001a FFF7FEFF 		bl	prepare_empty_payload
 1507              	.LVL185:
 789:..\..\flexsea-system\src/flexsea_cmd_control.c **** 
 790:..\..\flexsea-system\src/flexsea_cmd_control.c **** 	//Command:
 791:..\..\flexsea-system\src/flexsea_cmd_control.c **** 	buf[P_CMDS] = 1;                     //1 command in string
 1508              		.loc 1 791 0
 1509 001e 0123     		movs	r3, #1
 1510 0020 A370     		strb	r3, [r4, #2]
 792:..\..\flexsea-system\src/flexsea_cmd_control.c **** 
 793:..\..\flexsea-system\src/flexsea_cmd_control.c **** 	if(cmd_type == CMD_READ)
 1511              		.loc 1 793 0
 1512 0022 9D42     		cmp	r5, r3
 1513 0024 03D1     		bne	.L85
 794:..\..\flexsea-system\src/flexsea_cmd_control.c **** 	{
 795:..\..\flexsea-system\src/flexsea_cmd_control.c **** 		buf[P_CMD1] = CMD_R(CMD_CTRL_Z_G);
 1514              		.loc 1 795 0
 1515 0026 A923     		movs	r3, #169
 1516 0028 E370     		strb	r3, [r4, #3]
 1517              	.LVL186:
 796:..\..\flexsea-system\src/flexsea_cmd_control.c **** 
 797:..\..\flexsea-system\src/flexsea_cmd_control.c **** 		bytes = P_CMD1 + 1;     //Bytes is always last+1
 1518              		.loc 1 797 0
 1519 002a 0420     		movs	r0, #4
 1520 002c 34E0     		b	.L86
 1521              	.LVL187:
 1522              	.L85:
 798:..\..\flexsea-system\src/flexsea_cmd_control.c **** 	}
 799:..\..\flexsea-system\src/flexsea_cmd_control.c **** 	else if(cmd_type == CMD_WRITE)
 1523              		.loc 1 799 0
 1524 002e 022D     		cmp	r5, #2
 1525 0030 2DD1     		bne	.L87
 800:..\..\flexsea-system\src/flexsea_cmd_control.c **** 	{
 801:..\..\flexsea-system\src/flexsea_cmd_control.c **** 		buf[P_CMD1] = CMD_W(CMD_CTRL_Z_G);
 1526              		.loc 1 801 0
 1527 0032 A823     		movs	r3, #168
 1528 0034 E370     		strb	r3, [r4, #3]
 802:..\..\flexsea-system\src/flexsea_cmd_control.c **** 
 803:..\..\flexsea-system\src/flexsea_cmd_control.c **** 		//Arguments:
 804:..\..\flexsea-system\src/flexsea_cmd_control.c **** 		uint16_to_bytes((uint16_t)zk, &tmp0, &tmp1);
 1529              		.loc 1 804 0
ARM GAS  C:\Users\Alex\AppData\Local\Temp\cchBAlOP.s 			page 42


 1530 0036 BDF81800 		ldrh	r0, [sp, #24]
 1531 003a 0DF10701 		add	r1, sp, #7
 1532 003e 0DF10602 		add	r2, sp, #6
 1533 0042 FFF7FEFF 		bl	uint16_to_bytes
 1534              	.LVL188:
 805:..\..\flexsea-system\src/flexsea_cmd_control.c **** 		buf[P_DATA1 + 0] = tmp0;
 1535              		.loc 1 805 0
 1536 0046 9DF80730 		ldrb	r3, [sp, #7]	@ zero_extendqisi2
 1537 004a 2371     		strb	r3, [r4, #4]
 806:..\..\flexsea-system\src/flexsea_cmd_control.c **** 		buf[P_DATA1 + 1] = tmp1;
 1538              		.loc 1 806 0
 1539 004c 9DF80630 		ldrb	r3, [sp, #6]	@ zero_extendqisi2
 1540 0050 6371     		strb	r3, [r4, #5]
 807:..\..\flexsea-system\src/flexsea_cmd_control.c **** 		uint16_to_bytes((uint16_t)zb, &tmp0, &tmp1);
 1541              		.loc 1 807 0
 1542 0052 BDF81C00 		ldrh	r0, [sp, #28]
 1543 0056 0DF10701 		add	r1, sp, #7
 1544 005a 0DF10602 		add	r2, sp, #6
 1545 005e FFF7FEFF 		bl	uint16_to_bytes
 1546              	.LVL189:
 808:..\..\flexsea-system\src/flexsea_cmd_control.c **** 		buf[P_DATA1 + 2] = tmp0;
 1547              		.loc 1 808 0
 1548 0062 9DF80730 		ldrb	r3, [sp, #7]	@ zero_extendqisi2
 1549 0066 A371     		strb	r3, [r4, #6]
 809:..\..\flexsea-system\src/flexsea_cmd_control.c **** 		buf[P_DATA1 + 3] = tmp1;
 1550              		.loc 1 809 0
 1551 0068 9DF80630 		ldrb	r3, [sp, #6]	@ zero_extendqisi2
 1552 006c E371     		strb	r3, [r4, #7]
 810:..\..\flexsea-system\src/flexsea_cmd_control.c **** 		uint16_to_bytes((uint16_t)zi, &tmp0, &tmp1);
 1553              		.loc 1 810 0
 1554 006e BDF82000 		ldrh	r0, [sp, #32]
 1555 0072 0DF10701 		add	r1, sp, #7
 1556 0076 0DF10602 		add	r2, sp, #6
 1557 007a FFF7FEFF 		bl	uint16_to_bytes
 1558              	.LVL190:
 811:..\..\flexsea-system\src/flexsea_cmd_control.c **** 		buf[P_DATA1 + 4] = tmp0;
 1559              		.loc 1 811 0
 1560 007e 9DF80730 		ldrb	r3, [sp, #7]	@ zero_extendqisi2
 1561 0082 2372     		strb	r3, [r4, #8]
 812:..\..\flexsea-system\src/flexsea_cmd_control.c **** 		buf[P_DATA1 + 5] = tmp1;
 1562              		.loc 1 812 0
 1563 0084 9DF80630 		ldrb	r3, [sp, #6]	@ zero_extendqisi2
 1564 0088 6372     		strb	r3, [r4, #9]
 1565              	.LVL191:
 813:..\..\flexsea-system\src/flexsea_cmd_control.c **** 
 814:..\..\flexsea-system\src/flexsea_cmd_control.c **** 
 815:..\..\flexsea-system\src/flexsea_cmd_control.c **** 		bytes = P_DATA1 + 6;     //Bytes is always last+1
 1566              		.loc 1 815 0
 1567 008a 0A20     		movs	r0, #10
 1568 008c 04E0     		b	.L86
 1569              	.LVL192:
 1570              	.L87:
 816:..\..\flexsea-system\src/flexsea_cmd_control.c **** 	}
 817:..\..\flexsea-system\src/flexsea_cmd_control.c **** 	else
 818:..\..\flexsea-system\src/flexsea_cmd_control.c **** 	{
 819:..\..\flexsea-system\src/flexsea_cmd_control.c **** 		//Invalid
 820:..\..\flexsea-system\src/flexsea_cmd_control.c **** 		flexsea_error(SE_INVALID_READ_TYPE);
ARM GAS  C:\Users\Alex\AppData\Local\Temp\cchBAlOP.s 			page 43


 1571              		.loc 1 820 0
 1572 008e 4FF48060 		mov	r0, #1024
 1573 0092 FFF7FEFF 		bl	flexsea_error
 1574              	.LVL193:
 821:..\..\flexsea-system\src/flexsea_cmd_control.c **** 		bytes = 0;
 1575              		.loc 1 821 0
 1576 0096 0020     		movs	r0, #0
 1577              	.LVL194:
 1578              	.L86:
 822:..\..\flexsea-system\src/flexsea_cmd_control.c **** 	}
 823:..\..\flexsea-system\src/flexsea_cmd_control.c **** 
 824:..\..\flexsea-system\src/flexsea_cmd_control.c **** 	return bytes;
 825:..\..\flexsea-system\src/flexsea_cmd_control.c **** }
 1579              		.loc 1 825 0
 1580 0098 02B0     		add	sp, sp, #8
 1581              		.cfi_def_cfa_offset 16
 1582              		@ sp needed
 1583 009a 70BD     		pop	{r4, r5, r6, pc}
 1584              	.LVL195:
 1585              	.L90:
 1586              		.align	2
 1587              	.L89:
 1588 009c 00000000 		.word	board_id
 1589              		.cfi_endproc
 1590              	.LFE75:
 1591              		.size	tx_cmd_ctrl_z_g, .-tx_cmd_ctrl_z_g
 1592              		.section	.text.flexsea_payload_84,"ax",%progbits
 1593              		.align	2
 1594              		.weak	flexsea_payload_84
 1595              		.thumb
 1596              		.thumb_func
 1597              		.type	flexsea_payload_84, %function
 1598              	flexsea_payload_84:
 1599              	.LFB76:
 826:..\..\flexsea-system\src/flexsea_cmd_control.c **** 
 827:..\..\flexsea-system\src/flexsea_cmd_control.c **** //Reception of a CTRL_Z_G command
 828:..\..\flexsea-system\src/flexsea_cmd_control.c **** void rx_cmd_ctrl_z_g(uint8_t *buf)
 829:..\..\flexsea-system\src/flexsea_cmd_control.c **** {
 1600              		.loc 1 829 0
 1601              		.cfi_startproc
 1602              		@ args = 0, pretend = 0, frame = 0
 1603              		@ frame_needed = 0, uses_anonymous_args = 0
 1604              	.LVL196:
 1605 0000 70B5     		push	{r4, r5, r6, lr}
 1606              		.cfi_def_cfa_offset 16
 1607              		.cfi_offset 4, -16
 1608              		.cfi_offset 5, -12
 1609              		.cfi_offset 6, -8
 1610              		.cfi_offset 14, -4
 1611 0002 84B0     		sub	sp, sp, #16
 1612              		.cfi_def_cfa_offset 32
 1613              	.LVL197:
 830:..\..\flexsea-system\src/flexsea_cmd_control.c **** 	uint32_t numb = 0;
 831:..\..\flexsea-system\src/flexsea_cmd_control.c **** 	int16_t tmp_zk = 0, tmp_zb = 0, tmp_zi = 0;
 832:..\..\flexsea-system\src/flexsea_cmd_control.c **** 
 833:..\..\flexsea-system\src/flexsea_cmd_control.c **** 	if(IS_CMD_RW(buf[P_CMD1]) == READ)
 1614              		.loc 1 833 0
ARM GAS  C:\Users\Alex\AppData\Local\Temp\cchBAlOP.s 			page 44


 1615 0004 C378     		ldrb	r3, [r0, #3]	@ zero_extendqisi2
 1616 0006 13F00103 		ands	r3, r3, #1
 1617 000a 1ED0     		beq	.L92
 834:..\..\flexsea-system\src/flexsea_cmd_control.c **** 	{
 835:..\..\flexsea-system\src/flexsea_cmd_control.c **** 		//Received a Read command from our master, prepare a reply:
 836:..\..\flexsea-system\src/flexsea_cmd_control.c **** 
 837:..\..\flexsea-system\src/flexsea_cmd_control.c **** 		#ifdef BOARD_TYPE_FLEXSEA_EXECUTE
 838:..\..\flexsea-system\src/flexsea_cmd_control.c **** 
 839:..\..\flexsea-system\src/flexsea_cmd_control.c **** 		//Generate the reply:
 840:..\..\flexsea-system\src/flexsea_cmd_control.c **** 		numb = tx_cmd_ctrl_z_g(buf[P_XID], CMD_WRITE, tmp_payload_xmit, PAYLOAD_BUF_LEN, \
 1618              		.loc 1 840 0
 1619 000c 0078     		ldrb	r0, [r0]	@ zero_extendqisi2
 1620              	.LVL198:
 841:..\..\flexsea-system\src/flexsea_cmd_control.c **** 			ctrl.impedance.gain.Z_K, ctrl.impedance.gain.Z_B, ctrl.impedance.gain.Z_I);
 1621              		.loc 1 841 0
 1622 000e 1F4B     		ldr	r3, .L96
 1623 0010 B3F88010 		ldrh	r1, [r3, #128]
 1624 0014 B3F88220 		ldrh	r2, [r3, #130]
 1625 0018 B3F88430 		ldrh	r3, [r3, #132]
 840:..\..\flexsea-system\src/flexsea_cmd_control.c **** 			ctrl.impedance.gain.Z_K, ctrl.impedance.gain.Z_B, ctrl.impedance.gain.Z_I);
 1626              		.loc 1 840 0
 1627 001c 1C4D     		ldr	r5, .L96+4
 1628 001e 09B2     		sxth	r1, r1
 1629 0020 0091     		str	r1, [sp]
 1630 0022 12B2     		sxth	r2, r2
 1631 0024 0192     		str	r2, [sp, #4]
 1632 0026 1BB2     		sxth	r3, r3
 1633 0028 0293     		str	r3, [sp, #8]
 1634 002a 0221     		movs	r1, #2
 1635 002c 2A46     		mov	r2, r5
 1636 002e 2423     		movs	r3, #36
 1637 0030 FFF7FEFF 		bl	tx_cmd_ctrl_z_g
 1638              	.LVL199:
 842:..\..\flexsea-system\src/flexsea_cmd_control.c **** 		numb = comm_gen_str(tmp_payload_xmit, comm_str_485, numb);
 1639              		.loc 1 842 0
 1640 0034 174C     		ldr	r4, .L96+8
 1641 0036 C2B2     		uxtb	r2, r0
 1642 0038 2846     		mov	r0, r5
 1643              	.LVL200:
 1644 003a 2146     		mov	r1, r4
 1645 003c FFF7FEFF 		bl	comm_gen_str
 1646              	.LVL201:
 1647 0040 0146     		mov	r1, r0
 1648              	.LVL202:
 843:..\..\flexsea-system\src/flexsea_cmd_control.c **** 
 844:..\..\flexsea-system\src/flexsea_cmd_control.c **** 		//Notify the code that a buffer is ready to be transmitted:
 845:..\..\flexsea-system\src/flexsea_cmd_control.c **** 		//xmit_flag_1 = 1;
 846:..\..\flexsea-system\src/flexsea_cmd_control.c **** 
 847:..\..\flexsea-system\src/flexsea_cmd_control.c **** 		//(for now, send it)
 848:..\..\flexsea-system\src/flexsea_cmd_control.c **** 		rs485_puts(comm_str_485, numb);
 1649              		.loc 1 848 0
 1650 0042 2046     		mov	r0, r4
 1651              	.LVL203:
 1652 0044 FFF7FEFF 		bl	rs485_puts
 1653              	.LVL204:
 1654 0048 1EE0     		b	.L91
 1655              	.LVL205:
ARM GAS  C:\Users\Alex\AppData\Local\Temp\cchBAlOP.s 			page 45


 1656              	.L92:
 849:..\..\flexsea-system\src/flexsea_cmd_control.c **** 
 850:..\..\flexsea-system\src/flexsea_cmd_control.c **** 		#endif	//BOARD_TYPE_FLEXSEA_EXECUTE
 851:..\..\flexsea-system\src/flexsea_cmd_control.c **** 	}
 852:..\..\flexsea-system\src/flexsea_cmd_control.c **** 	else if(IS_CMD_RW(buf[P_CMD1]) == WRITE)
 1657              		.loc 1 852 0
 1658 004a EBB9     		cbnz	r3, .L91
 853:..\..\flexsea-system\src/flexsea_cmd_control.c **** 	{
 854:..\..\flexsea-system\src/flexsea_cmd_control.c **** 		//Two options: from Master of from slave (a read reply)
 855:..\..\flexsea-system\src/flexsea_cmd_control.c **** 
 856:..\..\flexsea-system\src/flexsea_cmd_control.c **** 		//Decode data:
 857:..\..\flexsea-system\src/flexsea_cmd_control.c **** 		tmp_zk = (int16_t) (BYTES_TO_UINT16(buf[P_DATA1 + 0], buf[P_DATA1 + 1]));
 1659              		.loc 1 857 0
 1660 004c 0279     		ldrb	r2, [r0, #4]	@ zero_extendqisi2
 1661 004e 4379     		ldrb	r3, [r0, #5]	@ zero_extendqisi2
 1662 0050 03EB0223 		add	r3, r3, r2, lsl #8
 1663 0054 9EB2     		uxth	r6, r3
 1664              	.LVL206:
 858:..\..\flexsea-system\src/flexsea_cmd_control.c **** 		tmp_zb = (int16_t) (BYTES_TO_UINT16(buf[P_DATA1 + 2], buf[P_DATA1 + 3]));
 1665              		.loc 1 858 0
 1666 0056 8279     		ldrb	r2, [r0, #6]	@ zero_extendqisi2
 1667 0058 C379     		ldrb	r3, [r0, #7]	@ zero_extendqisi2
 1668 005a 03EB0223 		add	r3, r3, r2, lsl #8
 1669 005e 9DB2     		uxth	r5, r3
 1670              	.LVL207:
 859:..\..\flexsea-system\src/flexsea_cmd_control.c **** 		tmp_zi = (int16_t) (BYTES_TO_UINT16(buf[P_DATA1 + 4], buf[P_DATA1 + 5]));
 1671              		.loc 1 859 0
 1672 0060 027A     		ldrb	r2, [r0, #8]	@ zero_extendqisi2
 1673 0062 437A     		ldrb	r3, [r0, #9]	@ zero_extendqisi2
 1674 0064 03EB0223 		add	r3, r3, r2, lsl #8
 1675 0068 9CB2     		uxth	r4, r3
 1676              	.LVL208:
 860:..\..\flexsea-system\src/flexsea_cmd_control.c **** 		//ToDo store that value somewhere useful
 861:..\..\flexsea-system\src/flexsea_cmd_control.c **** 
 862:..\..\flexsea-system\src/flexsea_cmd_control.c **** 		if(sent_from_a_slave(buf))
 1677              		.loc 1 862 0
 1678 006a FFF7FEFF 		bl	sent_from_a_slave
 1679              	.LVL209:
 1680 006e 20B1     		cbz	r0, .L94
 863:..\..\flexsea-system\src/flexsea_cmd_control.c **** 		{
 864:..\..\flexsea-system\src/flexsea_cmd_control.c **** 			//We received a reply to our read request
 865:..\..\flexsea-system\src/flexsea_cmd_control.c **** 
 866:..\..\flexsea-system\src/flexsea_cmd_control.c **** 			#ifdef BOARD_TYPE_FLEXSEA_EXECUTE
 867:..\..\flexsea-system\src/flexsea_cmd_control.c **** 			//No code (yet), you shouldn't be here...
 868:..\..\flexsea-system\src/flexsea_cmd_control.c **** 			flexsea_error(SE_CMD_NOT_PROGRAMMED);
 1681              		.loc 1 868 0
 1682 0070 4FF40070 		mov	r0, #512
 1683 0074 FFF7FEFF 		bl	flexsea_error
 1684              	.LVL210:
 1685 0078 06E0     		b	.L91
 1686              	.L94:
 869:..\..\flexsea-system\src/flexsea_cmd_control.c **** 			#endif	//BOARD_TYPE_FLEXSEA_EXECUTE
 870:..\..\flexsea-system\src/flexsea_cmd_control.c **** 
 871:..\..\flexsea-system\src/flexsea_cmd_control.c **** 			#if((defined BOARD_TYPE_FLEXSEA_MANAGE) || (defined BOARD_TYPE_FLEXSEA_PLAN))
 872:..\..\flexsea-system\src/flexsea_cmd_control.c **** 
 873:..\..\flexsea-system\src/flexsea_cmd_control.c **** 			//Store value:
 874:..\..\flexsea-system\src/flexsea_cmd_control.c **** 			exec1.ctrl.impedance.gain.Z_K = tmp_zk;
ARM GAS  C:\Users\Alex\AppData\Local\Temp\cchBAlOP.s 			page 46


 875:..\..\flexsea-system\src/flexsea_cmd_control.c **** 			exec1.ctrl.impedance.gain.Z_B = tmp_zb;
 876:..\..\flexsea-system\src/flexsea_cmd_control.c **** 			exec1.ctrl.impedance.gain.Z_I = tmp_zi;
 877:..\..\flexsea-system\src/flexsea_cmd_control.c **** 
 878:..\..\flexsea-system\src/flexsea_cmd_control.c **** 			#endif	//((defined BOARD_TYPE_FLEXSEA_MANAGE) || (defined BOARD_TYPE_FLEXSEA_PLAN))
 879:..\..\flexsea-system\src/flexsea_cmd_control.c **** 
 880:..\..\flexsea-system\src/flexsea_cmd_control.c **** 		}
 881:..\..\flexsea-system\src/flexsea_cmd_control.c **** 		else
 882:..\..\flexsea-system\src/flexsea_cmd_control.c **** 		{
 883:..\..\flexsea-system\src/flexsea_cmd_control.c **** 			//Master is writing a value to this board
 884:..\..\flexsea-system\src/flexsea_cmd_control.c **** 
 885:..\..\flexsea-system\src/flexsea_cmd_control.c **** 			#ifdef BOARD_TYPE_FLEXSEA_EXECUTE
 886:..\..\flexsea-system\src/flexsea_cmd_control.c **** 
 887:..\..\flexsea-system\src/flexsea_cmd_control.c **** 			//Store value:
 888:..\..\flexsea-system\src/flexsea_cmd_control.c **** 			ctrl.impedance.gain.Z_K = tmp_zk;
 1687              		.loc 1 888 0
 1688 007a 044B     		ldr	r3, .L96
 1689 007c A3F88060 		strh	r6, [r3, #128]	@ movhi
 889:..\..\flexsea-system\src/flexsea_cmd_control.c **** 			ctrl.impedance.gain.Z_B = tmp_zb;
 1690              		.loc 1 889 0
 1691 0080 A3F88250 		strh	r5, [r3, #130]	@ movhi
 890:..\..\flexsea-system\src/flexsea_cmd_control.c **** 			ctrl.impedance.gain.Z_I = tmp_zi;
 1692              		.loc 1 890 0
 1693 0084 A3F88440 		strh	r4, [r3, #132]	@ movhi
 1694              	.LVL211:
 1695              	.L91:
 891:..\..\flexsea-system\src/flexsea_cmd_control.c **** 			//ToDo: do we need to call something?
 892:..\..\flexsea-system\src/flexsea_cmd_control.c **** 
 893:..\..\flexsea-system\src/flexsea_cmd_control.c **** 			#endif	//BOARD_TYPE_FLEXSEA_EXECUTE
 894:..\..\flexsea-system\src/flexsea_cmd_control.c **** 		}
 895:..\..\flexsea-system\src/flexsea_cmd_control.c **** 	}
 896:..\..\flexsea-system\src/flexsea_cmd_control.c **** }
 1696              		.loc 1 896 0
 1697 0088 04B0     		add	sp, sp, #16
 1698              		.cfi_def_cfa_offset 16
 1699              		@ sp needed
 1700 008a 70BD     		pop	{r4, r5, r6, pc}
 1701              	.L97:
 1702              		.align	2
 1703              	.L96:
 1704 008c 00000000 		.word	ctrl
 1705 0090 00000000 		.word	tmp_payload_xmit
 1706 0094 00000000 		.word	comm_str_1
 1707              		.cfi_endproc
 1708              	.LFE76:
 1709              		.size	flexsea_payload_84, .-flexsea_payload_84
 1710              		.section	.text.tx_cmd_in_control,"ax",%progbits
 1711              		.align	2
 1712              		.global	tx_cmd_in_control
 1713              		.thumb
 1714              		.thumb_func
 1715              		.type	tx_cmd_in_control, %function
 1716              	tx_cmd_in_control:
 1717              	.LFB77:
 897:..\..\flexsea-system\src/flexsea_cmd_control.c **** 
 898:..\..\flexsea-system\src/flexsea_cmd_control.c **** //Transmission of an IN_CONTROL command
 899:..\..\flexsea-system\src/flexsea_cmd_control.c **** //Note: we can only write one parameter at the time (that's what we need for typical use cases).
 900:..\..\flexsea-system\src/flexsea_cmd_control.c **** //'select_w' will determine what variable is written.
ARM GAS  C:\Users\Alex\AppData\Local\Temp\cchBAlOP.s 			page 47


 901:..\..\flexsea-system\src/flexsea_cmd_control.c **** uint32_t tx_cmd_in_control(uint8_t receiver, uint8_t cmd_type, uint8_t *buf, uint32_t len, uint8_t 
 902:..\..\flexsea-system\src/flexsea_cmd_control.c **** {
 1718              		.loc 1 902 0
 1719              		.cfi_startproc
 1720              		@ args = 4, pretend = 0, frame = 8
 1721              		@ frame_needed = 0, uses_anonymous_args = 0
 1722              	.LVL212:
 1723 0000 F0B5     		push	{r4, r5, r6, r7, lr}
 1724              		.cfi_def_cfa_offset 20
 1725              		.cfi_offset 4, -20
 1726              		.cfi_offset 5, -16
 1727              		.cfi_offset 6, -12
 1728              		.cfi_offset 7, -8
 1729              		.cfi_offset 14, -4
 1730 0002 85B0     		sub	sp, sp, #20
 1731              		.cfi_def_cfa_offset 40
 1732 0004 0746     		mov	r7, r0
 1733 0006 0D46     		mov	r5, r1
 1734 0008 1446     		mov	r4, r2
 1735 000a 9DF82860 		ldrb	r6, [sp, #40]	@ zero_extendqisi2
 903:..\..\flexsea-system\src/flexsea_cmd_control.c **** 	uint8_t tmp0 = 0, tmp1 = 0, tmp2 = 0, tmp3 = 0;
 1736              		.loc 1 903 0
 1737 000e 0021     		movs	r1, #0
 1738              	.LVL213:
 1739 0010 8DF80F10 		strb	r1, [sp, #15]
 1740 0014 8DF80E10 		strb	r1, [sp, #14]
 1741 0018 8DF80D10 		strb	r1, [sp, #13]
 1742 001c 8DF80C10 		strb	r1, [sp, #12]
 1743              	.LVL214:
 904:..\..\flexsea-system\src/flexsea_cmd_control.c **** 	uint32_t bytes = 0;
 905:..\..\flexsea-system\src/flexsea_cmd_control.c **** 
 906:..\..\flexsea-system\src/flexsea_cmd_control.c **** 	//Fresh payload string:
 907:..\..\flexsea-system\src/flexsea_cmd_control.c **** 	prepare_empty_payload(board_id, receiver, buf, len);
 1744              		.loc 1 907 0
 1745 0020 6B49     		ldr	r1, .L103
 1746 0022 0878     		ldrb	r0, [r1]	@ zero_extendqisi2
 1747              	.LVL215:
 1748 0024 3946     		mov	r1, r7
 1749 0026 FFF7FEFF 		bl	prepare_empty_payload
 1750              	.LVL216:
 908:..\..\flexsea-system\src/flexsea_cmd_control.c **** 
 909:..\..\flexsea-system\src/flexsea_cmd_control.c **** 	//Command:
 910:..\..\flexsea-system\src/flexsea_cmd_control.c **** 	buf[P_CMDS] = 1;                     //1 command in string
 1751              		.loc 1 910 0
 1752 002a 0123     		movs	r3, #1
 1753 002c A370     		strb	r3, [r4, #2]
 911:..\..\flexsea-system\src/flexsea_cmd_control.c **** 
 912:..\..\flexsea-system\src/flexsea_cmd_control.c **** 	if(cmd_type == CMD_READ)
 1754              		.loc 1 912 0
 1755 002e 9D42     		cmp	r5, r3
 1756 0030 03D1     		bne	.L99
 913:..\..\flexsea-system\src/flexsea_cmd_control.c **** 	{
 914:..\..\flexsea-system\src/flexsea_cmd_control.c **** 		buf[P_CMD1] = CMD_R(CMD_IN_CONTROL);
 1757              		.loc 1 914 0
 1758 0032 B523     		movs	r3, #181
 1759 0034 E370     		strb	r3, [r4, #3]
 1760              	.LVL217:
ARM GAS  C:\Users\Alex\AppData\Local\Temp\cchBAlOP.s 			page 48


 915:..\..\flexsea-system\src/flexsea_cmd_control.c **** 
 916:..\..\flexsea-system\src/flexsea_cmd_control.c **** 		bytes = P_CMD1 + 1;     //Bytes is always last+1
 1761              		.loc 1 916 0
 1762 0036 0420     		movs	r0, #4
 1763 0038 C7E0     		b	.L100
 1764              	.LVL218:
 1765              	.L99:
 917:..\..\flexsea-system\src/flexsea_cmd_control.c **** 	}
 918:..\..\flexsea-system\src/flexsea_cmd_control.c **** 	else if(cmd_type == CMD_WRITE)
 1766              		.loc 1 918 0
 1767 003a 022D     		cmp	r5, #2
 1768 003c 40F0C080 		bne	.L101
 919:..\..\flexsea-system\src/flexsea_cmd_control.c **** 	{
 920:..\..\flexsea-system\src/flexsea_cmd_control.c **** 		buf[P_CMD1] = CMD_W(CMD_IN_CONTROL);
 1769              		.loc 1 920 0
 1770 0040 B423     		movs	r3, #180
 1771 0042 E370     		strb	r3, [r4, #3]
 921:..\..\flexsea-system\src/flexsea_cmd_control.c **** 
 922:..\..\flexsea-system\src/flexsea_cmd_control.c **** 		//Arguments:
 923:..\..\flexsea-system\src/flexsea_cmd_control.c **** 
 924:..\..\flexsea-system\src/flexsea_cmd_control.c ****         #ifdef BOARD_TYPE_FLEXSEA_EXECUTE
 925:..\..\flexsea-system\src/flexsea_cmd_control.c **** 
 926:..\..\flexsea-system\src/flexsea_cmd_control.c **** 		buf[P_DATA1 + 1] = select_w; //Parameter written
 1772              		.loc 1 926 0
 1773 0044 6671     		strb	r6, [r4, #5]
 927:..\..\flexsea-system\src/flexsea_cmd_control.c **** 		uint32_to_bytes((uint32_t)in_control.w[select_w], &tmp0, &tmp1, &tmp2, &tmp3);
 1774              		.loc 1 927 0
 1775 0046 634D     		ldr	r5, .L103+4
 1776 0048 0A36     		adds	r6, r6, #10
 1777 004a 05EB8606 		add	r6, r5, r6, lsl #2
 1778 004e 7068     		ldr	r0, [r6, #4]
 1779 0050 03AE     		add	r6, sp, #12
 1780 0052 0096     		str	r6, [sp]
 1781 0054 0DF10F01 		add	r1, sp, #15
 1782 0058 0DF10E02 		add	r2, sp, #14
 1783 005c 0DF10D03 		add	r3, sp, #13
 1784 0060 FFF7FEFF 		bl	uint32_to_bytes
 1785              	.LVL219:
 928:..\..\flexsea-system\src/flexsea_cmd_control.c **** 		buf[P_DATA1 + 1] = tmp0;
 1786              		.loc 1 928 0
 1787 0064 9DF80F30 		ldrb	r3, [sp, #15]	@ zero_extendqisi2
 1788 0068 6371     		strb	r3, [r4, #5]
 929:..\..\flexsea-system\src/flexsea_cmd_control.c **** 		buf[P_DATA1 + 2] = tmp1;
 1789              		.loc 1 929 0
 1790 006a 9DF80E30 		ldrb	r3, [sp, #14]	@ zero_extendqisi2
 1791 006e A371     		strb	r3, [r4, #6]
 930:..\..\flexsea-system\src/flexsea_cmd_control.c **** 		buf[P_DATA1 + 3] = tmp2;
 1792              		.loc 1 930 0
 1793 0070 9DF80D30 		ldrb	r3, [sp, #13]	@ zero_extendqisi2
 1794 0074 E371     		strb	r3, [r4, #7]
 931:..\..\flexsea-system\src/flexsea_cmd_control.c **** 		buf[P_DATA1 + 4] = tmp3;
 1795              		.loc 1 931 0
 1796 0076 9DF80C30 		ldrb	r3, [sp, #12]	@ zero_extendqisi2
 1797 007a 2372     		strb	r3, [r4, #8]
 932:..\..\flexsea-system\src/flexsea_cmd_control.c **** 		
 933:..\..\flexsea-system\src/flexsea_cmd_control.c **** 		uint32_to_bytes((uint32_t)in_control.setp, &tmp0, &tmp1, &tmp2, &tmp3);
 1798              		.loc 1 933 0
ARM GAS  C:\Users\Alex\AppData\Local\Temp\cchBAlOP.s 			page 49


 1799 007c 6868     		ldr	r0, [r5, #4]
 1800 007e 0096     		str	r6, [sp]
 1801 0080 0DF10F01 		add	r1, sp, #15
 1802 0084 0DF10E02 		add	r2, sp, #14
 1803 0088 0DF10D03 		add	r3, sp, #13
 1804 008c FFF7FEFF 		bl	uint32_to_bytes
 1805              	.LVL220:
 934:..\..\flexsea-system\src/flexsea_cmd_control.c **** 		buf[P_DATA1 + 5] = tmp0;
 1806              		.loc 1 934 0
 1807 0090 9DF80F30 		ldrb	r3, [sp, #15]	@ zero_extendqisi2
 1808 0094 6372     		strb	r3, [r4, #9]
 935:..\..\flexsea-system\src/flexsea_cmd_control.c **** 		buf[P_DATA1 + 6] = tmp1;
 1809              		.loc 1 935 0
 1810 0096 9DF80E30 		ldrb	r3, [sp, #14]	@ zero_extendqisi2
 1811 009a A372     		strb	r3, [r4, #10]
 936:..\..\flexsea-system\src/flexsea_cmd_control.c **** 		buf[P_DATA1 + 7] = tmp2;
 1812              		.loc 1 936 0
 1813 009c 9DF80D30 		ldrb	r3, [sp, #13]	@ zero_extendqisi2
 1814 00a0 E372     		strb	r3, [r4, #11]
 937:..\..\flexsea-system\src/flexsea_cmd_control.c **** 		buf[P_DATA1 + 8] = tmp3;
 1815              		.loc 1 937 0
 1816 00a2 9DF80C30 		ldrb	r3, [sp, #12]	@ zero_extendqisi2
 1817 00a6 2373     		strb	r3, [r4, #12]
 938:..\..\flexsea-system\src/flexsea_cmd_control.c **** 		
 939:..\..\flexsea-system\src/flexsea_cmd_control.c **** 		uint32_to_bytes((uint32_t)in_control.actual_val, &tmp0, &tmp1, &tmp2, &tmp3);
 1818              		.loc 1 939 0
 1819 00a8 A868     		ldr	r0, [r5, #8]
 1820 00aa 0096     		str	r6, [sp]
 1821 00ac 0DF10F01 		add	r1, sp, #15
 1822 00b0 0DF10E02 		add	r2, sp, #14
 1823 00b4 0DF10D03 		add	r3, sp, #13
 1824 00b8 FFF7FEFF 		bl	uint32_to_bytes
 1825              	.LVL221:
 940:..\..\flexsea-system\src/flexsea_cmd_control.c **** 		buf[P_DATA1 + 9] = tmp0;
 1826              		.loc 1 940 0
 1827 00bc 9DF80F30 		ldrb	r3, [sp, #15]	@ zero_extendqisi2
 1828 00c0 6373     		strb	r3, [r4, #13]
 941:..\..\flexsea-system\src/flexsea_cmd_control.c **** 		buf[P_DATA1 + 10] = tmp1;
 1829              		.loc 1 941 0
 1830 00c2 9DF80E30 		ldrb	r3, [sp, #14]	@ zero_extendqisi2
 1831 00c6 A373     		strb	r3, [r4, #14]
 942:..\..\flexsea-system\src/flexsea_cmd_control.c **** 		buf[P_DATA1 + 11] = tmp2;
 1832              		.loc 1 942 0
 1833 00c8 9DF80D30 		ldrb	r3, [sp, #13]	@ zero_extendqisi2
 1834 00cc E373     		strb	r3, [r4, #15]
 943:..\..\flexsea-system\src/flexsea_cmd_control.c **** 		buf[P_DATA1 + 12] = tmp3;
 1835              		.loc 1 943 0
 1836 00ce 9DF80C30 		ldrb	r3, [sp, #12]	@ zero_extendqisi2
 1837 00d2 2374     		strb	r3, [r4, #16]
 944:..\..\flexsea-system\src/flexsea_cmd_control.c **** 		
 945:..\..\flexsea-system\src/flexsea_cmd_control.c **** 		uint32_to_bytes((uint32_t)in_control.error, &tmp0, &tmp1, &tmp2, &tmp3);
 1838              		.loc 1 945 0
 1839 00d4 E868     		ldr	r0, [r5, #12]
 1840 00d6 0096     		str	r6, [sp]
 1841 00d8 0DF10F01 		add	r1, sp, #15
 1842 00dc 0DF10E02 		add	r2, sp, #14
 1843 00e0 0DF10D03 		add	r3, sp, #13
ARM GAS  C:\Users\Alex\AppData\Local\Temp\cchBAlOP.s 			page 50


 1844 00e4 FFF7FEFF 		bl	uint32_to_bytes
 1845              	.LVL222:
 946:..\..\flexsea-system\src/flexsea_cmd_control.c **** 		buf[P_DATA1 + 13] = tmp0;
 1846              		.loc 1 946 0
 1847 00e8 9DF80F30 		ldrb	r3, [sp, #15]	@ zero_extendqisi2
 1848 00ec 6374     		strb	r3, [r4, #17]
 947:..\..\flexsea-system\src/flexsea_cmd_control.c **** 		buf[P_DATA1 + 14] = tmp1;
 1849              		.loc 1 947 0
 1850 00ee 9DF80E30 		ldrb	r3, [sp, #14]	@ zero_extendqisi2
 1851 00f2 A374     		strb	r3, [r4, #18]
 948:..\..\flexsea-system\src/flexsea_cmd_control.c **** 		buf[P_DATA1 + 15] = tmp2;
 1852              		.loc 1 948 0
 1853 00f4 9DF80D30 		ldrb	r3, [sp, #13]	@ zero_extendqisi2
 1854 00f8 E374     		strb	r3, [r4, #19]
 949:..\..\flexsea-system\src/flexsea_cmd_control.c **** 		buf[P_DATA1 + 16] = tmp3;
 1855              		.loc 1 949 0
 1856 00fa 9DF80C30 		ldrb	r3, [sp, #12]	@ zero_extendqisi2
 1857 00fe 2375     		strb	r3, [r4, #20]
 950:..\..\flexsea-system\src/flexsea_cmd_control.c **** 		
 951:..\..\flexsea-system\src/flexsea_cmd_control.c **** 		uint16_to_bytes((uint16_t)in_control.output, &tmp0, &tmp1);
 1858              		.loc 1 951 0
 1859 0100 2869     		ldr	r0, [r5, #16]
 1860 0102 80B2     		uxth	r0, r0
 1861 0104 0DF10F01 		add	r1, sp, #15
 1862 0108 0DF10E02 		add	r2, sp, #14
 1863 010c FFF7FEFF 		bl	uint16_to_bytes
 1864              	.LVL223:
 952:..\..\flexsea-system\src/flexsea_cmd_control.c **** 		buf[P_DATA1 + 17] = tmp0;
 1865              		.loc 1 952 0
 1866 0110 9DF80F30 		ldrb	r3, [sp, #15]	@ zero_extendqisi2
 1867 0114 6375     		strb	r3, [r4, #21]
 953:..\..\flexsea-system\src/flexsea_cmd_control.c **** 		buf[P_DATA1 + 18] = tmp1;
 1868              		.loc 1 953 0
 1869 0116 9DF80E30 		ldrb	r3, [sp, #14]	@ zero_extendqisi2
 1870 011a A375     		strb	r3, [r4, #22]
 954:..\..\flexsea-system\src/flexsea_cmd_control.c **** 		
 955:..\..\flexsea-system\src/flexsea_cmd_control.c **** 		//Combine 3 fields in 1 uint16:
 956:..\..\flexsea-system\src/flexsea_cmd_control.c **** 		in_control_get_pwm_dir();
 1871              		.loc 1 956 0
 1872 011c FFF7FEFF 		bl	in_control_get_pwm_dir
 1873              	.LVL224:
 957:..\..\flexsea-system\src/flexsea_cmd_control.c **** 		in_control_combine();
 1874              		.loc 1 957 0
 1875 0120 FFF7FEFF 		bl	in_control_combine
 1876              	.LVL225:
 958:..\..\flexsea-system\src/flexsea_cmd_control.c ****         uint16_to_bytes((uint16_t)in_control.combined, &tmp0, &tmp1);
 1877              		.loc 1 958 0
 1878 0124 688B     		ldrh	r0, [r5, #26]
 1879 0126 80B2     		uxth	r0, r0
 1880 0128 0DF10F01 		add	r1, sp, #15
 1881 012c 0DF10E02 		add	r2, sp, #14
 1882 0130 FFF7FEFF 		bl	uint16_to_bytes
 1883              	.LVL226:
 959:..\..\flexsea-system\src/flexsea_cmd_control.c ****         buf[P_DATA1 + 19] = tmp0;
 1884              		.loc 1 959 0
 1885 0134 9DF80F30 		ldrb	r3, [sp, #15]	@ zero_extendqisi2
 1886 0138 E375     		strb	r3, [r4, #23]
ARM GAS  C:\Users\Alex\AppData\Local\Temp\cchBAlOP.s 			page 51


 960:..\..\flexsea-system\src/flexsea_cmd_control.c ****         buf[P_DATA1 + 20] = tmp1;
 1887              		.loc 1 960 0
 1888 013a 9DF80E30 		ldrb	r3, [sp, #14]	@ zero_extendqisi2
 1889 013e 2376     		strb	r3, [r4, #24]
 961:..\..\flexsea-system\src/flexsea_cmd_control.c **** 
 962:..\..\flexsea-system\src/flexsea_cmd_control.c ****         uint16_to_bytes((uint16_t)ctrl.current.actual_val, &tmp0, &tmp1);
 1890              		.loc 1 962 0
 1891 0140 254B     		ldr	r3, .L103+8
 1892 0142 586B     		ldr	r0, [r3, #52]
 1893 0144 80B2     		uxth	r0, r0
 1894 0146 0DF10F01 		add	r1, sp, #15
 1895 014a 0DF10E02 		add	r2, sp, #14
 1896 014e FFF7FEFF 		bl	uint16_to_bytes
 1897              	.LVL227:
 963:..\..\flexsea-system\src/flexsea_cmd_control.c ****         buf[P_DATA1 + 21] = tmp0;
 1898              		.loc 1 963 0
 1899 0152 9DF80F30 		ldrb	r3, [sp, #15]	@ zero_extendqisi2
 1900 0156 6376     		strb	r3, [r4, #25]
 964:..\..\flexsea-system\src/flexsea_cmd_control.c ****         buf[P_DATA1 + 22] = tmp1;
 1901              		.loc 1 964 0
 1902 0158 9DF80E30 		ldrb	r3, [sp, #14]	@ zero_extendqisi2
 1903 015c A376     		strb	r3, [r4, #26]
 965:..\..\flexsea-system\src/flexsea_cmd_control.c **** 		
 966:..\..\flexsea-system\src/flexsea_cmd_control.c **** 		//User fields:
 967:..\..\flexsea-system\src/flexsea_cmd_control.c **** 		uint32_to_bytes((uint32_t)in_control.r[0], &tmp0, &tmp1, &tmp2, &tmp3);
 1904              		.loc 1 967 0
 1905 015e E869     		ldr	r0, [r5, #28]
 1906 0160 0096     		str	r6, [sp]
 1907 0162 0DF10F01 		add	r1, sp, #15
 1908 0166 0DF10E02 		add	r2, sp, #14
 1909 016a 0DF10D03 		add	r3, sp, #13
 1910 016e FFF7FEFF 		bl	uint32_to_bytes
 1911              	.LVL228:
 968:..\..\flexsea-system\src/flexsea_cmd_control.c **** 		buf[P_DATA1 + 23] = tmp0;
 1912              		.loc 1 968 0
 1913 0172 9DF80F30 		ldrb	r3, [sp, #15]	@ zero_extendqisi2
 1914 0176 E376     		strb	r3, [r4, #27]
 969:..\..\flexsea-system\src/flexsea_cmd_control.c **** 		buf[P_DATA1 + 24] = tmp1;
 1915              		.loc 1 969 0
 1916 0178 9DF80E30 		ldrb	r3, [sp, #14]	@ zero_extendqisi2
 1917 017c 2377     		strb	r3, [r4, #28]
 970:..\..\flexsea-system\src/flexsea_cmd_control.c **** 		buf[P_DATA1 + 25] = tmp2;
 1918              		.loc 1 970 0
 1919 017e 9DF80D30 		ldrb	r3, [sp, #13]	@ zero_extendqisi2
 1920 0182 6377     		strb	r3, [r4, #29]
 971:..\..\flexsea-system\src/flexsea_cmd_control.c **** 		buf[P_DATA1 + 26] = tmp3;
 1921              		.loc 1 971 0
 1922 0184 9DF80C30 		ldrb	r3, [sp, #12]	@ zero_extendqisi2
 1923 0188 A377     		strb	r3, [r4, #30]
 972:..\..\flexsea-system\src/flexsea_cmd_control.c **** 		uint32_to_bytes((uint32_t)in_control.r[1], &tmp0, &tmp1, &tmp2, &tmp3);
 1924              		.loc 1 972 0
 1925 018a 286A     		ldr	r0, [r5, #32]
 1926 018c 0096     		str	r6, [sp]
 1927 018e 0DF10F01 		add	r1, sp, #15
 1928 0192 0DF10E02 		add	r2, sp, #14
 1929 0196 0DF10D03 		add	r3, sp, #13
 1930 019a FFF7FEFF 		bl	uint32_to_bytes
ARM GAS  C:\Users\Alex\AppData\Local\Temp\cchBAlOP.s 			page 52


 1931              	.LVL229:
 973:..\..\flexsea-system\src/flexsea_cmd_control.c **** 		buf[P_DATA1 + 27] = tmp0;
 1932              		.loc 1 973 0
 1933 019e 9DF80F30 		ldrb	r3, [sp, #15]	@ zero_extendqisi2
 1934 01a2 E377     		strb	r3, [r4, #31]
 974:..\..\flexsea-system\src/flexsea_cmd_control.c **** 		buf[P_DATA1 + 28] = tmp1;
 1935              		.loc 1 974 0
 1936 01a4 9DF80E30 		ldrb	r3, [sp, #14]	@ zero_extendqisi2
 1937 01a8 84F82030 		strb	r3, [r4, #32]
 975:..\..\flexsea-system\src/flexsea_cmd_control.c **** 		buf[P_DATA1 + 29] = tmp2;
 1938              		.loc 1 975 0
 1939 01ac 9DF80D30 		ldrb	r3, [sp, #13]	@ zero_extendqisi2
 1940 01b0 84F82130 		strb	r3, [r4, #33]
 976:..\..\flexsea-system\src/flexsea_cmd_control.c **** 		buf[P_DATA1 + 30] = tmp3;
 1941              		.loc 1 976 0
 1942 01b4 9DF80C30 		ldrb	r3, [sp, #12]	@ zero_extendqisi2
 1943 01b8 84F82230 		strb	r3, [r4, #34]
 1944              	.LVL230:
 977:..\..\flexsea-system\src/flexsea_cmd_control.c **** 
 978:..\..\flexsea-system\src/flexsea_cmd_control.c ****         bytes = P_DATA1 + 31;     //Bytes is always last+1
 1945              		.loc 1 978 0
 1946 01bc 2320     		movs	r0, #35
 1947 01be 04E0     		b	.L100
 1948              	.LVL231:
 1949              	.L101:
 979:..\..\flexsea-system\src/flexsea_cmd_control.c **** 
 980:..\..\flexsea-system\src/flexsea_cmd_control.c ****         #endif //BOARD_TYPE_FLEXSEA_EXECUTE
 981:..\..\flexsea-system\src/flexsea_cmd_control.c **** 
 982:..\..\flexsea-system\src/flexsea_cmd_control.c ****         #ifdef BOARD_TYPE_FLEXSEA_PLAN
 983:..\..\flexsea-system\src/flexsea_cmd_control.c **** 
 984:..\..\flexsea-system\src/flexsea_cmd_control.c ****         buf[P_DATA1 + 0] = select_w; //Parameter written
 985:..\..\flexsea-system\src/flexsea_cmd_control.c ****         uint32_to_bytes((uint32_t)in_control_1.w[select_w], &tmp0, &tmp1, &tmp2, &tmp3);
 986:..\..\flexsea-system\src/flexsea_cmd_control.c ****         buf[P_DATA1 + 1] = tmp0;
 987:..\..\flexsea-system\src/flexsea_cmd_control.c ****         buf[P_DATA1 + 2] = tmp1;
 988:..\..\flexsea-system\src/flexsea_cmd_control.c ****         buf[P_DATA1 + 3] = tmp2;
 989:..\..\flexsea-system\src/flexsea_cmd_control.c ****         buf[P_DATA1 + 4] = tmp3;
 990:..\..\flexsea-system\src/flexsea_cmd_control.c **** 
 991:..\..\flexsea-system\src/flexsea_cmd_control.c ****         bytes = P_DATA1 + 5;     //Bytes is always last+1
 992:..\..\flexsea-system\src/flexsea_cmd_control.c **** 
 993:..\..\flexsea-system\src/flexsea_cmd_control.c ****         #endif  //BOARD_TYPE_FLEXSEA_PLAN
 994:..\..\flexsea-system\src/flexsea_cmd_control.c **** 	}
 995:..\..\flexsea-system\src/flexsea_cmd_control.c **** 	else
 996:..\..\flexsea-system\src/flexsea_cmd_control.c **** 	{
 997:..\..\flexsea-system\src/flexsea_cmd_control.c **** 		//Invalid
 998:..\..\flexsea-system\src/flexsea_cmd_control.c **** 		flexsea_error(SE_INVALID_READ_TYPE);
 1950              		.loc 1 998 0
 1951 01c0 4FF48060 		mov	r0, #1024
 1952 01c4 FFF7FEFF 		bl	flexsea_error
 1953              	.LVL232:
 999:..\..\flexsea-system\src/flexsea_cmd_control.c **** 		bytes = 0;
 1954              		.loc 1 999 0
 1955 01c8 0020     		movs	r0, #0
 1956              	.LVL233:
 1957              	.L100:
1000:..\..\flexsea-system\src/flexsea_cmd_control.c **** 	}
1001:..\..\flexsea-system\src/flexsea_cmd_control.c **** 
1002:..\..\flexsea-system\src/flexsea_cmd_control.c **** 	return bytes;
ARM GAS  C:\Users\Alex\AppData\Local\Temp\cchBAlOP.s 			page 53


1003:..\..\flexsea-system\src/flexsea_cmd_control.c **** }
 1958              		.loc 1 1003 0
 1959 01ca 05B0     		add	sp, sp, #20
 1960              		.cfi_def_cfa_offset 20
 1961              		@ sp needed
 1962 01cc F0BD     		pop	{r4, r5, r6, r7, pc}
 1963              	.LVL234:
 1964              	.L104:
 1965 01ce 00BF     		.align	2
 1966              	.L103:
 1967 01d0 00000000 		.word	board_id
 1968 01d4 00000000 		.word	in_control
 1969 01d8 00000000 		.word	ctrl
 1970              		.cfi_endproc
 1971              	.LFE77:
 1972              		.size	tx_cmd_in_control, .-tx_cmd_in_control
 1973              		.section	.text.flexsea_payload_90,"ax",%progbits
 1974              		.align	2
 1975              		.weak	flexsea_payload_90
 1976              		.thumb
 1977              		.thumb_func
 1978              		.type	flexsea_payload_90, %function
 1979              	flexsea_payload_90:
 1980              	.LFB78:
1004:..\..\flexsea-system\src/flexsea_cmd_control.c **** 
1005:..\..\flexsea-system\src/flexsea_cmd_control.c **** //Reception of an IN_CONTROL command
1006:..\..\flexsea-system\src/flexsea_cmd_control.c **** void rx_cmd_in_control(uint8_t *buf)
1007:..\..\flexsea-system\src/flexsea_cmd_control.c **** {
 1981              		.loc 1 1007 0
 1982              		.cfi_startproc
 1983              		@ args = 0, pretend = 0, frame = 0
 1984              		@ frame_needed = 0, uses_anonymous_args = 0
 1985              	.LVL235:
 1986 0000 30B5     		push	{r4, r5, lr}
 1987              		.cfi_def_cfa_offset 12
 1988              		.cfi_offset 4, -12
 1989              		.cfi_offset 5, -8
 1990              		.cfi_offset 14, -4
 1991 0002 83B0     		sub	sp, sp, #12
 1992              		.cfi_def_cfa_offset 24
 1993              	.LVL236:
1008:..\..\flexsea-system\src/flexsea_cmd_control.c **** 	uint8_t numb = 0, w_select = 0;
1009:..\..\flexsea-system\src/flexsea_cmd_control.c **** 	int32_t w_val = 0;
1010:..\..\flexsea-system\src/flexsea_cmd_control.c **** 
1011:..\..\flexsea-system\src/flexsea_cmd_control.c **** 	if(IS_CMD_RW(buf[P_CMD1]) == READ)
 1994              		.loc 1 1011 0
 1995 0004 C378     		ldrb	r3, [r0, #3]	@ zero_extendqisi2
 1996 0006 13F00103 		ands	r3, r3, #1
 1997 000a 17D0     		beq	.L106
1012:..\..\flexsea-system\src/flexsea_cmd_control.c **** 	{
1013:..\..\flexsea-system\src/flexsea_cmd_control.c **** 		//Received a Read command from our master, prepare a reply:
1014:..\..\flexsea-system\src/flexsea_cmd_control.c **** 
1015:..\..\flexsea-system\src/flexsea_cmd_control.c **** 		#ifdef BOARD_TYPE_FLEXSEA_EXECUTE
1016:..\..\flexsea-system\src/flexsea_cmd_control.c **** 
1017:..\..\flexsea-system\src/flexsea_cmd_control.c **** 		//Generate the reply:
1018:..\..\flexsea-system\src/flexsea_cmd_control.c **** 		numb = tx_cmd_in_control(buf[P_XID], CMD_WRITE, tmp_payload_xmit, PAYLOAD_BUF_LEN, 0);
 1998              		.loc 1 1018 0
ARM GAS  C:\Users\Alex\AppData\Local\Temp\cchBAlOP.s 			page 54


 1999 000c 0078     		ldrb	r0, [r0]	@ zero_extendqisi2
 2000              	.LVL237:
 2001 000e 164D     		ldr	r5, .L109
 2002 0010 0023     		movs	r3, #0
 2003 0012 0093     		str	r3, [sp]
 2004 0014 0221     		movs	r1, #2
 2005 0016 2A46     		mov	r2, r5
 2006 0018 2423     		movs	r3, #36
 2007 001a FFF7FEFF 		bl	tx_cmd_in_control
 2008              	.LVL238:
 2009 001e C2B2     		uxtb	r2, r0
 2010              	.LVL239:
1019:..\..\flexsea-system\src/flexsea_cmd_control.c **** 		numb = comm_gen_str(tmp_payload_xmit, comm_str_485, numb);
 2011              		.loc 1 1019 0
 2012 0020 124C     		ldr	r4, .L109+4
 2013 0022 2846     		mov	r0, r5
 2014 0024 2146     		mov	r1, r4
 2015 0026 FFF7FEFF 		bl	comm_gen_str
 2016              	.LVL240:
1020:..\..\flexsea-system\src/flexsea_cmd_control.c **** 		numb = COMM_STR_BUF_LEN;	//Fixed length for now to accomodate the DMA
1021:..\..\flexsea-system\src/flexsea_cmd_control.c **** 
1022:..\..\flexsea-system\src/flexsea_cmd_control.c **** 		//Notify the code that a buffer is ready to be transmitted:
1023:..\..\flexsea-system\src/flexsea_cmd_control.c **** 		//xmit_flag_1 = 1;
1024:..\..\flexsea-system\src/flexsea_cmd_control.c **** 		
1025:..\..\flexsea-system\src/flexsea_cmd_control.c **** 		//(for now, send it)
1026:..\..\flexsea-system\src/flexsea_cmd_control.c **** 		rs485_puts(comm_str_485, numb);
 2017              		.loc 1 1026 0
 2018 002a 2046     		mov	r0, r4
 2019 002c 3021     		movs	r1, #48
 2020 002e FFF7FEFF 		bl	rs485_puts
 2021              	.LVL241:
1027:..\..\flexsea-system\src/flexsea_cmd_control.c **** 		
1028:..\..\flexsea-system\src/flexsea_cmd_control.c **** 		#ifdef USE_USB
1029:..\..\flexsea-system\src/flexsea_cmd_control.c **** 		usb_puts(comm_str_485, (numb));
 2022              		.loc 1 1029 0
 2023 0032 2046     		mov	r0, r4
 2024 0034 3021     		movs	r1, #48
 2025 0036 FFF7FEFF 		bl	usb_puts
 2026              	.LVL242:
 2027 003a 13E0     		b	.L105
 2028              	.LVL243:
 2029              	.L106:
1030:..\..\flexsea-system\src/flexsea_cmd_control.c **** 		#endif
1031:..\..\flexsea-system\src/flexsea_cmd_control.c **** 
1032:..\..\flexsea-system\src/flexsea_cmd_control.c **** 		#endif	//BOARD_TYPE_FLEXSEA_EXECUTE
1033:..\..\flexsea-system\src/flexsea_cmd_control.c **** 	}
1034:..\..\flexsea-system\src/flexsea_cmd_control.c **** 	else if(IS_CMD_RW(buf[P_CMD1]) == WRITE)
 2030              		.loc 1 1034 0
 2031 003c 93B9     		cbnz	r3, .L105
1035:..\..\flexsea-system\src/flexsea_cmd_control.c **** 	{
1036:..\..\flexsea-system\src/flexsea_cmd_control.c **** 		//Two options: from Master of from slave (a read reply)
1037:..\..\flexsea-system\src/flexsea_cmd_control.c **** 
1038:..\..\flexsea-system\src/flexsea_cmd_control.c **** 		//Decode data:
1039:..\..\flexsea-system\src/flexsea_cmd_control.c **** 		w_select = buf[P_DATA1];
 2032              		.loc 1 1039 0
 2033 003e 0579     		ldrb	r5, [r0, #4]	@ zero_extendqisi2
 2034              	.LVL244:
ARM GAS  C:\Users\Alex\AppData\Local\Temp\cchBAlOP.s 			page 55


1040:..\..\flexsea-system\src/flexsea_cmd_control.c **** 		w_val = (int32_t) (BYTES_TO_UINT32(buf[P_DATA1 + 1], buf[P_DATA1 + 2], buf[P_DATA1 + 3], buf[P_DA
 2035              		.loc 1 1040 0
 2036 0040 4279     		ldrb	r2, [r0, #5]	@ zero_extendqisi2
 2037 0042 8379     		ldrb	r3, [r0, #6]	@ zero_extendqisi2
 2038 0044 1B04     		lsls	r3, r3, #16
 2039 0046 03EB0263 		add	r3, r3, r2, lsl #24
 2040 004a C279     		ldrb	r2, [r0, #7]	@ zero_extendqisi2
 2041 004c 03EB0223 		add	r3, r3, r2, lsl #8
 2042 0050 027A     		ldrb	r2, [r0, #8]	@ zero_extendqisi2
 2043 0052 9C18     		adds	r4, r3, r2
 2044              	.LVL245:
1041:..\..\flexsea-system\src/flexsea_cmd_control.c **** 
1042:..\..\flexsea-system\src/flexsea_cmd_control.c **** 		if(sent_from_a_slave(buf))
 2045              		.loc 1 1042 0
 2046 0054 FFF7FEFF 		bl	sent_from_a_slave
 2047              	.LVL246:
 2048 0058 20B9     		cbnz	r0, .L105
1043:..\..\flexsea-system\src/flexsea_cmd_control.c **** 		{
1044:..\..\flexsea-system\src/flexsea_cmd_control.c **** 			//We received a reply to our read request
1045:..\..\flexsea-system\src/flexsea_cmd_control.c **** 
1046:..\..\flexsea-system\src/flexsea_cmd_control.c **** 			#if((defined BOARD_TYPE_FLEXSEA_MANAGE) || (defined BOARD_TYPE_FLEXSEA_PLAN))
1047:..\..\flexsea-system\src/flexsea_cmd_control.c **** 
1048:..\..\flexsea-system\src/flexsea_cmd_control.c **** 			//Store value:
1049:..\..\flexsea-system\src/flexsea_cmd_control.c **** 			in_control_1.setp = (int32_t) (BYTES_TO_UINT32(buf[P_DATA1 + 5], buf[P_DATA1 + 6], buf[P_DATA1 +
1050:..\..\flexsea-system\src/flexsea_cmd_control.c **** 			in_control_1.actual_val = (int32_t) (BYTES_TO_UINT32(buf[P_DATA1 + 9], buf[P_DATA1 + 10], buf[P_
1051:..\..\flexsea-system\src/flexsea_cmd_control.c **** 			
1052:..\..\flexsea-system\src/flexsea_cmd_control.c **** 			in_control_1.error = (int32_t) (BYTES_TO_UINT32(buf[P_DATA1 + 13], buf[P_DATA1 + 14], buf[P_DATA
1053:..\..\flexsea-system\src/flexsea_cmd_control.c ****             in_control_1.output = (int16_t) (BYTES_TO_UINT16(buf[P_DATA1 + 17], buf[P_DATA1 + 18]))
1054:..\..\flexsea-system\src/flexsea_cmd_control.c ****             
1055:..\..\flexsea-system\src/flexsea_cmd_control.c **** 			in_control_1.combined = (BYTES_TO_UINT16(buf[P_DATA1 + 19], buf[P_DATA1 + 20]));			
1056:..\..\flexsea-system\src/flexsea_cmd_control.c **** 			in_control_1.current = (int16_t) (BYTES_TO_UINT16(buf[P_DATA1 + 21], buf[P_DATA1 + 22]));
1057:..\..\flexsea-system\src/flexsea_cmd_control.c **** 			
1058:..\..\flexsea-system\src/flexsea_cmd_control.c ****             in_control_1.r[0] = (int32_t) (BYTES_TO_UINT32(buf[P_DATA1 + 23], buf[P_DATA1 + 24], bu
1059:..\..\flexsea-system\src/flexsea_cmd_control.c ****             in_control_1.r[1] = (int32_t) (BYTES_TO_UINT32(buf[P_DATA1 + 27], buf[P_DATA1 + 28], bu
1060:..\..\flexsea-system\src/flexsea_cmd_control.c ****             
1061:..\..\flexsea-system\src/flexsea_cmd_control.c **** 			in_control_1.controller = IN_CONTROL_CONTROLLER(in_control_1.combined);
1062:..\..\flexsea-system\src/flexsea_cmd_control.c **** 			in_control_1.mot_dir = IN_CONTROL_MOT_DIR(in_control_1.combined);
1063:..\..\flexsea-system\src/flexsea_cmd_control.c **** 			in_control_1.pwm = IN_CONTROL_PWM(in_control_1.combined);
1064:..\..\flexsea-system\src/flexsea_cmd_control.c **** 
1065:..\..\flexsea-system\src/flexsea_cmd_control.c **** 			#endif	//((defined BOARD_TYPE_FLEXSEA_MANAGE) || (defined BOARD_TYPE_FLEXSEA_PLAN))
1066:..\..\flexsea-system\src/flexsea_cmd_control.c **** 		}
1067:..\..\flexsea-system\src/flexsea_cmd_control.c **** 		else
1068:..\..\flexsea-system\src/flexsea_cmd_control.c **** 		{
1069:..\..\flexsea-system\src/flexsea_cmd_control.c **** 			//Master is writing a value to this board
1070:..\..\flexsea-system\src/flexsea_cmd_control.c **** 
1071:..\..\flexsea-system\src/flexsea_cmd_control.c **** 			#ifdef BOARD_TYPE_FLEXSEA_EXECUTE
1072:..\..\flexsea-system\src/flexsea_cmd_control.c **** 
1073:..\..\flexsea-system\src/flexsea_cmd_control.c **** 			in_control.w[w_select] = w_val;
 2049              		.loc 1 1073 0
 2050 005a 0A35     		adds	r5, r5, #10
 2051              	.LVL247:
 2052 005c 044B     		ldr	r3, .L109+8
 2053 005e 03EB8505 		add	r5, r3, r5, lsl #2
 2054              	.LVL248:
 2055 0062 6C60     		str	r4, [r5, #4]
 2056              	.LVL249:
 2057              	.L105:
ARM GAS  C:\Users\Alex\AppData\Local\Temp\cchBAlOP.s 			page 56


1074:..\..\flexsea-system\src/flexsea_cmd_control.c **** 
1075:..\..\flexsea-system\src/flexsea_cmd_control.c **** 			#endif	//BOARD_TYPE_FLEXSEA_EXECUTE
1076:..\..\flexsea-system\src/flexsea_cmd_control.c **** 		}
1077:..\..\flexsea-system\src/flexsea_cmd_control.c **** 	}
1078:..\..\flexsea-system\src/flexsea_cmd_control.c **** }
 2058              		.loc 1 1078 0
 2059 0064 03B0     		add	sp, sp, #12
 2060              		.cfi_def_cfa_offset 12
 2061              		@ sp needed
 2062 0066 30BD     		pop	{r4, r5, pc}
 2063              	.L110:
 2064              		.align	2
 2065              	.L109:
 2066 0068 00000000 		.word	tmp_payload_xmit
 2067 006c 00000000 		.word	comm_str_1
 2068 0070 00000000 		.word	in_control
 2069              		.cfi_endproc
 2070              	.LFE78:
 2071              		.size	flexsea_payload_90, .-flexsea_payload_90
 2072              		.comm	tmp_payload_xmit,36,4
 2073              		.text
 2074              	.Letext0:
 2075              		.file 2 "c:\\program files (x86)\\cypress\\psoc creator\\3.3\\psoc creator\\import\\gnu\\arm\\4.9.
 2076              		.file 3 "c:\\program files (x86)\\cypress\\psoc creator\\3.3\\psoc creator\\import\\gnu\\arm\\4.9.
 2077              		.file 4 "..\\..\\flexsea-system\\src\\../inc/flexsea_cmd_control.h"
 2078              		.file 5 "..\\..\\flexsea-system\\src\\../inc/flexsea_system.h"
 2079              		.file 6 "Generated_Source\\PSoC5/cytypes.h"
 2080              		.file 7 "..\\inc/flexsea_board.h"
 2081              		.file 8 "c:\\flexsea_alx87grd\\flexsea-comm\\inc\\flexsea_comm.h"
 2082              		.file 9 "Generated_Source\\PSoC5/core_cm3.h"
 2083              		.file 10 "..\\inc/main_fsm.h"
 2084              		.file 11 "..\\inc/control.h"
 2085              		.file 12 "c:\\flexsea_alx87grd\\flexsea-comm\\inc\\flexsea.h"
 2086              		.file 13 "c:\\flexsea_alx87grd\\flexsea-comm\\inc\\flexsea_payload.h"
 2087              		.file 14 "..\\inc/serial.h"
 2088              		.file 15 "..\\inc/motor.h"
 2089              		.file 16 "..\\inc/trapez.h"
 2090              		.file 17 "..\\inc/usb.h"
 2091              		.section	.debug_info,"",%progbits
 2092              	.Ldebug_info0:
 2093 0000 FB160000 		.4byte	0x16fb
 2094 0004 0400     		.2byte	0x4
 2095 0006 00000000 		.4byte	.Ldebug_abbrev0
 2096 000a 04       		.byte	0x4
 2097 000b 01       		.uleb128 0x1
 2098 000c 93040000 		.4byte	.LASF118
 2099 0010 01       		.byte	0x1
 2100 0011 57050000 		.4byte	.LASF119
 2101 0015 90010000 		.4byte	.LASF120
 2102 0019 00000000 		.4byte	.Ldebug_ranges0+0
 2103 001d 00000000 		.4byte	0
 2104 0021 00000000 		.4byte	.Ldebug_line0
 2105 0025 02       		.uleb128 0x2
 2106 0026 01       		.byte	0x1
 2107 0027 06       		.byte	0x6
 2108 0028 95050000 		.4byte	.LASF0
 2109 002c 03       		.uleb128 0x3
ARM GAS  C:\Users\Alex\AppData\Local\Temp\cchBAlOP.s 			page 57


 2110 002d F8030000 		.4byte	.LASF2
 2111 0031 02       		.byte	0x2
 2112 0032 1D       		.byte	0x1d
 2113 0033 37000000 		.4byte	0x37
 2114 0037 02       		.uleb128 0x2
 2115 0038 01       		.byte	0x1
 2116 0039 08       		.byte	0x8
 2117 003a 7A040000 		.4byte	.LASF1
 2118 003e 03       		.uleb128 0x3
 2119 003f 07030000 		.4byte	.LASF3
 2120 0043 02       		.byte	0x2
 2121 0044 29       		.byte	0x29
 2122 0045 49000000 		.4byte	0x49
 2123 0049 02       		.uleb128 0x2
 2124 004a 02       		.byte	0x2
 2125 004b 05       		.byte	0x5
 2126 004c 98030000 		.4byte	.LASF4
 2127 0050 03       		.uleb128 0x3
 2128 0051 61010000 		.4byte	.LASF5
 2129 0055 02       		.byte	0x2
 2130 0056 2B       		.byte	0x2b
 2131 0057 5B000000 		.4byte	0x5b
 2132 005b 02       		.uleb128 0x2
 2133 005c 02       		.byte	0x2
 2134 005d 07       		.byte	0x7
 2135 005e B4050000 		.4byte	.LASF6
 2136 0062 03       		.uleb128 0x3
 2137 0063 96000000 		.4byte	.LASF7
 2138 0067 02       		.byte	0x2
 2139 0068 3F       		.byte	0x3f
 2140 0069 6D000000 		.4byte	0x6d
 2141 006d 02       		.uleb128 0x2
 2142 006e 04       		.byte	0x4
 2143 006f 05       		.byte	0x5
 2144 0070 A2030000 		.4byte	.LASF8
 2145 0074 03       		.uleb128 0x3
 2146 0075 88040000 		.4byte	.LASF9
 2147 0079 02       		.byte	0x2
 2148 007a 41       		.byte	0x41
 2149 007b 7F000000 		.4byte	0x7f
 2150 007f 02       		.uleb128 0x2
 2151 0080 04       		.byte	0x4
 2152 0081 07       		.byte	0x7
 2153 0082 40040000 		.4byte	.LASF10
 2154 0086 02       		.uleb128 0x2
 2155 0087 08       		.byte	0x8
 2156 0088 05       		.byte	0x5
 2157 0089 D1020000 		.4byte	.LASF11
 2158 008d 02       		.uleb128 0x2
 2159 008e 08       		.byte	0x8
 2160 008f 07       		.byte	0x7
 2161 0090 39010000 		.4byte	.LASF12
 2162 0094 04       		.uleb128 0x4
 2163 0095 04       		.byte	0x4
 2164 0096 05       		.byte	0x5
 2165 0097 696E7400 		.ascii	"int\000"
 2166 009b 02       		.uleb128 0x2
ARM GAS  C:\Users\Alex\AppData\Local\Temp\cchBAlOP.s 			page 58


 2167 009c 04       		.byte	0x4
 2168 009d 07       		.byte	0x7
 2169 009e 7B000000 		.4byte	.LASF13
 2170 00a2 02       		.uleb128 0x2
 2171 00a3 04       		.byte	0x4
 2172 00a4 07       		.byte	0x7
 2173 00a5 37040000 		.4byte	.LASF14
 2174 00a9 02       		.uleb128 0x2
 2175 00aa 01       		.byte	0x1
 2176 00ab 08       		.byte	0x8
 2177 00ac EB010000 		.4byte	.LASF15
 2178 00b0 03       		.uleb128 0x3
 2179 00b1 4D020000 		.4byte	.LASF16
 2180 00b5 03       		.byte	0x3
 2181 00b6 15       		.byte	0x15
 2182 00b7 2C000000 		.4byte	0x2c
 2183 00bb 03       		.uleb128 0x3
 2184 00bc 28010000 		.4byte	.LASF17
 2185 00c0 03       		.byte	0x3
 2186 00c1 20       		.byte	0x20
 2187 00c2 3E000000 		.4byte	0x3e
 2188 00c6 03       		.uleb128 0x3
 2189 00c7 5A030000 		.4byte	.LASF18
 2190 00cb 03       		.byte	0x3
 2191 00cc 21       		.byte	0x21
 2192 00cd 50000000 		.4byte	0x50
 2193 00d1 03       		.uleb128 0x3
 2194 00d2 5A040000 		.4byte	.LASF19
 2195 00d6 03       		.byte	0x3
 2196 00d7 2C       		.byte	0x2c
 2197 00d8 62000000 		.4byte	0x62
 2198 00dc 03       		.uleb128 0x3
 2199 00dd F0000000 		.4byte	.LASF20
 2200 00e1 03       		.byte	0x3
 2201 00e2 2D       		.byte	0x2d
 2202 00e3 74000000 		.4byte	0x74
 2203 00e7 05       		.uleb128 0x5
 2204 00e8 B0000000 		.4byte	0xb0
 2205 00ec F7000000 		.4byte	0xf7
 2206 00f0 06       		.uleb128 0x6
 2207 00f1 A2000000 		.4byte	0xa2
 2208 00f5 2F       		.byte	0x2f
 2209 00f6 00       		.byte	0
 2210 00f7 07       		.uleb128 0x7
 2211 00f8 3F020000 		.4byte	.LASF21
 2212 00fc 0C       		.byte	0xc
 2213 00fd 04       		.byte	0x4
 2214 00fe 43       		.byte	0x43
 2215 00ff 46010000 		.4byte	0x146
 2216 0103 08       		.uleb128 0x8
 2217 0104 673000   		.ascii	"g0\000"
 2218 0107 04       		.byte	0x4
 2219 0108 45       		.byte	0x45
 2220 0109 C6000000 		.4byte	0xc6
 2221 010d 00       		.byte	0
 2222 010e 08       		.uleb128 0x8
 2223 010f 673100   		.ascii	"g1\000"
ARM GAS  C:\Users\Alex\AppData\Local\Temp\cchBAlOP.s 			page 59


 2224 0112 04       		.byte	0x4
 2225 0113 45       		.byte	0x45
 2226 0114 C6000000 		.4byte	0xc6
 2227 0118 02       		.byte	0x2
 2228 0119 08       		.uleb128 0x8
 2229 011a 673200   		.ascii	"g2\000"
 2230 011d 04       		.byte	0x4
 2231 011e 45       		.byte	0x45
 2232 011f C6000000 		.4byte	0xc6
 2233 0123 04       		.byte	0x4
 2234 0124 08       		.uleb128 0x8
 2235 0125 673300   		.ascii	"g3\000"
 2236 0128 04       		.byte	0x4
 2237 0129 45       		.byte	0x45
 2238 012a C6000000 		.4byte	0xc6
 2239 012e 06       		.byte	0x6
 2240 012f 08       		.uleb128 0x8
 2241 0130 673400   		.ascii	"g4\000"
 2242 0133 04       		.byte	0x4
 2243 0134 45       		.byte	0x45
 2244 0135 C6000000 		.4byte	0xc6
 2245 0139 08       		.byte	0x8
 2246 013a 08       		.uleb128 0x8
 2247 013b 673500   		.ascii	"g5\000"
 2248 013e 04       		.byte	0x4
 2249 013f 45       		.byte	0x45
 2250 0140 C6000000 		.4byte	0xc6
 2251 0144 0A       		.byte	0xa
 2252 0145 00       		.byte	0
 2253 0146 07       		.uleb128 0x7
 2254 0147 F7050000 		.4byte	.LASF22
 2255 014b 24       		.byte	0x24
 2256 014c 04       		.byte	0x4
 2257 014d 49       		.byte	0x49
 2258 014e A7010000 		.4byte	0x1a7
 2259 0152 09       		.uleb128 0x9
 2260 0153 70020000 		.4byte	.LASF23
 2261 0157 04       		.byte	0x4
 2262 0158 4C       		.byte	0x4c
 2263 0159 F7000000 		.4byte	0xf7
 2264 015d 00       		.byte	0
 2265 015e 09       		.uleb128 0x9
 2266 015f 14010000 		.4byte	.LASF24
 2267 0163 04       		.byte	0x4
 2268 0164 4F       		.byte	0x4f
 2269 0165 D1000000 		.4byte	0xd1
 2270 0169 0C       		.byte	0xc
 2271 016a 09       		.uleb128 0x9
 2272 016b 62040000 		.4byte	.LASF25
 2273 016f 04       		.byte	0x4
 2274 0170 50       		.byte	0x50
 2275 0171 D1000000 		.4byte	0xd1
 2276 0175 10       		.byte	0x10
 2277 0176 09       		.uleb128 0x9
 2278 0177 BA000000 		.4byte	.LASF26
 2279 017b 04       		.byte	0x4
 2280 017c 53       		.byte	0x53
ARM GAS  C:\Users\Alex\AppData\Local\Temp\cchBAlOP.s 			page 60


 2281 017d D1000000 		.4byte	0xd1
 2282 0181 14       		.byte	0x14
 2283 0182 09       		.uleb128 0x9
 2284 0183 8D030000 		.4byte	.LASF27
 2285 0187 04       		.byte	0x4
 2286 0188 54       		.byte	0x54
 2287 0189 D1000000 		.4byte	0xd1
 2288 018d 18       		.byte	0x18
 2289 018e 09       		.uleb128 0x9
 2290 018f 83030000 		.4byte	.LASF28
 2291 0193 04       		.byte	0x4
 2292 0194 55       		.byte	0x55
 2293 0195 D1000000 		.4byte	0xd1
 2294 0199 1C       		.byte	0x1c
 2295 019a 09       		.uleb128 0x9
 2296 019b 86050000 		.4byte	.LASF29
 2297 019f 04       		.byte	0x4
 2298 01a0 56       		.byte	0x56
 2299 01a1 D1000000 		.4byte	0xd1
 2300 01a5 20       		.byte	0x20
 2301 01a6 00       		.byte	0
 2302 01a7 07       		.uleb128 0x7
 2303 01a8 37050000 		.4byte	.LASF30
 2304 01ac 34       		.byte	0x34
 2305 01ad 04       		.byte	0x4
 2306 01ae 5A       		.byte	0x5a
 2307 01af 38020000 		.4byte	0x238
 2308 01b3 09       		.uleb128 0x9
 2309 01b4 70020000 		.4byte	.LASF23
 2310 01b8 04       		.byte	0x4
 2311 01b9 5D       		.byte	0x5d
 2312 01ba F7000000 		.4byte	0xf7
 2313 01be 00       		.byte	0
 2314 01bf 08       		.uleb128 0x8
 2315 01c0 706F7300 		.ascii	"pos\000"
 2316 01c4 04       		.byte	0x4
 2317 01c5 60       		.byte	0x60
 2318 01c6 D1000000 		.4byte	0xd1
 2319 01ca 0C       		.byte	0xc
 2320 01cb 09       		.uleb128 0x9
 2321 01cc 39030000 		.4byte	.LASF31
 2322 01d0 04       		.byte	0x4
 2323 01d1 61       		.byte	0x61
 2324 01d2 D1000000 		.4byte	0xd1
 2325 01d6 10       		.byte	0x10
 2326 01d7 09       		.uleb128 0x9
 2327 01d8 42050000 		.4byte	.LASF32
 2328 01dc 04       		.byte	0x4
 2329 01dd 62       		.byte	0x62
 2330 01de D1000000 		.4byte	0xd1
 2331 01e2 14       		.byte	0x14
 2332 01e3 09       		.uleb128 0x9
 2333 01e4 32050000 		.4byte	.LASF33
 2334 01e8 04       		.byte	0x4
 2335 01e9 63       		.byte	0x63
 2336 01ea D1000000 		.4byte	0xd1
 2337 01ee 18       		.byte	0x18
ARM GAS  C:\Users\Alex\AppData\Local\Temp\cchBAlOP.s 			page 61


 2338 01ef 09       		.uleb128 0x9
 2339 01f0 90050000 		.4byte	.LASF34
 2340 01f4 04       		.byte	0x4
 2341 01f5 64       		.byte	0x64
 2342 01f6 D1000000 		.4byte	0xd1
 2343 01fa 1C       		.byte	0x1c
 2344 01fb 08       		.uleb128 0x8
 2345 01fc 61636300 		.ascii	"acc\000"
 2346 0200 04       		.byte	0x4
 2347 0201 65       		.byte	0x65
 2348 0202 D1000000 		.4byte	0xd1
 2349 0206 20       		.byte	0x20
 2350 0207 09       		.uleb128 0x9
 2351 0208 BA000000 		.4byte	.LASF26
 2352 020c 04       		.byte	0x4
 2353 020d 68       		.byte	0x68
 2354 020e D1000000 		.4byte	0xd1
 2355 0212 24       		.byte	0x24
 2356 0213 09       		.uleb128 0x9
 2357 0214 8D030000 		.4byte	.LASF27
 2358 0218 04       		.byte	0x4
 2359 0219 69       		.byte	0x69
 2360 021a D1000000 		.4byte	0xd1
 2361 021e 28       		.byte	0x28
 2362 021f 09       		.uleb128 0x9
 2363 0220 83030000 		.4byte	.LASF28
 2364 0224 04       		.byte	0x4
 2365 0225 6A       		.byte	0x6a
 2366 0226 D1000000 		.4byte	0xd1
 2367 022a 2C       		.byte	0x2c
 2368 022b 09       		.uleb128 0x9
 2369 022c 86050000 		.4byte	.LASF29
 2370 0230 04       		.byte	0x4
 2371 0231 6B       		.byte	0x6b
 2372 0232 D1000000 		.4byte	0xd1
 2373 0236 30       		.byte	0x30
 2374 0237 00       		.byte	0
 2375 0238 07       		.uleb128 0x7
 2376 0239 F0050000 		.4byte	.LASF35
 2377 023d A4       		.byte	0xa4
 2378 023e 04       		.byte	0x4
 2379 023f 6F       		.byte	0x6f
 2380 0240 8D020000 		.4byte	0x28d
 2381 0244 09       		.uleb128 0x9
 2382 0245 DF020000 		.4byte	.LASF36
 2383 0249 04       		.byte	0x4
 2384 024a 71       		.byte	0x71
 2385 024b B0000000 		.4byte	0xb0
 2386 024f 00       		.byte	0
 2387 0250 08       		.uleb128 0x8
 2388 0251 70776D00 		.ascii	"pwm\000"
 2389 0255 04       		.byte	0x4
 2390 0256 72       		.byte	0x72
 2391 0257 B0000000 		.4byte	0xb0
 2392 025b 01       		.byte	0x1
 2393 025c 09       		.uleb128 0x9
 2394 025d 00010000 		.4byte	.LASF37
ARM GAS  C:\Users\Alex\AppData\Local\Temp\cchBAlOP.s 			page 62


 2395 0261 04       		.byte	0x4
 2396 0262 73       		.byte	0x73
 2397 0263 46010000 		.4byte	0x146
 2398 0267 04       		.byte	0x4
 2399 0268 09       		.uleb128 0x9
 2400 0269 D0050000 		.4byte	.LASF38
 2401 026d 04       		.byte	0x4
 2402 026e 74       		.byte	0x74
 2403 026f 46010000 		.4byte	0x146
 2404 0273 28       		.byte	0x28
 2405 0274 09       		.uleb128 0x9
 2406 0275 09060000 		.4byte	.LASF39
 2407 0279 04       		.byte	0x4
 2408 027a 75       		.byte	0x75
 2409 027b A7010000 		.4byte	0x1a7
 2410 027f 4C       		.byte	0x4c
 2411 0280 09       		.uleb128 0x9
 2412 0281 B0030000 		.4byte	.LASF40
 2413 0285 04       		.byte	0x4
 2414 0286 76       		.byte	0x76
 2415 0287 46010000 		.4byte	0x146
 2416 028b 80       		.byte	0x80
 2417 028c 00       		.byte	0
 2418 028d 0A       		.uleb128 0xa
 2419 028e 6C010000 		.4byte	.LASF41
 2420 0292 3C       		.byte	0x3c
 2421 0293 05       		.byte	0x5
 2422 0294 D601     		.2byte	0x1d6
 2423 0296 26030000 		.4byte	0x326
 2424 029a 0B       		.uleb128 0xb
 2425 029b E5050000 		.4byte	.LASF42
 2426 029f 05       		.byte	0x5
 2427 02a0 D801     		.2byte	0x1d8
 2428 02a2 B0000000 		.4byte	0xb0
 2429 02a6 00       		.byte	0
 2430 02a7 0B       		.uleb128 0xb
 2431 02a8 39030000 		.4byte	.LASF31
 2432 02ac 05       		.byte	0x5
 2433 02ad D901     		.2byte	0x1d9
 2434 02af D1000000 		.4byte	0xd1
 2435 02b3 04       		.byte	0x4
 2436 02b4 0B       		.uleb128 0xb
 2437 02b5 14010000 		.4byte	.LASF24
 2438 02b9 05       		.byte	0x5
 2439 02ba DA01     		.2byte	0x1da
 2440 02bc D1000000 		.4byte	0xd1
 2441 02c0 08       		.byte	0x8
 2442 02c1 0B       		.uleb128 0xb
 2443 02c2 BA000000 		.4byte	.LASF26
 2444 02c6 05       		.byte	0x5
 2445 02c7 DB01     		.2byte	0x1db
 2446 02c9 D1000000 		.4byte	0xd1
 2447 02cd 0C       		.byte	0xc
 2448 02ce 0B       		.uleb128 0xb
 2449 02cf 28000000 		.4byte	.LASF43
 2450 02d3 05       		.byte	0x5
 2451 02d4 DC01     		.2byte	0x1dc
ARM GAS  C:\Users\Alex\AppData\Local\Temp\cchBAlOP.s 			page 63


 2452 02d6 D1000000 		.4byte	0xd1
 2453 02da 10       		.byte	0x10
 2454 02db 0C       		.uleb128 0xc
 2455 02dc 70776D00 		.ascii	"pwm\000"
 2456 02e0 05       		.byte	0x5
 2457 02e1 DD01     		.2byte	0x1dd
 2458 02e3 BB000000 		.4byte	0xbb
 2459 02e7 14       		.byte	0x14
 2460 02e8 0B       		.uleb128 0xb
 2461 02e9 68020000 		.4byte	.LASF44
 2462 02ed 05       		.byte	0x5
 2463 02ee DE01     		.2byte	0x1de
 2464 02f0 B0000000 		.4byte	0xb0
 2465 02f4 16       		.byte	0x16
 2466 02f5 0B       		.uleb128 0xb
 2467 02f6 D0050000 		.4byte	.LASF38
 2468 02fa 05       		.byte	0x5
 2469 02fb DF01     		.2byte	0x1df
 2470 02fd BB000000 		.4byte	0xbb
 2471 0301 18       		.byte	0x18
 2472 0302 0B       		.uleb128 0xb
 2473 0303 B1000000 		.4byte	.LASF45
 2474 0307 05       		.byte	0x5
 2475 0308 E001     		.2byte	0x1e0
 2476 030a C6000000 		.4byte	0xc6
 2477 030e 1A       		.byte	0x1a
 2478 030f 0C       		.uleb128 0xc
 2479 0310 7200     		.ascii	"r\000"
 2480 0312 05       		.byte	0x5
 2481 0313 E201     		.2byte	0x1e2
 2482 0315 26030000 		.4byte	0x326
 2483 0319 1C       		.byte	0x1c
 2484 031a 0C       		.uleb128 0xc
 2485 031b 7700     		.ascii	"w\000"
 2486 031d 05       		.byte	0x5
 2487 031e E301     		.2byte	0x1e3
 2488 0320 26030000 		.4byte	0x326
 2489 0324 2C       		.byte	0x2c
 2490 0325 00       		.byte	0
 2491 0326 05       		.uleb128 0x5
 2492 0327 D1000000 		.4byte	0xd1
 2493 032b 36030000 		.4byte	0x336
 2494 032f 06       		.uleb128 0x6
 2495 0330 A2000000 		.4byte	0xa2
 2496 0334 03       		.byte	0x3
 2497 0335 00       		.byte	0
 2498 0336 03       		.uleb128 0x3
 2499 0337 D8050000 		.4byte	.LASF46
 2500 033b 06       		.byte	0x6
 2501 033c C2       		.byte	0xc2
 2502 033d 37000000 		.4byte	0x37
 2503 0341 03       		.uleb128 0x3
 2504 0342 21030000 		.4byte	.LASF47
 2505 0346 06       		.byte	0x6
 2506 0347 C4       		.byte	0xc4
 2507 0348 7F000000 		.4byte	0x7f
 2508 034c 03       		.uleb128 0x3
ARM GAS  C:\Users\Alex\AppData\Local\Temp\cchBAlOP.s 			page 64


 2509 034d A0000000 		.4byte	.LASF48
 2510 0351 06       		.byte	0x6
 2511 0352 C6       		.byte	0xc6
 2512 0353 49000000 		.4byte	0x49
 2513 0357 02       		.uleb128 0x2
 2514 0358 04       		.byte	0x4
 2515 0359 04       		.byte	0x4
 2516 035a 0E010000 		.4byte	.LASF49
 2517 035e 02       		.uleb128 0x2
 2518 035f 08       		.byte	0x8
 2519 0360 04       		.byte	0x4
 2520 0361 DE050000 		.4byte	.LASF50
 2521 0365 02       		.uleb128 0x2
 2522 0366 08       		.byte	0x8
 2523 0367 04       		.byte	0x4
 2524 0368 4E030000 		.4byte	.LASF51
 2525 036c 0D       		.uleb128 0xd
 2526 036d 50010000 		.4byte	.LASF57
 2527 0371 01       		.byte	0x1
 2528 0372 32       		.byte	0x32
 2529 0373 DC000000 		.4byte	0xdc
 2530 0377 00000000 		.4byte	.LFB63
 2531 037b 44000000 		.4byte	.LFE63-.LFB63
 2532 037f 01       		.uleb128 0x1
 2533 0380 9C       		.byte	0x9c
 2534 0381 12040000 		.4byte	0x412
 2535 0385 0E       		.uleb128 0xe
 2536 0386 5B000000 		.4byte	.LASF52
 2537 038a 01       		.byte	0x1
 2538 038b 32       		.byte	0x32
 2539 038c B0000000 		.4byte	0xb0
 2540 0390 00000000 		.4byte	.LLST0
 2541 0394 0E       		.uleb128 0xe
 2542 0395 49000000 		.4byte	.LASF53
 2543 0399 01       		.byte	0x1
 2544 039a 32       		.byte	0x32
 2545 039b B0000000 		.4byte	0xb0
 2546 039f 21000000 		.4byte	.LLST1
 2547 03a3 0F       		.uleb128 0xf
 2548 03a4 62756600 		.ascii	"buf\000"
 2549 03a8 01       		.byte	0x1
 2550 03a9 32       		.byte	0x32
 2551 03aa 12040000 		.4byte	0x412
 2552 03ae 42000000 		.4byte	.LLST2
 2553 03b2 0F       		.uleb128 0xf
 2554 03b3 6C656E00 		.ascii	"len\000"
 2555 03b7 01       		.byte	0x1
 2556 03b8 32       		.byte	0x32
 2557 03b9 DC000000 		.4byte	0xdc
 2558 03bd 6E000000 		.4byte	.LLST3
 2559 03c1 0E       		.uleb128 0xe
 2560 03c2 79010000 		.4byte	.LASF54
 2561 03c6 01       		.byte	0x1
 2562 03c7 32       		.byte	0x32
 2563 03c8 BB000000 		.4byte	0xbb
 2564 03cc 8F000000 		.4byte	.LLST4
 2565 03d0 10       		.uleb128 0x10
ARM GAS  C:\Users\Alex\AppData\Local\Temp\cchBAlOP.s 			page 65


 2566 03d1 BE010000 		.4byte	.LASF55
 2567 03d5 01       		.byte	0x1
 2568 03d6 34       		.byte	0x34
 2569 03d7 DC000000 		.4byte	0xdc
 2570 03db BB000000 		.4byte	.LLST5
 2571 03df 11       		.uleb128 0x11
 2572 03e0 12000000 		.4byte	.LVL4
 2573 03e4 D3150000 		.4byte	0x15d3
 2574 03e8 00040000 		.4byte	0x400
 2575 03ec 12       		.uleb128 0x12
 2576 03ed 01       		.uleb128 0x1
 2577 03ee 53       		.byte	0x53
 2578 03ef 03       		.uleb128 0x3
 2579 03f0 F3       		.byte	0xf3
 2580 03f1 01       		.uleb128 0x1
 2581 03f2 53       		.byte	0x53
 2582 03f3 12       		.uleb128 0x12
 2583 03f4 01       		.uleb128 0x1
 2584 03f5 52       		.byte	0x52
 2585 03f6 02       		.uleb128 0x2
 2586 03f7 74       		.byte	0x74
 2587 03f8 00       		.sleb128 0
 2588 03f9 12       		.uleb128 0x12
 2589 03fa 01       		.uleb128 0x1
 2590 03fb 51       		.byte	0x51
 2591 03fc 02       		.uleb128 0x2
 2592 03fd 76       		.byte	0x76
 2593 03fe 00       		.sleb128 0
 2594 03ff 00       		.byte	0
 2595 0400 13       		.uleb128 0x13
 2596 0401 3C000000 		.4byte	.LVL9
 2597 0405 F3150000 		.4byte	0x15f3
 2598 0409 12       		.uleb128 0x12
 2599 040a 01       		.uleb128 0x1
 2600 040b 50       		.byte	0x50
 2601 040c 03       		.uleb128 0x3
 2602 040d 0A       		.byte	0xa
 2603 040e 0004     		.2byte	0x400
 2604 0410 00       		.byte	0
 2605 0411 00       		.byte	0
 2606 0412 14       		.uleb128 0x14
 2607 0413 04       		.byte	0x4
 2608 0414 B0000000 		.4byte	0xb0
 2609 0418 15       		.uleb128 0x15
 2610 0419 55020000 		.4byte	.LASF63
 2611 041d 01       		.byte	0x1
 2612 041e 56       		.byte	0x56
 2613 041f 00000000 		.4byte	.LFB64
 2614 0423 58000000 		.4byte	.LFE64-.LFB64
 2615 0427 01       		.uleb128 0x1
 2616 0428 9C       		.byte	0x9c
 2617 0429 CD040000 		.4byte	0x4cd
 2618 042d 0F       		.uleb128 0xf
 2619 042e 62756600 		.ascii	"buf\000"
 2620 0432 01       		.byte	0x1
 2621 0433 56       		.byte	0x56
 2622 0434 12040000 		.4byte	0x412
ARM GAS  C:\Users\Alex\AppData\Local\Temp\cchBAlOP.s 			page 66


 2623 0438 0A010000 		.4byte	.LLST6
 2624 043c 10       		.uleb128 0x10
 2625 043d AB030000 		.4byte	.LASF56
 2626 0441 01       		.byte	0x1
 2627 0442 58       		.byte	0x58
 2628 0443 B0000000 		.4byte	0xb0
 2629 0447 44010000 		.4byte	.LLST7
 2630 044b 10       		.uleb128 0x10
 2631 044c E5050000 		.4byte	.LASF42
 2632 0450 01       		.byte	0x1
 2633 0451 58       		.byte	0x58
 2634 0452 B0000000 		.4byte	0xb0
 2635 0456 7A010000 		.4byte	.LLST8
 2636 045a 11       		.uleb128 0x11
 2637 045b 20000000 		.4byte	.LVL15
 2638 045f 6C030000 		.4byte	0x36c
 2639 0463 79040000 		.4byte	0x479
 2640 0467 12       		.uleb128 0x12
 2641 0468 01       		.uleb128 0x1
 2642 0469 53       		.byte	0x53
 2643 046a 02       		.uleb128 0x2
 2644 046b 08       		.byte	0x8
 2645 046c 24       		.byte	0x24
 2646 046d 12       		.uleb128 0x12
 2647 046e 01       		.uleb128 0x1
 2648 046f 52       		.byte	0x52
 2649 0470 02       		.uleb128 0x2
 2650 0471 75       		.byte	0x75
 2651 0472 00       		.sleb128 0
 2652 0473 12       		.uleb128 0x12
 2653 0474 01       		.uleb128 0x1
 2654 0475 51       		.byte	0x51
 2655 0476 01       		.uleb128 0x1
 2656 0477 32       		.byte	0x32
 2657 0478 00       		.byte	0
 2658 0479 11       		.uleb128 0x11
 2659 047a 2C000000 		.4byte	.LVL17
 2660 047e 08160000 		.4byte	0x1608
 2661 0482 93040000 		.4byte	0x493
 2662 0486 12       		.uleb128 0x12
 2663 0487 01       		.uleb128 0x1
 2664 0488 51       		.byte	0x51
 2665 0489 02       		.uleb128 0x2
 2666 048a 74       		.byte	0x74
 2667 048b 00       		.sleb128 0
 2668 048c 12       		.uleb128 0x12
 2669 048d 01       		.uleb128 0x1
 2670 048e 50       		.byte	0x50
 2671 048f 02       		.uleb128 0x2
 2672 0490 75       		.byte	0x75
 2673 0491 00       		.sleb128 0
 2674 0492 00       		.byte	0
 2675 0493 11       		.uleb128 0x11
 2676 0494 34000000 		.4byte	.LVL19
 2677 0498 27160000 		.4byte	0x1627
 2678 049c A7040000 		.4byte	0x4a7
 2679 04a0 12       		.uleb128 0x12
ARM GAS  C:\Users\Alex\AppData\Local\Temp\cchBAlOP.s 			page 67


 2680 04a1 01       		.uleb128 0x1
 2681 04a2 50       		.byte	0x50
 2682 04a3 02       		.uleb128 0x2
 2683 04a4 74       		.byte	0x74
 2684 04a5 00       		.sleb128 0
 2685 04a6 00       		.byte	0
 2686 04a7 11       		.uleb128 0x11
 2687 04a8 3E000000 		.4byte	.LVL22
 2688 04ac 43160000 		.4byte	0x1643
 2689 04b0 BC040000 		.4byte	0x4bc
 2690 04b4 12       		.uleb128 0x12
 2691 04b5 01       		.uleb128 0x1
 2692 04b6 50       		.byte	0x50
 2693 04b7 03       		.uleb128 0x3
 2694 04b8 F3       		.byte	0xf3
 2695 04b9 01       		.uleb128 0x1
 2696 04ba 50       		.byte	0x50
 2697 04bb 00       		.byte	0
 2698 04bc 13       		.uleb128 0x13
 2699 04bd 46000000 		.4byte	.LVL23
 2700 04c1 58160000 		.4byte	0x1658
 2701 04c5 12       		.uleb128 0x12
 2702 04c6 01       		.uleb128 0x1
 2703 04c7 50       		.byte	0x50
 2704 04c8 02       		.uleb128 0x2
 2705 04c9 74       		.byte	0x74
 2706 04ca 00       		.sleb128 0
 2707 04cb 00       		.byte	0
 2708 04cc 00       		.byte	0
 2709 04cd 0D       		.uleb128 0xd
 2710 04ce 0D040000 		.4byte	.LASF58
 2711 04d2 01       		.byte	0x1
 2712 04d3 8D       		.byte	0x8d
 2713 04d4 DC000000 		.4byte	0xdc
 2714 04d8 00000000 		.4byte	.LFB65
 2715 04dc 84000000 		.4byte	.LFE65-.LFB65
 2716 04e0 01       		.uleb128 0x1
 2717 04e1 9C       		.byte	0x9c
 2718 04e2 EA050000 		.4byte	0x5ea
 2719 04e6 0E       		.uleb128 0xe
 2720 04e7 5B000000 		.4byte	.LASF52
 2721 04eb 01       		.byte	0x1
 2722 04ec 8D       		.byte	0x8d
 2723 04ed B0000000 		.4byte	0xb0
 2724 04f1 99010000 		.4byte	.LLST9
 2725 04f5 0E       		.uleb128 0xe
 2726 04f6 49000000 		.4byte	.LASF53
 2727 04fa 01       		.byte	0x1
 2728 04fb 8D       		.byte	0x8d
 2729 04fc B0000000 		.4byte	0xb0
 2730 0500 BA010000 		.4byte	.LLST10
 2731 0504 0F       		.uleb128 0xf
 2732 0505 62756600 		.ascii	"buf\000"
 2733 0509 01       		.byte	0x1
 2734 050a 8D       		.byte	0x8d
 2735 050b 12040000 		.4byte	0x412
 2736 050f DB010000 		.4byte	.LLST11
ARM GAS  C:\Users\Alex\AppData\Local\Temp\cchBAlOP.s 			page 68


 2737 0513 0F       		.uleb128 0xf
 2738 0514 6C656E00 		.ascii	"len\000"
 2739 0518 01       		.byte	0x1
 2740 0519 8D       		.byte	0x8d
 2741 051a DC000000 		.4byte	0xdc
 2742 051e 07020000 		.4byte	.LLST12
 2743 0522 0E       		.uleb128 0xe
 2744 0523 02060000 		.4byte	.LASF59
 2745 0527 01       		.byte	0x1
 2746 0528 8D       		.byte	0x8d
 2747 0529 BB000000 		.4byte	0xbb
 2748 052d 28020000 		.4byte	.LLST13
 2749 0531 0E       		.uleb128 0xe
 2750 0532 EF030000 		.4byte	.LASF60
 2751 0536 01       		.byte	0x1
 2752 0537 8D       		.byte	0x8d
 2753 0538 BB000000 		.4byte	0xbb
 2754 053c 48020000 		.4byte	.LLST14
 2755 0540 16       		.uleb128 0x16
 2756 0541 00000000 		.4byte	.LASF61
 2757 0545 01       		.byte	0x1
 2758 0546 8F       		.byte	0x8f
 2759 0547 B0000000 		.4byte	0xb0
 2760 054b 02       		.uleb128 0x2
 2761 054c 91       		.byte	0x91
 2762 054d 6F       		.sleb128 -17
 2763 054e 16       		.uleb128 0x16
 2764 054f 05000000 		.4byte	.LASF62
 2765 0553 01       		.byte	0x1
 2766 0554 8F       		.byte	0x8f
 2767 0555 B0000000 		.4byte	0xb0
 2768 0559 02       		.uleb128 0x2
 2769 055a 91       		.byte	0x91
 2770 055b 6E       		.sleb128 -18
 2771 055c 10       		.uleb128 0x10
 2772 055d BE010000 		.4byte	.LASF55
 2773 0561 01       		.byte	0x1
 2774 0562 90       		.byte	0x90
 2775 0563 DC000000 		.4byte	0xdc
 2776 0567 68020000 		.4byte	.LLST15
 2777 056b 11       		.uleb128 0x11
 2778 056c 1E000000 		.4byte	.LVL28
 2779 0570 D3150000 		.4byte	0x15d3
 2780 0574 8C050000 		.4byte	0x58c
 2781 0578 12       		.uleb128 0x12
 2782 0579 01       		.uleb128 0x1
 2783 057a 53       		.byte	0x53
 2784 057b 03       		.uleb128 0x3
 2785 057c F3       		.byte	0xf3
 2786 057d 01       		.uleb128 0x1
 2787 057e 53       		.byte	0x53
 2788 057f 12       		.uleb128 0x12
 2789 0580 01       		.uleb128 0x1
 2790 0581 52       		.byte	0x52
 2791 0582 02       		.uleb128 0x2
 2792 0583 74       		.byte	0x74
 2793 0584 00       		.sleb128 0
ARM GAS  C:\Users\Alex\AppData\Local\Temp\cchBAlOP.s 			page 69


 2794 0585 12       		.uleb128 0x12
 2795 0586 01       		.uleb128 0x1
 2796 0587 51       		.byte	0x51
 2797 0588 02       		.uleb128 0x2
 2798 0589 76       		.byte	0x76
 2799 058a 00       		.sleb128 0
 2800 058b 00       		.byte	0
 2801 058c 11       		.uleb128 0x11
 2802 058d 46000000 		.4byte	.LVL31
 2803 0591 69160000 		.4byte	0x1669
 2804 0595 B2050000 		.4byte	0x5b2
 2805 0599 12       		.uleb128 0x12
 2806 059a 01       		.uleb128 0x1
 2807 059b 52       		.byte	0x52
 2808 059c 02       		.uleb128 0x2
 2809 059d 91       		.byte	0x91
 2810 059e 6E       		.sleb128 -18
 2811 059f 12       		.uleb128 0x12
 2812 05a0 01       		.uleb128 0x1
 2813 05a1 51       		.byte	0x51
 2814 05a2 02       		.uleb128 0x2
 2815 05a3 91       		.byte	0x91
 2816 05a4 6F       		.sleb128 -17
 2817 05a5 12       		.uleb128 0x12
 2818 05a6 01       		.uleb128 0x1
 2819 05a7 50       		.byte	0x50
 2820 05a8 08       		.uleb128 0x8
 2821 05a9 91       		.byte	0x91
 2822 05aa 04       		.sleb128 4
 2823 05ab 94       		.byte	0x94
 2824 05ac 02       		.byte	0x2
 2825 05ad 40       		.byte	0x40
 2826 05ae 24       		.byte	0x24
 2827 05af 40       		.byte	0x40
 2828 05b0 26       		.byte	0x26
 2829 05b1 00       		.byte	0
 2830 05b2 11       		.uleb128 0x11
 2831 05b3 62000000 		.4byte	.LVL32
 2832 05b7 69160000 		.4byte	0x1669
 2833 05bb D8050000 		.4byte	0x5d8
 2834 05bf 12       		.uleb128 0x12
 2835 05c0 01       		.uleb128 0x1
 2836 05c1 52       		.byte	0x52
 2837 05c2 02       		.uleb128 0x2
 2838 05c3 91       		.byte	0x91
 2839 05c4 6E       		.sleb128 -18
 2840 05c5 12       		.uleb128 0x12
 2841 05c6 01       		.uleb128 0x1
 2842 05c7 51       		.byte	0x51
 2843 05c8 02       		.uleb128 0x2
 2844 05c9 91       		.byte	0x91
 2845 05ca 6F       		.sleb128 -17
 2846 05cb 12       		.uleb128 0x12
 2847 05cc 01       		.uleb128 0x1
 2848 05cd 50       		.byte	0x50
 2849 05ce 08       		.uleb128 0x8
 2850 05cf 91       		.byte	0x91
ARM GAS  C:\Users\Alex\AppData\Local\Temp\cchBAlOP.s 			page 70


 2851 05d0 00       		.sleb128 0
 2852 05d1 94       		.byte	0x94
 2853 05d2 02       		.byte	0x2
 2854 05d3 40       		.byte	0x40
 2855 05d4 24       		.byte	0x24
 2856 05d5 40       		.byte	0x40
 2857 05d6 26       		.byte	0x26
 2858 05d7 00       		.byte	0
 2859 05d8 13       		.uleb128 0x13
 2860 05d9 7A000000 		.4byte	.LVL35
 2861 05dd F3150000 		.4byte	0x15f3
 2862 05e1 12       		.uleb128 0x12
 2863 05e2 01       		.uleb128 0x1
 2864 05e3 50       		.byte	0x50
 2865 05e4 03       		.uleb128 0x3
 2866 05e5 0A       		.byte	0xa
 2867 05e6 0004     		.2byte	0x400
 2868 05e8 00       		.byte	0
 2869 05e9 00       		.byte	0
 2870 05ea 15       		.uleb128 0x15
 2871 05eb 9B020000 		.4byte	.LASF64
 2872 05ef 01       		.byte	0x1
 2873 05f0 B7       		.byte	0xb7
 2874 05f1 00000000 		.4byte	.LFB66
 2875 05f5 7C000000 		.4byte	.LFE66-.LFB66
 2876 05f9 01       		.uleb128 0x1
 2877 05fa 9C       		.byte	0x9c
 2878 05fb AF060000 		.4byte	0x6af
 2879 05ff 0F       		.uleb128 0xf
 2880 0600 62756600 		.ascii	"buf\000"
 2881 0604 01       		.byte	0x1
 2882 0605 B7       		.byte	0xb7
 2883 0606 12040000 		.4byte	0x412
 2884 060a B7020000 		.4byte	.LLST16
 2885 060e 10       		.uleb128 0x10
 2886 060f AB030000 		.4byte	.LASF56
 2887 0613 01       		.byte	0x1
 2888 0614 B9       		.byte	0xb9
 2889 0615 DC000000 		.4byte	0xdc
 2890 0619 F1020000 		.4byte	.LLST17
 2891 061d 10       		.uleb128 0x10
 2892 061e 2C020000 		.4byte	.LASF65
 2893 0622 01       		.byte	0x1
 2894 0623 BA       		.byte	0xba
 2895 0624 BB000000 		.4byte	0xbb
 2896 0628 32030000 		.4byte	.LLST18
 2897 062c 10       		.uleb128 0x10
 2898 062d C4010000 		.4byte	.LASF66
 2899 0631 01       		.byte	0x1
 2900 0632 BA       		.byte	0xba
 2901 0633 BB000000 		.4byte	0xbb
 2902 0637 51030000 		.4byte	.LLST19
 2903 063b 11       		.uleb128 0x11
 2904 063c 28000000 		.4byte	.LVL41
 2905 0640 CD040000 		.4byte	0x4cd
 2906 0644 5A060000 		.4byte	0x65a
 2907 0648 12       		.uleb128 0x12
ARM GAS  C:\Users\Alex\AppData\Local\Temp\cchBAlOP.s 			page 71


 2908 0649 01       		.uleb128 0x1
 2909 064a 53       		.byte	0x53
 2910 064b 02       		.uleb128 0x2
 2911 064c 08       		.byte	0x8
 2912 064d 24       		.byte	0x24
 2913 064e 12       		.uleb128 0x12
 2914 064f 01       		.uleb128 0x1
 2915 0650 52       		.byte	0x52
 2916 0651 02       		.uleb128 0x2
 2917 0652 75       		.byte	0x75
 2918 0653 00       		.sleb128 0
 2919 0654 12       		.uleb128 0x12
 2920 0655 01       		.uleb128 0x1
 2921 0656 51       		.byte	0x51
 2922 0657 01       		.uleb128 0x1
 2923 0658 32       		.byte	0x32
 2924 0659 00       		.byte	0
 2925 065a 11       		.uleb128 0x11
 2926 065b 34000000 		.4byte	.LVL43
 2927 065f 08160000 		.4byte	0x1608
 2928 0663 74060000 		.4byte	0x674
 2929 0667 12       		.uleb128 0x12
 2930 0668 01       		.uleb128 0x1
 2931 0669 51       		.byte	0x51
 2932 066a 02       		.uleb128 0x2
 2933 066b 74       		.byte	0x74
 2934 066c 00       		.sleb128 0
 2935 066d 12       		.uleb128 0x12
 2936 066e 01       		.uleb128 0x1
 2937 066f 50       		.byte	0x50
 2938 0670 02       		.uleb128 0x2
 2939 0671 75       		.byte	0x75
 2940 0672 00       		.sleb128 0
 2941 0673 00       		.byte	0
 2942 0674 11       		.uleb128 0x11
 2943 0675 3C000000 		.4byte	.LVL46
 2944 0679 27160000 		.4byte	0x1627
 2945 067d 88060000 		.4byte	0x688
 2946 0681 12       		.uleb128 0x12
 2947 0682 01       		.uleb128 0x1
 2948 0683 50       		.byte	0x50
 2949 0684 02       		.uleb128 0x2
 2950 0685 74       		.byte	0x74
 2951 0686 00       		.sleb128 0
 2952 0687 00       		.byte	0
 2953 0688 11       		.uleb128 0x11
 2954 0689 4E000000 		.4byte	.LVL50
 2955 068d 43160000 		.4byte	0x1643
 2956 0691 9D060000 		.4byte	0x69d
 2957 0695 12       		.uleb128 0x12
 2958 0696 01       		.uleb128 0x1
 2959 0697 50       		.byte	0x50
 2960 0698 03       		.uleb128 0x3
 2961 0699 F3       		.byte	0xf3
 2962 069a 01       		.uleb128 0x1
 2963 069b 50       		.byte	0x50
 2964 069c 00       		.byte	0
ARM GAS  C:\Users\Alex\AppData\Local\Temp\cchBAlOP.s 			page 72


 2965 069d 13       		.uleb128 0x13
 2966 069e 58000000 		.4byte	.LVL51
 2967 06a2 F3150000 		.4byte	0x15f3
 2968 06a6 12       		.uleb128 0x12
 2969 06a7 01       		.uleb128 0x1
 2970 06a8 50       		.byte	0x50
 2971 06a9 03       		.uleb128 0x3
 2972 06aa 0A       		.byte	0xa
 2973 06ab 0002     		.2byte	0x200
 2974 06ad 00       		.byte	0
 2975 06ae 00       		.byte	0
 2976 06af 17       		.uleb128 0x17
 2977 06b0 1B040000 		.4byte	.LASF67
 2978 06b4 01       		.byte	0x1
 2979 06b5 1101     		.2byte	0x111
 2980 06b7 DC000000 		.4byte	0xdc
 2981 06bb 00000000 		.4byte	.LFB67
 2982 06bf 68000000 		.4byte	.LFE67-.LFB67
 2983 06c3 01       		.uleb128 0x1
 2984 06c4 9C       		.byte	0x9c
 2985 06c5 A0070000 		.4byte	0x7a0
 2986 06c9 18       		.uleb128 0x18
 2987 06ca 5B000000 		.4byte	.LASF52
 2988 06ce 01       		.byte	0x1
 2989 06cf 1101     		.2byte	0x111
 2990 06d1 B0000000 		.4byte	0xb0
 2991 06d5 81030000 		.4byte	.LLST20
 2992 06d9 18       		.uleb128 0x18
 2993 06da 49000000 		.4byte	.LASF53
 2994 06de 01       		.byte	0x1
 2995 06df 1101     		.2byte	0x111
 2996 06e1 B0000000 		.4byte	0xb0
 2997 06e5 A2030000 		.4byte	.LLST21
 2998 06e9 19       		.uleb128 0x19
 2999 06ea 62756600 		.ascii	"buf\000"
 3000 06ee 01       		.byte	0x1
 3001 06ef 1101     		.2byte	0x111
 3002 06f1 12040000 		.4byte	0x412
 3003 06f5 C3030000 		.4byte	.LLST22
 3004 06f9 19       		.uleb128 0x19
 3005 06fa 6C656E00 		.ascii	"len\000"
 3006 06fe 01       		.byte	0x1
 3007 06ff 1101     		.2byte	0x111
 3008 0701 DC000000 		.4byte	0xdc
 3009 0705 EF030000 		.4byte	.LLST23
 3010 0709 18       		.uleb128 0x18
 3011 070a C7050000 		.4byte	.LASF68
 3012 070e 01       		.byte	0x1
 3013 070f 1101     		.2byte	0x111
 3014 0711 BB000000 		.4byte	0xbb
 3015 0715 10040000 		.4byte	.LLST24
 3016 0719 1A       		.uleb128 0x1a
 3017 071a 00000000 		.4byte	.LASF61
 3018 071e 01       		.byte	0x1
 3019 071f 1301     		.2byte	0x113
 3020 0721 B0000000 		.4byte	0xb0
 3021 0725 02       		.uleb128 0x2
ARM GAS  C:\Users\Alex\AppData\Local\Temp\cchBAlOP.s 			page 73


 3022 0726 91       		.byte	0x91
 3023 0727 6F       		.sleb128 -17
 3024 0728 1A       		.uleb128 0x1a
 3025 0729 05000000 		.4byte	.LASF62
 3026 072d 01       		.byte	0x1
 3027 072e 1301     		.2byte	0x113
 3028 0730 B0000000 		.4byte	0xb0
 3029 0734 02       		.uleb128 0x2
 3030 0735 91       		.byte	0x91
 3031 0736 6E       		.sleb128 -18
 3032 0737 1B       		.uleb128 0x1b
 3033 0738 BE010000 		.4byte	.LASF55
 3034 073c 01       		.byte	0x1
 3035 073d 1401     		.2byte	0x114
 3036 073f DC000000 		.4byte	0xdc
 3037 0743 30040000 		.4byte	.LLST25
 3038 0747 11       		.uleb128 0x11
 3039 0748 1E000000 		.4byte	.LVL57
 3040 074c D3150000 		.4byte	0x15d3
 3041 0750 68070000 		.4byte	0x768
 3042 0754 12       		.uleb128 0x12
 3043 0755 01       		.uleb128 0x1
 3044 0756 53       		.byte	0x53
 3045 0757 03       		.uleb128 0x3
 3046 0758 F3       		.byte	0xf3
 3047 0759 01       		.uleb128 0x1
 3048 075a 53       		.byte	0x53
 3049 075b 12       		.uleb128 0x12
 3050 075c 01       		.uleb128 0x1
 3051 075d 52       		.byte	0x52
 3052 075e 02       		.uleb128 0x2
 3053 075f 74       		.byte	0x74
 3054 0760 00       		.sleb128 0
 3055 0761 12       		.uleb128 0x12
 3056 0762 01       		.uleb128 0x1
 3057 0763 51       		.byte	0x51
 3058 0764 02       		.uleb128 0x2
 3059 0765 76       		.byte	0x76
 3060 0766 00       		.sleb128 0
 3061 0767 00       		.byte	0
 3062 0768 11       		.uleb128 0x11
 3063 0769 46000000 		.4byte	.LVL60
 3064 076d 69160000 		.4byte	0x1669
 3065 0771 8E070000 		.4byte	0x78e
 3066 0775 12       		.uleb128 0x12
 3067 0776 01       		.uleb128 0x1
 3068 0777 52       		.byte	0x52
 3069 0778 02       		.uleb128 0x2
 3070 0779 91       		.byte	0x91
 3071 077a 6E       		.sleb128 -18
 3072 077b 12       		.uleb128 0x12
 3073 077c 01       		.uleb128 0x1
 3074 077d 51       		.byte	0x51
 3075 077e 02       		.uleb128 0x2
 3076 077f 91       		.byte	0x91
 3077 0780 6F       		.sleb128 -17
 3078 0781 12       		.uleb128 0x12
ARM GAS  C:\Users\Alex\AppData\Local\Temp\cchBAlOP.s 			page 74


 3079 0782 01       		.uleb128 0x1
 3080 0783 50       		.byte	0x50
 3081 0784 08       		.uleb128 0x8
 3082 0785 91       		.byte	0x91
 3083 0786 00       		.sleb128 0
 3084 0787 94       		.byte	0x94
 3085 0788 02       		.byte	0x2
 3086 0789 40       		.byte	0x40
 3087 078a 24       		.byte	0x24
 3088 078b 40       		.byte	0x40
 3089 078c 26       		.byte	0x26
 3090 078d 00       		.byte	0
 3091 078e 13       		.uleb128 0x13
 3092 078f 5E000000 		.4byte	.LVL63
 3093 0793 F3150000 		.4byte	0x15f3
 3094 0797 12       		.uleb128 0x12
 3095 0798 01       		.uleb128 0x1
 3096 0799 50       		.byte	0x50
 3097 079a 03       		.uleb128 0x3
 3098 079b 0A       		.byte	0xa
 3099 079c 0004     		.2byte	0x400
 3100 079e 00       		.byte	0
 3101 079f 00       		.byte	0
 3102 07a0 1C       		.uleb128 0x1c
 3103 07a1 88020000 		.4byte	.LASF69
 3104 07a5 01       		.byte	0x1
 3105 07a6 3801     		.2byte	0x138
 3106 07a8 00000000 		.4byte	.LFB68
 3107 07ac 68000000 		.4byte	.LFE68-.LFB68
 3108 07b0 01       		.uleb128 0x1
 3109 07b1 9C       		.byte	0x9c
 3110 07b2 59080000 		.4byte	0x859
 3111 07b6 19       		.uleb128 0x19
 3112 07b7 62756600 		.ascii	"buf\000"
 3113 07bb 01       		.byte	0x1
 3114 07bc 3801     		.2byte	0x138
 3115 07be 12040000 		.4byte	0x412
 3116 07c2 7F040000 		.4byte	.LLST26
 3117 07c6 1B       		.uleb128 0x1b
 3118 07c7 AB030000 		.4byte	.LASF56
 3119 07cb 01       		.byte	0x1
 3120 07cc 3A01     		.2byte	0x13a
 3121 07ce DC000000 		.4byte	0xdc
 3122 07d2 B9040000 		.4byte	.LLST27
 3123 07d6 1B       		.uleb128 0x1b
 3124 07d7 E3000000 		.4byte	.LASF70
 3125 07db 01       		.byte	0x1
 3126 07dc 3B01     		.2byte	0x13b
 3127 07de BB000000 		.4byte	0xbb
 3128 07e2 FA040000 		.4byte	.LLST28
 3129 07e6 11       		.uleb128 0x11
 3130 07e7 20000000 		.4byte	.LVL69
 3131 07eb AF060000 		.4byte	0x6af
 3132 07ef 05080000 		.4byte	0x805
 3133 07f3 12       		.uleb128 0x12
 3134 07f4 01       		.uleb128 0x1
 3135 07f5 53       		.byte	0x53
ARM GAS  C:\Users\Alex\AppData\Local\Temp\cchBAlOP.s 			page 75


 3136 07f6 02       		.uleb128 0x2
 3137 07f7 08       		.byte	0x8
 3138 07f8 24       		.byte	0x24
 3139 07f9 12       		.uleb128 0x12
 3140 07fa 01       		.uleb128 0x1
 3141 07fb 52       		.byte	0x52
 3142 07fc 02       		.uleb128 0x2
 3143 07fd 75       		.byte	0x75
 3144 07fe 00       		.sleb128 0
 3145 07ff 12       		.uleb128 0x12
 3146 0800 01       		.uleb128 0x1
 3147 0801 51       		.byte	0x51
 3148 0802 01       		.uleb128 0x1
 3149 0803 32       		.byte	0x32
 3150 0804 00       		.byte	0
 3151 0805 11       		.uleb128 0x11
 3152 0806 2C000000 		.4byte	.LVL71
 3153 080a 08160000 		.4byte	0x1608
 3154 080e 1F080000 		.4byte	0x81f
 3155 0812 12       		.uleb128 0x12
 3156 0813 01       		.uleb128 0x1
 3157 0814 51       		.byte	0x51
 3158 0815 02       		.uleb128 0x2
 3159 0816 74       		.byte	0x74
 3160 0817 00       		.sleb128 0
 3161 0818 12       		.uleb128 0x12
 3162 0819 01       		.uleb128 0x1
 3163 081a 50       		.byte	0x50
 3164 081b 02       		.uleb128 0x2
 3165 081c 75       		.byte	0x75
 3166 081d 00       		.sleb128 0
 3167 081e 00       		.byte	0
 3168 081f 11       		.uleb128 0x11
 3169 0820 34000000 		.4byte	.LVL74
 3170 0824 27160000 		.4byte	0x1627
 3171 0828 33080000 		.4byte	0x833
 3172 082c 12       		.uleb128 0x12
 3173 082d 01       		.uleb128 0x1
 3174 082e 50       		.byte	0x50
 3175 082f 02       		.uleb128 0x2
 3176 0830 74       		.byte	0x74
 3177 0831 00       		.sleb128 0
 3178 0832 00       		.byte	0
 3179 0833 11       		.uleb128 0x11
 3180 0834 46000000 		.4byte	.LVL77
 3181 0838 43160000 		.4byte	0x1643
 3182 083c 48080000 		.4byte	0x848
 3183 0840 12       		.uleb128 0x12
 3184 0841 01       		.uleb128 0x1
 3185 0842 50       		.byte	0x50
 3186 0843 03       		.uleb128 0x3
 3187 0844 F3       		.byte	0xf3
 3188 0845 01       		.uleb128 0x1
 3189 0846 50       		.byte	0x50
 3190 0847 00       		.byte	0
 3191 0848 13       		.uleb128 0x13
 3192 0849 58000000 		.4byte	.LVL78
ARM GAS  C:\Users\Alex\AppData\Local\Temp\cchBAlOP.s 			page 76


 3193 084d 84160000 		.4byte	0x1684
 3194 0851 12       		.uleb128 0x12
 3195 0852 01       		.uleb128 0x1
 3196 0853 50       		.byte	0x50
 3197 0854 02       		.uleb128 0x2
 3198 0855 74       		.byte	0x74
 3199 0856 00       		.sleb128 0
 3200 0857 00       		.byte	0
 3201 0858 00       		.byte	0
 3202 0859 17       		.uleb128 0x17
 3203 085a 29040000 		.4byte	.LASF71
 3204 085e 01       		.byte	0x1
 3205 085f 7C01     		.2byte	0x17c
 3206 0861 DC000000 		.4byte	0xdc
 3207 0865 00000000 		.4byte	.LFB69
 3208 0869 34010000 		.4byte	.LFE69-.LFB69
 3209 086d 01       		.uleb128 0x1
 3210 086e 9C       		.byte	0x9c
 3211 086f 680A0000 		.4byte	0xa68
 3212 0873 18       		.uleb128 0x18
 3213 0874 5B000000 		.4byte	.LASF52
 3214 0878 01       		.byte	0x1
 3215 0879 7C01     		.2byte	0x17c
 3216 087b B0000000 		.4byte	0xb0
 3217 087f 19050000 		.4byte	.LLST29
 3218 0883 18       		.uleb128 0x18
 3219 0884 49000000 		.4byte	.LASF53
 3220 0888 01       		.byte	0x1
 3221 0889 7C01     		.2byte	0x17c
 3222 088b B0000000 		.4byte	0xb0
 3223 088f 3A050000 		.4byte	.LLST30
 3224 0893 19       		.uleb128 0x19
 3225 0894 62756600 		.ascii	"buf\000"
 3226 0898 01       		.byte	0x1
 3227 0899 7C01     		.2byte	0x17c
 3228 089b 12040000 		.4byte	0x412
 3229 089f 5B050000 		.4byte	.LLST31
 3230 08a3 19       		.uleb128 0x19
 3231 08a4 6C656E00 		.ascii	"len\000"
 3232 08a8 01       		.byte	0x1
 3233 08a9 7C01     		.2byte	0x17c
 3234 08ab DC000000 		.4byte	0xdc
 3235 08af 87050000 		.4byte	.LLST32
 3236 08b3 19       		.uleb128 0x19
 3237 08b4 706F7300 		.ascii	"pos\000"
 3238 08b8 01       		.byte	0x1
 3239 08b9 7D01     		.2byte	0x17d
 3240 08bb D1000000 		.4byte	0xd1
 3241 08bf A8050000 		.4byte	.LLST33
 3242 08c3 18       		.uleb128 0x18
 3243 08c4 42050000 		.4byte	.LASF32
 3244 08c8 01       		.byte	0x1
 3245 08c9 7D01     		.2byte	0x17d
 3246 08cb D1000000 		.4byte	0xd1
 3247 08cf C8050000 		.4byte	.LLST34
 3248 08d3 18       		.uleb128 0x18
 3249 08d4 32050000 		.4byte	.LASF33
ARM GAS  C:\Users\Alex\AppData\Local\Temp\cchBAlOP.s 			page 77


 3250 08d8 01       		.byte	0x1
 3251 08d9 7D01     		.2byte	0x17d
 3252 08db D1000000 		.4byte	0xd1
 3253 08df E8050000 		.4byte	.LLST35
 3254 08e3 18       		.uleb128 0x18
 3255 08e4 90050000 		.4byte	.LASF34
 3256 08e8 01       		.byte	0x1
 3257 08e9 7D01     		.2byte	0x17d
 3258 08eb D1000000 		.4byte	0xd1
 3259 08ef 08060000 		.4byte	.LLST36
 3260 08f3 19       		.uleb128 0x19
 3261 08f4 61636300 		.ascii	"acc\000"
 3262 08f8 01       		.byte	0x1
 3263 08f9 7D01     		.2byte	0x17d
 3264 08fb D1000000 		.4byte	0xd1
 3265 08ff 28060000 		.4byte	.LLST37
 3266 0903 1A       		.uleb128 0x1a
 3267 0904 00000000 		.4byte	.LASF61
 3268 0908 01       		.byte	0x1
 3269 0909 7F01     		.2byte	0x17f
 3270 090b B0000000 		.4byte	0xb0
 3271 090f 02       		.uleb128 0x2
 3272 0910 91       		.byte	0x91
 3273 0911 6F       		.sleb128 -17
 3274 0912 1A       		.uleb128 0x1a
 3275 0913 05000000 		.4byte	.LASF62
 3276 0917 01       		.byte	0x1
 3277 0918 7F01     		.2byte	0x17f
 3278 091a B0000000 		.4byte	0xb0
 3279 091e 02       		.uleb128 0x2
 3280 091f 91       		.byte	0x91
 3281 0920 6E       		.sleb128 -18
 3282 0921 1A       		.uleb128 0x1a
 3283 0922 0A000000 		.4byte	.LASF72
 3284 0926 01       		.byte	0x1
 3285 0927 7F01     		.2byte	0x17f
 3286 0929 B0000000 		.4byte	0xb0
 3287 092d 02       		.uleb128 0x2
 3288 092e 91       		.byte	0x91
 3289 092f 6D       		.sleb128 -19
 3290 0930 1A       		.uleb128 0x1a
 3291 0931 0F000000 		.4byte	.LASF73
 3292 0935 01       		.byte	0x1
 3293 0936 7F01     		.2byte	0x17f
 3294 0938 B0000000 		.4byte	0xb0
 3295 093c 02       		.uleb128 0x2
 3296 093d 91       		.byte	0x91
 3297 093e 6C       		.sleb128 -20
 3298 093f 1B       		.uleb128 0x1b
 3299 0940 BE010000 		.4byte	.LASF55
 3300 0944 01       		.byte	0x1
 3301 0945 8001     		.2byte	0x180
 3302 0947 DC000000 		.4byte	0xdc
 3303 094b 48060000 		.4byte	.LLST38
 3304 094f 11       		.uleb128 0x11
 3305 0950 26000000 		.4byte	.LVL83
 3306 0954 D3150000 		.4byte	0x15d3
ARM GAS  C:\Users\Alex\AppData\Local\Temp\cchBAlOP.s 			page 78


 3307 0958 70090000 		.4byte	0x970
 3308 095c 12       		.uleb128 0x12
 3309 095d 01       		.uleb128 0x1
 3310 095e 53       		.byte	0x53
 3311 095f 03       		.uleb128 0x3
 3312 0960 F3       		.byte	0xf3
 3313 0961 01       		.uleb128 0x1
 3314 0962 53       		.byte	0x53
 3315 0963 12       		.uleb128 0x12
 3316 0964 01       		.uleb128 0x1
 3317 0965 52       		.byte	0x52
 3318 0966 02       		.uleb128 0x2
 3319 0967 74       		.byte	0x74
 3320 0968 00       		.sleb128 0
 3321 0969 12       		.uleb128 0x12
 3322 096a 01       		.uleb128 0x1
 3323 096b 51       		.byte	0x51
 3324 096c 02       		.uleb128 0x2
 3325 096d 76       		.byte	0x76
 3326 096e 00       		.sleb128 0
 3327 096f 00       		.byte	0
 3328 0970 11       		.uleb128 0x11
 3329 0971 54000000 		.4byte	.LVL86
 3330 0975 95160000 		.4byte	0x1695
 3331 0979 9E090000 		.4byte	0x99e
 3332 097d 12       		.uleb128 0x12
 3333 097e 01       		.uleb128 0x1
 3334 097f 53       		.byte	0x53
 3335 0980 02       		.uleb128 0x2
 3336 0981 91       		.byte	0x91
 3337 0982 6D       		.sleb128 -19
 3338 0983 12       		.uleb128 0x12
 3339 0984 01       		.uleb128 0x1
 3340 0985 52       		.byte	0x52
 3341 0986 02       		.uleb128 0x2
 3342 0987 91       		.byte	0x91
 3343 0988 6E       		.sleb128 -18
 3344 0989 12       		.uleb128 0x12
 3345 098a 01       		.uleb128 0x1
 3346 098b 51       		.byte	0x51
 3347 098c 02       		.uleb128 0x2
 3348 098d 91       		.byte	0x91
 3349 098e 6F       		.sleb128 -17
 3350 098f 12       		.uleb128 0x12
 3351 0990 01       		.uleb128 0x1
 3352 0991 50       		.byte	0x50
 3353 0992 03       		.uleb128 0x3
 3354 0993 91       		.byte	0x91
 3355 0994 00       		.sleb128 0
 3356 0995 06       		.byte	0x6
 3357 0996 12       		.uleb128 0x12
 3358 0997 02       		.uleb128 0x2
 3359 0998 7D       		.byte	0x7d
 3360 0999 00       		.sleb128 0
 3361 099a 02       		.uleb128 0x2
 3362 099b 75       		.byte	0x75
 3363 099c 00       		.sleb128 0
ARM GAS  C:\Users\Alex\AppData\Local\Temp\cchBAlOP.s 			page 79


 3364 099d 00       		.byte	0
 3365 099e 11       		.uleb128 0x11
 3366 099f 80000000 		.4byte	.LVL87
 3367 09a3 95160000 		.4byte	0x1695
 3368 09a7 CC090000 		.4byte	0x9cc
 3369 09ab 12       		.uleb128 0x12
 3370 09ac 01       		.uleb128 0x1
 3371 09ad 53       		.byte	0x53
 3372 09ae 02       		.uleb128 0x2
 3373 09af 91       		.byte	0x91
 3374 09b0 6D       		.sleb128 -19
 3375 09b1 12       		.uleb128 0x12
 3376 09b2 01       		.uleb128 0x1
 3377 09b3 52       		.byte	0x52
 3378 09b4 02       		.uleb128 0x2
 3379 09b5 91       		.byte	0x91
 3380 09b6 6E       		.sleb128 -18
 3381 09b7 12       		.uleb128 0x12
 3382 09b8 01       		.uleb128 0x1
 3383 09b9 51       		.byte	0x51
 3384 09ba 02       		.uleb128 0x2
 3385 09bb 91       		.byte	0x91
 3386 09bc 6F       		.sleb128 -17
 3387 09bd 12       		.uleb128 0x12
 3388 09be 01       		.uleb128 0x1
 3389 09bf 50       		.byte	0x50
 3390 09c0 03       		.uleb128 0x3
 3391 09c1 91       		.byte	0x91
 3392 09c2 04       		.sleb128 4
 3393 09c3 06       		.byte	0x6
 3394 09c4 12       		.uleb128 0x12
 3395 09c5 02       		.uleb128 0x2
 3396 09c6 7D       		.byte	0x7d
 3397 09c7 00       		.sleb128 0
 3398 09c8 02       		.uleb128 0x2
 3399 09c9 75       		.byte	0x75
 3400 09ca 00       		.sleb128 0
 3401 09cb 00       		.byte	0
 3402 09cc 11       		.uleb128 0x11
 3403 09cd AC000000 		.4byte	.LVL88
 3404 09d1 95160000 		.4byte	0x1695
 3405 09d5 FA090000 		.4byte	0x9fa
 3406 09d9 12       		.uleb128 0x12
 3407 09da 01       		.uleb128 0x1
 3408 09db 53       		.byte	0x53
 3409 09dc 02       		.uleb128 0x2
 3410 09dd 91       		.byte	0x91
 3411 09de 6D       		.sleb128 -19
 3412 09df 12       		.uleb128 0x12
 3413 09e0 01       		.uleb128 0x1
 3414 09e1 52       		.byte	0x52
 3415 09e2 02       		.uleb128 0x2
 3416 09e3 91       		.byte	0x91
 3417 09e4 6E       		.sleb128 -18
 3418 09e5 12       		.uleb128 0x12
 3419 09e6 01       		.uleb128 0x1
 3420 09e7 51       		.byte	0x51
ARM GAS  C:\Users\Alex\AppData\Local\Temp\cchBAlOP.s 			page 80


 3421 09e8 02       		.uleb128 0x2
 3422 09e9 91       		.byte	0x91
 3423 09ea 6F       		.sleb128 -17
 3424 09eb 12       		.uleb128 0x12
 3425 09ec 01       		.uleb128 0x1
 3426 09ed 50       		.byte	0x50
 3427 09ee 03       		.uleb128 0x3
 3428 09ef 91       		.byte	0x91
 3429 09f0 08       		.sleb128 8
 3430 09f1 06       		.byte	0x6
 3431 09f2 12       		.uleb128 0x12
 3432 09f3 02       		.uleb128 0x2
 3433 09f4 7D       		.byte	0x7d
 3434 09f5 00       		.sleb128 0
 3435 09f6 02       		.uleb128 0x2
 3436 09f7 75       		.byte	0x75
 3437 09f8 00       		.sleb128 0
 3438 09f9 00       		.byte	0
 3439 09fa 11       		.uleb128 0x11
 3440 09fb D8000000 		.4byte	.LVL89
 3441 09ff 95160000 		.4byte	0x1695
 3442 0a03 280A0000 		.4byte	0xa28
 3443 0a07 12       		.uleb128 0x12
 3444 0a08 01       		.uleb128 0x1
 3445 0a09 53       		.byte	0x53
 3446 0a0a 02       		.uleb128 0x2
 3447 0a0b 91       		.byte	0x91
 3448 0a0c 6D       		.sleb128 -19
 3449 0a0d 12       		.uleb128 0x12
 3450 0a0e 01       		.uleb128 0x1
 3451 0a0f 52       		.byte	0x52
 3452 0a10 02       		.uleb128 0x2
 3453 0a11 91       		.byte	0x91
 3454 0a12 6E       		.sleb128 -18
 3455 0a13 12       		.uleb128 0x12
 3456 0a14 01       		.uleb128 0x1
 3457 0a15 51       		.byte	0x51
 3458 0a16 02       		.uleb128 0x2
 3459 0a17 91       		.byte	0x91
 3460 0a18 6F       		.sleb128 -17
 3461 0a19 12       		.uleb128 0x12
 3462 0a1a 01       		.uleb128 0x1
 3463 0a1b 50       		.byte	0x50
 3464 0a1c 03       		.uleb128 0x3
 3465 0a1d 91       		.byte	0x91
 3466 0a1e 0C       		.sleb128 12
 3467 0a1f 06       		.byte	0x6
 3468 0a20 12       		.uleb128 0x12
 3469 0a21 02       		.uleb128 0x2
 3470 0a22 7D       		.byte	0x7d
 3471 0a23 00       		.sleb128 0
 3472 0a24 02       		.uleb128 0x2
 3473 0a25 75       		.byte	0x75
 3474 0a26 00       		.sleb128 0
 3475 0a27 00       		.byte	0
 3476 0a28 11       		.uleb128 0x11
 3477 0a29 04010000 		.4byte	.LVL90
ARM GAS  C:\Users\Alex\AppData\Local\Temp\cchBAlOP.s 			page 81


 3478 0a2d 95160000 		.4byte	0x1695
 3479 0a31 560A0000 		.4byte	0xa56
 3480 0a35 12       		.uleb128 0x12
 3481 0a36 01       		.uleb128 0x1
 3482 0a37 53       		.byte	0x53
 3483 0a38 02       		.uleb128 0x2
 3484 0a39 91       		.byte	0x91
 3485 0a3a 6D       		.sleb128 -19
 3486 0a3b 12       		.uleb128 0x12
 3487 0a3c 01       		.uleb128 0x1
 3488 0a3d 52       		.byte	0x52
 3489 0a3e 02       		.uleb128 0x2
 3490 0a3f 91       		.byte	0x91
 3491 0a40 6E       		.sleb128 -18
 3492 0a41 12       		.uleb128 0x12
 3493 0a42 01       		.uleb128 0x1
 3494 0a43 51       		.byte	0x51
 3495 0a44 02       		.uleb128 0x2
 3496 0a45 91       		.byte	0x91
 3497 0a46 6F       		.sleb128 -17
 3498 0a47 12       		.uleb128 0x12
 3499 0a48 01       		.uleb128 0x1
 3500 0a49 50       		.byte	0x50
 3501 0a4a 03       		.uleb128 0x3
 3502 0a4b 91       		.byte	0x91
 3503 0a4c 10       		.sleb128 16
 3504 0a4d 06       		.byte	0x6
 3505 0a4e 12       		.uleb128 0x12
 3506 0a4f 02       		.uleb128 0x2
 3507 0a50 7D       		.byte	0x7d
 3508 0a51 00       		.sleb128 0
 3509 0a52 02       		.uleb128 0x2
 3510 0a53 75       		.byte	0x75
 3511 0a54 00       		.sleb128 0
 3512 0a55 00       		.byte	0
 3513 0a56 13       		.uleb128 0x13
 3514 0a57 28010000 		.4byte	.LVL93
 3515 0a5b F3150000 		.4byte	0x15f3
 3516 0a5f 12       		.uleb128 0x12
 3517 0a60 01       		.uleb128 0x1
 3518 0a61 50       		.byte	0x50
 3519 0a62 03       		.uleb128 0x3
 3520 0a63 0A       		.byte	0xa
 3521 0a64 0004     		.2byte	0x400
 3522 0a66 00       		.byte	0
 3523 0a67 00       		.byte	0
 3524 0a68 1C       		.uleb128 0x1c
 3525 0a69 AE020000 		.4byte	.LASF74
 3526 0a6d 01       		.byte	0x1
 3527 0a6e BA01     		.2byte	0x1ba
 3528 0a70 00000000 		.4byte	.LFB70
 3529 0a74 58010000 		.4byte	.LFE70-.LFB70
 3530 0a78 01       		.uleb128 0x1
 3531 0a79 9C       		.byte	0x9c
 3532 0a7a B60B0000 		.4byte	0xbb6
 3533 0a7e 19       		.uleb128 0x19
 3534 0a7f 62756600 		.ascii	"buf\000"
ARM GAS  C:\Users\Alex\AppData\Local\Temp\cchBAlOP.s 			page 82


 3535 0a83 01       		.byte	0x1
 3536 0a84 BA01     		.2byte	0x1ba
 3537 0a86 12040000 		.4byte	0x412
 3538 0a8a 97060000 		.4byte	.LLST39
 3539 0a8e 1B       		.uleb128 0x1b
 3540 0a8f AB030000 		.4byte	.LASF56
 3541 0a93 01       		.byte	0x1
 3542 0a94 BC01     		.2byte	0x1bc
 3543 0a96 DC000000 		.4byte	0xdc
 3544 0a9a D1060000 		.4byte	.LLST40
 3545 0a9e 1B       		.uleb128 0x1b
 3546 0a9f 52040000 		.4byte	.LASF75
 3547 0aa3 01       		.byte	0x1
 3548 0aa4 BD01     		.2byte	0x1bd
 3549 0aa6 D1000000 		.4byte	0xd1
 3550 0aaa 12070000 		.4byte	.LLST41
 3551 0aae 1B       		.uleb128 0x1b
 3552 0aaf E2010000 		.4byte	.LASF76
 3553 0ab3 01       		.byte	0x1
 3554 0ab4 BD01     		.2byte	0x1bd
 3555 0ab6 D1000000 		.4byte	0xd1
 3556 0aba 56070000 		.4byte	.LLST42
 3557 0abe 1B       		.uleb128 0x1b
 3558 0abf D9010000 		.4byte	.LASF77
 3559 0ac3 01       		.byte	0x1
 3560 0ac4 BD01     		.2byte	0x1bd
 3561 0ac6 D1000000 		.4byte	0xd1
 3562 0aca 75070000 		.4byte	.LLST43
 3563 0ace 1B       		.uleb128 0x1b
 3564 0acf EB020000 		.4byte	.LASF78
 3565 0ad3 01       		.byte	0x1
 3566 0ad4 BD01     		.2byte	0x1bd
 3567 0ad6 D1000000 		.4byte	0xd1
 3568 0ada 94070000 		.4byte	.LLST44
 3569 0ade 1B       		.uleb128 0x1b
 3570 0adf 2F000000 		.4byte	.LASF79
 3571 0ae3 01       		.byte	0x1
 3572 0ae4 BD01     		.2byte	0x1bd
 3573 0ae6 D1000000 		.4byte	0xd1
 3574 0aea B3070000 		.4byte	.LLST45
 3575 0aee 1B       		.uleb128 0x1b
 3576 0aef D7030000 		.4byte	.LASF80
 3577 0af3 01       		.byte	0x1
 3578 0af4 BE01     		.2byte	0x1be
 3579 0af6 BB000000 		.4byte	0xbb
 3580 0afa D2070000 		.4byte	.LLST46
 3581 0afe 1B       		.uleb128 0x1b
 3582 0aff BA030000 		.4byte	.LASF81
 3583 0b03 01       		.byte	0x1
 3584 0b04 BE01     		.2byte	0x1be
 3585 0b06 BB000000 		.4byte	0xbb
 3586 0b0a F1070000 		.4byte	.LLST47
 3587 0b0e 1B       		.uleb128 0x1b
 3588 0b0f CF030000 		.4byte	.LASF82
 3589 0b13 01       		.byte	0x1
 3590 0b14 BE01     		.2byte	0x1be
 3591 0b16 BB000000 		.4byte	0xbb
ARM GAS  C:\Users\Alex\AppData\Local\Temp\cchBAlOP.s 			page 83


 3592 0b1a 10080000 		.4byte	.LLST48
 3593 0b1e 11       		.uleb128 0x11
 3594 0b1f 32000000 		.4byte	.LVL99
 3595 0b23 59080000 		.4byte	0x859
 3596 0b27 4B0B0000 		.4byte	0xb4b
 3597 0b2b 12       		.uleb128 0x12
 3598 0b2c 01       		.uleb128 0x1
 3599 0b2d 53       		.byte	0x53
 3600 0b2e 02       		.uleb128 0x2
 3601 0b2f 08       		.byte	0x8
 3602 0b30 24       		.byte	0x24
 3603 0b31 12       		.uleb128 0x12
 3604 0b32 01       		.uleb128 0x1
 3605 0b33 52       		.byte	0x52
 3606 0b34 02       		.uleb128 0x2
 3607 0b35 75       		.byte	0x75
 3608 0b36 00       		.sleb128 0
 3609 0b37 12       		.uleb128 0x12
 3610 0b38 01       		.uleb128 0x1
 3611 0b39 51       		.byte	0x51
 3612 0b3a 01       		.uleb128 0x1
 3613 0b3b 32       		.byte	0x32
 3614 0b3c 12       		.uleb128 0x12
 3615 0b3d 02       		.uleb128 0x2
 3616 0b3e 7D       		.byte	0x7d
 3617 0b3f 04       		.sleb128 4
 3618 0b40 02       		.uleb128 0x2
 3619 0b41 74       		.byte	0x74
 3620 0b42 00       		.sleb128 0
 3621 0b43 12       		.uleb128 0x12
 3622 0b44 02       		.uleb128 0x2
 3623 0b45 7D       		.byte	0x7d
 3624 0b46 00       		.sleb128 0
 3625 0b47 02       		.uleb128 0x2
 3626 0b48 76       		.byte	0x76
 3627 0b49 00       		.sleb128 0
 3628 0b4a 00       		.byte	0
 3629 0b4b 11       		.uleb128 0x11
 3630 0b4c 3E000000 		.4byte	.LVL101
 3631 0b50 08160000 		.4byte	0x1608
 3632 0b54 650B0000 		.4byte	0xb65
 3633 0b58 12       		.uleb128 0x12
 3634 0b59 01       		.uleb128 0x1
 3635 0b5a 51       		.byte	0x51
 3636 0b5b 02       		.uleb128 0x2
 3637 0b5c 74       		.byte	0x74
 3638 0b5d 00       		.sleb128 0
 3639 0b5e 12       		.uleb128 0x12
 3640 0b5f 01       		.uleb128 0x1
 3641 0b60 50       		.byte	0x50
 3642 0b61 02       		.uleb128 0x2
 3643 0b62 75       		.byte	0x75
 3644 0b63 00       		.sleb128 0
 3645 0b64 00       		.byte	0
 3646 0b65 11       		.uleb128 0x11
 3647 0b66 46000000 		.4byte	.LVL104
 3648 0b6a 27160000 		.4byte	0x1627
ARM GAS  C:\Users\Alex\AppData\Local\Temp\cchBAlOP.s 			page 84


 3649 0b6e 790B0000 		.4byte	0xb79
 3650 0b72 12       		.uleb128 0x12
 3651 0b73 01       		.uleb128 0x1
 3652 0b74 50       		.byte	0x50
 3653 0b75 02       		.uleb128 0x2
 3654 0b76 74       		.byte	0x74
 3655 0b77 00       		.sleb128 0
 3656 0b78 00       		.byte	0
 3657 0b79 11       		.uleb128 0x11
 3658 0b7a A0000000 		.4byte	.LVL111
 3659 0b7e 43160000 		.4byte	0x1643
 3660 0b82 8E0B0000 		.4byte	0xb8e
 3661 0b86 12       		.uleb128 0x12
 3662 0b87 01       		.uleb128 0x1
 3663 0b88 50       		.byte	0x50
 3664 0b89 03       		.uleb128 0x3
 3665 0b8a F3       		.byte	0xf3
 3666 0b8b 01       		.uleb128 0x1
 3667 0b8c 50       		.byte	0x50
 3668 0b8d 00       		.byte	0
 3669 0b8e 11       		.uleb128 0x11
 3670 0b8f AA000000 		.4byte	.LVL112
 3671 0b93 F3150000 		.4byte	0x15f3
 3672 0b97 A30B0000 		.4byte	0xba3
 3673 0b9b 12       		.uleb128 0x12
 3674 0b9c 01       		.uleb128 0x1
 3675 0b9d 50       		.byte	0x50
 3676 0b9e 03       		.uleb128 0x3
 3677 0b9f 0A       		.byte	0xa
 3678 0ba0 0002     		.2byte	0x200
 3679 0ba2 00       		.byte	0
 3680 0ba3 1D       		.uleb128 0x1d
 3681 0ba4 DA000000 		.4byte	.LVL113
 3682 0ba8 BA160000 		.4byte	0x16ba
 3683 0bac 1D       		.uleb128 0x1d
 3684 0bad 30010000 		.4byte	.LVL117
 3685 0bb1 BA160000 		.4byte	0x16ba
 3686 0bb5 00       		.byte	0
 3687 0bb6 17       		.uleb128 0x17
 3688 0bb7 DF030000 		.4byte	.LASF83
 3689 0bbb 01       		.byte	0x1
 3690 0bbc 2102     		.2byte	0x221
 3691 0bbe DC000000 		.4byte	0xdc
 3692 0bc2 00000000 		.4byte	.LFB71
 3693 0bc6 A0000000 		.4byte	.LFE71-.LFB71
 3694 0bca 01       		.uleb128 0x1
 3695 0bcb 9C       		.byte	0x9c
 3696 0bcc 100D0000 		.4byte	0xd10
 3697 0bd0 18       		.uleb128 0x18
 3698 0bd1 5B000000 		.4byte	.LASF52
 3699 0bd5 01       		.byte	0x1
 3700 0bd6 2102     		.2byte	0x221
 3701 0bd8 B0000000 		.4byte	0xb0
 3702 0bdc 2F080000 		.4byte	.LLST49
 3703 0be0 18       		.uleb128 0x18
 3704 0be1 49000000 		.4byte	.LASF53
 3705 0be5 01       		.byte	0x1
ARM GAS  C:\Users\Alex\AppData\Local\Temp\cchBAlOP.s 			page 85


 3706 0be6 2102     		.2byte	0x221
 3707 0be8 B0000000 		.4byte	0xb0
 3708 0bec 50080000 		.4byte	.LLST50
 3709 0bf0 19       		.uleb128 0x19
 3710 0bf1 62756600 		.ascii	"buf\000"
 3711 0bf5 01       		.byte	0x1
 3712 0bf6 2102     		.2byte	0x221
 3713 0bf8 12040000 		.4byte	0x412
 3714 0bfc 71080000 		.4byte	.LLST51
 3715 0c00 19       		.uleb128 0x19
 3716 0c01 6C656E00 		.ascii	"len\000"
 3717 0c05 01       		.byte	0x1
 3718 0c06 2102     		.2byte	0x221
 3719 0c08 DC000000 		.4byte	0xdc
 3720 0c0c 9D080000 		.4byte	.LLST52
 3721 0c10 19       		.uleb128 0x19
 3722 0c11 6B7000   		.ascii	"kp\000"
 3723 0c14 01       		.byte	0x1
 3724 0c15 2202     		.2byte	0x222
 3725 0c17 BB000000 		.4byte	0xbb
 3726 0c1b BE080000 		.4byte	.LLST53
 3727 0c1f 19       		.uleb128 0x19
 3728 0c20 6B6900   		.ascii	"ki\000"
 3729 0c23 01       		.byte	0x1
 3730 0c24 2202     		.2byte	0x222
 3731 0c26 BB000000 		.4byte	0xbb
 3732 0c2a DE080000 		.4byte	.LLST54
 3733 0c2e 19       		.uleb128 0x19
 3734 0c2f 6B6400   		.ascii	"kd\000"
 3735 0c32 01       		.byte	0x1
 3736 0c33 2202     		.2byte	0x222
 3737 0c35 BB000000 		.4byte	0xbb
 3738 0c39 FE080000 		.4byte	.LLST55
 3739 0c3d 1A       		.uleb128 0x1a
 3740 0c3e 00000000 		.4byte	.LASF61
 3741 0c42 01       		.byte	0x1
 3742 0c43 2402     		.2byte	0x224
 3743 0c45 B0000000 		.4byte	0xb0
 3744 0c49 02       		.uleb128 0x2
 3745 0c4a 91       		.byte	0x91
 3746 0c4b 6F       		.sleb128 -17
 3747 0c4c 1A       		.uleb128 0x1a
 3748 0c4d 05000000 		.4byte	.LASF62
 3749 0c51 01       		.byte	0x1
 3750 0c52 2402     		.2byte	0x224
 3751 0c54 B0000000 		.4byte	0xb0
 3752 0c58 02       		.uleb128 0x2
 3753 0c59 91       		.byte	0x91
 3754 0c5a 6E       		.sleb128 -18
 3755 0c5b 1B       		.uleb128 0x1b
 3756 0c5c BE010000 		.4byte	.LASF55
 3757 0c60 01       		.byte	0x1
 3758 0c61 2502     		.2byte	0x225
 3759 0c63 DC000000 		.4byte	0xdc
 3760 0c67 1E090000 		.4byte	.LLST56
 3761 0c6b 11       		.uleb128 0x11
 3762 0c6c 1E000000 		.4byte	.LVL123
ARM GAS  C:\Users\Alex\AppData\Local\Temp\cchBAlOP.s 			page 86


 3763 0c70 D3150000 		.4byte	0x15d3
 3764 0c74 8C0C0000 		.4byte	0xc8c
 3765 0c78 12       		.uleb128 0x12
 3766 0c79 01       		.uleb128 0x1
 3767 0c7a 53       		.byte	0x53
 3768 0c7b 03       		.uleb128 0x3
 3769 0c7c F3       		.byte	0xf3
 3770 0c7d 01       		.uleb128 0x1
 3771 0c7e 53       		.byte	0x53
 3772 0c7f 12       		.uleb128 0x12
 3773 0c80 01       		.uleb128 0x1
 3774 0c81 52       		.byte	0x52
 3775 0c82 02       		.uleb128 0x2
 3776 0c83 74       		.byte	0x74
 3777 0c84 00       		.sleb128 0
 3778 0c85 12       		.uleb128 0x12
 3779 0c86 01       		.uleb128 0x1
 3780 0c87 51       		.byte	0x51
 3781 0c88 02       		.uleb128 0x2
 3782 0c89 76       		.byte	0x76
 3783 0c8a 00       		.sleb128 0
 3784 0c8b 00       		.byte	0
 3785 0c8c 11       		.uleb128 0x11
 3786 0c8d 46000000 		.4byte	.LVL126
 3787 0c91 69160000 		.4byte	0x1669
 3788 0c95 B20C0000 		.4byte	0xcb2
 3789 0c99 12       		.uleb128 0x12
 3790 0c9a 01       		.uleb128 0x1
 3791 0c9b 52       		.byte	0x52
 3792 0c9c 02       		.uleb128 0x2
 3793 0c9d 91       		.byte	0x91
 3794 0c9e 6E       		.sleb128 -18
 3795 0c9f 12       		.uleb128 0x12
 3796 0ca0 01       		.uleb128 0x1
 3797 0ca1 51       		.byte	0x51
 3798 0ca2 02       		.uleb128 0x2
 3799 0ca3 91       		.byte	0x91
 3800 0ca4 6F       		.sleb128 -17
 3801 0ca5 12       		.uleb128 0x12
 3802 0ca6 01       		.uleb128 0x1
 3803 0ca7 50       		.byte	0x50
 3804 0ca8 08       		.uleb128 0x8
 3805 0ca9 91       		.byte	0x91
 3806 0caa 00       		.sleb128 0
 3807 0cab 94       		.byte	0x94
 3808 0cac 02       		.byte	0x2
 3809 0cad 0A       		.byte	0xa
 3810 0cae FFFF     		.2byte	0xffff
 3811 0cb0 1A       		.byte	0x1a
 3812 0cb1 00       		.byte	0
 3813 0cb2 11       		.uleb128 0x11
 3814 0cb3 62000000 		.4byte	.LVL127
 3815 0cb7 69160000 		.4byte	0x1669
 3816 0cbb D80C0000 		.4byte	0xcd8
 3817 0cbf 12       		.uleb128 0x12
 3818 0cc0 01       		.uleb128 0x1
 3819 0cc1 52       		.byte	0x52
ARM GAS  C:\Users\Alex\AppData\Local\Temp\cchBAlOP.s 			page 87


 3820 0cc2 02       		.uleb128 0x2
 3821 0cc3 91       		.byte	0x91
 3822 0cc4 6E       		.sleb128 -18
 3823 0cc5 12       		.uleb128 0x12
 3824 0cc6 01       		.uleb128 0x1
 3825 0cc7 51       		.byte	0x51
 3826 0cc8 02       		.uleb128 0x2
 3827 0cc9 91       		.byte	0x91
 3828 0cca 6F       		.sleb128 -17
 3829 0ccb 12       		.uleb128 0x12
 3830 0ccc 01       		.uleb128 0x1
 3831 0ccd 50       		.byte	0x50
 3832 0cce 08       		.uleb128 0x8
 3833 0ccf 91       		.byte	0x91
 3834 0cd0 04       		.sleb128 4
 3835 0cd1 94       		.byte	0x94
 3836 0cd2 02       		.byte	0x2
 3837 0cd3 0A       		.byte	0xa
 3838 0cd4 FFFF     		.2byte	0xffff
 3839 0cd6 1A       		.byte	0x1a
 3840 0cd7 00       		.byte	0
 3841 0cd8 11       		.uleb128 0x11
 3842 0cd9 7E000000 		.4byte	.LVL128
 3843 0cdd 69160000 		.4byte	0x1669
 3844 0ce1 FE0C0000 		.4byte	0xcfe
 3845 0ce5 12       		.uleb128 0x12
 3846 0ce6 01       		.uleb128 0x1
 3847 0ce7 52       		.byte	0x52
 3848 0ce8 02       		.uleb128 0x2
 3849 0ce9 91       		.byte	0x91
 3850 0cea 6E       		.sleb128 -18
 3851 0ceb 12       		.uleb128 0x12
 3852 0cec 01       		.uleb128 0x1
 3853 0ced 51       		.byte	0x51
 3854 0cee 02       		.uleb128 0x2
 3855 0cef 91       		.byte	0x91
 3856 0cf0 6F       		.sleb128 -17
 3857 0cf1 12       		.uleb128 0x12
 3858 0cf2 01       		.uleb128 0x1
 3859 0cf3 50       		.byte	0x50
 3860 0cf4 08       		.uleb128 0x8
 3861 0cf5 91       		.byte	0x91
 3862 0cf6 08       		.sleb128 8
 3863 0cf7 94       		.byte	0x94
 3864 0cf8 02       		.byte	0x2
 3865 0cf9 0A       		.byte	0xa
 3866 0cfa FFFF     		.2byte	0xffff
 3867 0cfc 1A       		.byte	0x1a
 3868 0cfd 00       		.byte	0
 3869 0cfe 13       		.uleb128 0x13
 3870 0cff 96000000 		.4byte	.LVL131
 3871 0d03 F3150000 		.4byte	0x15f3
 3872 0d07 12       		.uleb128 0x12
 3873 0d08 01       		.uleb128 0x1
 3874 0d09 50       		.byte	0x50
 3875 0d0a 03       		.uleb128 0x3
 3876 0d0b 0A       		.byte	0xa
ARM GAS  C:\Users\Alex\AppData\Local\Temp\cchBAlOP.s 			page 88


 3877 0d0c 0004     		.2byte	0x400
 3878 0d0e 00       		.byte	0
 3879 0d0f 00       		.byte	0
 3880 0d10 1C       		.uleb128 0x1c
 3881 0d11 F0010000 		.4byte	.LASF84
 3882 0d15 01       		.byte	0x1
 3883 0d16 5002     		.2byte	0x250
 3884 0d18 00000000 		.4byte	.LFB72
 3885 0d1c 8C000000 		.4byte	.LFE72-.LFB72
 3886 0d20 01       		.uleb128 0x1
 3887 0d21 9C       		.byte	0x9c
 3888 0d22 EA0D0000 		.4byte	0xdea
 3889 0d26 19       		.uleb128 0x19
 3890 0d27 62756600 		.ascii	"buf\000"
 3891 0d2b 01       		.byte	0x1
 3892 0d2c 5002     		.2byte	0x250
 3893 0d2e 12040000 		.4byte	0x412
 3894 0d32 6D090000 		.4byte	.LLST57
 3895 0d36 1B       		.uleb128 0x1b
 3896 0d37 AB030000 		.4byte	.LASF56
 3897 0d3b 01       		.byte	0x1
 3898 0d3c 5202     		.2byte	0x252
 3899 0d3e DC000000 		.4byte	0xdc
 3900 0d42 A7090000 		.4byte	.LLST58
 3901 0d46 1B       		.uleb128 0x1b
 3902 0d47 F9000000 		.4byte	.LASF85
 3903 0d4b 01       		.byte	0x1
 3904 0d4c 5302     		.2byte	0x253
 3905 0d4e BB000000 		.4byte	0xbb
 3906 0d52 E8090000 		.4byte	.LLST59
 3907 0d56 1B       		.uleb128 0x1b
 3908 0d57 DC000000 		.4byte	.LASF86
 3909 0d5b 01       		.byte	0x1
 3910 0d5c 5302     		.2byte	0x253
 3911 0d5e BB000000 		.4byte	0xbb
 3912 0d62 070A0000 		.4byte	.LLST60
 3913 0d66 1B       		.uleb128 0x1b
 3914 0d67 D5000000 		.4byte	.LASF87
 3915 0d6b 01       		.byte	0x1
 3916 0d6c 5302     		.2byte	0x253
 3917 0d6e BB000000 		.4byte	0xbb
 3918 0d72 260A0000 		.4byte	.LLST61
 3919 0d76 11       		.uleb128 0x11
 3920 0d77 2E000000 		.4byte	.LVL137
 3921 0d7b B60B0000 		.4byte	0xbb6
 3922 0d7f 950D0000 		.4byte	0xd95
 3923 0d83 12       		.uleb128 0x12
 3924 0d84 01       		.uleb128 0x1
 3925 0d85 53       		.byte	0x53
 3926 0d86 02       		.uleb128 0x2
 3927 0d87 08       		.byte	0x8
 3928 0d88 24       		.byte	0x24
 3929 0d89 12       		.uleb128 0x12
 3930 0d8a 01       		.uleb128 0x1
 3931 0d8b 52       		.byte	0x52
 3932 0d8c 02       		.uleb128 0x2
 3933 0d8d 75       		.byte	0x75
ARM GAS  C:\Users\Alex\AppData\Local\Temp\cchBAlOP.s 			page 89


 3934 0d8e 00       		.sleb128 0
 3935 0d8f 12       		.uleb128 0x12
 3936 0d90 01       		.uleb128 0x1
 3937 0d91 51       		.byte	0x51
 3938 0d92 01       		.uleb128 0x1
 3939 0d93 32       		.byte	0x32
 3940 0d94 00       		.byte	0
 3941 0d95 11       		.uleb128 0x11
 3942 0d96 3A000000 		.4byte	.LVL139
 3943 0d9a 08160000 		.4byte	0x1608
 3944 0d9e AF0D0000 		.4byte	0xdaf
 3945 0da2 12       		.uleb128 0x12
 3946 0da3 01       		.uleb128 0x1
 3947 0da4 51       		.byte	0x51
 3948 0da5 02       		.uleb128 0x2
 3949 0da6 74       		.byte	0x74
 3950 0da7 00       		.sleb128 0
 3951 0da8 12       		.uleb128 0x12
 3952 0da9 01       		.uleb128 0x1
 3953 0daa 50       		.byte	0x50
 3954 0dab 02       		.uleb128 0x2
 3955 0dac 75       		.byte	0x75
 3956 0dad 00       		.sleb128 0
 3957 0dae 00       		.byte	0
 3958 0daf 11       		.uleb128 0x11
 3959 0db0 42000000 		.4byte	.LVL142
 3960 0db4 27160000 		.4byte	0x1627
 3961 0db8 C30D0000 		.4byte	0xdc3
 3962 0dbc 12       		.uleb128 0x12
 3963 0dbd 01       		.uleb128 0x1
 3964 0dbe 50       		.byte	0x50
 3965 0dbf 02       		.uleb128 0x2
 3966 0dc0 74       		.byte	0x74
 3967 0dc1 00       		.sleb128 0
 3968 0dc2 00       		.byte	0
 3969 0dc3 11       		.uleb128 0x11
 3970 0dc4 68000000 		.4byte	.LVL147
 3971 0dc8 43160000 		.4byte	0x1643
 3972 0dcc D80D0000 		.4byte	0xdd8
 3973 0dd0 12       		.uleb128 0x12
 3974 0dd1 01       		.uleb128 0x1
 3975 0dd2 50       		.byte	0x50
 3976 0dd3 03       		.uleb128 0x3
 3977 0dd4 F3       		.byte	0xf3
 3978 0dd5 01       		.uleb128 0x1
 3979 0dd6 50       		.byte	0x50
 3980 0dd7 00       		.byte	0
 3981 0dd8 13       		.uleb128 0x13
 3982 0dd9 72000000 		.4byte	.LVL148
 3983 0ddd F3150000 		.4byte	0x15f3
 3984 0de1 12       		.uleb128 0x12
 3985 0de2 01       		.uleb128 0x1
 3986 0de3 50       		.byte	0x50
 3987 0de4 03       		.uleb128 0x3
 3988 0de5 0A       		.byte	0xa
 3989 0de6 0002     		.2byte	0x200
 3990 0de8 00       		.byte	0
ARM GAS  C:\Users\Alex\AppData\Local\Temp\cchBAlOP.s 			page 90


 3991 0de9 00       		.byte	0
 3992 0dea 17       		.uleb128 0x17
 3993 0deb C1020000 		.4byte	.LASF88
 3994 0def 01       		.byte	0x1
 3995 0df0 9702     		.2byte	0x297
 3996 0df2 DC000000 		.4byte	0xdc
 3997 0df6 00000000 		.4byte	.LFB73
 3998 0dfa A0000000 		.4byte	.LFE73-.LFB73
 3999 0dfe 01       		.uleb128 0x1
 4000 0dff 9C       		.byte	0x9c
 4001 0e00 440F0000 		.4byte	0xf44
 4002 0e04 18       		.uleb128 0x18
 4003 0e05 5B000000 		.4byte	.LASF52
 4004 0e09 01       		.byte	0x1
 4005 0e0a 9702     		.2byte	0x297
 4006 0e0c B0000000 		.4byte	0xb0
 4007 0e10 450A0000 		.4byte	.LLST62
 4008 0e14 18       		.uleb128 0x18
 4009 0e15 49000000 		.4byte	.LASF53
 4010 0e19 01       		.byte	0x1
 4011 0e1a 9702     		.2byte	0x297
 4012 0e1c B0000000 		.4byte	0xb0
 4013 0e20 660A0000 		.4byte	.LLST63
 4014 0e24 19       		.uleb128 0x19
 4015 0e25 62756600 		.ascii	"buf\000"
 4016 0e29 01       		.byte	0x1
 4017 0e2a 9702     		.2byte	0x297
 4018 0e2c 12040000 		.4byte	0x412
 4019 0e30 870A0000 		.4byte	.LLST64
 4020 0e34 19       		.uleb128 0x19
 4021 0e35 6C656E00 		.ascii	"len\000"
 4022 0e39 01       		.byte	0x1
 4023 0e3a 9702     		.2byte	0x297
 4024 0e3c DC000000 		.4byte	0xdc
 4025 0e40 B30A0000 		.4byte	.LLST65
 4026 0e44 19       		.uleb128 0x19
 4027 0e45 6B7000   		.ascii	"kp\000"
 4028 0e48 01       		.byte	0x1
 4029 0e49 9802     		.2byte	0x298
 4030 0e4b BB000000 		.4byte	0xbb
 4031 0e4f D40A0000 		.4byte	.LLST66
 4032 0e53 19       		.uleb128 0x19
 4033 0e54 6B6900   		.ascii	"ki\000"
 4034 0e57 01       		.byte	0x1
 4035 0e58 9802     		.2byte	0x298
 4036 0e5a BB000000 		.4byte	0xbb
 4037 0e5e F40A0000 		.4byte	.LLST67
 4038 0e62 19       		.uleb128 0x19
 4039 0e63 6B6400   		.ascii	"kd\000"
 4040 0e66 01       		.byte	0x1
 4041 0e67 9802     		.2byte	0x298
 4042 0e69 BB000000 		.4byte	0xbb
 4043 0e6d 140B0000 		.4byte	.LLST68
 4044 0e71 1A       		.uleb128 0x1a
 4045 0e72 00000000 		.4byte	.LASF61
 4046 0e76 01       		.byte	0x1
 4047 0e77 9A02     		.2byte	0x29a
ARM GAS  C:\Users\Alex\AppData\Local\Temp\cchBAlOP.s 			page 91


 4048 0e79 B0000000 		.4byte	0xb0
 4049 0e7d 02       		.uleb128 0x2
 4050 0e7e 91       		.byte	0x91
 4051 0e7f 6F       		.sleb128 -17
 4052 0e80 1A       		.uleb128 0x1a
 4053 0e81 05000000 		.4byte	.LASF62
 4054 0e85 01       		.byte	0x1
 4055 0e86 9A02     		.2byte	0x29a
 4056 0e88 B0000000 		.4byte	0xb0
 4057 0e8c 02       		.uleb128 0x2
 4058 0e8d 91       		.byte	0x91
 4059 0e8e 6E       		.sleb128 -18
 4060 0e8f 1B       		.uleb128 0x1b
 4061 0e90 BE010000 		.4byte	.LASF55
 4062 0e94 01       		.byte	0x1
 4063 0e95 9B02     		.2byte	0x29b
 4064 0e97 DC000000 		.4byte	0xdc
 4065 0e9b 340B0000 		.4byte	.LLST69
 4066 0e9f 11       		.uleb128 0x11
 4067 0ea0 1E000000 		.4byte	.LVL154
 4068 0ea4 D3150000 		.4byte	0x15d3
 4069 0ea8 C00E0000 		.4byte	0xec0
 4070 0eac 12       		.uleb128 0x12
 4071 0ead 01       		.uleb128 0x1
 4072 0eae 53       		.byte	0x53
 4073 0eaf 03       		.uleb128 0x3
 4074 0eb0 F3       		.byte	0xf3
 4075 0eb1 01       		.uleb128 0x1
 4076 0eb2 53       		.byte	0x53
 4077 0eb3 12       		.uleb128 0x12
 4078 0eb4 01       		.uleb128 0x1
 4079 0eb5 52       		.byte	0x52
 4080 0eb6 02       		.uleb128 0x2
 4081 0eb7 74       		.byte	0x74
 4082 0eb8 00       		.sleb128 0
 4083 0eb9 12       		.uleb128 0x12
 4084 0eba 01       		.uleb128 0x1
 4085 0ebb 51       		.byte	0x51
 4086 0ebc 02       		.uleb128 0x2
 4087 0ebd 76       		.byte	0x76
 4088 0ebe 00       		.sleb128 0
 4089 0ebf 00       		.byte	0
 4090 0ec0 11       		.uleb128 0x11
 4091 0ec1 46000000 		.4byte	.LVL157
 4092 0ec5 69160000 		.4byte	0x1669
 4093 0ec9 E60E0000 		.4byte	0xee6
 4094 0ecd 12       		.uleb128 0x12
 4095 0ece 01       		.uleb128 0x1
 4096 0ecf 52       		.byte	0x52
 4097 0ed0 02       		.uleb128 0x2
 4098 0ed1 91       		.byte	0x91
 4099 0ed2 6E       		.sleb128 -18
 4100 0ed3 12       		.uleb128 0x12
 4101 0ed4 01       		.uleb128 0x1
 4102 0ed5 51       		.byte	0x51
 4103 0ed6 02       		.uleb128 0x2
 4104 0ed7 91       		.byte	0x91
ARM GAS  C:\Users\Alex\AppData\Local\Temp\cchBAlOP.s 			page 92


 4105 0ed8 6F       		.sleb128 -17
 4106 0ed9 12       		.uleb128 0x12
 4107 0eda 01       		.uleb128 0x1
 4108 0edb 50       		.byte	0x50
 4109 0edc 08       		.uleb128 0x8
 4110 0edd 91       		.byte	0x91
 4111 0ede 00       		.sleb128 0
 4112 0edf 94       		.byte	0x94
 4113 0ee0 02       		.byte	0x2
 4114 0ee1 0A       		.byte	0xa
 4115 0ee2 FFFF     		.2byte	0xffff
 4116 0ee4 1A       		.byte	0x1a
 4117 0ee5 00       		.byte	0
 4118 0ee6 11       		.uleb128 0x11
 4119 0ee7 62000000 		.4byte	.LVL158
 4120 0eeb 69160000 		.4byte	0x1669
 4121 0eef 0C0F0000 		.4byte	0xf0c
 4122 0ef3 12       		.uleb128 0x12
 4123 0ef4 01       		.uleb128 0x1
 4124 0ef5 52       		.byte	0x52
 4125 0ef6 02       		.uleb128 0x2
 4126 0ef7 91       		.byte	0x91
 4127 0ef8 6E       		.sleb128 -18
 4128 0ef9 12       		.uleb128 0x12
 4129 0efa 01       		.uleb128 0x1
 4130 0efb 51       		.byte	0x51
 4131 0efc 02       		.uleb128 0x2
 4132 0efd 91       		.byte	0x91
 4133 0efe 6F       		.sleb128 -17
 4134 0eff 12       		.uleb128 0x12
 4135 0f00 01       		.uleb128 0x1
 4136 0f01 50       		.byte	0x50
 4137 0f02 08       		.uleb128 0x8
 4138 0f03 91       		.byte	0x91
 4139 0f04 04       		.sleb128 4
 4140 0f05 94       		.byte	0x94
 4141 0f06 02       		.byte	0x2
 4142 0f07 0A       		.byte	0xa
 4143 0f08 FFFF     		.2byte	0xffff
 4144 0f0a 1A       		.byte	0x1a
 4145 0f0b 00       		.byte	0
 4146 0f0c 11       		.uleb128 0x11
 4147 0f0d 7E000000 		.4byte	.LVL159
 4148 0f11 69160000 		.4byte	0x1669
 4149 0f15 320F0000 		.4byte	0xf32
 4150 0f19 12       		.uleb128 0x12
 4151 0f1a 01       		.uleb128 0x1
 4152 0f1b 52       		.byte	0x52
 4153 0f1c 02       		.uleb128 0x2
 4154 0f1d 91       		.byte	0x91
 4155 0f1e 6E       		.sleb128 -18
 4156 0f1f 12       		.uleb128 0x12
 4157 0f20 01       		.uleb128 0x1
 4158 0f21 51       		.byte	0x51
 4159 0f22 02       		.uleb128 0x2
 4160 0f23 91       		.byte	0x91
 4161 0f24 6F       		.sleb128 -17
ARM GAS  C:\Users\Alex\AppData\Local\Temp\cchBAlOP.s 			page 93


 4162 0f25 12       		.uleb128 0x12
 4163 0f26 01       		.uleb128 0x1
 4164 0f27 50       		.byte	0x50
 4165 0f28 08       		.uleb128 0x8
 4166 0f29 91       		.byte	0x91
 4167 0f2a 08       		.sleb128 8
 4168 0f2b 94       		.byte	0x94
 4169 0f2c 02       		.byte	0x2
 4170 0f2d 0A       		.byte	0xa
 4171 0f2e FFFF     		.2byte	0xffff
 4172 0f30 1A       		.byte	0x1a
 4173 0f31 00       		.byte	0
 4174 0f32 13       		.uleb128 0x13
 4175 0f33 96000000 		.4byte	.LVL162
 4176 0f37 F3150000 		.4byte	0x15f3
 4177 0f3b 12       		.uleb128 0x12
 4178 0f3c 01       		.uleb128 0x1
 4179 0f3d 50       		.byte	0x50
 4180 0f3e 03       		.uleb128 0x3
 4181 0f3f 0A       		.byte	0xa
 4182 0f40 0004     		.2byte	0x400
 4183 0f42 00       		.byte	0
 4184 0f43 00       		.byte	0
 4185 0f44 1C       		.uleb128 0x1c
 4186 0f45 03020000 		.4byte	.LASF89
 4187 0f49 01       		.byte	0x1
 4188 0f4a C602     		.2byte	0x2c6
 4189 0f4c 00000000 		.4byte	.LFB74
 4190 0f50 98000000 		.4byte	.LFE74-.LFB74
 4191 0f54 01       		.uleb128 0x1
 4192 0f55 9C       		.byte	0x9c
 4193 0f56 1E100000 		.4byte	0x101e
 4194 0f5a 19       		.uleb128 0x19
 4195 0f5b 62756600 		.ascii	"buf\000"
 4196 0f5f 01       		.byte	0x1
 4197 0f60 C602     		.2byte	0x2c6
 4198 0f62 12040000 		.4byte	0x412
 4199 0f66 830B0000 		.4byte	.LLST70
 4200 0f6a 1B       		.uleb128 0x1b
 4201 0f6b AB030000 		.4byte	.LASF56
 4202 0f6f 01       		.byte	0x1
 4203 0f70 C802     		.2byte	0x2c8
 4204 0f72 DC000000 		.4byte	0xdc
 4205 0f76 BD0B0000 		.4byte	.LLST71
 4206 0f7a 1B       		.uleb128 0x1b
 4207 0f7b F9000000 		.4byte	.LASF85
 4208 0f7f 01       		.byte	0x1
 4209 0f80 C902     		.2byte	0x2c9
 4210 0f82 BB000000 		.4byte	0xbb
 4211 0f86 FE0B0000 		.4byte	.LLST72
 4212 0f8a 1B       		.uleb128 0x1b
 4213 0f8b DC000000 		.4byte	.LASF86
 4214 0f8f 01       		.byte	0x1
 4215 0f90 C902     		.2byte	0x2c9
 4216 0f92 BB000000 		.4byte	0xbb
 4217 0f96 1D0C0000 		.4byte	.LLST73
 4218 0f9a 1B       		.uleb128 0x1b
ARM GAS  C:\Users\Alex\AppData\Local\Temp\cchBAlOP.s 			page 94


 4219 0f9b D5000000 		.4byte	.LASF87
 4220 0f9f 01       		.byte	0x1
 4221 0fa0 C902     		.2byte	0x2c9
 4222 0fa2 BB000000 		.4byte	0xbb
 4223 0fa6 3C0C0000 		.4byte	.LLST74
 4224 0faa 11       		.uleb128 0x11
 4225 0fab 34000000 		.4byte	.LVL168
 4226 0faf EA0D0000 		.4byte	0xdea
 4227 0fb3 C90F0000 		.4byte	0xfc9
 4228 0fb7 12       		.uleb128 0x12
 4229 0fb8 01       		.uleb128 0x1
 4230 0fb9 53       		.byte	0x53
 4231 0fba 02       		.uleb128 0x2
 4232 0fbb 08       		.byte	0x8
 4233 0fbc 24       		.byte	0x24
 4234 0fbd 12       		.uleb128 0x12
 4235 0fbe 01       		.uleb128 0x1
 4236 0fbf 52       		.byte	0x52
 4237 0fc0 02       		.uleb128 0x2
 4238 0fc1 75       		.byte	0x75
 4239 0fc2 00       		.sleb128 0
 4240 0fc3 12       		.uleb128 0x12
 4241 0fc4 01       		.uleb128 0x1
 4242 0fc5 51       		.byte	0x51
 4243 0fc6 01       		.uleb128 0x1
 4244 0fc7 32       		.byte	0x32
 4245 0fc8 00       		.byte	0
 4246 0fc9 11       		.uleb128 0x11
 4247 0fca 40000000 		.4byte	.LVL170
 4248 0fce 08160000 		.4byte	0x1608
 4249 0fd2 E30F0000 		.4byte	0xfe3
 4250 0fd6 12       		.uleb128 0x12
 4251 0fd7 01       		.uleb128 0x1
 4252 0fd8 51       		.byte	0x51
 4253 0fd9 02       		.uleb128 0x2
 4254 0fda 74       		.byte	0x74
 4255 0fdb 00       		.sleb128 0
 4256 0fdc 12       		.uleb128 0x12
 4257 0fdd 01       		.uleb128 0x1
 4258 0fde 50       		.byte	0x50
 4259 0fdf 02       		.uleb128 0x2
 4260 0fe0 75       		.byte	0x75
 4261 0fe1 00       		.sleb128 0
 4262 0fe2 00       		.byte	0
 4263 0fe3 11       		.uleb128 0x11
 4264 0fe4 48000000 		.4byte	.LVL173
 4265 0fe8 27160000 		.4byte	0x1627
 4266 0fec F70F0000 		.4byte	0xff7
 4267 0ff0 12       		.uleb128 0x12
 4268 0ff1 01       		.uleb128 0x1
 4269 0ff2 50       		.byte	0x50
 4270 0ff3 02       		.uleb128 0x2
 4271 0ff4 74       		.byte	0x74
 4272 0ff5 00       		.sleb128 0
 4273 0ff6 00       		.byte	0
 4274 0ff7 11       		.uleb128 0x11
 4275 0ff8 6E000000 		.4byte	.LVL178
ARM GAS  C:\Users\Alex\AppData\Local\Temp\cchBAlOP.s 			page 95


 4276 0ffc 43160000 		.4byte	0x1643
 4277 1000 0C100000 		.4byte	0x100c
 4278 1004 12       		.uleb128 0x12
 4279 1005 01       		.uleb128 0x1
 4280 1006 50       		.byte	0x50
 4281 1007 03       		.uleb128 0x3
 4282 1008 F3       		.byte	0xf3
 4283 1009 01       		.uleb128 0x1
 4284 100a 50       		.byte	0x50
 4285 100b 00       		.byte	0
 4286 100c 13       		.uleb128 0x13
 4287 100d 78000000 		.4byte	.LVL179
 4288 1011 F3150000 		.4byte	0x15f3
 4289 1015 12       		.uleb128 0x12
 4290 1016 01       		.uleb128 0x1
 4291 1017 50       		.byte	0x50
 4292 1018 03       		.uleb128 0x3
 4293 1019 0A       		.byte	0xa
 4294 101a 0002     		.2byte	0x200
 4295 101c 00       		.byte	0
 4296 101d 00       		.byte	0
 4297 101e 17       		.uleb128 0x17
 4298 101f 3E030000 		.4byte	.LASF90
 4299 1023 01       		.byte	0x1
 4300 1024 0D03     		.2byte	0x30d
 4301 1026 DC000000 		.4byte	0xdc
 4302 102a 00000000 		.4byte	.LFB75
 4303 102e A0000000 		.4byte	.LFE75-.LFB75
 4304 1032 01       		.uleb128 0x1
 4305 1033 9C       		.byte	0x9c
 4306 1034 78110000 		.4byte	0x1178
 4307 1038 18       		.uleb128 0x18
 4308 1039 5B000000 		.4byte	.LASF52
 4309 103d 01       		.byte	0x1
 4310 103e 0D03     		.2byte	0x30d
 4311 1040 B0000000 		.4byte	0xb0
 4312 1044 5B0C0000 		.4byte	.LLST75
 4313 1048 18       		.uleb128 0x18
 4314 1049 49000000 		.4byte	.LASF53
 4315 104d 01       		.byte	0x1
 4316 104e 0D03     		.2byte	0x30d
 4317 1050 B0000000 		.4byte	0xb0
 4318 1054 7C0C0000 		.4byte	.LLST76
 4319 1058 19       		.uleb128 0x19
 4320 1059 62756600 		.ascii	"buf\000"
 4321 105d 01       		.byte	0x1
 4322 105e 0D03     		.2byte	0x30d
 4323 1060 12040000 		.4byte	0x412
 4324 1064 9D0C0000 		.4byte	.LLST77
 4325 1068 19       		.uleb128 0x19
 4326 1069 6C656E00 		.ascii	"len\000"
 4327 106d 01       		.byte	0x1
 4328 106e 0D03     		.2byte	0x30d
 4329 1070 DC000000 		.4byte	0xdc
 4330 1074 C90C0000 		.4byte	.LLST78
 4331 1078 19       		.uleb128 0x19
 4332 1079 7A6B00   		.ascii	"zk\000"
ARM GAS  C:\Users\Alex\AppData\Local\Temp\cchBAlOP.s 			page 96


 4333 107c 01       		.byte	0x1
 4334 107d 0E03     		.2byte	0x30e
 4335 107f BB000000 		.4byte	0xbb
 4336 1083 EA0C0000 		.4byte	.LLST79
 4337 1087 19       		.uleb128 0x19
 4338 1088 7A6200   		.ascii	"zb\000"
 4339 108b 01       		.byte	0x1
 4340 108c 0E03     		.2byte	0x30e
 4341 108e BB000000 		.4byte	0xbb
 4342 1092 0A0D0000 		.4byte	.LLST80
 4343 1096 19       		.uleb128 0x19
 4344 1097 7A6900   		.ascii	"zi\000"
 4345 109a 01       		.byte	0x1
 4346 109b 0E03     		.2byte	0x30e
 4347 109d BB000000 		.4byte	0xbb
 4348 10a1 2A0D0000 		.4byte	.LLST81
 4349 10a5 1A       		.uleb128 0x1a
 4350 10a6 00000000 		.4byte	.LASF61
 4351 10aa 01       		.byte	0x1
 4352 10ab 1003     		.2byte	0x310
 4353 10ad B0000000 		.4byte	0xb0
 4354 10b1 02       		.uleb128 0x2
 4355 10b2 91       		.byte	0x91
 4356 10b3 6F       		.sleb128 -17
 4357 10b4 1A       		.uleb128 0x1a
 4358 10b5 05000000 		.4byte	.LASF62
 4359 10b9 01       		.byte	0x1
 4360 10ba 1003     		.2byte	0x310
 4361 10bc B0000000 		.4byte	0xb0
 4362 10c0 02       		.uleb128 0x2
 4363 10c1 91       		.byte	0x91
 4364 10c2 6E       		.sleb128 -18
 4365 10c3 1B       		.uleb128 0x1b
 4366 10c4 BE010000 		.4byte	.LASF55
 4367 10c8 01       		.byte	0x1
 4368 10c9 1103     		.2byte	0x311
 4369 10cb DC000000 		.4byte	0xdc
 4370 10cf 4A0D0000 		.4byte	.LLST82
 4371 10d3 11       		.uleb128 0x11
 4372 10d4 1E000000 		.4byte	.LVL185
 4373 10d8 D3150000 		.4byte	0x15d3
 4374 10dc F4100000 		.4byte	0x10f4
 4375 10e0 12       		.uleb128 0x12
 4376 10e1 01       		.uleb128 0x1
 4377 10e2 53       		.byte	0x53
 4378 10e3 03       		.uleb128 0x3
 4379 10e4 F3       		.byte	0xf3
 4380 10e5 01       		.uleb128 0x1
 4381 10e6 53       		.byte	0x53
 4382 10e7 12       		.uleb128 0x12
 4383 10e8 01       		.uleb128 0x1
 4384 10e9 52       		.byte	0x52
 4385 10ea 02       		.uleb128 0x2
 4386 10eb 74       		.byte	0x74
 4387 10ec 00       		.sleb128 0
 4388 10ed 12       		.uleb128 0x12
 4389 10ee 01       		.uleb128 0x1
ARM GAS  C:\Users\Alex\AppData\Local\Temp\cchBAlOP.s 			page 97


 4390 10ef 51       		.byte	0x51
 4391 10f0 02       		.uleb128 0x2
 4392 10f1 76       		.byte	0x76
 4393 10f2 00       		.sleb128 0
 4394 10f3 00       		.byte	0
 4395 10f4 11       		.uleb128 0x11
 4396 10f5 46000000 		.4byte	.LVL188
 4397 10f9 69160000 		.4byte	0x1669
 4398 10fd 1A110000 		.4byte	0x111a
 4399 1101 12       		.uleb128 0x12
 4400 1102 01       		.uleb128 0x1
 4401 1103 52       		.byte	0x52
 4402 1104 02       		.uleb128 0x2
 4403 1105 91       		.byte	0x91
 4404 1106 6E       		.sleb128 -18
 4405 1107 12       		.uleb128 0x12
 4406 1108 01       		.uleb128 0x1
 4407 1109 51       		.byte	0x51
 4408 110a 02       		.uleb128 0x2
 4409 110b 91       		.byte	0x91
 4410 110c 6F       		.sleb128 -17
 4411 110d 12       		.uleb128 0x12
 4412 110e 01       		.uleb128 0x1
 4413 110f 50       		.byte	0x50
 4414 1110 08       		.uleb128 0x8
 4415 1111 91       		.byte	0x91
 4416 1112 00       		.sleb128 0
 4417 1113 94       		.byte	0x94
 4418 1114 02       		.byte	0x2
 4419 1115 0A       		.byte	0xa
 4420 1116 FFFF     		.2byte	0xffff
 4421 1118 1A       		.byte	0x1a
 4422 1119 00       		.byte	0
 4423 111a 11       		.uleb128 0x11
 4424 111b 62000000 		.4byte	.LVL189
 4425 111f 69160000 		.4byte	0x1669
 4426 1123 40110000 		.4byte	0x1140
 4427 1127 12       		.uleb128 0x12
 4428 1128 01       		.uleb128 0x1
 4429 1129 52       		.byte	0x52
 4430 112a 02       		.uleb128 0x2
 4431 112b 91       		.byte	0x91
 4432 112c 6E       		.sleb128 -18
 4433 112d 12       		.uleb128 0x12
 4434 112e 01       		.uleb128 0x1
 4435 112f 51       		.byte	0x51
 4436 1130 02       		.uleb128 0x2
 4437 1131 91       		.byte	0x91
 4438 1132 6F       		.sleb128 -17
 4439 1133 12       		.uleb128 0x12
 4440 1134 01       		.uleb128 0x1
 4441 1135 50       		.byte	0x50
 4442 1136 08       		.uleb128 0x8
 4443 1137 91       		.byte	0x91
 4444 1138 04       		.sleb128 4
 4445 1139 94       		.byte	0x94
 4446 113a 02       		.byte	0x2
ARM GAS  C:\Users\Alex\AppData\Local\Temp\cchBAlOP.s 			page 98


 4447 113b 0A       		.byte	0xa
 4448 113c FFFF     		.2byte	0xffff
 4449 113e 1A       		.byte	0x1a
 4450 113f 00       		.byte	0
 4451 1140 11       		.uleb128 0x11
 4452 1141 7E000000 		.4byte	.LVL190
 4453 1145 69160000 		.4byte	0x1669
 4454 1149 66110000 		.4byte	0x1166
 4455 114d 12       		.uleb128 0x12
 4456 114e 01       		.uleb128 0x1
 4457 114f 52       		.byte	0x52
 4458 1150 02       		.uleb128 0x2
 4459 1151 91       		.byte	0x91
 4460 1152 6E       		.sleb128 -18
 4461 1153 12       		.uleb128 0x12
 4462 1154 01       		.uleb128 0x1
 4463 1155 51       		.byte	0x51
 4464 1156 02       		.uleb128 0x2
 4465 1157 91       		.byte	0x91
 4466 1158 6F       		.sleb128 -17
 4467 1159 12       		.uleb128 0x12
 4468 115a 01       		.uleb128 0x1
 4469 115b 50       		.byte	0x50
 4470 115c 08       		.uleb128 0x8
 4471 115d 91       		.byte	0x91
 4472 115e 08       		.sleb128 8
 4473 115f 94       		.byte	0x94
 4474 1160 02       		.byte	0x2
 4475 1161 0A       		.byte	0xa
 4476 1162 FFFF     		.2byte	0xffff
 4477 1164 1A       		.byte	0x1a
 4478 1165 00       		.byte	0
 4479 1166 13       		.uleb128 0x13
 4480 1167 96000000 		.4byte	.LVL193
 4481 116b F3150000 		.4byte	0x15f3
 4482 116f 12       		.uleb128 0x12
 4483 1170 01       		.uleb128 0x1
 4484 1171 50       		.byte	0x50
 4485 1172 03       		.uleb128 0x3
 4486 1173 0A       		.byte	0xa
 4487 1174 0004     		.2byte	0x400
 4488 1176 00       		.byte	0
 4489 1177 00       		.byte	0
 4490 1178 1C       		.uleb128 0x1c
 4491 1179 75020000 		.4byte	.LASF91
 4492 117d 01       		.byte	0x1
 4493 117e 3C03     		.2byte	0x33c
 4494 1180 00000000 		.4byte	.LFB76
 4495 1184 98000000 		.4byte	.LFE76-.LFB76
 4496 1188 01       		.uleb128 0x1
 4497 1189 9C       		.byte	0x9c
 4498 118a 52120000 		.4byte	0x1252
 4499 118e 19       		.uleb128 0x19
 4500 118f 62756600 		.ascii	"buf\000"
 4501 1193 01       		.byte	0x1
 4502 1194 3C03     		.2byte	0x33c
 4503 1196 12040000 		.4byte	0x412
ARM GAS  C:\Users\Alex\AppData\Local\Temp\cchBAlOP.s 			page 99


 4504 119a 990D0000 		.4byte	.LLST83
 4505 119e 1B       		.uleb128 0x1b
 4506 119f AB030000 		.4byte	.LASF56
 4507 11a3 01       		.byte	0x1
 4508 11a4 3E03     		.2byte	0x33e
 4509 11a6 DC000000 		.4byte	0xdc
 4510 11aa D30D0000 		.4byte	.LLST84
 4511 11ae 1B       		.uleb128 0x1b
 4512 11af CE000000 		.4byte	.LASF92
 4513 11b3 01       		.byte	0x1
 4514 11b4 3F03     		.2byte	0x33f
 4515 11b6 BB000000 		.4byte	0xbb
 4516 11ba 140E0000 		.4byte	.LLST85
 4517 11be 1B       		.uleb128 0x1b
 4518 11bf C0000000 		.4byte	.LASF93
 4519 11c3 01       		.byte	0x1
 4520 11c4 3F03     		.2byte	0x33f
 4521 11c6 BB000000 		.4byte	0xbb
 4522 11ca 330E0000 		.4byte	.LLST86
 4523 11ce 1B       		.uleb128 0x1b
 4524 11cf C7000000 		.4byte	.LASF94
 4525 11d3 01       		.byte	0x1
 4526 11d4 3F03     		.2byte	0x33f
 4527 11d6 BB000000 		.4byte	0xbb
 4528 11da 520E0000 		.4byte	.LLST87
 4529 11de 11       		.uleb128 0x11
 4530 11df 34000000 		.4byte	.LVL199
 4531 11e3 1E100000 		.4byte	0x101e
 4532 11e7 FD110000 		.4byte	0x11fd
 4533 11eb 12       		.uleb128 0x12
 4534 11ec 01       		.uleb128 0x1
 4535 11ed 53       		.byte	0x53
 4536 11ee 02       		.uleb128 0x2
 4537 11ef 08       		.byte	0x8
 4538 11f0 24       		.byte	0x24
 4539 11f1 12       		.uleb128 0x12
 4540 11f2 01       		.uleb128 0x1
 4541 11f3 52       		.byte	0x52
 4542 11f4 02       		.uleb128 0x2
 4543 11f5 75       		.byte	0x75
 4544 11f6 00       		.sleb128 0
 4545 11f7 12       		.uleb128 0x12
 4546 11f8 01       		.uleb128 0x1
 4547 11f9 51       		.byte	0x51
 4548 11fa 01       		.uleb128 0x1
 4549 11fb 32       		.byte	0x32
 4550 11fc 00       		.byte	0
 4551 11fd 11       		.uleb128 0x11
 4552 11fe 40000000 		.4byte	.LVL201
 4553 1202 08160000 		.4byte	0x1608
 4554 1206 17120000 		.4byte	0x1217
 4555 120a 12       		.uleb128 0x12
 4556 120b 01       		.uleb128 0x1
 4557 120c 51       		.byte	0x51
 4558 120d 02       		.uleb128 0x2
 4559 120e 74       		.byte	0x74
 4560 120f 00       		.sleb128 0
ARM GAS  C:\Users\Alex\AppData\Local\Temp\cchBAlOP.s 			page 100


 4561 1210 12       		.uleb128 0x12
 4562 1211 01       		.uleb128 0x1
 4563 1212 50       		.byte	0x50
 4564 1213 02       		.uleb128 0x2
 4565 1214 75       		.byte	0x75
 4566 1215 00       		.sleb128 0
 4567 1216 00       		.byte	0
 4568 1217 11       		.uleb128 0x11
 4569 1218 48000000 		.4byte	.LVL204
 4570 121c 27160000 		.4byte	0x1627
 4571 1220 2B120000 		.4byte	0x122b
 4572 1224 12       		.uleb128 0x12
 4573 1225 01       		.uleb128 0x1
 4574 1226 50       		.byte	0x50
 4575 1227 02       		.uleb128 0x2
 4576 1228 74       		.byte	0x74
 4577 1229 00       		.sleb128 0
 4578 122a 00       		.byte	0
 4579 122b 11       		.uleb128 0x11
 4580 122c 6E000000 		.4byte	.LVL209
 4581 1230 43160000 		.4byte	0x1643
 4582 1234 40120000 		.4byte	0x1240
 4583 1238 12       		.uleb128 0x12
 4584 1239 01       		.uleb128 0x1
 4585 123a 50       		.byte	0x50
 4586 123b 03       		.uleb128 0x3
 4587 123c F3       		.byte	0xf3
 4588 123d 01       		.uleb128 0x1
 4589 123e 50       		.byte	0x50
 4590 123f 00       		.byte	0
 4591 1240 13       		.uleb128 0x13
 4592 1241 78000000 		.4byte	.LVL210
 4593 1245 F3150000 		.4byte	0x15f3
 4594 1249 12       		.uleb128 0x12
 4595 124a 01       		.uleb128 0x1
 4596 124b 50       		.byte	0x50
 4597 124c 03       		.uleb128 0x3
 4598 124d 0A       		.byte	0xa
 4599 124e 0002     		.2byte	0x200
 4600 1250 00       		.byte	0
 4601 1251 00       		.byte	0
 4602 1252 17       		.uleb128 0x17
 4603 1253 37000000 		.4byte	.LASF95
 4604 1257 01       		.byte	0x1
 4605 1258 8503     		.2byte	0x385
 4606 125a DC000000 		.4byte	0xdc
 4607 125e 00000000 		.4byte	.LFB77
 4608 1262 DC010000 		.4byte	.LFE77-.LFB77
 4609 1266 01       		.uleb128 0x1
 4610 1267 9C       		.byte	0x9c
 4611 1268 85140000 		.4byte	0x1485
 4612 126c 18       		.uleb128 0x18
 4613 126d 5B000000 		.4byte	.LASF52
 4614 1271 01       		.byte	0x1
 4615 1272 8503     		.2byte	0x385
 4616 1274 B0000000 		.4byte	0xb0
 4617 1278 710E0000 		.4byte	.LLST88
ARM GAS  C:\Users\Alex\AppData\Local\Temp\cchBAlOP.s 			page 101


 4618 127c 18       		.uleb128 0x18
 4619 127d 49000000 		.4byte	.LASF53
 4620 1281 01       		.byte	0x1
 4621 1282 8503     		.2byte	0x385
 4622 1284 B0000000 		.4byte	0xb0
 4623 1288 920E0000 		.4byte	.LLST89
 4624 128c 19       		.uleb128 0x19
 4625 128d 62756600 		.ascii	"buf\000"
 4626 1291 01       		.byte	0x1
 4627 1292 8503     		.2byte	0x385
 4628 1294 12040000 		.4byte	0x412
 4629 1298 B30E0000 		.4byte	.LLST90
 4630 129c 19       		.uleb128 0x19
 4631 129d 6C656E00 		.ascii	"len\000"
 4632 12a1 01       		.byte	0x1
 4633 12a2 8503     		.2byte	0x385
 4634 12a4 DC000000 		.4byte	0xdc
 4635 12a8 DF0E0000 		.4byte	.LLST91
 4636 12ac 18       		.uleb128 0x18
 4637 12ad 1F010000 		.4byte	.LASF96
 4638 12b1 01       		.byte	0x1
 4639 12b2 8503     		.2byte	0x385
 4640 12b4 B0000000 		.4byte	0xb0
 4641 12b8 000F0000 		.4byte	.LLST92
 4642 12bc 1A       		.uleb128 0x1a
 4643 12bd 00000000 		.4byte	.LASF61
 4644 12c1 01       		.byte	0x1
 4645 12c2 8703     		.2byte	0x387
 4646 12c4 B0000000 		.4byte	0xb0
 4647 12c8 02       		.uleb128 0x2
 4648 12c9 91       		.byte	0x91
 4649 12ca 67       		.sleb128 -25
 4650 12cb 1A       		.uleb128 0x1a
 4651 12cc 05000000 		.4byte	.LASF62
 4652 12d0 01       		.byte	0x1
 4653 12d1 8703     		.2byte	0x387
 4654 12d3 B0000000 		.4byte	0xb0
 4655 12d7 02       		.uleb128 0x2
 4656 12d8 91       		.byte	0x91
 4657 12d9 66       		.sleb128 -26
 4658 12da 1A       		.uleb128 0x1a
 4659 12db 0A000000 		.4byte	.LASF72
 4660 12df 01       		.byte	0x1
 4661 12e0 8703     		.2byte	0x387
 4662 12e2 B0000000 		.4byte	0xb0
 4663 12e6 02       		.uleb128 0x2
 4664 12e7 91       		.byte	0x91
 4665 12e8 65       		.sleb128 -27
 4666 12e9 1A       		.uleb128 0x1a
 4667 12ea 0F000000 		.4byte	.LASF73
 4668 12ee 01       		.byte	0x1
 4669 12ef 8703     		.2byte	0x387
 4670 12f1 B0000000 		.4byte	0xb0
 4671 12f5 02       		.uleb128 0x2
 4672 12f6 91       		.byte	0x91
 4673 12f7 64       		.sleb128 -28
 4674 12f8 1B       		.uleb128 0x1b
ARM GAS  C:\Users\Alex\AppData\Local\Temp\cchBAlOP.s 			page 102


 4675 12f9 BE010000 		.4byte	.LASF55
 4676 12fd 01       		.byte	0x1
 4677 12fe 8803     		.2byte	0x388
 4678 1300 DC000000 		.4byte	0xdc
 4679 1304 200F0000 		.4byte	.LLST93
 4680 1308 11       		.uleb128 0x11
 4681 1309 2A000000 		.4byte	.LVL216
 4682 130d D3150000 		.4byte	0x15d3
 4683 1311 29130000 		.4byte	0x1329
 4684 1315 12       		.uleb128 0x12
 4685 1316 01       		.uleb128 0x1
 4686 1317 53       		.byte	0x53
 4687 1318 03       		.uleb128 0x3
 4688 1319 F3       		.byte	0xf3
 4689 131a 01       		.uleb128 0x1
 4690 131b 53       		.byte	0x53
 4691 131c 12       		.uleb128 0x12
 4692 131d 01       		.uleb128 0x1
 4693 131e 52       		.byte	0x52
 4694 131f 02       		.uleb128 0x2
 4695 1320 74       		.byte	0x74
 4696 1321 00       		.sleb128 0
 4697 1322 12       		.uleb128 0x12
 4698 1323 01       		.uleb128 0x1
 4699 1324 51       		.byte	0x51
 4700 1325 02       		.uleb128 0x2
 4701 1326 77       		.byte	0x77
 4702 1327 00       		.sleb128 0
 4703 1328 00       		.byte	0
 4704 1329 11       		.uleb128 0x11
 4705 132a 64000000 		.4byte	.LVL219
 4706 132e 95160000 		.4byte	0x1695
 4707 1332 50130000 		.4byte	0x1350
 4708 1336 12       		.uleb128 0x12
 4709 1337 01       		.uleb128 0x1
 4710 1338 53       		.byte	0x53
 4711 1339 02       		.uleb128 0x2
 4712 133a 91       		.byte	0x91
 4713 133b 65       		.sleb128 -27
 4714 133c 12       		.uleb128 0x12
 4715 133d 01       		.uleb128 0x1
 4716 133e 52       		.byte	0x52
 4717 133f 02       		.uleb128 0x2
 4718 1340 91       		.byte	0x91
 4719 1341 66       		.sleb128 -26
 4720 1342 12       		.uleb128 0x12
 4721 1343 01       		.uleb128 0x1
 4722 1344 51       		.byte	0x51
 4723 1345 02       		.uleb128 0x2
 4724 1346 91       		.byte	0x91
 4725 1347 67       		.sleb128 -25
 4726 1348 12       		.uleb128 0x12
 4727 1349 02       		.uleb128 0x2
 4728 134a 7D       		.byte	0x7d
 4729 134b 00       		.sleb128 0
 4730 134c 02       		.uleb128 0x2
 4731 134d 76       		.byte	0x76
ARM GAS  C:\Users\Alex\AppData\Local\Temp\cchBAlOP.s 			page 103


 4732 134e 00       		.sleb128 0
 4733 134f 00       		.byte	0
 4734 1350 11       		.uleb128 0x11
 4735 1351 90000000 		.4byte	.LVL220
 4736 1355 95160000 		.4byte	0x1695
 4737 1359 77130000 		.4byte	0x1377
 4738 135d 12       		.uleb128 0x12
 4739 135e 01       		.uleb128 0x1
 4740 135f 53       		.byte	0x53
 4741 1360 02       		.uleb128 0x2
 4742 1361 91       		.byte	0x91
 4743 1362 65       		.sleb128 -27
 4744 1363 12       		.uleb128 0x12
 4745 1364 01       		.uleb128 0x1
 4746 1365 52       		.byte	0x52
 4747 1366 02       		.uleb128 0x2
 4748 1367 91       		.byte	0x91
 4749 1368 66       		.sleb128 -26
 4750 1369 12       		.uleb128 0x12
 4751 136a 01       		.uleb128 0x1
 4752 136b 51       		.byte	0x51
 4753 136c 02       		.uleb128 0x2
 4754 136d 91       		.byte	0x91
 4755 136e 67       		.sleb128 -25
 4756 136f 12       		.uleb128 0x12
 4757 1370 02       		.uleb128 0x2
 4758 1371 7D       		.byte	0x7d
 4759 1372 00       		.sleb128 0
 4760 1373 02       		.uleb128 0x2
 4761 1374 76       		.byte	0x76
 4762 1375 00       		.sleb128 0
 4763 1376 00       		.byte	0
 4764 1377 11       		.uleb128 0x11
 4765 1378 BC000000 		.4byte	.LVL221
 4766 137c 95160000 		.4byte	0x1695
 4767 1380 9E130000 		.4byte	0x139e
 4768 1384 12       		.uleb128 0x12
 4769 1385 01       		.uleb128 0x1
 4770 1386 53       		.byte	0x53
 4771 1387 02       		.uleb128 0x2
 4772 1388 91       		.byte	0x91
 4773 1389 65       		.sleb128 -27
 4774 138a 12       		.uleb128 0x12
 4775 138b 01       		.uleb128 0x1
 4776 138c 52       		.byte	0x52
 4777 138d 02       		.uleb128 0x2
 4778 138e 91       		.byte	0x91
 4779 138f 66       		.sleb128 -26
 4780 1390 12       		.uleb128 0x12
 4781 1391 01       		.uleb128 0x1
 4782 1392 51       		.byte	0x51
 4783 1393 02       		.uleb128 0x2
 4784 1394 91       		.byte	0x91
 4785 1395 67       		.sleb128 -25
 4786 1396 12       		.uleb128 0x12
 4787 1397 02       		.uleb128 0x2
 4788 1398 7D       		.byte	0x7d
ARM GAS  C:\Users\Alex\AppData\Local\Temp\cchBAlOP.s 			page 104


 4789 1399 00       		.sleb128 0
 4790 139a 02       		.uleb128 0x2
 4791 139b 76       		.byte	0x76
 4792 139c 00       		.sleb128 0
 4793 139d 00       		.byte	0
 4794 139e 11       		.uleb128 0x11
 4795 139f E8000000 		.4byte	.LVL222
 4796 13a3 95160000 		.4byte	0x1695
 4797 13a7 C5130000 		.4byte	0x13c5
 4798 13ab 12       		.uleb128 0x12
 4799 13ac 01       		.uleb128 0x1
 4800 13ad 53       		.byte	0x53
 4801 13ae 02       		.uleb128 0x2
 4802 13af 91       		.byte	0x91
 4803 13b0 65       		.sleb128 -27
 4804 13b1 12       		.uleb128 0x12
 4805 13b2 01       		.uleb128 0x1
 4806 13b3 52       		.byte	0x52
 4807 13b4 02       		.uleb128 0x2
 4808 13b5 91       		.byte	0x91
 4809 13b6 66       		.sleb128 -26
 4810 13b7 12       		.uleb128 0x12
 4811 13b8 01       		.uleb128 0x1
 4812 13b9 51       		.byte	0x51
 4813 13ba 02       		.uleb128 0x2
 4814 13bb 91       		.byte	0x91
 4815 13bc 67       		.sleb128 -25
 4816 13bd 12       		.uleb128 0x12
 4817 13be 02       		.uleb128 0x2
 4818 13bf 7D       		.byte	0x7d
 4819 13c0 00       		.sleb128 0
 4820 13c1 02       		.uleb128 0x2
 4821 13c2 76       		.byte	0x76
 4822 13c3 00       		.sleb128 0
 4823 13c4 00       		.byte	0
 4824 13c5 11       		.uleb128 0x11
 4825 13c6 10010000 		.4byte	.LVL223
 4826 13ca 69160000 		.4byte	0x1669
 4827 13ce DF130000 		.4byte	0x13df
 4828 13d2 12       		.uleb128 0x12
 4829 13d3 01       		.uleb128 0x1
 4830 13d4 52       		.byte	0x52
 4831 13d5 02       		.uleb128 0x2
 4832 13d6 91       		.byte	0x91
 4833 13d7 66       		.sleb128 -26
 4834 13d8 12       		.uleb128 0x12
 4835 13d9 01       		.uleb128 0x1
 4836 13da 51       		.byte	0x51
 4837 13db 02       		.uleb128 0x2
 4838 13dc 91       		.byte	0x91
 4839 13dd 67       		.sleb128 -25
 4840 13de 00       		.byte	0
 4841 13df 1D       		.uleb128 0x1d
 4842 13e0 20010000 		.4byte	.LVL224
 4843 13e4 DE160000 		.4byte	0x16de
 4844 13e8 1D       		.uleb128 0x1d
 4845 13e9 24010000 		.4byte	.LVL225
ARM GAS  C:\Users\Alex\AppData\Local\Temp\cchBAlOP.s 			page 105


 4846 13ed E5160000 		.4byte	0x16e5
 4847 13f1 11       		.uleb128 0x11
 4848 13f2 34010000 		.4byte	.LVL226
 4849 13f6 69160000 		.4byte	0x1669
 4850 13fa 0B140000 		.4byte	0x140b
 4851 13fe 12       		.uleb128 0x12
 4852 13ff 01       		.uleb128 0x1
 4853 1400 52       		.byte	0x52
 4854 1401 02       		.uleb128 0x2
 4855 1402 91       		.byte	0x91
 4856 1403 66       		.sleb128 -26
 4857 1404 12       		.uleb128 0x12
 4858 1405 01       		.uleb128 0x1
 4859 1406 51       		.byte	0x51
 4860 1407 02       		.uleb128 0x2
 4861 1408 91       		.byte	0x91
 4862 1409 67       		.sleb128 -25
 4863 140a 00       		.byte	0
 4864 140b 11       		.uleb128 0x11
 4865 140c 52010000 		.4byte	.LVL227
 4866 1410 69160000 		.4byte	0x1669
 4867 1414 25140000 		.4byte	0x1425
 4868 1418 12       		.uleb128 0x12
 4869 1419 01       		.uleb128 0x1
 4870 141a 52       		.byte	0x52
 4871 141b 02       		.uleb128 0x2
 4872 141c 91       		.byte	0x91
 4873 141d 66       		.sleb128 -26
 4874 141e 12       		.uleb128 0x12
 4875 141f 01       		.uleb128 0x1
 4876 1420 51       		.byte	0x51
 4877 1421 02       		.uleb128 0x2
 4878 1422 91       		.byte	0x91
 4879 1423 67       		.sleb128 -25
 4880 1424 00       		.byte	0
 4881 1425 11       		.uleb128 0x11
 4882 1426 72010000 		.4byte	.LVL228
 4883 142a 95160000 		.4byte	0x1695
 4884 142e 4C140000 		.4byte	0x144c
 4885 1432 12       		.uleb128 0x12
 4886 1433 01       		.uleb128 0x1
 4887 1434 53       		.byte	0x53
 4888 1435 02       		.uleb128 0x2
 4889 1436 91       		.byte	0x91
 4890 1437 65       		.sleb128 -27
 4891 1438 12       		.uleb128 0x12
 4892 1439 01       		.uleb128 0x1
 4893 143a 52       		.byte	0x52
 4894 143b 02       		.uleb128 0x2
 4895 143c 91       		.byte	0x91
 4896 143d 66       		.sleb128 -26
 4897 143e 12       		.uleb128 0x12
 4898 143f 01       		.uleb128 0x1
 4899 1440 51       		.byte	0x51
 4900 1441 02       		.uleb128 0x2
 4901 1442 91       		.byte	0x91
 4902 1443 67       		.sleb128 -25
ARM GAS  C:\Users\Alex\AppData\Local\Temp\cchBAlOP.s 			page 106


 4903 1444 12       		.uleb128 0x12
 4904 1445 02       		.uleb128 0x2
 4905 1446 7D       		.byte	0x7d
 4906 1447 00       		.sleb128 0
 4907 1448 02       		.uleb128 0x2
 4908 1449 76       		.byte	0x76
 4909 144a 00       		.sleb128 0
 4910 144b 00       		.byte	0
 4911 144c 11       		.uleb128 0x11
 4912 144d 9E010000 		.4byte	.LVL229
 4913 1451 95160000 		.4byte	0x1695
 4914 1455 73140000 		.4byte	0x1473
 4915 1459 12       		.uleb128 0x12
 4916 145a 01       		.uleb128 0x1
 4917 145b 53       		.byte	0x53
 4918 145c 02       		.uleb128 0x2
 4919 145d 91       		.byte	0x91
 4920 145e 65       		.sleb128 -27
 4921 145f 12       		.uleb128 0x12
 4922 1460 01       		.uleb128 0x1
 4923 1461 52       		.byte	0x52
 4924 1462 02       		.uleb128 0x2
 4925 1463 91       		.byte	0x91
 4926 1464 66       		.sleb128 -26
 4927 1465 12       		.uleb128 0x12
 4928 1466 01       		.uleb128 0x1
 4929 1467 51       		.byte	0x51
 4930 1468 02       		.uleb128 0x2
 4931 1469 91       		.byte	0x91
 4932 146a 67       		.sleb128 -25
 4933 146b 12       		.uleb128 0x12
 4934 146c 02       		.uleb128 0x2
 4935 146d 7D       		.byte	0x7d
 4936 146e 00       		.sleb128 0
 4937 146f 02       		.uleb128 0x2
 4938 1470 76       		.byte	0x76
 4939 1471 00       		.sleb128 0
 4940 1472 00       		.byte	0
 4941 1473 13       		.uleb128 0x13
 4942 1474 C8010000 		.4byte	.LVL232
 4943 1478 F3150000 		.4byte	0x15f3
 4944 147c 12       		.uleb128 0x12
 4945 147d 01       		.uleb128 0x1
 4946 147e 50       		.byte	0x50
 4947 147f 03       		.uleb128 0x3
 4948 1480 0A       		.byte	0xa
 4949 1481 0004     		.2byte	0x400
 4950 1483 00       		.byte	0
 4951 1484 00       		.byte	0
 4952 1485 1C       		.uleb128 0x1c
 4953 1486 F4020000 		.4byte	.LASF97
 4954 148a 01       		.byte	0x1
 4955 148b EE03     		.2byte	0x3ee
 4956 148d 00000000 		.4byte	.LFB78
 4957 1491 74000000 		.4byte	.LFE78-.LFB78
 4958 1495 01       		.uleb128 0x1
 4959 1496 9C       		.byte	0x9c
ARM GAS  C:\Users\Alex\AppData\Local\Temp\cchBAlOP.s 			page 107


 4960 1497 60150000 		.4byte	0x1560
 4961 149b 19       		.uleb128 0x19
 4962 149c 62756600 		.ascii	"buf\000"
 4963 14a0 01       		.byte	0x1
 4964 14a1 EE03     		.2byte	0x3ee
 4965 14a3 12040000 		.4byte	0x412
 4966 14a7 700F0000 		.4byte	.LLST94
 4967 14ab 1B       		.uleb128 0x1b
 4968 14ac AB030000 		.4byte	.LASF56
 4969 14b0 01       		.byte	0x1
 4970 14b1 F003     		.2byte	0x3f0
 4971 14b3 B0000000 		.4byte	0xb0
 4972 14b7 AA0F0000 		.4byte	.LLST95
 4973 14bb 1B       		.uleb128 0x1b
 4974 14bc 12060000 		.4byte	.LASF98
 4975 14c0 01       		.byte	0x1
 4976 14c1 F003     		.2byte	0x3f0
 4977 14c3 B0000000 		.4byte	0xb0
 4978 14c7 E20F0000 		.4byte	.LLST96
 4979 14cb 1B       		.uleb128 0x1b
 4980 14cc 47020000 		.4byte	.LASF99
 4981 14d0 01       		.byte	0x1
 4982 14d1 F103     		.2byte	0x3f1
 4983 14d3 D1000000 		.4byte	0xd1
 4984 14d7 0E100000 		.4byte	.LLST97
 4985 14db 11       		.uleb128 0x11
 4986 14dc 1E000000 		.4byte	.LVL238
 4987 14e0 52120000 		.4byte	0x1252
 4988 14e4 00150000 		.4byte	0x1500
 4989 14e8 12       		.uleb128 0x12
 4990 14e9 01       		.uleb128 0x1
 4991 14ea 53       		.byte	0x53
 4992 14eb 02       		.uleb128 0x2
 4993 14ec 08       		.byte	0x8
 4994 14ed 24       		.byte	0x24
 4995 14ee 12       		.uleb128 0x12
 4996 14ef 01       		.uleb128 0x1
 4997 14f0 52       		.byte	0x52
 4998 14f1 02       		.uleb128 0x2
 4999 14f2 75       		.byte	0x75
 5000 14f3 00       		.sleb128 0
 5001 14f4 12       		.uleb128 0x12
 5002 14f5 01       		.uleb128 0x1
 5003 14f6 51       		.byte	0x51
 5004 14f7 01       		.uleb128 0x1
 5005 14f8 32       		.byte	0x32
 5006 14f9 12       		.uleb128 0x12
 5007 14fa 02       		.uleb128 0x2
 5008 14fb 7D       		.byte	0x7d
 5009 14fc 00       		.sleb128 0
 5010 14fd 01       		.uleb128 0x1
 5011 14fe 30       		.byte	0x30
 5012 14ff 00       		.byte	0
 5013 1500 11       		.uleb128 0x11
 5014 1501 2A000000 		.4byte	.LVL240
 5015 1505 08160000 		.4byte	0x1608
 5016 1509 1A150000 		.4byte	0x151a
ARM GAS  C:\Users\Alex\AppData\Local\Temp\cchBAlOP.s 			page 108


 5017 150d 12       		.uleb128 0x12
 5018 150e 01       		.uleb128 0x1
 5019 150f 51       		.byte	0x51
 5020 1510 02       		.uleb128 0x2
 5021 1511 74       		.byte	0x74
 5022 1512 00       		.sleb128 0
 5023 1513 12       		.uleb128 0x12
 5024 1514 01       		.uleb128 0x1
 5025 1515 50       		.byte	0x50
 5026 1516 02       		.uleb128 0x2
 5027 1517 75       		.byte	0x75
 5028 1518 00       		.sleb128 0
 5029 1519 00       		.byte	0
 5030 151a 11       		.uleb128 0x11
 5031 151b 32000000 		.4byte	.LVL241
 5032 151f 27160000 		.4byte	0x1627
 5033 1523 34150000 		.4byte	0x1534
 5034 1527 12       		.uleb128 0x12
 5035 1528 01       		.uleb128 0x1
 5036 1529 51       		.byte	0x51
 5037 152a 02       		.uleb128 0x2
 5038 152b 08       		.byte	0x8
 5039 152c 30       		.byte	0x30
 5040 152d 12       		.uleb128 0x12
 5041 152e 01       		.uleb128 0x1
 5042 152f 50       		.byte	0x50
 5043 1530 02       		.uleb128 0x2
 5044 1531 74       		.byte	0x74
 5045 1532 00       		.sleb128 0
 5046 1533 00       		.byte	0
 5047 1534 11       		.uleb128 0x11
 5048 1535 3A000000 		.4byte	.LVL242
 5049 1539 EC160000 		.4byte	0x16ec
 5050 153d 4E150000 		.4byte	0x154e
 5051 1541 12       		.uleb128 0x12
 5052 1542 01       		.uleb128 0x1
 5053 1543 51       		.byte	0x51
 5054 1544 02       		.uleb128 0x2
 5055 1545 08       		.byte	0x8
 5056 1546 30       		.byte	0x30
 5057 1547 12       		.uleb128 0x12
 5058 1548 01       		.uleb128 0x1
 5059 1549 50       		.byte	0x50
 5060 154a 02       		.uleb128 0x2
 5061 154b 74       		.byte	0x74
 5062 154c 00       		.sleb128 0
 5063 154d 00       		.byte	0
 5064 154e 13       		.uleb128 0x13
 5065 154f 58000000 		.4byte	.LVL246
 5066 1553 43160000 		.4byte	0x1643
 5067 1557 12       		.uleb128 0x12
 5068 1558 01       		.uleb128 0x1
 5069 1559 50       		.byte	0x50
 5070 155a 03       		.uleb128 0x3
 5071 155b F3       		.byte	0xf3
 5072 155c 01       		.uleb128 0x1
 5073 155d 50       		.byte	0x50
ARM GAS  C:\Users\Alex\AppData\Local\Temp\cchBAlOP.s 			page 109


 5074 155e 00       		.byte	0
 5075 155f 00       		.byte	0
 5076 1560 1E       		.uleb128 0x1e
 5077 1561 30010000 		.4byte	.LASF100
 5078 1565 07       		.byte	0x7
 5079 1566 54       		.byte	0x54
 5080 1567 B0000000 		.4byte	0xb0
 5081 156b 1E       		.uleb128 0x1e
 5082 156c 6F040000 		.4byte	.LASF101
 5083 1570 08       		.byte	0x8
 5084 1571 20       		.byte	0x20
 5085 1572 E7000000 		.4byte	0xe7
 5086 1576 1F       		.uleb128 0x1f
 5087 1577 C2030000 		.4byte	.LASF102
 5088 157b 09       		.byte	0x9
 5089 157c 2A06     		.2byte	0x62a
 5090 157e 82150000 		.4byte	0x1582
 5091 1582 20       		.uleb128 0x20
 5092 1583 D1000000 		.4byte	0xd1
 5093 1587 1E       		.uleb128 0x1e
 5094 1588 08010000 		.4byte	.LASF103
 5095 158c 0A       		.byte	0xa
 5096 158d 17       		.byte	0x17
 5097 158e 94000000 		.4byte	0x94
 5098 1592 1E       		.uleb128 0x1e
 5099 1593 79010000 		.4byte	.LASF54
 5100 1597 0B       		.byte	0xb
 5101 1598 17       		.byte	0x17
 5102 1599 9D150000 		.4byte	0x159d
 5103 159d 20       		.uleb128 0x20
 5104 159e 38020000 		.4byte	0x238
 5105 15a2 1E       		.uleb128 0x1e
 5106 15a3 02040000 		.4byte	.LASF104
 5107 15a7 0B       		.byte	0xb
 5108 15a8 18       		.byte	0x18
 5109 15a9 AD150000 		.4byte	0x15ad
 5110 15ad 20       		.uleb128 0x20
 5111 15ae 8D020000 		.4byte	0x28d
 5112 15b2 05       		.uleb128 0x5
 5113 15b3 37000000 		.4byte	0x37
 5114 15b7 C2150000 		.4byte	0x15c2
 5115 15bb 06       		.uleb128 0x6
 5116 15bc A2000000 		.4byte	0xa2
 5117 15c0 23       		.byte	0x23
 5118 15c1 00       		.byte	0
 5119 15c2 21       		.uleb128 0x21
 5120 15c3 21050000 		.4byte	.LASF105
 5121 15c7 01       		.byte	0x1
 5122 15c8 2B       		.byte	0x2b
 5123 15c9 B2150000 		.4byte	0x15b2
 5124 15cd 05       		.uleb128 0x5
 5125 15ce 03       		.byte	0x3
 5126 15cf 00000000 		.4byte	tmp_payload_xmit
 5127 15d3 22       		.uleb128 0x22
 5128 15d4 16020000 		.4byte	.LASF108
 5129 15d8 0D       		.byte	0xd
 5130 15d9 24       		.byte	0x24
ARM GAS  C:\Users\Alex\AppData\Local\Temp\cchBAlOP.s 			page 110


 5131 15da F3150000 		.4byte	0x15f3
 5132 15de 23       		.uleb128 0x23
 5133 15df B0000000 		.4byte	0xb0
 5134 15e3 23       		.uleb128 0x23
 5135 15e4 B0000000 		.4byte	0xb0
 5136 15e8 23       		.uleb128 0x23
 5137 15e9 12040000 		.4byte	0x412
 5138 15ed 23       		.uleb128 0x23
 5139 15ee DC000000 		.4byte	0xdc
 5140 15f2 00       		.byte	0
 5141 15f3 24       		.uleb128 0x24
 5142 15f4 88000000 		.4byte	.LASF106
 5143 15f8 0C       		.byte	0xc
 5144 15f9 18       		.byte	0x18
 5145 15fa 9B000000 		.4byte	0x9b
 5146 15fe 08160000 		.4byte	0x1608
 5147 1602 23       		.uleb128 0x23
 5148 1603 9B000000 		.4byte	0x9b
 5149 1607 00       		.byte	0
 5150 1608 24       		.uleb128 0x24
 5151 1609 63030000 		.4byte	.LASF107
 5152 160d 08       		.byte	0x8
 5153 160e 37       		.byte	0x37
 5154 160f B0000000 		.4byte	0xb0
 5155 1613 27160000 		.4byte	0x1627
 5156 1617 23       		.uleb128 0x23
 5157 1618 12040000 		.4byte	0x412
 5158 161c 23       		.uleb128 0x23
 5159 161d 12040000 		.4byte	0x412
 5160 1621 23       		.uleb128 0x23
 5161 1622 B0000000 		.4byte	0xb0
 5162 1626 00       		.byte	0
 5163 1627 22       		.uleb128 0x22
 5164 1628 A6000000 		.4byte	.LASF109
 5165 162c 0E       		.byte	0xe
 5166 162d 19       		.byte	0x19
 5167 162e 3D160000 		.4byte	0x163d
 5168 1632 23       		.uleb128 0x23
 5169 1633 3D160000 		.4byte	0x163d
 5170 1637 23       		.uleb128 0x23
 5171 1638 41030000 		.4byte	0x341
 5172 163c 00       		.byte	0
 5173 163d 14       		.uleb128 0x14
 5174 163e 04       		.byte	0x4
 5175 163f 36030000 		.4byte	0x336
 5176 1643 24       		.uleb128 0x24
 5177 1644 7E010000 		.4byte	.LASF110
 5178 1648 0D       		.byte	0xd
 5179 1649 23       		.byte	0x23
 5180 164a B0000000 		.4byte	0xb0
 5181 164e 58160000 		.4byte	0x1658
 5182 1652 23       		.uleb128 0x23
 5183 1653 12040000 		.4byte	0x412
 5184 1657 00       		.byte	0
 5185 1658 22       		.uleb128 0x22
 5186 1659 28030000 		.4byte	.LASF111
 5187 165d 0B       		.byte	0xb
ARM GAS  C:\Users\Alex\AppData\Local\Temp\cchBAlOP.s 			page 111


 5188 165e 1E       		.byte	0x1e
 5189 165f 69160000 		.4byte	0x1669
 5190 1663 23       		.uleb128 0x23
 5191 1664 37000000 		.4byte	0x37
 5192 1668 00       		.byte	0
 5193 1669 22       		.uleb128 0x22
 5194 166a 47050000 		.4byte	.LASF112
 5195 166e 0C       		.byte	0xc
 5196 166f 1A       		.byte	0x1a
 5197 1670 84160000 		.4byte	0x1684
 5198 1674 23       		.uleb128 0x23
 5199 1675 DC000000 		.4byte	0xdc
 5200 1679 23       		.uleb128 0x23
 5201 167a 12040000 		.4byte	0x412
 5202 167e 23       		.uleb128 0x23
 5203 167f 12040000 		.4byte	0x412
 5204 1683 00       		.byte	0
 5205 1684 22       		.uleb128 0x22
 5206 1685 A1050000 		.4byte	.LASF113
 5207 1689 0F       		.byte	0xf
 5208 168a 1C       		.byte	0x1c
 5209 168b 95160000 		.4byte	0x1695
 5210 168f 23       		.uleb128 0x23
 5211 1690 4C030000 		.4byte	0x34c
 5212 1694 00       		.byte	0
 5213 1695 22       		.uleb128 0x22
 5214 1696 11030000 		.4byte	.LASF114
 5215 169a 0C       		.byte	0xc
 5216 169b 19       		.byte	0x19
 5217 169c BA160000 		.4byte	0x16ba
 5218 16a0 23       		.uleb128 0x23
 5219 16a1 DC000000 		.4byte	0xdc
 5220 16a5 23       		.uleb128 0x23
 5221 16a6 12040000 		.4byte	0x412
 5222 16aa 23       		.uleb128 0x23
 5223 16ab 12040000 		.4byte	0x412
 5224 16af 23       		.uleb128 0x23
 5225 16b0 12040000 		.4byte	0x412
 5226 16b4 23       		.uleb128 0x23
 5227 16b5 12040000 		.4byte	0x412
 5228 16b9 00       		.byte	0
 5229 16ba 24       		.uleb128 0x24
 5230 16bb 14000000 		.4byte	.LASF115
 5231 16bf 10       		.byte	0x10
 5232 16c0 15       		.byte	0x15
 5233 16c1 86000000 		.4byte	0x86
 5234 16c5 DE160000 		.4byte	0x16de
 5235 16c9 23       		.uleb128 0x23
 5236 16ca 86000000 		.4byte	0x86
 5237 16ce 23       		.uleb128 0x23
 5238 16cf 86000000 		.4byte	0x86
 5239 16d3 23       		.uleb128 0x23
 5240 16d4 86000000 		.4byte	0x86
 5241 16d8 23       		.uleb128 0x23
 5242 16d9 86000000 		.4byte	0x86
 5243 16dd 00       		.byte	0
 5244 16de 25       		.uleb128 0x25
ARM GAS  C:\Users\Alex\AppData\Local\Temp\cchBAlOP.s 			page 112


 5245 16df 64000000 		.4byte	.LASF116
 5246 16e3 0B       		.byte	0xb
 5247 16e4 26       		.byte	0x26
 5248 16e5 25       		.uleb128 0x25
 5249 16e6 70030000 		.4byte	.LASF117
 5250 16ea 0B       		.byte	0xb
 5251 16eb 25       		.byte	0x25
 5252 16ec 26       		.uleb128 0x26
 5253 16ed 52000000 		.4byte	.LASF121
 5254 16f1 11       		.byte	0x11
 5255 16f2 1D       		.byte	0x1d
 5256 16f3 23       		.uleb128 0x23
 5257 16f4 3D160000 		.4byte	0x163d
 5258 16f8 23       		.uleb128 0x23
 5259 16f9 41030000 		.4byte	0x341
 5260 16fd 00       		.byte	0
 5261 16fe 00       		.byte	0
 5262              		.section	.debug_abbrev,"",%progbits
 5263              	.Ldebug_abbrev0:
 5264 0000 01       		.uleb128 0x1
 5265 0001 11       		.uleb128 0x11
 5266 0002 01       		.byte	0x1
 5267 0003 25       		.uleb128 0x25
 5268 0004 0E       		.uleb128 0xe
 5269 0005 13       		.uleb128 0x13
 5270 0006 0B       		.uleb128 0xb
 5271 0007 03       		.uleb128 0x3
 5272 0008 0E       		.uleb128 0xe
 5273 0009 1B       		.uleb128 0x1b
 5274 000a 0E       		.uleb128 0xe
 5275 000b 55       		.uleb128 0x55
 5276 000c 17       		.uleb128 0x17
 5277 000d 11       		.uleb128 0x11
 5278 000e 01       		.uleb128 0x1
 5279 000f 10       		.uleb128 0x10
 5280 0010 17       		.uleb128 0x17
 5281 0011 00       		.byte	0
 5282 0012 00       		.byte	0
 5283 0013 02       		.uleb128 0x2
 5284 0014 24       		.uleb128 0x24
 5285 0015 00       		.byte	0
 5286 0016 0B       		.uleb128 0xb
 5287 0017 0B       		.uleb128 0xb
 5288 0018 3E       		.uleb128 0x3e
 5289 0019 0B       		.uleb128 0xb
 5290 001a 03       		.uleb128 0x3
 5291 001b 0E       		.uleb128 0xe
 5292 001c 00       		.byte	0
 5293 001d 00       		.byte	0
 5294 001e 03       		.uleb128 0x3
 5295 001f 16       		.uleb128 0x16
 5296 0020 00       		.byte	0
 5297 0021 03       		.uleb128 0x3
 5298 0022 0E       		.uleb128 0xe
 5299 0023 3A       		.uleb128 0x3a
 5300 0024 0B       		.uleb128 0xb
 5301 0025 3B       		.uleb128 0x3b
ARM GAS  C:\Users\Alex\AppData\Local\Temp\cchBAlOP.s 			page 113


 5302 0026 0B       		.uleb128 0xb
 5303 0027 49       		.uleb128 0x49
 5304 0028 13       		.uleb128 0x13
 5305 0029 00       		.byte	0
 5306 002a 00       		.byte	0
 5307 002b 04       		.uleb128 0x4
 5308 002c 24       		.uleb128 0x24
 5309 002d 00       		.byte	0
 5310 002e 0B       		.uleb128 0xb
 5311 002f 0B       		.uleb128 0xb
 5312 0030 3E       		.uleb128 0x3e
 5313 0031 0B       		.uleb128 0xb
 5314 0032 03       		.uleb128 0x3
 5315 0033 08       		.uleb128 0x8
 5316 0034 00       		.byte	0
 5317 0035 00       		.byte	0
 5318 0036 05       		.uleb128 0x5
 5319 0037 01       		.uleb128 0x1
 5320 0038 01       		.byte	0x1
 5321 0039 49       		.uleb128 0x49
 5322 003a 13       		.uleb128 0x13
 5323 003b 01       		.uleb128 0x1
 5324 003c 13       		.uleb128 0x13
 5325 003d 00       		.byte	0
 5326 003e 00       		.byte	0
 5327 003f 06       		.uleb128 0x6
 5328 0040 21       		.uleb128 0x21
 5329 0041 00       		.byte	0
 5330 0042 49       		.uleb128 0x49
 5331 0043 13       		.uleb128 0x13
 5332 0044 2F       		.uleb128 0x2f
 5333 0045 0B       		.uleb128 0xb
 5334 0046 00       		.byte	0
 5335 0047 00       		.byte	0
 5336 0048 07       		.uleb128 0x7
 5337 0049 13       		.uleb128 0x13
 5338 004a 01       		.byte	0x1
 5339 004b 03       		.uleb128 0x3
 5340 004c 0E       		.uleb128 0xe
 5341 004d 0B       		.uleb128 0xb
 5342 004e 0B       		.uleb128 0xb
 5343 004f 3A       		.uleb128 0x3a
 5344 0050 0B       		.uleb128 0xb
 5345 0051 3B       		.uleb128 0x3b
 5346 0052 0B       		.uleb128 0xb
 5347 0053 01       		.uleb128 0x1
 5348 0054 13       		.uleb128 0x13
 5349 0055 00       		.byte	0
 5350 0056 00       		.byte	0
 5351 0057 08       		.uleb128 0x8
 5352 0058 0D       		.uleb128 0xd
 5353 0059 00       		.byte	0
 5354 005a 03       		.uleb128 0x3
 5355 005b 08       		.uleb128 0x8
 5356 005c 3A       		.uleb128 0x3a
 5357 005d 0B       		.uleb128 0xb
 5358 005e 3B       		.uleb128 0x3b
ARM GAS  C:\Users\Alex\AppData\Local\Temp\cchBAlOP.s 			page 114


 5359 005f 0B       		.uleb128 0xb
 5360 0060 49       		.uleb128 0x49
 5361 0061 13       		.uleb128 0x13
 5362 0062 38       		.uleb128 0x38
 5363 0063 0B       		.uleb128 0xb
 5364 0064 00       		.byte	0
 5365 0065 00       		.byte	0
 5366 0066 09       		.uleb128 0x9
 5367 0067 0D       		.uleb128 0xd
 5368 0068 00       		.byte	0
 5369 0069 03       		.uleb128 0x3
 5370 006a 0E       		.uleb128 0xe
 5371 006b 3A       		.uleb128 0x3a
 5372 006c 0B       		.uleb128 0xb
 5373 006d 3B       		.uleb128 0x3b
 5374 006e 0B       		.uleb128 0xb
 5375 006f 49       		.uleb128 0x49
 5376 0070 13       		.uleb128 0x13
 5377 0071 38       		.uleb128 0x38
 5378 0072 0B       		.uleb128 0xb
 5379 0073 00       		.byte	0
 5380 0074 00       		.byte	0
 5381 0075 0A       		.uleb128 0xa
 5382 0076 13       		.uleb128 0x13
 5383 0077 01       		.byte	0x1
 5384 0078 03       		.uleb128 0x3
 5385 0079 0E       		.uleb128 0xe
 5386 007a 0B       		.uleb128 0xb
 5387 007b 0B       		.uleb128 0xb
 5388 007c 3A       		.uleb128 0x3a
 5389 007d 0B       		.uleb128 0xb
 5390 007e 3B       		.uleb128 0x3b
 5391 007f 05       		.uleb128 0x5
 5392 0080 01       		.uleb128 0x1
 5393 0081 13       		.uleb128 0x13
 5394 0082 00       		.byte	0
 5395 0083 00       		.byte	0
 5396 0084 0B       		.uleb128 0xb
 5397 0085 0D       		.uleb128 0xd
 5398 0086 00       		.byte	0
 5399 0087 03       		.uleb128 0x3
 5400 0088 0E       		.uleb128 0xe
 5401 0089 3A       		.uleb128 0x3a
 5402 008a 0B       		.uleb128 0xb
 5403 008b 3B       		.uleb128 0x3b
 5404 008c 05       		.uleb128 0x5
 5405 008d 49       		.uleb128 0x49
 5406 008e 13       		.uleb128 0x13
 5407 008f 38       		.uleb128 0x38
 5408 0090 0B       		.uleb128 0xb
 5409 0091 00       		.byte	0
 5410 0092 00       		.byte	0
 5411 0093 0C       		.uleb128 0xc
 5412 0094 0D       		.uleb128 0xd
 5413 0095 00       		.byte	0
 5414 0096 03       		.uleb128 0x3
 5415 0097 08       		.uleb128 0x8
ARM GAS  C:\Users\Alex\AppData\Local\Temp\cchBAlOP.s 			page 115


 5416 0098 3A       		.uleb128 0x3a
 5417 0099 0B       		.uleb128 0xb
 5418 009a 3B       		.uleb128 0x3b
 5419 009b 05       		.uleb128 0x5
 5420 009c 49       		.uleb128 0x49
 5421 009d 13       		.uleb128 0x13
 5422 009e 38       		.uleb128 0x38
 5423 009f 0B       		.uleb128 0xb
 5424 00a0 00       		.byte	0
 5425 00a1 00       		.byte	0
 5426 00a2 0D       		.uleb128 0xd
 5427 00a3 2E       		.uleb128 0x2e
 5428 00a4 01       		.byte	0x1
 5429 00a5 3F       		.uleb128 0x3f
 5430 00a6 19       		.uleb128 0x19
 5431 00a7 03       		.uleb128 0x3
 5432 00a8 0E       		.uleb128 0xe
 5433 00a9 3A       		.uleb128 0x3a
 5434 00aa 0B       		.uleb128 0xb
 5435 00ab 3B       		.uleb128 0x3b
 5436 00ac 0B       		.uleb128 0xb
 5437 00ad 27       		.uleb128 0x27
 5438 00ae 19       		.uleb128 0x19
 5439 00af 49       		.uleb128 0x49
 5440 00b0 13       		.uleb128 0x13
 5441 00b1 11       		.uleb128 0x11
 5442 00b2 01       		.uleb128 0x1
 5443 00b3 12       		.uleb128 0x12
 5444 00b4 06       		.uleb128 0x6
 5445 00b5 40       		.uleb128 0x40
 5446 00b6 18       		.uleb128 0x18
 5447 00b7 9742     		.uleb128 0x2117
 5448 00b9 19       		.uleb128 0x19
 5449 00ba 01       		.uleb128 0x1
 5450 00bb 13       		.uleb128 0x13
 5451 00bc 00       		.byte	0
 5452 00bd 00       		.byte	0
 5453 00be 0E       		.uleb128 0xe
 5454 00bf 05       		.uleb128 0x5
 5455 00c0 00       		.byte	0
 5456 00c1 03       		.uleb128 0x3
 5457 00c2 0E       		.uleb128 0xe
 5458 00c3 3A       		.uleb128 0x3a
 5459 00c4 0B       		.uleb128 0xb
 5460 00c5 3B       		.uleb128 0x3b
 5461 00c6 0B       		.uleb128 0xb
 5462 00c7 49       		.uleb128 0x49
 5463 00c8 13       		.uleb128 0x13
 5464 00c9 02       		.uleb128 0x2
 5465 00ca 17       		.uleb128 0x17
 5466 00cb 00       		.byte	0
 5467 00cc 00       		.byte	0
 5468 00cd 0F       		.uleb128 0xf
 5469 00ce 05       		.uleb128 0x5
 5470 00cf 00       		.byte	0
 5471 00d0 03       		.uleb128 0x3
 5472 00d1 08       		.uleb128 0x8
ARM GAS  C:\Users\Alex\AppData\Local\Temp\cchBAlOP.s 			page 116


 5473 00d2 3A       		.uleb128 0x3a
 5474 00d3 0B       		.uleb128 0xb
 5475 00d4 3B       		.uleb128 0x3b
 5476 00d5 0B       		.uleb128 0xb
 5477 00d6 49       		.uleb128 0x49
 5478 00d7 13       		.uleb128 0x13
 5479 00d8 02       		.uleb128 0x2
 5480 00d9 17       		.uleb128 0x17
 5481 00da 00       		.byte	0
 5482 00db 00       		.byte	0
 5483 00dc 10       		.uleb128 0x10
 5484 00dd 34       		.uleb128 0x34
 5485 00de 00       		.byte	0
 5486 00df 03       		.uleb128 0x3
 5487 00e0 0E       		.uleb128 0xe
 5488 00e1 3A       		.uleb128 0x3a
 5489 00e2 0B       		.uleb128 0xb
 5490 00e3 3B       		.uleb128 0x3b
 5491 00e4 0B       		.uleb128 0xb
 5492 00e5 49       		.uleb128 0x49
 5493 00e6 13       		.uleb128 0x13
 5494 00e7 02       		.uleb128 0x2
 5495 00e8 17       		.uleb128 0x17
 5496 00e9 00       		.byte	0
 5497 00ea 00       		.byte	0
 5498 00eb 11       		.uleb128 0x11
 5499 00ec 898201   		.uleb128 0x4109
 5500 00ef 01       		.byte	0x1
 5501 00f0 11       		.uleb128 0x11
 5502 00f1 01       		.uleb128 0x1
 5503 00f2 31       		.uleb128 0x31
 5504 00f3 13       		.uleb128 0x13
 5505 00f4 01       		.uleb128 0x1
 5506 00f5 13       		.uleb128 0x13
 5507 00f6 00       		.byte	0
 5508 00f7 00       		.byte	0
 5509 00f8 12       		.uleb128 0x12
 5510 00f9 8A8201   		.uleb128 0x410a
 5511 00fc 00       		.byte	0
 5512 00fd 02       		.uleb128 0x2
 5513 00fe 18       		.uleb128 0x18
 5514 00ff 9142     		.uleb128 0x2111
 5515 0101 18       		.uleb128 0x18
 5516 0102 00       		.byte	0
 5517 0103 00       		.byte	0
 5518 0104 13       		.uleb128 0x13
 5519 0105 898201   		.uleb128 0x4109
 5520 0108 01       		.byte	0x1
 5521 0109 11       		.uleb128 0x11
 5522 010a 01       		.uleb128 0x1
 5523 010b 31       		.uleb128 0x31
 5524 010c 13       		.uleb128 0x13
 5525 010d 00       		.byte	0
 5526 010e 00       		.byte	0
 5527 010f 14       		.uleb128 0x14
 5528 0110 0F       		.uleb128 0xf
 5529 0111 00       		.byte	0
ARM GAS  C:\Users\Alex\AppData\Local\Temp\cchBAlOP.s 			page 117


 5530 0112 0B       		.uleb128 0xb
 5531 0113 0B       		.uleb128 0xb
 5532 0114 49       		.uleb128 0x49
 5533 0115 13       		.uleb128 0x13
 5534 0116 00       		.byte	0
 5535 0117 00       		.byte	0
 5536 0118 15       		.uleb128 0x15
 5537 0119 2E       		.uleb128 0x2e
 5538 011a 01       		.byte	0x1
 5539 011b 3F       		.uleb128 0x3f
 5540 011c 19       		.uleb128 0x19
 5541 011d 03       		.uleb128 0x3
 5542 011e 0E       		.uleb128 0xe
 5543 011f 3A       		.uleb128 0x3a
 5544 0120 0B       		.uleb128 0xb
 5545 0121 3B       		.uleb128 0x3b
 5546 0122 0B       		.uleb128 0xb
 5547 0123 27       		.uleb128 0x27
 5548 0124 19       		.uleb128 0x19
 5549 0125 11       		.uleb128 0x11
 5550 0126 01       		.uleb128 0x1
 5551 0127 12       		.uleb128 0x12
 5552 0128 06       		.uleb128 0x6
 5553 0129 40       		.uleb128 0x40
 5554 012a 18       		.uleb128 0x18
 5555 012b 9742     		.uleb128 0x2117
 5556 012d 19       		.uleb128 0x19
 5557 012e 01       		.uleb128 0x1
 5558 012f 13       		.uleb128 0x13
 5559 0130 00       		.byte	0
 5560 0131 00       		.byte	0
 5561 0132 16       		.uleb128 0x16
 5562 0133 34       		.uleb128 0x34
 5563 0134 00       		.byte	0
 5564 0135 03       		.uleb128 0x3
 5565 0136 0E       		.uleb128 0xe
 5566 0137 3A       		.uleb128 0x3a
 5567 0138 0B       		.uleb128 0xb
 5568 0139 3B       		.uleb128 0x3b
 5569 013a 0B       		.uleb128 0xb
 5570 013b 49       		.uleb128 0x49
 5571 013c 13       		.uleb128 0x13
 5572 013d 02       		.uleb128 0x2
 5573 013e 18       		.uleb128 0x18
 5574 013f 00       		.byte	0
 5575 0140 00       		.byte	0
 5576 0141 17       		.uleb128 0x17
 5577 0142 2E       		.uleb128 0x2e
 5578 0143 01       		.byte	0x1
 5579 0144 3F       		.uleb128 0x3f
 5580 0145 19       		.uleb128 0x19
 5581 0146 03       		.uleb128 0x3
 5582 0147 0E       		.uleb128 0xe
 5583 0148 3A       		.uleb128 0x3a
 5584 0149 0B       		.uleb128 0xb
 5585 014a 3B       		.uleb128 0x3b
 5586 014b 05       		.uleb128 0x5
ARM GAS  C:\Users\Alex\AppData\Local\Temp\cchBAlOP.s 			page 118


 5587 014c 27       		.uleb128 0x27
 5588 014d 19       		.uleb128 0x19
 5589 014e 49       		.uleb128 0x49
 5590 014f 13       		.uleb128 0x13
 5591 0150 11       		.uleb128 0x11
 5592 0151 01       		.uleb128 0x1
 5593 0152 12       		.uleb128 0x12
 5594 0153 06       		.uleb128 0x6
 5595 0154 40       		.uleb128 0x40
 5596 0155 18       		.uleb128 0x18
 5597 0156 9742     		.uleb128 0x2117
 5598 0158 19       		.uleb128 0x19
 5599 0159 01       		.uleb128 0x1
 5600 015a 13       		.uleb128 0x13
 5601 015b 00       		.byte	0
 5602 015c 00       		.byte	0
 5603 015d 18       		.uleb128 0x18
 5604 015e 05       		.uleb128 0x5
 5605 015f 00       		.byte	0
 5606 0160 03       		.uleb128 0x3
 5607 0161 0E       		.uleb128 0xe
 5608 0162 3A       		.uleb128 0x3a
 5609 0163 0B       		.uleb128 0xb
 5610 0164 3B       		.uleb128 0x3b
 5611 0165 05       		.uleb128 0x5
 5612 0166 49       		.uleb128 0x49
 5613 0167 13       		.uleb128 0x13
 5614 0168 02       		.uleb128 0x2
 5615 0169 17       		.uleb128 0x17
 5616 016a 00       		.byte	0
 5617 016b 00       		.byte	0
 5618 016c 19       		.uleb128 0x19
 5619 016d 05       		.uleb128 0x5
 5620 016e 00       		.byte	0
 5621 016f 03       		.uleb128 0x3
 5622 0170 08       		.uleb128 0x8
 5623 0171 3A       		.uleb128 0x3a
 5624 0172 0B       		.uleb128 0xb
 5625 0173 3B       		.uleb128 0x3b
 5626 0174 05       		.uleb128 0x5
 5627 0175 49       		.uleb128 0x49
 5628 0176 13       		.uleb128 0x13
 5629 0177 02       		.uleb128 0x2
 5630 0178 17       		.uleb128 0x17
 5631 0179 00       		.byte	0
 5632 017a 00       		.byte	0
 5633 017b 1A       		.uleb128 0x1a
 5634 017c 34       		.uleb128 0x34
 5635 017d 00       		.byte	0
 5636 017e 03       		.uleb128 0x3
 5637 017f 0E       		.uleb128 0xe
 5638 0180 3A       		.uleb128 0x3a
 5639 0181 0B       		.uleb128 0xb
 5640 0182 3B       		.uleb128 0x3b
 5641 0183 05       		.uleb128 0x5
 5642 0184 49       		.uleb128 0x49
 5643 0185 13       		.uleb128 0x13
ARM GAS  C:\Users\Alex\AppData\Local\Temp\cchBAlOP.s 			page 119


 5644 0186 02       		.uleb128 0x2
 5645 0187 18       		.uleb128 0x18
 5646 0188 00       		.byte	0
 5647 0189 00       		.byte	0
 5648 018a 1B       		.uleb128 0x1b
 5649 018b 34       		.uleb128 0x34
 5650 018c 00       		.byte	0
 5651 018d 03       		.uleb128 0x3
 5652 018e 0E       		.uleb128 0xe
 5653 018f 3A       		.uleb128 0x3a
 5654 0190 0B       		.uleb128 0xb
 5655 0191 3B       		.uleb128 0x3b
 5656 0192 05       		.uleb128 0x5
 5657 0193 49       		.uleb128 0x49
 5658 0194 13       		.uleb128 0x13
 5659 0195 02       		.uleb128 0x2
 5660 0196 17       		.uleb128 0x17
 5661 0197 00       		.byte	0
 5662 0198 00       		.byte	0
 5663 0199 1C       		.uleb128 0x1c
 5664 019a 2E       		.uleb128 0x2e
 5665 019b 01       		.byte	0x1
 5666 019c 3F       		.uleb128 0x3f
 5667 019d 19       		.uleb128 0x19
 5668 019e 03       		.uleb128 0x3
 5669 019f 0E       		.uleb128 0xe
 5670 01a0 3A       		.uleb128 0x3a
 5671 01a1 0B       		.uleb128 0xb
 5672 01a2 3B       		.uleb128 0x3b
 5673 01a3 05       		.uleb128 0x5
 5674 01a4 27       		.uleb128 0x27
 5675 01a5 19       		.uleb128 0x19
 5676 01a6 11       		.uleb128 0x11
 5677 01a7 01       		.uleb128 0x1
 5678 01a8 12       		.uleb128 0x12
 5679 01a9 06       		.uleb128 0x6
 5680 01aa 40       		.uleb128 0x40
 5681 01ab 18       		.uleb128 0x18
 5682 01ac 9742     		.uleb128 0x2117
 5683 01ae 19       		.uleb128 0x19
 5684 01af 01       		.uleb128 0x1
 5685 01b0 13       		.uleb128 0x13
 5686 01b1 00       		.byte	0
 5687 01b2 00       		.byte	0
 5688 01b3 1D       		.uleb128 0x1d
 5689 01b4 898201   		.uleb128 0x4109
 5690 01b7 00       		.byte	0
 5691 01b8 11       		.uleb128 0x11
 5692 01b9 01       		.uleb128 0x1
 5693 01ba 31       		.uleb128 0x31
 5694 01bb 13       		.uleb128 0x13
 5695 01bc 00       		.byte	0
 5696 01bd 00       		.byte	0
 5697 01be 1E       		.uleb128 0x1e
 5698 01bf 34       		.uleb128 0x34
 5699 01c0 00       		.byte	0
 5700 01c1 03       		.uleb128 0x3
ARM GAS  C:\Users\Alex\AppData\Local\Temp\cchBAlOP.s 			page 120


 5701 01c2 0E       		.uleb128 0xe
 5702 01c3 3A       		.uleb128 0x3a
 5703 01c4 0B       		.uleb128 0xb
 5704 01c5 3B       		.uleb128 0x3b
 5705 01c6 0B       		.uleb128 0xb
 5706 01c7 49       		.uleb128 0x49
 5707 01c8 13       		.uleb128 0x13
 5708 01c9 3F       		.uleb128 0x3f
 5709 01ca 19       		.uleb128 0x19
 5710 01cb 3C       		.uleb128 0x3c
 5711 01cc 19       		.uleb128 0x19
 5712 01cd 00       		.byte	0
 5713 01ce 00       		.byte	0
 5714 01cf 1F       		.uleb128 0x1f
 5715 01d0 34       		.uleb128 0x34
 5716 01d1 00       		.byte	0
 5717 01d2 03       		.uleb128 0x3
 5718 01d3 0E       		.uleb128 0xe
 5719 01d4 3A       		.uleb128 0x3a
 5720 01d5 0B       		.uleb128 0xb
 5721 01d6 3B       		.uleb128 0x3b
 5722 01d7 05       		.uleb128 0x5
 5723 01d8 49       		.uleb128 0x49
 5724 01d9 13       		.uleb128 0x13
 5725 01da 3F       		.uleb128 0x3f
 5726 01db 19       		.uleb128 0x19
 5727 01dc 3C       		.uleb128 0x3c
 5728 01dd 19       		.uleb128 0x19
 5729 01de 00       		.byte	0
 5730 01df 00       		.byte	0
 5731 01e0 20       		.uleb128 0x20
 5732 01e1 35       		.uleb128 0x35
 5733 01e2 00       		.byte	0
 5734 01e3 49       		.uleb128 0x49
 5735 01e4 13       		.uleb128 0x13
 5736 01e5 00       		.byte	0
 5737 01e6 00       		.byte	0
 5738 01e7 21       		.uleb128 0x21
 5739 01e8 34       		.uleb128 0x34
 5740 01e9 00       		.byte	0
 5741 01ea 03       		.uleb128 0x3
 5742 01eb 0E       		.uleb128 0xe
 5743 01ec 3A       		.uleb128 0x3a
 5744 01ed 0B       		.uleb128 0xb
 5745 01ee 3B       		.uleb128 0x3b
 5746 01ef 0B       		.uleb128 0xb
 5747 01f0 49       		.uleb128 0x49
 5748 01f1 13       		.uleb128 0x13
 5749 01f2 3F       		.uleb128 0x3f
 5750 01f3 19       		.uleb128 0x19
 5751 01f4 02       		.uleb128 0x2
 5752 01f5 18       		.uleb128 0x18
 5753 01f6 00       		.byte	0
 5754 01f7 00       		.byte	0
 5755 01f8 22       		.uleb128 0x22
 5756 01f9 2E       		.uleb128 0x2e
 5757 01fa 01       		.byte	0x1
ARM GAS  C:\Users\Alex\AppData\Local\Temp\cchBAlOP.s 			page 121


 5758 01fb 3F       		.uleb128 0x3f
 5759 01fc 19       		.uleb128 0x19
 5760 01fd 03       		.uleb128 0x3
 5761 01fe 0E       		.uleb128 0xe
 5762 01ff 3A       		.uleb128 0x3a
 5763 0200 0B       		.uleb128 0xb
 5764 0201 3B       		.uleb128 0x3b
 5765 0202 0B       		.uleb128 0xb
 5766 0203 27       		.uleb128 0x27
 5767 0204 19       		.uleb128 0x19
 5768 0205 3C       		.uleb128 0x3c
 5769 0206 19       		.uleb128 0x19
 5770 0207 01       		.uleb128 0x1
 5771 0208 13       		.uleb128 0x13
 5772 0209 00       		.byte	0
 5773 020a 00       		.byte	0
 5774 020b 23       		.uleb128 0x23
 5775 020c 05       		.uleb128 0x5
 5776 020d 00       		.byte	0
 5777 020e 49       		.uleb128 0x49
 5778 020f 13       		.uleb128 0x13
 5779 0210 00       		.byte	0
 5780 0211 00       		.byte	0
 5781 0212 24       		.uleb128 0x24
 5782 0213 2E       		.uleb128 0x2e
 5783 0214 01       		.byte	0x1
 5784 0215 3F       		.uleb128 0x3f
 5785 0216 19       		.uleb128 0x19
 5786 0217 03       		.uleb128 0x3
 5787 0218 0E       		.uleb128 0xe
 5788 0219 3A       		.uleb128 0x3a
 5789 021a 0B       		.uleb128 0xb
 5790 021b 3B       		.uleb128 0x3b
 5791 021c 0B       		.uleb128 0xb
 5792 021d 27       		.uleb128 0x27
 5793 021e 19       		.uleb128 0x19
 5794 021f 49       		.uleb128 0x49
 5795 0220 13       		.uleb128 0x13
 5796 0221 3C       		.uleb128 0x3c
 5797 0222 19       		.uleb128 0x19
 5798 0223 01       		.uleb128 0x1
 5799 0224 13       		.uleb128 0x13
 5800 0225 00       		.byte	0
 5801 0226 00       		.byte	0
 5802 0227 25       		.uleb128 0x25
 5803 0228 2E       		.uleb128 0x2e
 5804 0229 00       		.byte	0
 5805 022a 3F       		.uleb128 0x3f
 5806 022b 19       		.uleb128 0x19
 5807 022c 03       		.uleb128 0x3
 5808 022d 0E       		.uleb128 0xe
 5809 022e 3A       		.uleb128 0x3a
 5810 022f 0B       		.uleb128 0xb
 5811 0230 3B       		.uleb128 0x3b
 5812 0231 0B       		.uleb128 0xb
 5813 0232 27       		.uleb128 0x27
 5814 0233 19       		.uleb128 0x19
ARM GAS  C:\Users\Alex\AppData\Local\Temp\cchBAlOP.s 			page 122


 5815 0234 3C       		.uleb128 0x3c
 5816 0235 19       		.uleb128 0x19
 5817 0236 00       		.byte	0
 5818 0237 00       		.byte	0
 5819 0238 26       		.uleb128 0x26
 5820 0239 2E       		.uleb128 0x2e
 5821 023a 01       		.byte	0x1
 5822 023b 3F       		.uleb128 0x3f
 5823 023c 19       		.uleb128 0x19
 5824 023d 03       		.uleb128 0x3
 5825 023e 0E       		.uleb128 0xe
 5826 023f 3A       		.uleb128 0x3a
 5827 0240 0B       		.uleb128 0xb
 5828 0241 3B       		.uleb128 0x3b
 5829 0242 0B       		.uleb128 0xb
 5830 0243 27       		.uleb128 0x27
 5831 0244 19       		.uleb128 0x19
 5832 0245 3C       		.uleb128 0x3c
 5833 0246 19       		.uleb128 0x19
 5834 0247 00       		.byte	0
 5835 0248 00       		.byte	0
 5836 0249 00       		.byte	0
 5837              		.section	.debug_loc,"",%progbits
 5838              	.Ldebug_loc0:
 5839              	.LLST0:
 5840 0000 00000000 		.4byte	.LVL0
 5841 0004 0C000000 		.4byte	.LVL3
 5842 0008 0100     		.2byte	0x1
 5843 000a 50       		.byte	0x50
 5844 000b 0C000000 		.4byte	.LVL3
 5845 000f 44000000 		.4byte	.LFE63
 5846 0013 0400     		.2byte	0x4
 5847 0015 F3       		.byte	0xf3
 5848 0016 01       		.uleb128 0x1
 5849 0017 50       		.byte	0x50
 5850 0018 9F       		.byte	0x9f
 5851 0019 00000000 		.4byte	0
 5852 001d 00000000 		.4byte	0
 5853              	.LLST1:
 5854 0021 00000000 		.4byte	.LVL0
 5855 0025 0A000000 		.4byte	.LVL2
 5856 0029 0100     		.2byte	0x1
 5857 002b 51       		.byte	0x51
 5858 002c 0A000000 		.4byte	.LVL2
 5859 0030 44000000 		.4byte	.LFE63
 5860 0034 0400     		.2byte	0x4
 5861 0036 F3       		.byte	0xf3
 5862 0037 01       		.uleb128 0x1
 5863 0038 51       		.byte	0x51
 5864 0039 9F       		.byte	0x9f
 5865 003a 00000000 		.4byte	0
 5866 003e 00000000 		.4byte	0
 5867              	.LLST2:
 5868 0042 00000000 		.4byte	.LVL0
 5869 0046 11000000 		.4byte	.LVL4-1
 5870 004a 0100     		.2byte	0x1
 5871 004c 52       		.byte	0x52
ARM GAS  C:\Users\Alex\AppData\Local\Temp\cchBAlOP.s 			page 123


 5872 004d 11000000 		.4byte	.LVL4-1
 5873 0051 40000000 		.4byte	.LVL11
 5874 0055 0100     		.2byte	0x1
 5875 0057 54       		.byte	0x54
 5876 0058 40000000 		.4byte	.LVL11
 5877 005c 44000000 		.4byte	.LFE63
 5878 0060 0400     		.2byte	0x4
 5879 0062 F3       		.byte	0xf3
 5880 0063 01       		.uleb128 0x1
 5881 0064 52       		.byte	0x52
 5882 0065 9F       		.byte	0x9f
 5883 0066 00000000 		.4byte	0
 5884 006a 00000000 		.4byte	0
 5885              	.LLST3:
 5886 006e 00000000 		.4byte	.LVL0
 5887 0072 11000000 		.4byte	.LVL4-1
 5888 0076 0100     		.2byte	0x1
 5889 0078 53       		.byte	0x53
 5890 0079 11000000 		.4byte	.LVL4-1
 5891 007d 44000000 		.4byte	.LFE63
 5892 0081 0400     		.2byte	0x4
 5893 0083 F3       		.byte	0xf3
 5894 0084 01       		.uleb128 0x1
 5895 0085 53       		.byte	0x53
 5896 0086 9F       		.byte	0x9f
 5897 0087 00000000 		.4byte	0
 5898 008b 00000000 		.4byte	0
 5899              	.LLST4:
 5900 008f 00000000 		.4byte	.LVL0
 5901 0093 22000000 		.4byte	.LVL6
 5902 0097 0200     		.2byte	0x2
 5903 0099 91       		.byte	0x91
 5904 009a 00       		.sleb128 0
 5905 009b 22000000 		.4byte	.LVL6
 5906 009f 40000000 		.4byte	.LVL11
 5907 00a3 0200     		.2byte	0x2
 5908 00a5 91       		.byte	0x91
 5909 00a6 00       		.sleb128 0
 5910 00a7 40000000 		.4byte	.LVL11
 5911 00ab 44000000 		.4byte	.LFE63
 5912 00af 0200     		.2byte	0x2
 5913 00b1 7D       		.byte	0x7d
 5914 00b2 00       		.sleb128 0
 5915 00b3 00000000 		.4byte	0
 5916 00b7 00000000 		.4byte	0
 5917              	.LLST5:
 5918 00bb 08000000 		.4byte	.LVL1
 5919 00bf 1E000000 		.4byte	.LVL5
 5920 00c3 0200     		.2byte	0x2
 5921 00c5 30       		.byte	0x30
 5922 00c6 9F       		.byte	0x9f
 5923 00c7 1E000000 		.4byte	.LVL5
 5924 00cb 22000000 		.4byte	.LVL6
 5925 00cf 0200     		.2byte	0x2
 5926 00d1 34       		.byte	0x34
 5927 00d2 9F       		.byte	0x9f
 5928 00d3 22000000 		.4byte	.LVL6
ARM GAS  C:\Users\Alex\AppData\Local\Temp\cchBAlOP.s 			page 124


 5929 00d7 30000000 		.4byte	.LVL7
 5930 00db 0200     		.2byte	0x2
 5931 00dd 30       		.byte	0x30
 5932 00de 9F       		.byte	0x9f
 5933 00df 30000000 		.4byte	.LVL7
 5934 00e3 34000000 		.4byte	.LVL8
 5935 00e7 0200     		.2byte	0x2
 5936 00e9 35       		.byte	0x35
 5937 00ea 9F       		.byte	0x9f
 5938 00eb 34000000 		.4byte	.LVL8
 5939 00ef 3E000000 		.4byte	.LVL10
 5940 00f3 0200     		.2byte	0x2
 5941 00f5 30       		.byte	0x30
 5942 00f6 9F       		.byte	0x9f
 5943 00f7 3E000000 		.4byte	.LVL10
 5944 00fb 44000000 		.4byte	.LFE63
 5945 00ff 0100     		.2byte	0x1
 5946 0101 50       		.byte	0x50
 5947 0102 00000000 		.4byte	0
 5948 0106 00000000 		.4byte	0
 5949              	.LLST6:
 5950 010a 00000000 		.4byte	.LVL12
 5951 010e 12000000 		.4byte	.LVL14
 5952 0112 0100     		.2byte	0x1
 5953 0114 50       		.byte	0x50
 5954 0115 12000000 		.4byte	.LVL14
 5955 0119 36000000 		.4byte	.LVL20
 5956 011d 0400     		.2byte	0x4
 5957 011f F3       		.byte	0xf3
 5958 0120 01       		.uleb128 0x1
 5959 0121 50       		.byte	0x50
 5960 0122 9F       		.byte	0x9f
 5961 0123 36000000 		.4byte	.LVL20
 5962 0127 3D000000 		.4byte	.LVL22-1
 5963 012b 0100     		.2byte	0x1
 5964 012d 50       		.byte	0x50
 5965 012e 3D000000 		.4byte	.LVL22-1
 5966 0132 58000000 		.4byte	.LFE64
 5967 0136 0400     		.2byte	0x4
 5968 0138 F3       		.byte	0xf3
 5969 0139 01       		.uleb128 0x1
 5970 013a 50       		.byte	0x50
 5971 013b 9F       		.byte	0x9f
 5972 013c 00000000 		.4byte	0
 5973 0140 00000000 		.4byte	0
 5974              	.LLST7:
 5975 0144 04000000 		.4byte	.LVL13
 5976 0148 22000000 		.4byte	.LVL16
 5977 014c 0200     		.2byte	0x2
 5978 014e 30       		.byte	0x30
 5979 014f 9F       		.byte	0x9f
 5980 0150 22000000 		.4byte	.LVL16
 5981 0154 2B000000 		.4byte	.LVL17-1
 5982 0158 0100     		.2byte	0x1
 5983 015a 52       		.byte	0x52
 5984 015b 2E000000 		.4byte	.LVL18
 5985 015f 33000000 		.4byte	.LVL19-1
ARM GAS  C:\Users\Alex\AppData\Local\Temp\cchBAlOP.s 			page 125


 5986 0163 0100     		.2byte	0x1
 5987 0165 51       		.byte	0x51
 5988 0166 36000000 		.4byte	.LVL20
 5989 016a 46000000 		.4byte	.LVL23
 5990 016e 0200     		.2byte	0x2
 5991 0170 30       		.byte	0x30
 5992 0171 9F       		.byte	0x9f
 5993 0172 00000000 		.4byte	0
 5994 0176 00000000 		.4byte	0
 5995              	.LLST8:
 5996 017a 04000000 		.4byte	.LVL13
 5997 017e 3A000000 		.4byte	.LVL21
 5998 0182 0200     		.2byte	0x2
 5999 0184 30       		.byte	0x30
 6000 0185 9F       		.byte	0x9f
 6001 0186 3A000000 		.4byte	.LVL21
 6002 018a 46000000 		.4byte	.LVL23
 6003 018e 0100     		.2byte	0x1
 6004 0190 54       		.byte	0x54
 6005 0191 00000000 		.4byte	0
 6006 0195 00000000 		.4byte	0
 6007              	.LLST9:
 6008 0199 00000000 		.4byte	.LVL24
 6009 019d 18000000 		.4byte	.LVL27
 6010 01a1 0100     		.2byte	0x1
 6011 01a3 50       		.byte	0x50
 6012 01a4 18000000 		.4byte	.LVL27
 6013 01a8 84000000 		.4byte	.LFE65
 6014 01ac 0400     		.2byte	0x4
 6015 01ae F3       		.byte	0xf3
 6016 01af 01       		.uleb128 0x1
 6017 01b0 50       		.byte	0x50
 6018 01b1 9F       		.byte	0x9f
 6019 01b2 00000000 		.4byte	0
 6020 01b6 00000000 		.4byte	0
 6021              	.LLST10:
 6022 01ba 00000000 		.4byte	.LVL24
 6023 01be 0C000000 		.4byte	.LVL25
 6024 01c2 0100     		.2byte	0x1
 6025 01c4 51       		.byte	0x51
 6026 01c5 0C000000 		.4byte	.LVL25
 6027 01c9 84000000 		.4byte	.LFE65
 6028 01cd 0400     		.2byte	0x4
 6029 01cf F3       		.byte	0xf3
 6030 01d0 01       		.uleb128 0x1
 6031 01d1 51       		.byte	0x51
 6032 01d2 9F       		.byte	0x9f
 6033 01d3 00000000 		.4byte	0
 6034 01d7 00000000 		.4byte	0
 6035              	.LLST11:
 6036 01db 00000000 		.4byte	.LVL24
 6037 01df 1D000000 		.4byte	.LVL28-1
 6038 01e3 0100     		.2byte	0x1
 6039 01e5 52       		.byte	0x52
 6040 01e6 1D000000 		.4byte	.LVL28-1
 6041 01ea 80000000 		.4byte	.LVL37
 6042 01ee 0100     		.2byte	0x1
ARM GAS  C:\Users\Alex\AppData\Local\Temp\cchBAlOP.s 			page 126


 6043 01f0 54       		.byte	0x54
 6044 01f1 80000000 		.4byte	.LVL37
 6045 01f5 84000000 		.4byte	.LFE65
 6046 01f9 0400     		.2byte	0x4
 6047 01fb F3       		.byte	0xf3
 6048 01fc 01       		.uleb128 0x1
 6049 01fd 52       		.byte	0x52
 6050 01fe 9F       		.byte	0x9f
 6051 01ff 00000000 		.4byte	0
 6052 0203 00000000 		.4byte	0
 6053              	.LLST12:
 6054 0207 00000000 		.4byte	.LVL24
 6055 020b 1D000000 		.4byte	.LVL28-1
 6056 020f 0100     		.2byte	0x1
 6057 0211 53       		.byte	0x53
 6058 0212 1D000000 		.4byte	.LVL28-1
 6059 0216 84000000 		.4byte	.LFE65
 6060 021a 0400     		.2byte	0x4
 6061 021c F3       		.byte	0xf3
 6062 021d 01       		.uleb128 0x1
 6063 021e 53       		.byte	0x53
 6064 021f 9F       		.byte	0x9f
 6065 0220 00000000 		.4byte	0
 6066 0224 00000000 		.4byte	0
 6067              	.LLST13:
 6068 0228 00000000 		.4byte	.LVL24
 6069 022c 80000000 		.4byte	.LVL37
 6070 0230 0200     		.2byte	0x2
 6071 0232 91       		.byte	0x91
 6072 0233 00       		.sleb128 0
 6073 0234 80000000 		.4byte	.LVL37
 6074 0238 84000000 		.4byte	.LFE65
 6075 023c 0200     		.2byte	0x2
 6076 023e 7D       		.byte	0x7d
 6077 023f 00       		.sleb128 0
 6078 0240 00000000 		.4byte	0
 6079 0244 00000000 		.4byte	0
 6080              	.LLST14:
 6081 0248 00000000 		.4byte	.LVL24
 6082 024c 80000000 		.4byte	.LVL37
 6083 0250 0200     		.2byte	0x2
 6084 0252 91       		.byte	0x91
 6085 0253 04       		.sleb128 4
 6086 0254 80000000 		.4byte	.LVL37
 6087 0258 84000000 		.4byte	.LFE65
 6088 025c 0200     		.2byte	0x2
 6089 025e 7D       		.byte	0x7d
 6090 025f 04       		.sleb128 4
 6091 0260 00000000 		.4byte	0
 6092 0264 00000000 		.4byte	0
 6093              	.LLST15:
 6094 0268 14000000 		.4byte	.LVL26
 6095 026c 2A000000 		.4byte	.LVL29
 6096 0270 0200     		.2byte	0x2
 6097 0272 30       		.byte	0x30
 6098 0273 9F       		.byte	0x9f
 6099 0274 2A000000 		.4byte	.LVL29
ARM GAS  C:\Users\Alex\AppData\Local\Temp\cchBAlOP.s 			page 127


 6100 0278 2E000000 		.4byte	.LVL30
 6101 027c 0200     		.2byte	0x2
 6102 027e 34       		.byte	0x34
 6103 027f 9F       		.byte	0x9f
 6104 0280 2E000000 		.4byte	.LVL30
 6105 0284 6E000000 		.4byte	.LVL33
 6106 0288 0200     		.2byte	0x2
 6107 028a 30       		.byte	0x30
 6108 028b 9F       		.byte	0x9f
 6109 028c 6E000000 		.4byte	.LVL33
 6110 0290 72000000 		.4byte	.LVL34
 6111 0294 0200     		.2byte	0x2
 6112 0296 38       		.byte	0x38
 6113 0297 9F       		.byte	0x9f
 6114 0298 72000000 		.4byte	.LVL34
 6115 029c 7C000000 		.4byte	.LVL36
 6116 02a0 0200     		.2byte	0x2
 6117 02a2 30       		.byte	0x30
 6118 02a3 9F       		.byte	0x9f
 6119 02a4 7C000000 		.4byte	.LVL36
 6120 02a8 84000000 		.4byte	.LFE65
 6121 02ac 0100     		.2byte	0x1
 6122 02ae 50       		.byte	0x50
 6123 02af 00000000 		.4byte	0
 6124 02b3 00000000 		.4byte	0
 6125              	.LLST16:
 6126 02b7 00000000 		.4byte	.LVL38
 6127 02bb 0E000000 		.4byte	.LVL40
 6128 02bf 0100     		.2byte	0x1
 6129 02c1 50       		.byte	0x50
 6130 02c2 0E000000 		.4byte	.LVL40
 6131 02c6 3E000000 		.4byte	.LVL47
 6132 02ca 0400     		.2byte	0x4
 6133 02cc F3       		.byte	0xf3
 6134 02cd 01       		.uleb128 0x1
 6135 02ce 50       		.byte	0x50
 6136 02cf 9F       		.byte	0x9f
 6137 02d0 3E000000 		.4byte	.LVL47
 6138 02d4 4D000000 		.4byte	.LVL50-1
 6139 02d8 0100     		.2byte	0x1
 6140 02da 50       		.byte	0x50
 6141 02db 4D000000 		.4byte	.LVL50-1
 6142 02df 7C000000 		.4byte	.LFE66
 6143 02e3 0400     		.2byte	0x4
 6144 02e5 F3       		.byte	0xf3
 6145 02e6 01       		.uleb128 0x1
 6146 02e7 50       		.byte	0x50
 6147 02e8 9F       		.byte	0x9f
 6148 02e9 00000000 		.4byte	0
 6149 02ed 00000000 		.4byte	0
 6150              	.LLST17:
 6151 02f1 04000000 		.4byte	.LVL39
 6152 02f5 28000000 		.4byte	.LVL41
 6153 02f9 0200     		.2byte	0x2
 6154 02fb 30       		.byte	0x30
 6155 02fc 9F       		.byte	0x9f
 6156 02fd 28000000 		.4byte	.LVL41
ARM GAS  C:\Users\Alex\AppData\Local\Temp\cchBAlOP.s 			page 128


 6157 0301 2E000000 		.4byte	.LVL42
 6158 0305 0100     		.2byte	0x1
 6159 0307 50       		.byte	0x50
 6160 0308 36000000 		.4byte	.LVL44
 6161 030c 38000000 		.4byte	.LVL45
 6162 0310 0100     		.2byte	0x1
 6163 0312 50       		.byte	0x50
 6164 0313 38000000 		.4byte	.LVL45
 6165 0317 3B000000 		.4byte	.LVL46-1
 6166 031b 0100     		.2byte	0x1
 6167 031d 51       		.byte	0x51
 6168 031e 3E000000 		.4byte	.LVL47
 6169 0322 6A000000 		.4byte	.LVL52
 6170 0326 0200     		.2byte	0x2
 6171 0328 30       		.byte	0x30
 6172 0329 9F       		.byte	0x9f
 6173 032a 00000000 		.4byte	0
 6174 032e 00000000 		.4byte	0
 6175              	.LLST18:
 6176 0332 04000000 		.4byte	.LVL39
 6177 0336 4A000000 		.4byte	.LVL49
 6178 033a 0200     		.2byte	0x2
 6179 033c 30       		.byte	0x30
 6180 033d 9F       		.byte	0x9f
 6181 033e 4A000000 		.4byte	.LVL49
 6182 0342 6A000000 		.4byte	.LVL52
 6183 0346 0100     		.2byte	0x1
 6184 0348 54       		.byte	0x54
 6185 0349 00000000 		.4byte	0
 6186 034d 00000000 		.4byte	0
 6187              	.LLST19:
 6188 0351 04000000 		.4byte	.LVL39
 6189 0355 40000000 		.4byte	.LVL48
 6190 0359 0200     		.2byte	0x2
 6191 035b 30       		.byte	0x30
 6192 035c 9F       		.byte	0x9f
 6193 035d 40000000 		.4byte	.LVL48
 6194 0361 4D000000 		.4byte	.LVL50-1
 6195 0365 1200     		.2byte	0x12
 6196 0367 70       		.byte	0x70
 6197 0368 04       		.sleb128 4
 6198 0369 94       		.byte	0x94
 6199 036a 01       		.byte	0x1
 6200 036b 08       		.byte	0x8
 6201 036c FF       		.byte	0xff
 6202 036d 1A       		.byte	0x1a
 6203 036e 38       		.byte	0x38
 6204 036f 24       		.byte	0x24
 6205 0370 70       		.byte	0x70
 6206 0371 05       		.sleb128 5
 6207 0372 94       		.byte	0x94
 6208 0373 01       		.byte	0x1
 6209 0374 08       		.byte	0x8
 6210 0375 FF       		.byte	0xff
 6211 0376 1A       		.byte	0x1a
 6212 0377 22       		.byte	0x22
 6213 0378 9F       		.byte	0x9f
ARM GAS  C:\Users\Alex\AppData\Local\Temp\cchBAlOP.s 			page 129


 6214 0379 00000000 		.4byte	0
 6215 037d 00000000 		.4byte	0
 6216              	.LLST20:
 6217 0381 00000000 		.4byte	.LVL53
 6218 0385 18000000 		.4byte	.LVL56
 6219 0389 0100     		.2byte	0x1
 6220 038b 50       		.byte	0x50
 6221 038c 18000000 		.4byte	.LVL56
 6222 0390 68000000 		.4byte	.LFE67
 6223 0394 0400     		.2byte	0x4
 6224 0396 F3       		.byte	0xf3
 6225 0397 01       		.uleb128 0x1
 6226 0398 50       		.byte	0x50
 6227 0399 9F       		.byte	0x9f
 6228 039a 00000000 		.4byte	0
 6229 039e 00000000 		.4byte	0
 6230              	.LLST21:
 6231 03a2 00000000 		.4byte	.LVL53
 6232 03a6 0C000000 		.4byte	.LVL54
 6233 03aa 0100     		.2byte	0x1
 6234 03ac 51       		.byte	0x51
 6235 03ad 0C000000 		.4byte	.LVL54
 6236 03b1 68000000 		.4byte	.LFE67
 6237 03b5 0400     		.2byte	0x4
 6238 03b7 F3       		.byte	0xf3
 6239 03b8 01       		.uleb128 0x1
 6240 03b9 51       		.byte	0x51
 6241 03ba 9F       		.byte	0x9f
 6242 03bb 00000000 		.4byte	0
 6243 03bf 00000000 		.4byte	0
 6244              	.LLST22:
 6245 03c3 00000000 		.4byte	.LVL53
 6246 03c7 1D000000 		.4byte	.LVL57-1
 6247 03cb 0100     		.2byte	0x1
 6248 03cd 52       		.byte	0x52
 6249 03ce 1D000000 		.4byte	.LVL57-1
 6250 03d2 64000000 		.4byte	.LVL65
 6251 03d6 0100     		.2byte	0x1
 6252 03d8 54       		.byte	0x54
 6253 03d9 64000000 		.4byte	.LVL65
 6254 03dd 68000000 		.4byte	.LFE67
 6255 03e1 0400     		.2byte	0x4
 6256 03e3 F3       		.byte	0xf3
 6257 03e4 01       		.uleb128 0x1
 6258 03e5 52       		.byte	0x52
 6259 03e6 9F       		.byte	0x9f
 6260 03e7 00000000 		.4byte	0
 6261 03eb 00000000 		.4byte	0
 6262              	.LLST23:
 6263 03ef 00000000 		.4byte	.LVL53
 6264 03f3 1D000000 		.4byte	.LVL57-1
 6265 03f7 0100     		.2byte	0x1
 6266 03f9 53       		.byte	0x53
 6267 03fa 1D000000 		.4byte	.LVL57-1
 6268 03fe 68000000 		.4byte	.LFE67
 6269 0402 0400     		.2byte	0x4
 6270 0404 F3       		.byte	0xf3
ARM GAS  C:\Users\Alex\AppData\Local\Temp\cchBAlOP.s 			page 130


 6271 0405 01       		.uleb128 0x1
 6272 0406 53       		.byte	0x53
 6273 0407 9F       		.byte	0x9f
 6274 0408 00000000 		.4byte	0
 6275 040c 00000000 		.4byte	0
 6276              	.LLST24:
 6277 0410 00000000 		.4byte	.LVL53
 6278 0414 64000000 		.4byte	.LVL65
 6279 0418 0200     		.2byte	0x2
 6280 041a 91       		.byte	0x91
 6281 041b 00       		.sleb128 0
 6282 041c 64000000 		.4byte	.LVL65
 6283 0420 68000000 		.4byte	.LFE67
 6284 0424 0200     		.2byte	0x2
 6285 0426 7D       		.byte	0x7d
 6286 0427 00       		.sleb128 0
 6287 0428 00000000 		.4byte	0
 6288 042c 00000000 		.4byte	0
 6289              	.LLST25:
 6290 0430 14000000 		.4byte	.LVL55
 6291 0434 2A000000 		.4byte	.LVL58
 6292 0438 0200     		.2byte	0x2
 6293 043a 30       		.byte	0x30
 6294 043b 9F       		.byte	0x9f
 6295 043c 2A000000 		.4byte	.LVL58
 6296 0440 2E000000 		.4byte	.LVL59
 6297 0444 0200     		.2byte	0x2
 6298 0446 34       		.byte	0x34
 6299 0447 9F       		.byte	0x9f
 6300 0448 2E000000 		.4byte	.LVL59
 6301 044c 52000000 		.4byte	.LVL61
 6302 0450 0200     		.2byte	0x2
 6303 0452 30       		.byte	0x30
 6304 0453 9F       		.byte	0x9f
 6305 0454 52000000 		.4byte	.LVL61
 6306 0458 56000000 		.4byte	.LVL62
 6307 045c 0200     		.2byte	0x2
 6308 045e 36       		.byte	0x36
 6309 045f 9F       		.byte	0x9f
 6310 0460 56000000 		.4byte	.LVL62
 6311 0464 60000000 		.4byte	.LVL64
 6312 0468 0200     		.2byte	0x2
 6313 046a 30       		.byte	0x30
 6314 046b 9F       		.byte	0x9f
 6315 046c 60000000 		.4byte	.LVL64
 6316 0470 68000000 		.4byte	.LFE67
 6317 0474 0100     		.2byte	0x1
 6318 0476 50       		.byte	0x50
 6319 0477 00000000 		.4byte	0
 6320 047b 00000000 		.4byte	0
 6321              	.LLST26:
 6322 047f 00000000 		.4byte	.LVL66
 6323 0483 0E000000 		.4byte	.LVL68
 6324 0487 0100     		.2byte	0x1
 6325 0489 50       		.byte	0x50
 6326 048a 0E000000 		.4byte	.LVL68
 6327 048e 36000000 		.4byte	.LVL75
ARM GAS  C:\Users\Alex\AppData\Local\Temp\cchBAlOP.s 			page 131


 6328 0492 0400     		.2byte	0x4
 6329 0494 F3       		.byte	0xf3
 6330 0495 01       		.uleb128 0x1
 6331 0496 50       		.byte	0x50
 6332 0497 9F       		.byte	0x9f
 6333 0498 36000000 		.4byte	.LVL75
 6334 049c 45000000 		.4byte	.LVL77-1
 6335 04a0 0100     		.2byte	0x1
 6336 04a2 50       		.byte	0x50
 6337 04a3 45000000 		.4byte	.LVL77-1
 6338 04a7 68000000 		.4byte	.LFE68
 6339 04ab 0400     		.2byte	0x4
 6340 04ad F3       		.byte	0xf3
 6341 04ae 01       		.uleb128 0x1
 6342 04af 50       		.byte	0x50
 6343 04b0 9F       		.byte	0x9f
 6344 04b1 00000000 		.4byte	0
 6345 04b5 00000000 		.4byte	0
 6346              	.LLST27:
 6347 04b9 04000000 		.4byte	.LVL67
 6348 04bd 20000000 		.4byte	.LVL69
 6349 04c1 0200     		.2byte	0x2
 6350 04c3 30       		.byte	0x30
 6351 04c4 9F       		.byte	0x9f
 6352 04c5 20000000 		.4byte	.LVL69
 6353 04c9 26000000 		.4byte	.LVL70
 6354 04cd 0100     		.2byte	0x1
 6355 04cf 50       		.byte	0x50
 6356 04d0 2E000000 		.4byte	.LVL72
 6357 04d4 30000000 		.4byte	.LVL73
 6358 04d8 0100     		.2byte	0x1
 6359 04da 50       		.byte	0x50
 6360 04db 30000000 		.4byte	.LVL73
 6361 04df 33000000 		.4byte	.LVL74-1
 6362 04e3 0100     		.2byte	0x1
 6363 04e5 51       		.byte	0x51
 6364 04e6 36000000 		.4byte	.LVL75
 6365 04ea 58000000 		.4byte	.LVL78
 6366 04ee 0200     		.2byte	0x2
 6367 04f0 30       		.byte	0x30
 6368 04f1 9F       		.byte	0x9f
 6369 04f2 00000000 		.4byte	0
 6370 04f6 00000000 		.4byte	0
 6371              	.LLST28:
 6372 04fa 04000000 		.4byte	.LVL67
 6373 04fe 42000000 		.4byte	.LVL76
 6374 0502 0200     		.2byte	0x2
 6375 0504 30       		.byte	0x30
 6376 0505 9F       		.byte	0x9f
 6377 0506 42000000 		.4byte	.LVL76
 6378 050a 58000000 		.4byte	.LVL78
 6379 050e 0100     		.2byte	0x1
 6380 0510 54       		.byte	0x54
 6381 0511 00000000 		.4byte	0
 6382 0515 00000000 		.4byte	0
 6383              	.LLST29:
 6384 0519 00000000 		.4byte	.LVL79
ARM GAS  C:\Users\Alex\AppData\Local\Temp\cchBAlOP.s 			page 132


 6385 051d 20000000 		.4byte	.LVL82
 6386 0521 0100     		.2byte	0x1
 6387 0523 50       		.byte	0x50
 6388 0524 20000000 		.4byte	.LVL82
 6389 0528 34010000 		.4byte	.LFE69
 6390 052c 0400     		.2byte	0x4
 6391 052e F3       		.byte	0xf3
 6392 052f 01       		.uleb128 0x1
 6393 0530 50       		.byte	0x50
 6394 0531 9F       		.byte	0x9f
 6395 0532 00000000 		.4byte	0
 6396 0536 00000000 		.4byte	0
 6397              	.LLST30:
 6398 053a 00000000 		.4byte	.LVL79
 6399 053e 0C000000 		.4byte	.LVL80
 6400 0542 0100     		.2byte	0x1
 6401 0544 51       		.byte	0x51
 6402 0545 0C000000 		.4byte	.LVL80
 6403 0549 34010000 		.4byte	.LFE69
 6404 054d 0400     		.2byte	0x4
 6405 054f F3       		.byte	0xf3
 6406 0550 01       		.uleb128 0x1
 6407 0551 51       		.byte	0x51
 6408 0552 9F       		.byte	0x9f
 6409 0553 00000000 		.4byte	0
 6410 0557 00000000 		.4byte	0
 6411              	.LLST31:
 6412 055b 00000000 		.4byte	.LVL79
 6413 055f 25000000 		.4byte	.LVL83-1
 6414 0563 0100     		.2byte	0x1
 6415 0565 52       		.byte	0x52
 6416 0566 25000000 		.4byte	.LVL83-1
 6417 056a 2E010000 		.4byte	.LVL95
 6418 056e 0100     		.2byte	0x1
 6419 0570 54       		.byte	0x54
 6420 0571 2E010000 		.4byte	.LVL95
 6421 0575 34010000 		.4byte	.LFE69
 6422 0579 0400     		.2byte	0x4
 6423 057b F3       		.byte	0xf3
 6424 057c 01       		.uleb128 0x1
 6425 057d 52       		.byte	0x52
 6426 057e 9F       		.byte	0x9f
 6427 057f 00000000 		.4byte	0
 6428 0583 00000000 		.4byte	0
 6429              	.LLST32:
 6430 0587 00000000 		.4byte	.LVL79
 6431 058b 25000000 		.4byte	.LVL83-1
 6432 058f 0100     		.2byte	0x1
 6433 0591 53       		.byte	0x53
 6434 0592 25000000 		.4byte	.LVL83-1
 6435 0596 34010000 		.4byte	.LFE69
 6436 059a 0400     		.2byte	0x4
 6437 059c F3       		.byte	0xf3
 6438 059d 01       		.uleb128 0x1
 6439 059e 53       		.byte	0x53
 6440 059f 9F       		.byte	0x9f
 6441 05a0 00000000 		.4byte	0
ARM GAS  C:\Users\Alex\AppData\Local\Temp\cchBAlOP.s 			page 133


 6442 05a4 00000000 		.4byte	0
 6443              	.LLST33:
 6444 05a8 00000000 		.4byte	.LVL79
 6445 05ac 2E010000 		.4byte	.LVL95
 6446 05b0 0200     		.2byte	0x2
 6447 05b2 91       		.byte	0x91
 6448 05b3 00       		.sleb128 0
 6449 05b4 2E010000 		.4byte	.LVL95
 6450 05b8 34010000 		.4byte	.LFE69
 6451 05bc 0200     		.2byte	0x2
 6452 05be 7D       		.byte	0x7d
 6453 05bf 00       		.sleb128 0
 6454 05c0 00000000 		.4byte	0
 6455 05c4 00000000 		.4byte	0
 6456              	.LLST34:
 6457 05c8 00000000 		.4byte	.LVL79
 6458 05cc 2E010000 		.4byte	.LVL95
 6459 05d0 0200     		.2byte	0x2
 6460 05d2 91       		.byte	0x91
 6461 05d3 04       		.sleb128 4
 6462 05d4 2E010000 		.4byte	.LVL95
 6463 05d8 34010000 		.4byte	.LFE69
 6464 05dc 0200     		.2byte	0x2
 6465 05de 7D       		.byte	0x7d
 6466 05df 04       		.sleb128 4
 6467 05e0 00000000 		.4byte	0
 6468 05e4 00000000 		.4byte	0
 6469              	.LLST35:
 6470 05e8 00000000 		.4byte	.LVL79
 6471 05ec 2E010000 		.4byte	.LVL95
 6472 05f0 0200     		.2byte	0x2
 6473 05f2 91       		.byte	0x91
 6474 05f3 08       		.sleb128 8
 6475 05f4 2E010000 		.4byte	.LVL95
 6476 05f8 34010000 		.4byte	.LFE69
 6477 05fc 0200     		.2byte	0x2
 6478 05fe 7D       		.byte	0x7d
 6479 05ff 08       		.sleb128 8
 6480 0600 00000000 		.4byte	0
 6481 0604 00000000 		.4byte	0
 6482              	.LLST36:
 6483 0608 00000000 		.4byte	.LVL79
 6484 060c 2E010000 		.4byte	.LVL95
 6485 0610 0200     		.2byte	0x2
 6486 0612 91       		.byte	0x91
 6487 0613 0C       		.sleb128 12
 6488 0614 2E010000 		.4byte	.LVL95
 6489 0618 34010000 		.4byte	.LFE69
 6490 061c 0200     		.2byte	0x2
 6491 061e 7D       		.byte	0x7d
 6492 061f 0C       		.sleb128 12
 6493 0620 00000000 		.4byte	0
 6494 0624 00000000 		.4byte	0
 6495              	.LLST37:
 6496 0628 00000000 		.4byte	.LVL79
 6497 062c 2E010000 		.4byte	.LVL95
 6498 0630 0200     		.2byte	0x2
ARM GAS  C:\Users\Alex\AppData\Local\Temp\cchBAlOP.s 			page 134


 6499 0632 91       		.byte	0x91
 6500 0633 10       		.sleb128 16
 6501 0634 2E010000 		.4byte	.LVL95
 6502 0638 34010000 		.4byte	.LFE69
 6503 063c 0200     		.2byte	0x2
 6504 063e 7D       		.byte	0x7d
 6505 063f 10       		.sleb128 16
 6506 0640 00000000 		.4byte	0
 6507 0644 00000000 		.4byte	0
 6508              	.LLST38:
 6509 0648 1C000000 		.4byte	.LVL81
 6510 064c 32000000 		.4byte	.LVL84
 6511 0650 0200     		.2byte	0x2
 6512 0652 30       		.byte	0x30
 6513 0653 9F       		.byte	0x9f
 6514 0654 32000000 		.4byte	.LVL84
 6515 0658 36000000 		.4byte	.LVL85
 6516 065c 0200     		.2byte	0x2
 6517 065e 34       		.byte	0x34
 6518 065f 9F       		.byte	0x9f
 6519 0660 36000000 		.4byte	.LVL85
 6520 0664 1C010000 		.4byte	.LVL91
 6521 0668 0200     		.2byte	0x2
 6522 066a 30       		.byte	0x30
 6523 066b 9F       		.byte	0x9f
 6524 066c 1C010000 		.4byte	.LVL91
 6525 0670 20010000 		.4byte	.LVL92
 6526 0674 0200     		.2byte	0x2
 6527 0676 48       		.byte	0x48
 6528 0677 9F       		.byte	0x9f
 6529 0678 20010000 		.4byte	.LVL92
 6530 067c 2A010000 		.4byte	.LVL94
 6531 0680 0200     		.2byte	0x2
 6532 0682 30       		.byte	0x30
 6533 0683 9F       		.byte	0x9f
 6534 0684 2A010000 		.4byte	.LVL94
 6535 0688 34010000 		.4byte	.LFE69
 6536 068c 0100     		.2byte	0x1
 6537 068e 50       		.byte	0x50
 6538 068f 00000000 		.4byte	0
 6539 0693 00000000 		.4byte	0
 6540              	.LLST39:
 6541 0697 00000000 		.4byte	.LVL96
 6542 069b 10000000 		.4byte	.LVL98
 6543 069f 0100     		.2byte	0x1
 6544 06a1 50       		.byte	0x50
 6545 06a2 10000000 		.4byte	.LVL98
 6546 06a6 48000000 		.4byte	.LVL105
 6547 06aa 0400     		.2byte	0x4
 6548 06ac F3       		.byte	0xf3
 6549 06ad 01       		.uleb128 0x1
 6550 06ae 50       		.byte	0x50
 6551 06af 9F       		.byte	0x9f
 6552 06b0 48000000 		.4byte	.LVL105
 6553 06b4 9F000000 		.4byte	.LVL111-1
 6554 06b8 0100     		.2byte	0x1
 6555 06ba 50       		.byte	0x50
ARM GAS  C:\Users\Alex\AppData\Local\Temp\cchBAlOP.s 			page 135


 6556 06bb 9F000000 		.4byte	.LVL111-1
 6557 06bf 58010000 		.4byte	.LFE70
 6558 06c3 0400     		.2byte	0x4
 6559 06c5 F3       		.byte	0xf3
 6560 06c6 01       		.uleb128 0x1
 6561 06c7 50       		.byte	0x50
 6562 06c8 9F       		.byte	0x9f
 6563 06c9 00000000 		.4byte	0
 6564 06cd 00000000 		.4byte	0
 6565              	.LLST40:
 6566 06d1 06000000 		.4byte	.LVL97
 6567 06d5 32000000 		.4byte	.LVL99
 6568 06d9 0200     		.2byte	0x2
 6569 06db 30       		.byte	0x30
 6570 06dc 9F       		.byte	0x9f
 6571 06dd 32000000 		.4byte	.LVL99
 6572 06e1 38000000 		.4byte	.LVL100
 6573 06e5 0100     		.2byte	0x1
 6574 06e7 50       		.byte	0x50
 6575 06e8 40000000 		.4byte	.LVL102
 6576 06ec 42000000 		.4byte	.LVL103
 6577 06f0 0100     		.2byte	0x1
 6578 06f2 50       		.byte	0x50
 6579 06f3 42000000 		.4byte	.LVL103
 6580 06f7 45000000 		.4byte	.LVL104-1
 6581 06fb 0100     		.2byte	0x1
 6582 06fd 51       		.byte	0x51
 6583 06fe 48000000 		.4byte	.LVL105
 6584 0702 40010000 		.4byte	.LVL118
 6585 0706 0200     		.2byte	0x2
 6586 0708 30       		.byte	0x30
 6587 0709 9F       		.byte	0x9f
 6588 070a 00000000 		.4byte	0
 6589 070e 00000000 		.4byte	0
 6590              	.LLST41:
 6591 0712 06000000 		.4byte	.LVL97
 6592 0716 4C000000 		.4byte	.LVL106
 6593 071a 0200     		.2byte	0x2
 6594 071c 30       		.byte	0x30
 6595 071d 9F       		.byte	0x9f
 6596 071e 4C000000 		.4byte	.LVL106
 6597 0722 9F000000 		.4byte	.LVL111-1
 6598 0726 2600     		.2byte	0x26
 6599 0728 70       		.byte	0x70
 6600 0729 04       		.sleb128 4
 6601 072a 94       		.byte	0x94
 6602 072b 01       		.byte	0x1
 6603 072c 08       		.byte	0x8
 6604 072d FF       		.byte	0xff
 6605 072e 1A       		.byte	0x1a
 6606 072f 48       		.byte	0x48
 6607 0730 24       		.byte	0x24
 6608 0731 70       		.byte	0x70
 6609 0732 06       		.sleb128 6
 6610 0733 94       		.byte	0x94
 6611 0734 01       		.byte	0x1
 6612 0735 08       		.byte	0x8
ARM GAS  C:\Users\Alex\AppData\Local\Temp\cchBAlOP.s 			page 136


 6613 0736 FF       		.byte	0xff
 6614 0737 1A       		.byte	0x1a
 6615 0738 38       		.byte	0x38
 6616 0739 24       		.byte	0x24
 6617 073a 22       		.byte	0x22
 6618 073b 70       		.byte	0x70
 6619 073c 05       		.sleb128 5
 6620 073d 94       		.byte	0x94
 6621 073e 01       		.byte	0x1
 6622 073f 08       		.byte	0x8
 6623 0740 FF       		.byte	0xff
 6624 0741 1A       		.byte	0x1a
 6625 0742 40       		.byte	0x40
 6626 0743 24       		.byte	0x24
 6627 0744 22       		.byte	0x22
 6628 0745 70       		.byte	0x70
 6629 0746 07       		.sleb128 7
 6630 0747 94       		.byte	0x94
 6631 0748 01       		.byte	0x1
 6632 0749 08       		.byte	0x8
 6633 074a FF       		.byte	0xff
 6634 074b 1A       		.byte	0x1a
 6635 074c 22       		.byte	0x22
 6636 074d 9F       		.byte	0x9f
 6637 074e 00000000 		.4byte	0
 6638 0752 00000000 		.4byte	0
 6639              	.LLST42:
 6640 0756 06000000 		.4byte	.LVL97
 6641 075a 60000000 		.4byte	.LVL107
 6642 075e 0200     		.2byte	0x2
 6643 0760 30       		.byte	0x30
 6644 0761 9F       		.byte	0x9f
 6645 0762 60000000 		.4byte	.LVL107
 6646 0766 40010000 		.4byte	.LVL118
 6647 076a 0100     		.2byte	0x1
 6648 076c 55       		.byte	0x55
 6649 076d 00000000 		.4byte	0
 6650 0771 00000000 		.4byte	0
 6651              	.LLST43:
 6652 0775 06000000 		.4byte	.LVL97
 6653 0779 74000000 		.4byte	.LVL108
 6654 077d 0200     		.2byte	0x2
 6655 077f 30       		.byte	0x30
 6656 0780 9F       		.byte	0x9f
 6657 0781 74000000 		.4byte	.LVL108
 6658 0785 40010000 		.4byte	.LVL118
 6659 0789 0100     		.2byte	0x1
 6660 078b 54       		.byte	0x54
 6661 078c 00000000 		.4byte	0
 6662 0790 00000000 		.4byte	0
 6663              	.LLST44:
 6664 0794 06000000 		.4byte	.LVL97
 6665 0798 88000000 		.4byte	.LVL109
 6666 079c 0200     		.2byte	0x2
 6667 079e 30       		.byte	0x30
 6668 079f 9F       		.byte	0x9f
 6669 07a0 88000000 		.4byte	.LVL109
ARM GAS  C:\Users\Alex\AppData\Local\Temp\cchBAlOP.s 			page 137


 6670 07a4 40010000 		.4byte	.LVL118
 6671 07a8 0100     		.2byte	0x1
 6672 07aa 56       		.byte	0x56
 6673 07ab 00000000 		.4byte	0
 6674 07af 00000000 		.4byte	0
 6675              	.LLST45:
 6676 07b3 06000000 		.4byte	.LVL97
 6677 07b7 9C000000 		.4byte	.LVL110
 6678 07bb 0200     		.2byte	0x2
 6679 07bd 30       		.byte	0x30
 6680 07be 9F       		.byte	0x9f
 6681 07bf 9C000000 		.4byte	.LVL110
 6682 07c3 40010000 		.4byte	.LVL118
 6683 07c7 0100     		.2byte	0x1
 6684 07c9 57       		.byte	0x57
 6685 07ca 00000000 		.4byte	0
 6686 07ce 00000000 		.4byte	0
 6687              	.LLST46:
 6688 07d2 06000000 		.4byte	.LVL97
 6689 07d6 F6000000 		.4byte	.LVL114
 6690 07da 0200     		.2byte	0x2
 6691 07dc 30       		.byte	0x30
 6692 07dd 9F       		.byte	0x9f
 6693 07de F6000000 		.4byte	.LVL114
 6694 07e2 40010000 		.4byte	.LVL118
 6695 07e6 0100     		.2byte	0x1
 6696 07e8 5B       		.byte	0x5b
 6697 07e9 00000000 		.4byte	0
 6698 07ed 00000000 		.4byte	0
 6699              	.LLST47:
 6700 07f1 06000000 		.4byte	.LVL97
 6701 07f5 FE000000 		.4byte	.LVL115
 6702 07f9 0200     		.2byte	0x2
 6703 07fb 30       		.byte	0x30
 6704 07fc 9F       		.byte	0x9f
 6705 07fd FE000000 		.4byte	.LVL115
 6706 0801 40010000 		.4byte	.LVL118
 6707 0805 0100     		.2byte	0x1
 6708 0807 5A       		.byte	0x5a
 6709 0808 00000000 		.4byte	0
 6710 080c 00000000 		.4byte	0
 6711              	.LLST48:
 6712 0810 06000000 		.4byte	.LVL97
 6713 0814 06010000 		.4byte	.LVL116
 6714 0818 0200     		.2byte	0x2
 6715 081a 30       		.byte	0x30
 6716 081b 9F       		.byte	0x9f
 6717 081c 06010000 		.4byte	.LVL116
 6718 0820 40010000 		.4byte	.LVL118
 6719 0824 0100     		.2byte	0x1
 6720 0826 59       		.byte	0x59
 6721 0827 00000000 		.4byte	0
 6722 082b 00000000 		.4byte	0
 6723              	.LLST49:
 6724 082f 00000000 		.4byte	.LVL119
 6725 0833 18000000 		.4byte	.LVL122
 6726 0837 0100     		.2byte	0x1
ARM GAS  C:\Users\Alex\AppData\Local\Temp\cchBAlOP.s 			page 138


 6727 0839 50       		.byte	0x50
 6728 083a 18000000 		.4byte	.LVL122
 6729 083e A0000000 		.4byte	.LFE71
 6730 0842 0400     		.2byte	0x4
 6731 0844 F3       		.byte	0xf3
 6732 0845 01       		.uleb128 0x1
 6733 0846 50       		.byte	0x50
 6734 0847 9F       		.byte	0x9f
 6735 0848 00000000 		.4byte	0
 6736 084c 00000000 		.4byte	0
 6737              	.LLST50:
 6738 0850 00000000 		.4byte	.LVL119
 6739 0854 0C000000 		.4byte	.LVL120
 6740 0858 0100     		.2byte	0x1
 6741 085a 51       		.byte	0x51
 6742 085b 0C000000 		.4byte	.LVL120
 6743 085f A0000000 		.4byte	.LFE71
 6744 0863 0400     		.2byte	0x4
 6745 0865 F3       		.byte	0xf3
 6746 0866 01       		.uleb128 0x1
 6747 0867 51       		.byte	0x51
 6748 0868 9F       		.byte	0x9f
 6749 0869 00000000 		.4byte	0
 6750 086d 00000000 		.4byte	0
 6751              	.LLST51:
 6752 0871 00000000 		.4byte	.LVL119
 6753 0875 1D000000 		.4byte	.LVL123-1
 6754 0879 0100     		.2byte	0x1
 6755 087b 52       		.byte	0x52
 6756 087c 1D000000 		.4byte	.LVL123-1
 6757 0880 9C000000 		.4byte	.LVL133
 6758 0884 0100     		.2byte	0x1
 6759 0886 54       		.byte	0x54
 6760 0887 9C000000 		.4byte	.LVL133
 6761 088b A0000000 		.4byte	.LFE71
 6762 088f 0400     		.2byte	0x4
 6763 0891 F3       		.byte	0xf3
 6764 0892 01       		.uleb128 0x1
 6765 0893 52       		.byte	0x52
 6766 0894 9F       		.byte	0x9f
 6767 0895 00000000 		.4byte	0
 6768 0899 00000000 		.4byte	0
 6769              	.LLST52:
 6770 089d 00000000 		.4byte	.LVL119
 6771 08a1 1D000000 		.4byte	.LVL123-1
 6772 08a5 0100     		.2byte	0x1
 6773 08a7 53       		.byte	0x53
 6774 08a8 1D000000 		.4byte	.LVL123-1
 6775 08ac A0000000 		.4byte	.LFE71
 6776 08b0 0400     		.2byte	0x4
 6777 08b2 F3       		.byte	0xf3
 6778 08b3 01       		.uleb128 0x1
 6779 08b4 53       		.byte	0x53
 6780 08b5 9F       		.byte	0x9f
 6781 08b6 00000000 		.4byte	0
 6782 08ba 00000000 		.4byte	0
 6783              	.LLST53:
ARM GAS  C:\Users\Alex\AppData\Local\Temp\cchBAlOP.s 			page 139


 6784 08be 00000000 		.4byte	.LVL119
 6785 08c2 9C000000 		.4byte	.LVL133
 6786 08c6 0200     		.2byte	0x2
 6787 08c8 91       		.byte	0x91
 6788 08c9 00       		.sleb128 0
 6789 08ca 9C000000 		.4byte	.LVL133
 6790 08ce A0000000 		.4byte	.LFE71
 6791 08d2 0200     		.2byte	0x2
 6792 08d4 7D       		.byte	0x7d
 6793 08d5 00       		.sleb128 0
 6794 08d6 00000000 		.4byte	0
 6795 08da 00000000 		.4byte	0
 6796              	.LLST54:
 6797 08de 00000000 		.4byte	.LVL119
 6798 08e2 9C000000 		.4byte	.LVL133
 6799 08e6 0200     		.2byte	0x2
 6800 08e8 91       		.byte	0x91
 6801 08e9 04       		.sleb128 4
 6802 08ea 9C000000 		.4byte	.LVL133
 6803 08ee A0000000 		.4byte	.LFE71
 6804 08f2 0200     		.2byte	0x2
 6805 08f4 7D       		.byte	0x7d
 6806 08f5 04       		.sleb128 4
 6807 08f6 00000000 		.4byte	0
 6808 08fa 00000000 		.4byte	0
 6809              	.LLST55:
 6810 08fe 00000000 		.4byte	.LVL119
 6811 0902 9C000000 		.4byte	.LVL133
 6812 0906 0200     		.2byte	0x2
 6813 0908 91       		.byte	0x91
 6814 0909 08       		.sleb128 8
 6815 090a 9C000000 		.4byte	.LVL133
 6816 090e A0000000 		.4byte	.LFE71
 6817 0912 0200     		.2byte	0x2
 6818 0914 7D       		.byte	0x7d
 6819 0915 08       		.sleb128 8
 6820 0916 00000000 		.4byte	0
 6821 091a 00000000 		.4byte	0
 6822              	.LLST56:
 6823 091e 14000000 		.4byte	.LVL121
 6824 0922 2A000000 		.4byte	.LVL124
 6825 0926 0200     		.2byte	0x2
 6826 0928 30       		.byte	0x30
 6827 0929 9F       		.byte	0x9f
 6828 092a 2A000000 		.4byte	.LVL124
 6829 092e 2E000000 		.4byte	.LVL125
 6830 0932 0200     		.2byte	0x2
 6831 0934 34       		.byte	0x34
 6832 0935 9F       		.byte	0x9f
 6833 0936 2E000000 		.4byte	.LVL125
 6834 093a 8A000000 		.4byte	.LVL129
 6835 093e 0200     		.2byte	0x2
 6836 0940 30       		.byte	0x30
 6837 0941 9F       		.byte	0x9f
 6838 0942 8A000000 		.4byte	.LVL129
 6839 0946 8E000000 		.4byte	.LVL130
 6840 094a 0200     		.2byte	0x2
ARM GAS  C:\Users\Alex\AppData\Local\Temp\cchBAlOP.s 			page 140


 6841 094c 3A       		.byte	0x3a
 6842 094d 9F       		.byte	0x9f
 6843 094e 8E000000 		.4byte	.LVL130
 6844 0952 98000000 		.4byte	.LVL132
 6845 0956 0200     		.2byte	0x2
 6846 0958 30       		.byte	0x30
 6847 0959 9F       		.byte	0x9f
 6848 095a 98000000 		.4byte	.LVL132
 6849 095e A0000000 		.4byte	.LFE71
 6850 0962 0100     		.2byte	0x1
 6851 0964 50       		.byte	0x50
 6852 0965 00000000 		.4byte	0
 6853 0969 00000000 		.4byte	0
 6854              	.LLST57:
 6855 096d 00000000 		.4byte	.LVL134
 6856 0971 0E000000 		.4byte	.LVL136
 6857 0975 0100     		.2byte	0x1
 6858 0977 50       		.byte	0x50
 6859 0978 0E000000 		.4byte	.LVL136
 6860 097c 44000000 		.4byte	.LVL143
 6861 0980 0400     		.2byte	0x4
 6862 0982 F3       		.byte	0xf3
 6863 0983 01       		.uleb128 0x1
 6864 0984 50       		.byte	0x50
 6865 0985 9F       		.byte	0x9f
 6866 0986 44000000 		.4byte	.LVL143
 6867 098a 67000000 		.4byte	.LVL147-1
 6868 098e 0100     		.2byte	0x1
 6869 0990 50       		.byte	0x50
 6870 0991 67000000 		.4byte	.LVL147-1
 6871 0995 8C000000 		.4byte	.LFE72
 6872 0999 0400     		.2byte	0x4
 6873 099b F3       		.byte	0xf3
 6874 099c 01       		.uleb128 0x1
 6875 099d 50       		.byte	0x50
 6876 099e 9F       		.byte	0x9f
 6877 099f 00000000 		.4byte	0
 6878 09a3 00000000 		.4byte	0
 6879              	.LLST58:
 6880 09a7 04000000 		.4byte	.LVL135
 6881 09ab 2E000000 		.4byte	.LVL137
 6882 09af 0200     		.2byte	0x2
 6883 09b1 30       		.byte	0x30
 6884 09b2 9F       		.byte	0x9f
 6885 09b3 2E000000 		.4byte	.LVL137
 6886 09b7 34000000 		.4byte	.LVL138
 6887 09bb 0100     		.2byte	0x1
 6888 09bd 50       		.byte	0x50
 6889 09be 3C000000 		.4byte	.LVL140
 6890 09c2 3E000000 		.4byte	.LVL141
 6891 09c6 0100     		.2byte	0x1
 6892 09c8 50       		.byte	0x50
 6893 09c9 3E000000 		.4byte	.LVL141
 6894 09cd 41000000 		.4byte	.LVL142-1
 6895 09d1 0100     		.2byte	0x1
 6896 09d3 51       		.byte	0x51
 6897 09d4 44000000 		.4byte	.LVL143
ARM GAS  C:\Users\Alex\AppData\Local\Temp\cchBAlOP.s 			page 141


 6898 09d8 7C000000 		.4byte	.LVL149
 6899 09dc 0200     		.2byte	0x2
 6900 09de 30       		.byte	0x30
 6901 09df 9F       		.byte	0x9f
 6902 09e0 00000000 		.4byte	0
 6903 09e4 00000000 		.4byte	0
 6904              	.LLST59:
 6905 09e8 04000000 		.4byte	.LVL135
 6906 09ec 50000000 		.4byte	.LVL144
 6907 09f0 0200     		.2byte	0x2
 6908 09f2 30       		.byte	0x30
 6909 09f3 9F       		.byte	0x9f
 6910 09f4 50000000 		.4byte	.LVL144
 6911 09f8 7C000000 		.4byte	.LVL149
 6912 09fc 0100     		.2byte	0x1
 6913 09fe 56       		.byte	0x56
 6914 09ff 00000000 		.4byte	0
 6915 0a03 00000000 		.4byte	0
 6916              	.LLST60:
 6917 0a07 04000000 		.4byte	.LVL135
 6918 0a0b 5A000000 		.4byte	.LVL145
 6919 0a0f 0200     		.2byte	0x2
 6920 0a11 30       		.byte	0x30
 6921 0a12 9F       		.byte	0x9f
 6922 0a13 5A000000 		.4byte	.LVL145
 6923 0a17 7C000000 		.4byte	.LVL149
 6924 0a1b 0100     		.2byte	0x1
 6925 0a1d 55       		.byte	0x55
 6926 0a1e 00000000 		.4byte	0
 6927 0a22 00000000 		.4byte	0
 6928              	.LLST61:
 6929 0a26 04000000 		.4byte	.LVL135
 6930 0a2a 64000000 		.4byte	.LVL146
 6931 0a2e 0200     		.2byte	0x2
 6932 0a30 30       		.byte	0x30
 6933 0a31 9F       		.byte	0x9f
 6934 0a32 64000000 		.4byte	.LVL146
 6935 0a36 7C000000 		.4byte	.LVL149
 6936 0a3a 0100     		.2byte	0x1
 6937 0a3c 54       		.byte	0x54
 6938 0a3d 00000000 		.4byte	0
 6939 0a41 00000000 		.4byte	0
 6940              	.LLST62:
 6941 0a45 00000000 		.4byte	.LVL150
 6942 0a49 18000000 		.4byte	.LVL153
 6943 0a4d 0100     		.2byte	0x1
 6944 0a4f 50       		.byte	0x50
 6945 0a50 18000000 		.4byte	.LVL153
 6946 0a54 A0000000 		.4byte	.LFE73
 6947 0a58 0400     		.2byte	0x4
 6948 0a5a F3       		.byte	0xf3
 6949 0a5b 01       		.uleb128 0x1
 6950 0a5c 50       		.byte	0x50
 6951 0a5d 9F       		.byte	0x9f
 6952 0a5e 00000000 		.4byte	0
 6953 0a62 00000000 		.4byte	0
 6954              	.LLST63:
ARM GAS  C:\Users\Alex\AppData\Local\Temp\cchBAlOP.s 			page 142


 6955 0a66 00000000 		.4byte	.LVL150
 6956 0a6a 0C000000 		.4byte	.LVL151
 6957 0a6e 0100     		.2byte	0x1
 6958 0a70 51       		.byte	0x51
 6959 0a71 0C000000 		.4byte	.LVL151
 6960 0a75 A0000000 		.4byte	.LFE73
 6961 0a79 0400     		.2byte	0x4
 6962 0a7b F3       		.byte	0xf3
 6963 0a7c 01       		.uleb128 0x1
 6964 0a7d 51       		.byte	0x51
 6965 0a7e 9F       		.byte	0x9f
 6966 0a7f 00000000 		.4byte	0
 6967 0a83 00000000 		.4byte	0
 6968              	.LLST64:
 6969 0a87 00000000 		.4byte	.LVL150
 6970 0a8b 1D000000 		.4byte	.LVL154-1
 6971 0a8f 0100     		.2byte	0x1
 6972 0a91 52       		.byte	0x52
 6973 0a92 1D000000 		.4byte	.LVL154-1
 6974 0a96 9C000000 		.4byte	.LVL164
 6975 0a9a 0100     		.2byte	0x1
 6976 0a9c 54       		.byte	0x54
 6977 0a9d 9C000000 		.4byte	.LVL164
 6978 0aa1 A0000000 		.4byte	.LFE73
 6979 0aa5 0400     		.2byte	0x4
 6980 0aa7 F3       		.byte	0xf3
 6981 0aa8 01       		.uleb128 0x1
 6982 0aa9 52       		.byte	0x52
 6983 0aaa 9F       		.byte	0x9f
 6984 0aab 00000000 		.4byte	0
 6985 0aaf 00000000 		.4byte	0
 6986              	.LLST65:
 6987 0ab3 00000000 		.4byte	.LVL150
 6988 0ab7 1D000000 		.4byte	.LVL154-1
 6989 0abb 0100     		.2byte	0x1
 6990 0abd 53       		.byte	0x53
 6991 0abe 1D000000 		.4byte	.LVL154-1
 6992 0ac2 A0000000 		.4byte	.LFE73
 6993 0ac6 0400     		.2byte	0x4
 6994 0ac8 F3       		.byte	0xf3
 6995 0ac9 01       		.uleb128 0x1
 6996 0aca 53       		.byte	0x53
 6997 0acb 9F       		.byte	0x9f
 6998 0acc 00000000 		.4byte	0
 6999 0ad0 00000000 		.4byte	0
 7000              	.LLST66:
 7001 0ad4 00000000 		.4byte	.LVL150
 7002 0ad8 9C000000 		.4byte	.LVL164
 7003 0adc 0200     		.2byte	0x2
 7004 0ade 91       		.byte	0x91
 7005 0adf 00       		.sleb128 0
 7006 0ae0 9C000000 		.4byte	.LVL164
 7007 0ae4 A0000000 		.4byte	.LFE73
 7008 0ae8 0200     		.2byte	0x2
 7009 0aea 7D       		.byte	0x7d
 7010 0aeb 00       		.sleb128 0
 7011 0aec 00000000 		.4byte	0
ARM GAS  C:\Users\Alex\AppData\Local\Temp\cchBAlOP.s 			page 143


 7012 0af0 00000000 		.4byte	0
 7013              	.LLST67:
 7014 0af4 00000000 		.4byte	.LVL150
 7015 0af8 9C000000 		.4byte	.LVL164
 7016 0afc 0200     		.2byte	0x2
 7017 0afe 91       		.byte	0x91
 7018 0aff 04       		.sleb128 4
 7019 0b00 9C000000 		.4byte	.LVL164
 7020 0b04 A0000000 		.4byte	.LFE73
 7021 0b08 0200     		.2byte	0x2
 7022 0b0a 7D       		.byte	0x7d
 7023 0b0b 04       		.sleb128 4
 7024 0b0c 00000000 		.4byte	0
 7025 0b10 00000000 		.4byte	0
 7026              	.LLST68:
 7027 0b14 00000000 		.4byte	.LVL150
 7028 0b18 9C000000 		.4byte	.LVL164
 7029 0b1c 0200     		.2byte	0x2
 7030 0b1e 91       		.byte	0x91
 7031 0b1f 08       		.sleb128 8
 7032 0b20 9C000000 		.4byte	.LVL164
 7033 0b24 A0000000 		.4byte	.LFE73
 7034 0b28 0200     		.2byte	0x2
 7035 0b2a 7D       		.byte	0x7d
 7036 0b2b 08       		.sleb128 8
 7037 0b2c 00000000 		.4byte	0
 7038 0b30 00000000 		.4byte	0
 7039              	.LLST69:
 7040 0b34 14000000 		.4byte	.LVL152
 7041 0b38 2A000000 		.4byte	.LVL155
 7042 0b3c 0200     		.2byte	0x2
 7043 0b3e 30       		.byte	0x30
 7044 0b3f 9F       		.byte	0x9f
 7045 0b40 2A000000 		.4byte	.LVL155
 7046 0b44 2E000000 		.4byte	.LVL156
 7047 0b48 0200     		.2byte	0x2
 7048 0b4a 34       		.byte	0x34
 7049 0b4b 9F       		.byte	0x9f
 7050 0b4c 2E000000 		.4byte	.LVL156
 7051 0b50 8A000000 		.4byte	.LVL160
 7052 0b54 0200     		.2byte	0x2
 7053 0b56 30       		.byte	0x30
 7054 0b57 9F       		.byte	0x9f
 7055 0b58 8A000000 		.4byte	.LVL160
 7056 0b5c 8E000000 		.4byte	.LVL161
 7057 0b60 0200     		.2byte	0x2
 7058 0b62 3A       		.byte	0x3a
 7059 0b63 9F       		.byte	0x9f
 7060 0b64 8E000000 		.4byte	.LVL161
 7061 0b68 98000000 		.4byte	.LVL163
 7062 0b6c 0200     		.2byte	0x2
 7063 0b6e 30       		.byte	0x30
 7064 0b6f 9F       		.byte	0x9f
 7065 0b70 98000000 		.4byte	.LVL163
 7066 0b74 A0000000 		.4byte	.LFE73
 7067 0b78 0100     		.2byte	0x1
 7068 0b7a 50       		.byte	0x50
ARM GAS  C:\Users\Alex\AppData\Local\Temp\cchBAlOP.s 			page 144


 7069 0b7b 00000000 		.4byte	0
 7070 0b7f 00000000 		.4byte	0
 7071              	.LLST70:
 7072 0b83 00000000 		.4byte	.LVL165
 7073 0b87 0E000000 		.4byte	.LVL167
 7074 0b8b 0100     		.2byte	0x1
 7075 0b8d 50       		.byte	0x50
 7076 0b8e 0E000000 		.4byte	.LVL167
 7077 0b92 4A000000 		.4byte	.LVL174
 7078 0b96 0400     		.2byte	0x4
 7079 0b98 F3       		.byte	0xf3
 7080 0b99 01       		.uleb128 0x1
 7081 0b9a 50       		.byte	0x50
 7082 0b9b 9F       		.byte	0x9f
 7083 0b9c 4A000000 		.4byte	.LVL174
 7084 0ba0 6D000000 		.4byte	.LVL178-1
 7085 0ba4 0100     		.2byte	0x1
 7086 0ba6 50       		.byte	0x50
 7087 0ba7 6D000000 		.4byte	.LVL178-1
 7088 0bab 98000000 		.4byte	.LFE74
 7089 0baf 0400     		.2byte	0x4
 7090 0bb1 F3       		.byte	0xf3
 7091 0bb2 01       		.uleb128 0x1
 7092 0bb3 50       		.byte	0x50
 7093 0bb4 9F       		.byte	0x9f
 7094 0bb5 00000000 		.4byte	0
 7095 0bb9 00000000 		.4byte	0
 7096              	.LLST71:
 7097 0bbd 04000000 		.4byte	.LVL166
 7098 0bc1 34000000 		.4byte	.LVL168
 7099 0bc5 0200     		.2byte	0x2
 7100 0bc7 30       		.byte	0x30
 7101 0bc8 9F       		.byte	0x9f
 7102 0bc9 34000000 		.4byte	.LVL168
 7103 0bcd 3A000000 		.4byte	.LVL169
 7104 0bd1 0100     		.2byte	0x1
 7105 0bd3 50       		.byte	0x50
 7106 0bd4 42000000 		.4byte	.LVL171
 7107 0bd8 44000000 		.4byte	.LVL172
 7108 0bdc 0100     		.2byte	0x1
 7109 0bde 50       		.byte	0x50
 7110 0bdf 44000000 		.4byte	.LVL172
 7111 0be3 47000000 		.4byte	.LVL173-1
 7112 0be7 0100     		.2byte	0x1
 7113 0be9 51       		.byte	0x51
 7114 0bea 4A000000 		.4byte	.LVL174
 7115 0bee 88000000 		.4byte	.LVL180
 7116 0bf2 0200     		.2byte	0x2
 7117 0bf4 30       		.byte	0x30
 7118 0bf5 9F       		.byte	0x9f
 7119 0bf6 00000000 		.4byte	0
 7120 0bfa 00000000 		.4byte	0
 7121              	.LLST72:
 7122 0bfe 04000000 		.4byte	.LVL166
 7123 0c02 56000000 		.4byte	.LVL175
 7124 0c06 0200     		.2byte	0x2
 7125 0c08 30       		.byte	0x30
ARM GAS  C:\Users\Alex\AppData\Local\Temp\cchBAlOP.s 			page 145


 7126 0c09 9F       		.byte	0x9f
 7127 0c0a 56000000 		.4byte	.LVL175
 7128 0c0e 88000000 		.4byte	.LVL180
 7129 0c12 0100     		.2byte	0x1
 7130 0c14 56       		.byte	0x56
 7131 0c15 00000000 		.4byte	0
 7132 0c19 00000000 		.4byte	0
 7133              	.LLST73:
 7134 0c1d 04000000 		.4byte	.LVL166
 7135 0c21 60000000 		.4byte	.LVL176
 7136 0c25 0200     		.2byte	0x2
 7137 0c27 30       		.byte	0x30
 7138 0c28 9F       		.byte	0x9f
 7139 0c29 60000000 		.4byte	.LVL176
 7140 0c2d 88000000 		.4byte	.LVL180
 7141 0c31 0100     		.2byte	0x1
 7142 0c33 55       		.byte	0x55
 7143 0c34 00000000 		.4byte	0
 7144 0c38 00000000 		.4byte	0
 7145              	.LLST74:
 7146 0c3c 04000000 		.4byte	.LVL166
 7147 0c40 6A000000 		.4byte	.LVL177
 7148 0c44 0200     		.2byte	0x2
 7149 0c46 30       		.byte	0x30
 7150 0c47 9F       		.byte	0x9f
 7151 0c48 6A000000 		.4byte	.LVL177
 7152 0c4c 88000000 		.4byte	.LVL180
 7153 0c50 0100     		.2byte	0x1
 7154 0c52 54       		.byte	0x54
 7155 0c53 00000000 		.4byte	0
 7156 0c57 00000000 		.4byte	0
 7157              	.LLST75:
 7158 0c5b 00000000 		.4byte	.LVL181
 7159 0c5f 18000000 		.4byte	.LVL184
 7160 0c63 0100     		.2byte	0x1
 7161 0c65 50       		.byte	0x50
 7162 0c66 18000000 		.4byte	.LVL184
 7163 0c6a A0000000 		.4byte	.LFE75
 7164 0c6e 0400     		.2byte	0x4
 7165 0c70 F3       		.byte	0xf3
 7166 0c71 01       		.uleb128 0x1
 7167 0c72 50       		.byte	0x50
 7168 0c73 9F       		.byte	0x9f
 7169 0c74 00000000 		.4byte	0
 7170 0c78 00000000 		.4byte	0
 7171              	.LLST76:
 7172 0c7c 00000000 		.4byte	.LVL181
 7173 0c80 0C000000 		.4byte	.LVL182
 7174 0c84 0100     		.2byte	0x1
 7175 0c86 51       		.byte	0x51
 7176 0c87 0C000000 		.4byte	.LVL182
 7177 0c8b A0000000 		.4byte	.LFE75
 7178 0c8f 0400     		.2byte	0x4
 7179 0c91 F3       		.byte	0xf3
 7180 0c92 01       		.uleb128 0x1
 7181 0c93 51       		.byte	0x51
 7182 0c94 9F       		.byte	0x9f
ARM GAS  C:\Users\Alex\AppData\Local\Temp\cchBAlOP.s 			page 146


 7183 0c95 00000000 		.4byte	0
 7184 0c99 00000000 		.4byte	0
 7185              	.LLST77:
 7186 0c9d 00000000 		.4byte	.LVL181
 7187 0ca1 1D000000 		.4byte	.LVL185-1
 7188 0ca5 0100     		.2byte	0x1
 7189 0ca7 52       		.byte	0x52
 7190 0ca8 1D000000 		.4byte	.LVL185-1
 7191 0cac 9C000000 		.4byte	.LVL195
 7192 0cb0 0100     		.2byte	0x1
 7193 0cb2 54       		.byte	0x54
 7194 0cb3 9C000000 		.4byte	.LVL195
 7195 0cb7 A0000000 		.4byte	.LFE75
 7196 0cbb 0400     		.2byte	0x4
 7197 0cbd F3       		.byte	0xf3
 7198 0cbe 01       		.uleb128 0x1
 7199 0cbf 52       		.byte	0x52
 7200 0cc0 9F       		.byte	0x9f
 7201 0cc1 00000000 		.4byte	0
 7202 0cc5 00000000 		.4byte	0
 7203              	.LLST78:
 7204 0cc9 00000000 		.4byte	.LVL181
 7205 0ccd 1D000000 		.4byte	.LVL185-1
 7206 0cd1 0100     		.2byte	0x1
 7207 0cd3 53       		.byte	0x53
 7208 0cd4 1D000000 		.4byte	.LVL185-1
 7209 0cd8 A0000000 		.4byte	.LFE75
 7210 0cdc 0400     		.2byte	0x4
 7211 0cde F3       		.byte	0xf3
 7212 0cdf 01       		.uleb128 0x1
 7213 0ce0 53       		.byte	0x53
 7214 0ce1 9F       		.byte	0x9f
 7215 0ce2 00000000 		.4byte	0
 7216 0ce6 00000000 		.4byte	0
 7217              	.LLST79:
 7218 0cea 00000000 		.4byte	.LVL181
 7219 0cee 9C000000 		.4byte	.LVL195
 7220 0cf2 0200     		.2byte	0x2
 7221 0cf4 91       		.byte	0x91
 7222 0cf5 00       		.sleb128 0
 7223 0cf6 9C000000 		.4byte	.LVL195
 7224 0cfa A0000000 		.4byte	.LFE75
 7225 0cfe 0200     		.2byte	0x2
 7226 0d00 7D       		.byte	0x7d
 7227 0d01 00       		.sleb128 0
 7228 0d02 00000000 		.4byte	0
 7229 0d06 00000000 		.4byte	0
 7230              	.LLST80:
 7231 0d0a 00000000 		.4byte	.LVL181
 7232 0d0e 9C000000 		.4byte	.LVL195
 7233 0d12 0200     		.2byte	0x2
 7234 0d14 91       		.byte	0x91
 7235 0d15 04       		.sleb128 4
 7236 0d16 9C000000 		.4byte	.LVL195
 7237 0d1a A0000000 		.4byte	.LFE75
 7238 0d1e 0200     		.2byte	0x2
 7239 0d20 7D       		.byte	0x7d
ARM GAS  C:\Users\Alex\AppData\Local\Temp\cchBAlOP.s 			page 147


 7240 0d21 04       		.sleb128 4
 7241 0d22 00000000 		.4byte	0
 7242 0d26 00000000 		.4byte	0
 7243              	.LLST81:
 7244 0d2a 00000000 		.4byte	.LVL181
 7245 0d2e 9C000000 		.4byte	.LVL195
 7246 0d32 0200     		.2byte	0x2
 7247 0d34 91       		.byte	0x91
 7248 0d35 08       		.sleb128 8
 7249 0d36 9C000000 		.4byte	.LVL195
 7250 0d3a A0000000 		.4byte	.LFE75
 7251 0d3e 0200     		.2byte	0x2
 7252 0d40 7D       		.byte	0x7d
 7253 0d41 08       		.sleb128 8
 7254 0d42 00000000 		.4byte	0
 7255 0d46 00000000 		.4byte	0
 7256              	.LLST82:
 7257 0d4a 14000000 		.4byte	.LVL183
 7258 0d4e 2A000000 		.4byte	.LVL186
 7259 0d52 0200     		.2byte	0x2
 7260 0d54 30       		.byte	0x30
 7261 0d55 9F       		.byte	0x9f
 7262 0d56 2A000000 		.4byte	.LVL186
 7263 0d5a 2E000000 		.4byte	.LVL187
 7264 0d5e 0200     		.2byte	0x2
 7265 0d60 34       		.byte	0x34
 7266 0d61 9F       		.byte	0x9f
 7267 0d62 2E000000 		.4byte	.LVL187
 7268 0d66 8A000000 		.4byte	.LVL191
 7269 0d6a 0200     		.2byte	0x2
 7270 0d6c 30       		.byte	0x30
 7271 0d6d 9F       		.byte	0x9f
 7272 0d6e 8A000000 		.4byte	.LVL191
 7273 0d72 8E000000 		.4byte	.LVL192
 7274 0d76 0200     		.2byte	0x2
 7275 0d78 3A       		.byte	0x3a
 7276 0d79 9F       		.byte	0x9f
 7277 0d7a 8E000000 		.4byte	.LVL192
 7278 0d7e 98000000 		.4byte	.LVL194
 7279 0d82 0200     		.2byte	0x2
 7280 0d84 30       		.byte	0x30
 7281 0d85 9F       		.byte	0x9f
 7282 0d86 98000000 		.4byte	.LVL194
 7283 0d8a A0000000 		.4byte	.LFE75
 7284 0d8e 0100     		.2byte	0x1
 7285 0d90 50       		.byte	0x50
 7286 0d91 00000000 		.4byte	0
 7287 0d95 00000000 		.4byte	0
 7288              	.LLST83:
 7289 0d99 00000000 		.4byte	.LVL196
 7290 0d9d 0E000000 		.4byte	.LVL198
 7291 0da1 0100     		.2byte	0x1
 7292 0da3 50       		.byte	0x50
 7293 0da4 0E000000 		.4byte	.LVL198
 7294 0da8 4A000000 		.4byte	.LVL205
 7295 0dac 0400     		.2byte	0x4
 7296 0dae F3       		.byte	0xf3
ARM GAS  C:\Users\Alex\AppData\Local\Temp\cchBAlOP.s 			page 148


 7297 0daf 01       		.uleb128 0x1
 7298 0db0 50       		.byte	0x50
 7299 0db1 9F       		.byte	0x9f
 7300 0db2 4A000000 		.4byte	.LVL205
 7301 0db6 6D000000 		.4byte	.LVL209-1
 7302 0dba 0100     		.2byte	0x1
 7303 0dbc 50       		.byte	0x50
 7304 0dbd 6D000000 		.4byte	.LVL209-1
 7305 0dc1 98000000 		.4byte	.LFE76
 7306 0dc5 0400     		.2byte	0x4
 7307 0dc7 F3       		.byte	0xf3
 7308 0dc8 01       		.uleb128 0x1
 7309 0dc9 50       		.byte	0x50
 7310 0dca 9F       		.byte	0x9f
 7311 0dcb 00000000 		.4byte	0
 7312 0dcf 00000000 		.4byte	0
 7313              	.LLST84:
 7314 0dd3 04000000 		.4byte	.LVL197
 7315 0dd7 34000000 		.4byte	.LVL199
 7316 0ddb 0200     		.2byte	0x2
 7317 0ddd 30       		.byte	0x30
 7318 0dde 9F       		.byte	0x9f
 7319 0ddf 34000000 		.4byte	.LVL199
 7320 0de3 3A000000 		.4byte	.LVL200
 7321 0de7 0100     		.2byte	0x1
 7322 0de9 50       		.byte	0x50
 7323 0dea 42000000 		.4byte	.LVL202
 7324 0dee 44000000 		.4byte	.LVL203
 7325 0df2 0100     		.2byte	0x1
 7326 0df4 50       		.byte	0x50
 7327 0df5 44000000 		.4byte	.LVL203
 7328 0df9 47000000 		.4byte	.LVL204-1
 7329 0dfd 0100     		.2byte	0x1
 7330 0dff 51       		.byte	0x51
 7331 0e00 4A000000 		.4byte	.LVL205
 7332 0e04 88000000 		.4byte	.LVL211
 7333 0e08 0200     		.2byte	0x2
 7334 0e0a 30       		.byte	0x30
 7335 0e0b 9F       		.byte	0x9f
 7336 0e0c 00000000 		.4byte	0
 7337 0e10 00000000 		.4byte	0
 7338              	.LLST85:
 7339 0e14 04000000 		.4byte	.LVL197
 7340 0e18 56000000 		.4byte	.LVL206
 7341 0e1c 0200     		.2byte	0x2
 7342 0e1e 30       		.byte	0x30
 7343 0e1f 9F       		.byte	0x9f
 7344 0e20 56000000 		.4byte	.LVL206
 7345 0e24 88000000 		.4byte	.LVL211
 7346 0e28 0100     		.2byte	0x1
 7347 0e2a 56       		.byte	0x56
 7348 0e2b 00000000 		.4byte	0
 7349 0e2f 00000000 		.4byte	0
 7350              	.LLST86:
 7351 0e33 04000000 		.4byte	.LVL197
 7352 0e37 60000000 		.4byte	.LVL207
 7353 0e3b 0200     		.2byte	0x2
ARM GAS  C:\Users\Alex\AppData\Local\Temp\cchBAlOP.s 			page 149


 7354 0e3d 30       		.byte	0x30
 7355 0e3e 9F       		.byte	0x9f
 7356 0e3f 60000000 		.4byte	.LVL207
 7357 0e43 88000000 		.4byte	.LVL211
 7358 0e47 0100     		.2byte	0x1
 7359 0e49 55       		.byte	0x55
 7360 0e4a 00000000 		.4byte	0
 7361 0e4e 00000000 		.4byte	0
 7362              	.LLST87:
 7363 0e52 04000000 		.4byte	.LVL197
 7364 0e56 6A000000 		.4byte	.LVL208
 7365 0e5a 0200     		.2byte	0x2
 7366 0e5c 30       		.byte	0x30
 7367 0e5d 9F       		.byte	0x9f
 7368 0e5e 6A000000 		.4byte	.LVL208
 7369 0e62 88000000 		.4byte	.LVL211
 7370 0e66 0100     		.2byte	0x1
 7371 0e68 54       		.byte	0x54
 7372 0e69 00000000 		.4byte	0
 7373 0e6d 00000000 		.4byte	0
 7374              	.LLST88:
 7375 0e71 00000000 		.4byte	.LVL212
 7376 0e75 24000000 		.4byte	.LVL215
 7377 0e79 0100     		.2byte	0x1
 7378 0e7b 50       		.byte	0x50
 7379 0e7c 24000000 		.4byte	.LVL215
 7380 0e80 DC010000 		.4byte	.LFE77
 7381 0e84 0400     		.2byte	0x4
 7382 0e86 F3       		.byte	0xf3
 7383 0e87 01       		.uleb128 0x1
 7384 0e88 50       		.byte	0x50
 7385 0e89 9F       		.byte	0x9f
 7386 0e8a 00000000 		.4byte	0
 7387 0e8e 00000000 		.4byte	0
 7388              	.LLST89:
 7389 0e92 00000000 		.4byte	.LVL212
 7390 0e96 10000000 		.4byte	.LVL213
 7391 0e9a 0100     		.2byte	0x1
 7392 0e9c 51       		.byte	0x51
 7393 0e9d 10000000 		.4byte	.LVL213
 7394 0ea1 DC010000 		.4byte	.LFE77
 7395 0ea5 0400     		.2byte	0x4
 7396 0ea7 F3       		.byte	0xf3
 7397 0ea8 01       		.uleb128 0x1
 7398 0ea9 51       		.byte	0x51
 7399 0eaa 9F       		.byte	0x9f
 7400 0eab 00000000 		.4byte	0
 7401 0eaf 00000000 		.4byte	0
 7402              	.LLST90:
 7403 0eb3 00000000 		.4byte	.LVL212
 7404 0eb7 29000000 		.4byte	.LVL216-1
 7405 0ebb 0100     		.2byte	0x1
 7406 0ebd 52       		.byte	0x52
 7407 0ebe 29000000 		.4byte	.LVL216-1
 7408 0ec2 CE010000 		.4byte	.LVL234
 7409 0ec6 0100     		.2byte	0x1
 7410 0ec8 54       		.byte	0x54
ARM GAS  C:\Users\Alex\AppData\Local\Temp\cchBAlOP.s 			page 150


 7411 0ec9 CE010000 		.4byte	.LVL234
 7412 0ecd DC010000 		.4byte	.LFE77
 7413 0ed1 0400     		.2byte	0x4
 7414 0ed3 F3       		.byte	0xf3
 7415 0ed4 01       		.uleb128 0x1
 7416 0ed5 52       		.byte	0x52
 7417 0ed6 9F       		.byte	0x9f
 7418 0ed7 00000000 		.4byte	0
 7419 0edb 00000000 		.4byte	0
 7420              	.LLST91:
 7421 0edf 00000000 		.4byte	.LVL212
 7422 0ee3 29000000 		.4byte	.LVL216-1
 7423 0ee7 0100     		.2byte	0x1
 7424 0ee9 53       		.byte	0x53
 7425 0eea 29000000 		.4byte	.LVL216-1
 7426 0eee DC010000 		.4byte	.LFE77
 7427 0ef2 0400     		.2byte	0x4
 7428 0ef4 F3       		.byte	0xf3
 7429 0ef5 01       		.uleb128 0x1
 7430 0ef6 53       		.byte	0x53
 7431 0ef7 9F       		.byte	0x9f
 7432 0ef8 00000000 		.4byte	0
 7433 0efc 00000000 		.4byte	0
 7434              	.LLST92:
 7435 0f00 00000000 		.4byte	.LVL212
 7436 0f04 CE010000 		.4byte	.LVL234
 7437 0f08 0200     		.2byte	0x2
 7438 0f0a 91       		.byte	0x91
 7439 0f0b 00       		.sleb128 0
 7440 0f0c CE010000 		.4byte	.LVL234
 7441 0f10 DC010000 		.4byte	.LFE77
 7442 0f14 0200     		.2byte	0x2
 7443 0f16 7D       		.byte	0x7d
 7444 0f17 00       		.sleb128 0
 7445 0f18 00000000 		.4byte	0
 7446 0f1c 00000000 		.4byte	0
 7447              	.LLST93:
 7448 0f20 20000000 		.4byte	.LVL214
 7449 0f24 36000000 		.4byte	.LVL217
 7450 0f28 0200     		.2byte	0x2
 7451 0f2a 30       		.byte	0x30
 7452 0f2b 9F       		.byte	0x9f
 7453 0f2c 36000000 		.4byte	.LVL217
 7454 0f30 3A000000 		.4byte	.LVL218
 7455 0f34 0200     		.2byte	0x2
 7456 0f36 34       		.byte	0x34
 7457 0f37 9F       		.byte	0x9f
 7458 0f38 3A000000 		.4byte	.LVL218
 7459 0f3c BC010000 		.4byte	.LVL230
 7460 0f40 0200     		.2byte	0x2
 7461 0f42 30       		.byte	0x30
 7462 0f43 9F       		.byte	0x9f
 7463 0f44 BC010000 		.4byte	.LVL230
 7464 0f48 C0010000 		.4byte	.LVL231
 7465 0f4c 0300     		.2byte	0x3
 7466 0f4e 08       		.byte	0x8
 7467 0f4f 23       		.byte	0x23
ARM GAS  C:\Users\Alex\AppData\Local\Temp\cchBAlOP.s 			page 151


 7468 0f50 9F       		.byte	0x9f
 7469 0f51 C0010000 		.4byte	.LVL231
 7470 0f55 CA010000 		.4byte	.LVL233
 7471 0f59 0200     		.2byte	0x2
 7472 0f5b 30       		.byte	0x30
 7473 0f5c 9F       		.byte	0x9f
 7474 0f5d CA010000 		.4byte	.LVL233
 7475 0f61 DC010000 		.4byte	.LFE77
 7476 0f65 0100     		.2byte	0x1
 7477 0f67 50       		.byte	0x50
 7478 0f68 00000000 		.4byte	0
 7479 0f6c 00000000 		.4byte	0
 7480              	.LLST94:
 7481 0f70 00000000 		.4byte	.LVL235
 7482 0f74 0E000000 		.4byte	.LVL237
 7483 0f78 0100     		.2byte	0x1
 7484 0f7a 50       		.byte	0x50
 7485 0f7b 0E000000 		.4byte	.LVL237
 7486 0f7f 3C000000 		.4byte	.LVL243
 7487 0f83 0400     		.2byte	0x4
 7488 0f85 F3       		.byte	0xf3
 7489 0f86 01       		.uleb128 0x1
 7490 0f87 50       		.byte	0x50
 7491 0f88 9F       		.byte	0x9f
 7492 0f89 3C000000 		.4byte	.LVL243
 7493 0f8d 57000000 		.4byte	.LVL246-1
 7494 0f91 0100     		.2byte	0x1
 7495 0f93 50       		.byte	0x50
 7496 0f94 57000000 		.4byte	.LVL246-1
 7497 0f98 74000000 		.4byte	.LFE78
 7498 0f9c 0400     		.2byte	0x4
 7499 0f9e F3       		.byte	0xf3
 7500 0f9f 01       		.uleb128 0x1
 7501 0fa0 50       		.byte	0x50
 7502 0fa1 9F       		.byte	0x9f
 7503 0fa2 00000000 		.4byte	0
 7504 0fa6 00000000 		.4byte	0
 7505              	.LLST95:
 7506 0faa 04000000 		.4byte	.LVL236
 7507 0fae 20000000 		.4byte	.LVL239
 7508 0fb2 0200     		.2byte	0x2
 7509 0fb4 30       		.byte	0x30
 7510 0fb5 9F       		.byte	0x9f
 7511 0fb6 20000000 		.4byte	.LVL239
 7512 0fba 29000000 		.4byte	.LVL240-1
 7513 0fbe 0100     		.2byte	0x1
 7514 0fc0 52       		.byte	0x52
 7515 0fc1 2A000000 		.4byte	.LVL240
 7516 0fc5 3C000000 		.4byte	.LVL243
 7517 0fc9 0300     		.2byte	0x3
 7518 0fcb 08       		.byte	0x8
 7519 0fcc 30       		.byte	0x30
 7520 0fcd 9F       		.byte	0x9f
 7521 0fce 3C000000 		.4byte	.LVL243
 7522 0fd2 64000000 		.4byte	.LVL249
 7523 0fd6 0200     		.2byte	0x2
 7524 0fd8 30       		.byte	0x30
ARM GAS  C:\Users\Alex\AppData\Local\Temp\cchBAlOP.s 			page 152


 7525 0fd9 9F       		.byte	0x9f
 7526 0fda 00000000 		.4byte	0
 7527 0fde 00000000 		.4byte	0
 7528              	.LLST96:
 7529 0fe2 04000000 		.4byte	.LVL236
 7530 0fe6 40000000 		.4byte	.LVL244
 7531 0fea 0200     		.2byte	0x2
 7532 0fec 30       		.byte	0x30
 7533 0fed 9F       		.byte	0x9f
 7534 0fee 40000000 		.4byte	.LVL244
 7535 0ff2 5C000000 		.4byte	.LVL247
 7536 0ff6 0100     		.2byte	0x1
 7537 0ff8 55       		.byte	0x55
 7538 0ff9 5C000000 		.4byte	.LVL247
 7539 0ffd 62000000 		.4byte	.LVL248
 7540 1001 0300     		.2byte	0x3
 7541 1003 75       		.byte	0x75
 7542 1004 76       		.sleb128 -10
 7543 1005 9F       		.byte	0x9f
 7544 1006 00000000 		.4byte	0
 7545 100a 00000000 		.4byte	0
 7546              	.LLST97:
 7547 100e 04000000 		.4byte	.LVL236
 7548 1012 54000000 		.4byte	.LVL245
 7549 1016 0200     		.2byte	0x2
 7550 1018 30       		.byte	0x30
 7551 1019 9F       		.byte	0x9f
 7552 101a 54000000 		.4byte	.LVL245
 7553 101e 64000000 		.4byte	.LVL249
 7554 1022 0100     		.2byte	0x1
 7555 1024 54       		.byte	0x54
 7556 1025 00000000 		.4byte	0
 7557 1029 00000000 		.4byte	0
 7558              		.section	.debug_aranges,"",%progbits
 7559 0000 94000000 		.4byte	0x94
 7560 0004 0200     		.2byte	0x2
 7561 0006 00000000 		.4byte	.Ldebug_info0
 7562 000a 04       		.byte	0x4
 7563 000b 00       		.byte	0
 7564 000c 0000     		.2byte	0
 7565 000e 0000     		.2byte	0
 7566 0010 00000000 		.4byte	.LFB63
 7567 0014 44000000 		.4byte	.LFE63-.LFB63
 7568 0018 00000000 		.4byte	.LFB64
 7569 001c 58000000 		.4byte	.LFE64-.LFB64
 7570 0020 00000000 		.4byte	.LFB65
 7571 0024 84000000 		.4byte	.LFE65-.LFB65
 7572 0028 00000000 		.4byte	.LFB66
 7573 002c 7C000000 		.4byte	.LFE66-.LFB66
 7574 0030 00000000 		.4byte	.LFB67
 7575 0034 68000000 		.4byte	.LFE67-.LFB67
 7576 0038 00000000 		.4byte	.LFB68
 7577 003c 68000000 		.4byte	.LFE68-.LFB68
 7578 0040 00000000 		.4byte	.LFB69
 7579 0044 34010000 		.4byte	.LFE69-.LFB69
 7580 0048 00000000 		.4byte	.LFB70
 7581 004c 58010000 		.4byte	.LFE70-.LFB70
ARM GAS  C:\Users\Alex\AppData\Local\Temp\cchBAlOP.s 			page 153


 7582 0050 00000000 		.4byte	.LFB71
 7583 0054 A0000000 		.4byte	.LFE71-.LFB71
 7584 0058 00000000 		.4byte	.LFB72
 7585 005c 8C000000 		.4byte	.LFE72-.LFB72
 7586 0060 00000000 		.4byte	.LFB73
 7587 0064 A0000000 		.4byte	.LFE73-.LFB73
 7588 0068 00000000 		.4byte	.LFB74
 7589 006c 98000000 		.4byte	.LFE74-.LFB74
 7590 0070 00000000 		.4byte	.LFB75
 7591 0074 A0000000 		.4byte	.LFE75-.LFB75
 7592 0078 00000000 		.4byte	.LFB76
 7593 007c 98000000 		.4byte	.LFE76-.LFB76
 7594 0080 00000000 		.4byte	.LFB77
 7595 0084 DC010000 		.4byte	.LFE77-.LFB77
 7596 0088 00000000 		.4byte	.LFB78
 7597 008c 74000000 		.4byte	.LFE78-.LFB78
 7598 0090 00000000 		.4byte	0
 7599 0094 00000000 		.4byte	0
 7600              		.section	.debug_ranges,"",%progbits
 7601              	.Ldebug_ranges0:
 7602 0000 00000000 		.4byte	.LFB63
 7603 0004 44000000 		.4byte	.LFE63
 7604 0008 00000000 		.4byte	.LFB64
 7605 000c 58000000 		.4byte	.LFE64
 7606 0010 00000000 		.4byte	.LFB65
 7607 0014 84000000 		.4byte	.LFE65
 7608 0018 00000000 		.4byte	.LFB66
 7609 001c 7C000000 		.4byte	.LFE66
 7610 0020 00000000 		.4byte	.LFB67
 7611 0024 68000000 		.4byte	.LFE67
 7612 0028 00000000 		.4byte	.LFB68
 7613 002c 68000000 		.4byte	.LFE68
 7614 0030 00000000 		.4byte	.LFB69
 7615 0034 34010000 		.4byte	.LFE69
 7616 0038 00000000 		.4byte	.LFB70
 7617 003c 58010000 		.4byte	.LFE70
 7618 0040 00000000 		.4byte	.LFB71
 7619 0044 A0000000 		.4byte	.LFE71
 7620 0048 00000000 		.4byte	.LFB72
 7621 004c 8C000000 		.4byte	.LFE72
 7622 0050 00000000 		.4byte	.LFB73
 7623 0054 A0000000 		.4byte	.LFE73
 7624 0058 00000000 		.4byte	.LFB74
 7625 005c 98000000 		.4byte	.LFE74
 7626 0060 00000000 		.4byte	.LFB75
 7627 0064 A0000000 		.4byte	.LFE75
 7628 0068 00000000 		.4byte	.LFB76
 7629 006c 98000000 		.4byte	.LFE76
 7630 0070 00000000 		.4byte	.LFB77
 7631 0074 DC010000 		.4byte	.LFE77
 7632 0078 00000000 		.4byte	.LFB78
 7633 007c 74000000 		.4byte	.LFE78
 7634 0080 00000000 		.4byte	0
 7635 0084 00000000 		.4byte	0
 7636              		.section	.debug_line,"",%progbits
 7637              	.Ldebug_line0:
 7638 0000 D0040000 		.section	.debug_str,"MS",%progbits,1
ARM GAS  C:\Users\Alex\AppData\Local\Temp\cchBAlOP.s 			page 154


 7638      02007602 
 7638      00000201 
 7638      FB0E0D00 
 7638      01010101 
 7639              	.LASF61:
 7640 0000 746D7030 		.ascii	"tmp0\000"
 7640      00
 7641              	.LASF62:
 7642 0005 746D7031 		.ascii	"tmp1\000"
 7642      00
 7643              	.LASF72:
 7644 000a 746D7032 		.ascii	"tmp2\000"
 7644      00
 7645              	.LASF73:
 7646 000f 746D7033 		.ascii	"tmp3\000"
 7646      00
 7647              	.LASF115:
 7648 0014 74726170 		.ascii	"trapez_gen_motion_1\000"
 7648      657A5F67 
 7648      656E5F6D 
 7648      6F74696F 
 7648      6E5F3100 
 7649              	.LASF43:
 7650 0028 6F757470 		.ascii	"output\000"
 7650      757400
 7651              	.LASF79:
 7652 002f 746D705F 		.ascii	"tmp_acc\000"
 7652      61636300 
 7653              	.LASF95:
 7654 0037 74785F63 		.ascii	"tx_cmd_in_control\000"
 7654      6D645F69 
 7654      6E5F636F 
 7654      6E74726F 
 7654      6C00
 7655              	.LASF53:
 7656 0049 636D645F 		.ascii	"cmd_type\000"
 7656      74797065 
 7656      00
 7657              	.LASF121:
 7658 0052 7573625F 		.ascii	"usb_puts\000"
 7658      70757473 
 7658      00
 7659              	.LASF52:
 7660 005b 72656365 		.ascii	"receiver\000"
 7660      69766572 
 7660      00
 7661              	.LASF116:
 7662 0064 696E5F63 		.ascii	"in_control_get_pwm_dir\000"
 7662      6F6E7472 
 7662      6F6C5F67 
 7662      65745F70 
 7662      776D5F64 
 7663              	.LASF13:
 7664 007b 756E7369 		.ascii	"unsigned int\000"
 7664      676E6564 
 7664      20696E74 
 7664      00
ARM GAS  C:\Users\Alex\AppData\Local\Temp\cchBAlOP.s 			page 155


 7665              	.LASF106:
 7666 0088 666C6578 		.ascii	"flexsea_error\000"
 7666      7365615F 
 7666      6572726F 
 7666      7200
 7667              	.LASF7:
 7668 0096 5F5F696E 		.ascii	"__int32_t\000"
 7668      7433325F 
 7668      7400
 7669              	.LASF48:
 7670 00a0 696E7431 		.ascii	"int16\000"
 7670      3600
 7671              	.LASF109:
 7672 00a6 72733438 		.ascii	"rs485_puts\000"
 7672      355F7075 
 7672      747300
 7673              	.LASF45:
 7674 00b1 636F6D62 		.ascii	"combined\000"
 7674      696E6564 
 7674      00
 7675              	.LASF26:
 7676 00ba 6572726F 		.ascii	"error\000"
 7676      7200
 7677              	.LASF93:
 7678 00c0 746D705F 		.ascii	"tmp_zb\000"
 7678      7A6200
 7679              	.LASF94:
 7680 00c7 746D705F 		.ascii	"tmp_zi\000"
 7680      7A6900
 7681              	.LASF92:
 7682 00ce 746D705F 		.ascii	"tmp_zk\000"
 7682      7A6B00
 7683              	.LASF87:
 7684 00d5 746D705F 		.ascii	"tmp_kd\000"
 7684      6B6400
 7685              	.LASF86:
 7686 00dc 746D705F 		.ascii	"tmp_ki\000"
 7686      6B6900
 7687              	.LASF70:
 7688 00e3 746D705F 		.ascii	"tmp_open_spd\000"
 7688      6F70656E 
 7688      5F737064 
 7688      00
 7689              	.LASF20:
 7690 00f0 75696E74 		.ascii	"uint32_t\000"
 7690      33325F74 
 7690      00
 7691              	.LASF85:
 7692 00f9 746D705F 		.ascii	"tmp_kp\000"
 7692      6B7000
 7693              	.LASF37:
 7694 0100 67656E65 		.ascii	"generic\000"
 7694      72696300 
 7695              	.LASF103:
 7696 0108 73746570 		.ascii	"steps\000"
 7696      7300
 7697              	.LASF49:
ARM GAS  C:\Users\Alex\AppData\Local\Temp\cchBAlOP.s 			page 156


 7698 010e 666C6F61 		.ascii	"float\000"
 7698      7400
 7699              	.LASF24:
 7700 0114 61637475 		.ascii	"actual_val\000"
 7700      616C5F76 
 7700      616C00
 7701              	.LASF96:
 7702 011f 73656C65 		.ascii	"select_w\000"
 7702      63745F77 
 7702      00
 7703              	.LASF17:
 7704 0128 696E7431 		.ascii	"int16_t\000"
 7704      365F7400 
 7705              	.LASF100:
 7706 0130 626F6172 		.ascii	"board_id\000"
 7706      645F6964 
 7706      00
 7707              	.LASF12:
 7708 0139 6C6F6E67 		.ascii	"long long unsigned int\000"
 7708      206C6F6E 
 7708      6720756E 
 7708      7369676E 
 7708      65642069 
 7709              	.LASF57:
 7710 0150 74785F63 		.ascii	"tx_cmd_ctrl_mode\000"
 7710      6D645F63 
 7710      74726C5F 
 7710      6D6F6465 
 7710      00
 7711              	.LASF5:
 7712 0161 5F5F7569 		.ascii	"__uint16_t\000"
 7712      6E743136 
 7712      5F7400
 7713              	.LASF41:
 7714 016c 696E5F63 		.ascii	"in_control_s\000"
 7714      6F6E7472 
 7714      6F6C5F73 
 7714      00
 7715              	.LASF54:
 7716 0179 6374726C 		.ascii	"ctrl\000"
 7716      00
 7717              	.LASF110:
 7718 017e 73656E74 		.ascii	"sent_from_a_slave\000"
 7718      5F66726F 
 7718      6D5F615F 
 7718      736C6176 
 7718      6500
 7719              	.LASF120:
 7720 0190 433A5C46 		.ascii	"C:\\FlexSEA_alx87grd\\execute\\execute_1_0.cydsn\000"
 7720      6C657853 
 7720      45415F61 
 7720      6C783837 
 7720      6772645C 
 7721              	.LASF55:
 7722 01be 62797465 		.ascii	"bytes\000"
 7722      7300
 7723              	.LASF66:
ARM GAS  C:\Users\Alex\AppData\Local\Temp\cchBAlOP.s 			page 157


 7724 01c4 746D705F 		.ascii	"tmp_measured_current\000"
 7724      6D656173 
 7724      75726564 
 7724      5F637572 
 7724      72656E74 
 7725              	.LASF77:
 7726 01d9 746D705F 		.ascii	"tmp_posf\000"
 7726      706F7366 
 7726      00
 7727              	.LASF76:
 7728 01e2 746D705F 		.ascii	"tmp_posi\000"
 7728      706F7369 
 7728      00
 7729              	.LASF15:
 7730 01eb 63686172 		.ascii	"char\000"
 7730      00
 7731              	.LASF84:
 7732 01f0 666C6578 		.ascii	"flexsea_payload_82\000"
 7732      7365615F 
 7732      7061796C 
 7732      6F61645F 
 7732      383200
 7733              	.LASF89:
 7734 0203 666C6578 		.ascii	"flexsea_payload_83\000"
 7734      7365615F 
 7734      7061796C 
 7734      6F61645F 
 7734      383300
 7735              	.LASF108:
 7736 0216 70726570 		.ascii	"prepare_empty_payload\000"
 7736      6172655F 
 7736      656D7074 
 7736      795F7061 
 7736      796C6F61 
 7737              	.LASF65:
 7738 022c 746D705F 		.ascii	"tmp_wanted_current\000"
 7738      77616E74 
 7738      65645F63 
 7738      75727265 
 7738      6E7400
 7739              	.LASF21:
 7740 023f 6761696E 		.ascii	"gains_s\000"
 7740      735F7300 
 7741              	.LASF99:
 7742 0247 775F7661 		.ascii	"w_val\000"
 7742      6C00
 7743              	.LASF16:
 7744 024d 75696E74 		.ascii	"uint8_t\000"
 7744      385F7400 
 7745              	.LASF63:
 7746 0255 666C6578 		.ascii	"flexsea_payload_80\000"
 7746      7365615F 
 7746      7061796C 
 7746      6F61645F 
 7746      383000
 7747              	.LASF44:
 7748 0268 6D6F745F 		.ascii	"mot_dir\000"
ARM GAS  C:\Users\Alex\AppData\Local\Temp\cchBAlOP.s 			page 158


 7748      64697200 
 7749              	.LASF23:
 7750 0270 6761696E 		.ascii	"gain\000"
 7750      00
 7751              	.LASF91:
 7752 0275 666C6578 		.ascii	"flexsea_payload_84\000"
 7752      7365615F 
 7752      7061796C 
 7752      6F61645F 
 7752      383400
 7753              	.LASF69:
 7754 0288 666C6578 		.ascii	"flexsea_payload_85\000"
 7754      7365615F 
 7754      7061796C 
 7754      6F61645F 
 7754      383500
 7755              	.LASF64:
 7756 029b 666C6578 		.ascii	"flexsea_payload_86\000"
 7756      7365615F 
 7756      7061796C 
 7756      6F61645F 
 7756      383600
 7757              	.LASF74:
 7758 02ae 666C6578 		.ascii	"flexsea_payload_87\000"
 7758      7365615F 
 7758      7061796C 
 7758      6F61645F 
 7758      383700
 7759              	.LASF88:
 7760 02c1 74785F63 		.ascii	"tx_cmd_ctrl_p_g\000"
 7760      6D645F63 
 7760      74726C5F 
 7760      705F6700 
 7761              	.LASF11:
 7762 02d1 6C6F6E67 		.ascii	"long long int\000"
 7762      206C6F6E 
 7762      6720696E 
 7762      7400
 7763              	.LASF36:
 7764 02df 61637469 		.ascii	"active_ctrl\000"
 7764      76655F63 
 7764      74726C00 
 7765              	.LASF78:
 7766 02eb 746D705F 		.ascii	"tmp_spdm\000"
 7766      7370646D 
 7766      00
 7767              	.LASF97:
 7768 02f4 666C6578 		.ascii	"flexsea_payload_90\000"
 7768      7365615F 
 7768      7061796C 
 7768      6F61645F 
 7768      393000
 7769              	.LASF3:
 7770 0307 5F5F696E 		.ascii	"__int16_t\000"
 7770      7431365F 
 7770      7400
 7771              	.LASF114:
ARM GAS  C:\Users\Alex\AppData\Local\Temp\cchBAlOP.s 			page 159


 7772 0311 75696E74 		.ascii	"uint32_to_bytes\000"
 7772      33325F74 
 7772      6F5F6279 
 7772      74657300 
 7773              	.LASF47:
 7774 0321 75696E74 		.ascii	"uint32\000"
 7774      333200
 7775              	.LASF111:
 7776 0328 636F6E74 		.ascii	"control_strategy\000"
 7776      726F6C5F 
 7776      73747261 
 7776      74656779 
 7776      00
 7777              	.LASF31:
 7778 0339 73657470 		.ascii	"setp\000"
 7778      00
 7779              	.LASF90:
 7780 033e 74785F63 		.ascii	"tx_cmd_ctrl_z_g\000"
 7780      6D645F63 
 7780      74726C5F 
 7780      7A5F6700 
 7781              	.LASF51:
 7782 034e 6C6F6E67 		.ascii	"long double\000"
 7782      20646F75 
 7782      626C6500 
 7783              	.LASF18:
 7784 035a 75696E74 		.ascii	"uint16_t\000"
 7784      31365F74 
 7784      00
 7785              	.LASF107:
 7786 0363 636F6D6D 		.ascii	"comm_gen_str\000"
 7786      5F67656E 
 7786      5F737472 
 7786      00
 7787              	.LASF117:
 7788 0370 696E5F63 		.ascii	"in_control_combine\000"
 7788      6F6E7472 
 7788      6F6C5F63 
 7788      6F6D6269 
 7788      6E6500
 7789              	.LASF28:
 7790 0383 6572726F 		.ascii	"error_sum\000"
 7790      725F7375 
 7790      6D00
 7791              	.LASF27:
 7792 038d 6572726F 		.ascii	"error_prev\000"
 7792      725F7072 
 7792      657600
 7793              	.LASF4:
 7794 0398 73686F72 		.ascii	"short int\000"
 7794      7420696E 
 7794      7400
 7795              	.LASF8:
 7796 03a2 6C6F6E67 		.ascii	"long int\000"
 7796      20696E74 
 7796      00
 7797              	.LASF56:
ARM GAS  C:\Users\Alex\AppData\Local\Temp\cchBAlOP.s 			page 160


 7798 03ab 6E756D62 		.ascii	"numb\000"
 7798      00
 7799              	.LASF40:
 7800 03b0 696D7065 		.ascii	"impedance\000"
 7800      64616E63 
 7800      6500
 7801              	.LASF81:
 7802 03ba 746D705F 		.ascii	"tmp_z_b\000"
 7802      7A5F6200 
 7803              	.LASF102:
 7804 03c2 49544D5F 		.ascii	"ITM_RxBuffer\000"
 7804      52784275 
 7804      66666572 
 7804      00
 7805              	.LASF82:
 7806 03cf 746D705F 		.ascii	"tmp_z_i\000"
 7806      7A5F6900 
 7807              	.LASF80:
 7808 03d7 746D705F 		.ascii	"tmp_z_k\000"
 7808      7A5F6B00 
 7809              	.LASF83:
 7810 03df 74785F63 		.ascii	"tx_cmd_ctrl_i_g\000"
 7810      6D645F63 
 7810      74726C5F 
 7810      695F6700 
 7811              	.LASF60:
 7812 03ef 6D656173 		.ascii	"measured\000"
 7812      75726564 
 7812      00
 7813              	.LASF2:
 7814 03f8 5F5F7569 		.ascii	"__uint8_t\000"
 7814      6E74385F 
 7814      7400
 7815              	.LASF104:
 7816 0402 696E5F63 		.ascii	"in_control\000"
 7816      6F6E7472 
 7816      6F6C00
 7817              	.LASF58:
 7818 040d 74785F63 		.ascii	"tx_cmd_ctrl_i\000"
 7818      6D645F63 
 7818      74726C5F 
 7818      6900
 7819              	.LASF67:
 7820 041b 74785F63 		.ascii	"tx_cmd_ctrl_o\000"
 7820      6D645F63 
 7820      74726C5F 
 7820      6F00
 7821              	.LASF71:
 7822 0429 74785F63 		.ascii	"tx_cmd_ctrl_p\000"
 7822      6D645F63 
 7822      74726C5F 
 7822      7000
 7823              	.LASF14:
 7824 0437 73697A65 		.ascii	"sizetype\000"
 7824      74797065 
 7824      00
 7825              	.LASF10:
ARM GAS  C:\Users\Alex\AppData\Local\Temp\cchBAlOP.s 			page 161


 7826 0440 6C6F6E67 		.ascii	"long unsigned int\000"
 7826      20756E73 
 7826      69676E65 
 7826      6420696E 
 7826      7400
 7827              	.LASF75:
 7828 0452 746D705F 		.ascii	"tmp_pos\000"
 7828      706F7300 
 7829              	.LASF19:
 7830 045a 696E7433 		.ascii	"int32_t\000"
 7830      325F7400 
 7831              	.LASF25:
 7832 0462 73657470 		.ascii	"setpoint_val\000"
 7832      6F696E74 
 7832      5F76616C 
 7832      00
 7833              	.LASF101:
 7834 046f 636F6D6D 		.ascii	"comm_str_1\000"
 7834      5F737472 
 7834      5F3100
 7835              	.LASF1:
 7836 047a 756E7369 		.ascii	"unsigned char\000"
 7836      676E6564 
 7836      20636861 
 7836      7200
 7837              	.LASF9:
 7838 0488 5F5F7569 		.ascii	"__uint32_t\000"
 7838      6E743332 
 7838      5F7400
 7839              	.LASF118:
 7840 0493 474E5520 		.ascii	"GNU C 4.9.3 20150303 (release) [ARM/embedded-4_9-br"
 7840      4320342E 
 7840      392E3320 
 7840      32303135 
 7840      30333033 
 7841 04c6 616E6368 		.ascii	"anch revision 221220] -mcpu=cortex-m3 -mthumb -g -O"
 7841      20726576 
 7841      6973696F 
 7841      6E203232 
 7841      31323230 
 7842 04f9 67202D66 		.ascii	"g -ffunction-sections -ffat-lto-objects\000"
 7842      66756E63 
 7842      74696F6E 
 7842      2D736563 
 7842      74696F6E 
 7843              	.LASF105:
 7844 0521 746D705F 		.ascii	"tmp_payload_xmit\000"
 7844      7061796C 
 7844      6F61645F 
 7844      786D6974 
 7844      00
 7845              	.LASF33:
 7846 0532 706F7366 		.ascii	"posf\000"
 7846      00
 7847              	.LASF30:
 7848 0537 706F735F 		.ascii	"pos_ctrl_s\000"
 7848      6374726C 
ARM GAS  C:\Users\Alex\AppData\Local\Temp\cchBAlOP.s 			page 162


 7848      5F7300
 7849              	.LASF32:
 7850 0542 706F7369 		.ascii	"posi\000"
 7850      00
 7851              	.LASF112:
 7852 0547 75696E74 		.ascii	"uint16_to_bytes\000"
 7852      31365F74 
 7852      6F5F6279 
 7852      74657300 
 7853              	.LASF119:
 7854 0557 2E2E5C2E 		.ascii	"..\\..\\flexsea-system\\src\\flexsea_cmd_control.c\000"
 7854      2E5C666C 
 7854      65787365 
 7854      612D7379 
 7854      7374656D 
 7855              	.LASF29:
 7856 0586 6572726F 		.ascii	"error_dif\000"
 7856      725F6469 
 7856      6600
 7857              	.LASF34:
 7858 0590 7370646D 		.ascii	"spdm\000"
 7858      00
 7859              	.LASF0:
 7860 0595 7369676E 		.ascii	"signed char\000"
 7860      65642063 
 7860      68617200 
 7861              	.LASF113:
 7862 05a1 6D6F746F 		.ascii	"motor_open_speed_1\000"
 7862      725F6F70 
 7862      656E5F73 
 7862      70656564 
 7862      5F3100
 7863              	.LASF6:
 7864 05b4 73686F72 		.ascii	"short unsigned int\000"
 7864      7420756E 
 7864      7369676E 
 7864      65642069 
 7864      6E7400
 7865              	.LASF68:
 7866 05c7 6F70656E 		.ascii	"open_spd\000"
 7866      5F737064 
 7866      00
 7867              	.LASF38:
 7868 05d0 63757272 		.ascii	"current\000"
 7868      656E7400 
 7869              	.LASF46:
 7870 05d8 75696E74 		.ascii	"uint8\000"
 7870      3800
 7871              	.LASF50:
 7872 05de 646F7562 		.ascii	"double\000"
 7872      6C6500
 7873              	.LASF42:
 7874 05e5 636F6E74 		.ascii	"controller\000"
 7874      726F6C6C 
 7874      657200
 7875              	.LASF35:
 7876 05f0 6374726C 		.ascii	"ctrl_s\000"
ARM GAS  C:\Users\Alex\AppData\Local\Temp\cchBAlOP.s 			page 163


 7876      5F7300
 7877              	.LASF22:
 7878 05f7 67656E5F 		.ascii	"gen_ctrl_s\000"
 7878      6374726C 
 7878      5F7300
 7879              	.LASF59:
 7880 0602 77616E74 		.ascii	"wanted\000"
 7880      656400
 7881              	.LASF39:
 7882 0609 706F7369 		.ascii	"position\000"
 7882      74696F6E 
 7882      00
 7883              	.LASF98:
 7884 0612 775F7365 		.ascii	"w_select\000"
 7884      6C656374 
 7884      00
 7885              		.ident	"GCC: (GNU Tools for ARM Embedded Processors) 4.9.3 20150303 (release) [ARM/embedded-4_9-br
