ARM GAS  C:\Users\Alex\AppData\Local\Temp\ccjqAdcx.s 			page 1


   1              		.syntax unified
   2              		.cpu cortex-m3
   3              		.fpu softvfp
   4              		.eabi_attribute 20, 1
   5              		.eabi_attribute 21, 1
   6              		.eabi_attribute 23, 3
   7              		.eabi_attribute 24, 1
   8              		.eabi_attribute 25, 1
   9              		.eabi_attribute 26, 1
  10              		.eabi_attribute 30, 1
  11              		.eabi_attribute 34, 1
  12              		.eabi_attribute 18, 4
  13              		.thumb
  14              		.file	"flexsea_payload.c"
  15              		.text
  16              	.Ltext0:
  17              		.cfi_sections	.debug_frame
  18              		.section	.text.get_rid,"ax",%progbits
  19              		.align	2
  20              		.thumb
  21              		.thumb_func
  22              		.type	get_rid, %function
  23              	get_rid:
  24              	.LFB5:
  25              		.file 1 "..\\..\\flexsea-comm\\src\\flexsea_payload.c"
   1:..\..\flexsea-comm\src/flexsea_payload.c **** //****************************************************************************
   2:..\..\flexsea-comm\src/flexsea_payload.c **** // MIT Media Lab - Biomechatronics
   3:..\..\flexsea-comm\src/flexsea_payload.c **** // Jean-Francois (Jeff) Duval
   4:..\..\flexsea-comm\src/flexsea_payload.c **** // jfduval@media.mit.edu
   5:..\..\flexsea-comm\src/flexsea_payload.c **** // 03/2016
   6:..\..\flexsea-comm\src/flexsea_payload.c **** //****************************************************************************
   7:..\..\flexsea-comm\src/flexsea_payload.c **** // flexsea_payload: deals with the "intelligent" data packaged in a comm_str
   8:..\..\flexsea-comm\src/flexsea_payload.c **** //****************************************************************************
   9:..\..\flexsea-comm\src/flexsea_payload.c **** 
  10:..\..\flexsea-comm\src/flexsea_payload.c **** #ifdef __cplusplus
  11:..\..\flexsea-comm\src/flexsea_payload.c **** extern "C" {
  12:..\..\flexsea-comm\src/flexsea_payload.c **** #endif
  13:..\..\flexsea-comm\src/flexsea_payload.c **** 
  14:..\..\flexsea-comm\src/flexsea_payload.c **** //****************************************************************************
  15:..\..\flexsea-comm\src/flexsea_payload.c **** // Include(s)
  16:..\..\flexsea-comm\src/flexsea_payload.c **** //****************************************************************************
  17:..\..\flexsea-comm\src/flexsea_payload.c **** 
  18:..\..\flexsea-comm\src/flexsea_payload.c **** #include <stdio.h>
  19:..\..\flexsea-comm\src/flexsea_payload.c **** #include <stdlib.h>
  20:..\..\flexsea-comm\src/flexsea_payload.c **** #include "../inc/flexsea.h"
  21:..\..\flexsea-comm\src/flexsea_payload.c **** #include "../../flexsea-system/inc/flexsea_system.h"
  22:..\..\flexsea-comm\src/flexsea_payload.c **** #include "flexsea_board.h"
  23:..\..\flexsea-comm\src/flexsea_payload.c **** 
  24:..\..\flexsea-comm\src/flexsea_payload.c **** //****************************************************************************
  25:..\..\flexsea-comm\src/flexsea_payload.c **** // Variable(s)
  26:..\..\flexsea-comm\src/flexsea_payload.c **** //****************************************************************************
  27:..\..\flexsea-comm\src/flexsea_payload.c **** 
  28:..\..\flexsea-comm\src/flexsea_payload.c **** uint8_t payload_str[PAYLOAD_BUF_LEN];
  29:..\..\flexsea-comm\src/flexsea_payload.c **** 
  30:..\..\flexsea-comm\src/flexsea_payload.c **** //****************************************************************************
  31:..\..\flexsea-comm\src/flexsea_payload.c **** // Private Function Prototype(s):
  32:..\..\flexsea-comm\src/flexsea_payload.c **** //****************************************************************************
ARM GAS  C:\Users\Alex\AppData\Local\Temp\ccjqAdcx.s 			page 2


  33:..\..\flexsea-comm\src/flexsea_payload.c **** 
  34:..\..\flexsea-comm\src/flexsea_payload.c **** static uint8_t get_rid(uint8_t *pldata);
  35:..\..\flexsea-comm\src/flexsea_payload.c **** static void route_to_slave(uint8_t port, uint8_t *buf, uint32_t len);
  36:..\..\flexsea-comm\src/flexsea_payload.c **** 
  37:..\..\flexsea-comm\src/flexsea_payload.c **** //****************************************************************************
  38:..\..\flexsea-comm\src/flexsea_payload.c **** // Public Function(s):
  39:..\..\flexsea-comm\src/flexsea_payload.c **** //****************************************************************************
  40:..\..\flexsea-comm\src/flexsea_payload.c **** 
  41:..\..\flexsea-comm\src/flexsea_payload.c **** //Start a new payload string
  42:..\..\flexsea-comm\src/flexsea_payload.c **** void prepare_empty_payload(uint8_t from, uint8_t to, uint8_t *buf, uint32_t len)
  43:..\..\flexsea-comm\src/flexsea_payload.c **** {
  44:..\..\flexsea-comm\src/flexsea_payload.c **** 	//Start fresh:
  45:..\..\flexsea-comm\src/flexsea_payload.c **** 	fill_uint8_buf(buf, len, 0);
  46:..\..\flexsea-comm\src/flexsea_payload.c **** 
  47:..\..\flexsea-comm\src/flexsea_payload.c ****     //Addresses:
  48:..\..\flexsea-comm\src/flexsea_payload.c ****     buf[P_XID] = from;
  49:..\..\flexsea-comm\src/flexsea_payload.c ****     buf[P_RID] = to;
  50:..\..\flexsea-comm\src/flexsea_payload.c **** }
  51:..\..\flexsea-comm\src/flexsea_payload.c **** 
  52:..\..\flexsea-comm\src/flexsea_payload.c **** //Add a buffer at the end of a partially filled payload buffer
  53:..\..\flexsea-comm\src/flexsea_payload.c **** //Payload is the partially filled buffer, idx is the next position to use, new_data is.. well, the 
  54:..\..\flexsea-comm\src/flexsea_payload.c **** //and len is the number of bytes you want to add
  55:..\..\flexsea-comm\src/flexsea_payload.c **** uint32_t append_to_payload(uint8_t *payload, uint32_t idx, uint8_t *new_data, uint32_t len)
  56:..\..\flexsea-comm\src/flexsea_payload.c **** {
  57:..\..\flexsea-comm\src/flexsea_payload.c **** 	uint32_t i = 0, cnt = 0;
  58:..\..\flexsea-comm\src/flexsea_payload.c **** 
  59:..\..\flexsea-comm\src/flexsea_payload.c **** 	//Append the new data:
  60:..\..\flexsea-comm\src/flexsea_payload.c **** 	for(i = idx; i < (idx+len); i++)
  61:..\..\flexsea-comm\src/flexsea_payload.c **** 	{
  62:..\..\flexsea-comm\src/flexsea_payload.c **** 		payload[i] = new_data[cnt++];
  63:..\..\flexsea-comm\src/flexsea_payload.c **** 	}
  64:..\..\flexsea-comm\src/flexsea_payload.c **** 
  65:..\..\flexsea-comm\src/flexsea_payload.c **** 	//Index for the next call:
  66:..\..\flexsea-comm\src/flexsea_payload.c **** 	return i;
  67:..\..\flexsea-comm\src/flexsea_payload.c **** }
  68:..\..\flexsea-comm\src/flexsea_payload.c **** 
  69:..\..\flexsea-comm\src/flexsea_payload.c **** //Returns one if it was sent from a slave, 0 otherwise
  70:..\..\flexsea-comm\src/flexsea_payload.c **** uint8_t sent_from_a_slave(uint8_t *buf)
  71:..\..\flexsea-comm\src/flexsea_payload.c **** {
  72:..\..\flexsea-comm\src/flexsea_payload.c **** 	//Slaves have higher addresses than their master.
  73:..\..\flexsea-comm\src/flexsea_payload.c **** 	if(buf[P_XID] > buf[P_RID])
  74:..\..\flexsea-comm\src/flexsea_payload.c **** 	{
  75:..\..\flexsea-comm\src/flexsea_payload.c **** 		//Slave
  76:..\..\flexsea-comm\src/flexsea_payload.c **** 		return 1;
  77:..\..\flexsea-comm\src/flexsea_payload.c **** 	}
  78:..\..\flexsea-comm\src/flexsea_payload.c **** 	else
  79:..\..\flexsea-comm\src/flexsea_payload.c **** 	{
  80:..\..\flexsea-comm\src/flexsea_payload.c **** 		//Master
  81:..\..\flexsea-comm\src/flexsea_payload.c **** 		return 0;
  82:..\..\flexsea-comm\src/flexsea_payload.c **** 	}
  83:..\..\flexsea-comm\src/flexsea_payload.c **** 
  84:..\..\flexsea-comm\src/flexsea_payload.c **** 	//Should not happen
  85:..\..\flexsea-comm\src/flexsea_payload.c **** 	return 0;
  86:..\..\flexsea-comm\src/flexsea_payload.c **** }
  87:..\..\flexsea-comm\src/flexsea_payload.c **** 
  88:..\..\flexsea-comm\src/flexsea_payload.c **** //Decode/parse received string
  89:..\..\flexsea-comm\src/flexsea_payload.c **** //ToDo fix: for now, supports only one command per string
ARM GAS  C:\Users\Alex\AppData\Local\Temp\ccjqAdcx.s 			page 3


  90:..\..\flexsea-comm\src/flexsea_payload.c **** unsigned int payload_parse_str(unsigned char *cp_str)
  91:..\..\flexsea-comm\src/flexsea_payload.c **** {
  92:..\..\flexsea-comm\src/flexsea_payload.c ****     unsigned char cmd = 0, cmd_7bits = 0, output = PARSE_SUCCESSFUL, numb = 0;
  93:..\..\flexsea-comm\src/flexsea_payload.c ****     unsigned int id = 0;
  94:..\..\flexsea-comm\src/flexsea_payload.c **** 
  95:..\..\flexsea-comm\src/flexsea_payload.c ****     //Command
  96:..\..\flexsea-comm\src/flexsea_payload.c ****     cmd = cp_str[P_CMD1];		//CMD w/ R/W bit
  97:..\..\flexsea-comm\src/flexsea_payload.c ****     cmd_7bits = CMD_7BITS(cmd);	//CMD code, no R/W information
  98:..\..\flexsea-comm\src/flexsea_payload.c **** 
  99:..\..\flexsea-comm\src/flexsea_payload.c ****     //First, get RID code
 100:..\..\flexsea-comm\src/flexsea_payload.c ****     id = get_rid(cp_str);
 101:..\..\flexsea-comm\src/flexsea_payload.c ****     if(id == ID_MATCH)
 102:..\..\flexsea-comm\src/flexsea_payload.c ****     {
 103:..\..\flexsea-comm\src/flexsea_payload.c **** 		output = PARSE_SUCCESSFUL;
 104:..\..\flexsea-comm\src/flexsea_payload.c **** 
 105:..\..\flexsea-comm\src/flexsea_payload.c ****         //It's addressed to me. What should I do with it?
 106:..\..\flexsea-comm\src/flexsea_payload.c ****         switch(cmd_7bits)
 107:..\..\flexsea-comm\src/flexsea_payload.c ****         {
 108:..\..\flexsea-comm\src/flexsea_payload.c **** 			//0-9:
 109:..\..\flexsea-comm\src/flexsea_payload.c ****             case 0:
 110:..\..\flexsea-comm\src/flexsea_payload.c ****                 flexsea_payload_0(cp_str);
 111:..\..\flexsea-comm\src/flexsea_payload.c ****                 break;            
 112:..\..\flexsea-comm\src/flexsea_payload.c ****             case 1:		//FlexSEA Stack Test
 113:..\..\flexsea-comm\src/flexsea_payload.c ****             	rx_cmd_test(cp_str);
 114:..\..\flexsea-comm\src/flexsea_payload.c ****             	break;
 115:..\..\flexsea-comm\src/flexsea_payload.c ****             case 2:
 116:..\..\flexsea-comm\src/flexsea_payload.c ****                 flexsea_payload_2(cp_str);
 117:..\..\flexsea-comm\src/flexsea_payload.c ****                 break;
 118:..\..\flexsea-comm\src/flexsea_payload.c **** 			case 3:
 119:..\..\flexsea-comm\src/flexsea_payload.c ****                 flexsea_payload_3(cp_str);
 120:..\..\flexsea-comm\src/flexsea_payload.c ****                 break;
 121:..\..\flexsea-comm\src/flexsea_payload.c **** 			case 4:
 122:..\..\flexsea-comm\src/flexsea_payload.c ****                 flexsea_payload_4(cp_str);
 123:..\..\flexsea-comm\src/flexsea_payload.c ****                 break;
 124:..\..\flexsea-comm\src/flexsea_payload.c **** 			case 5:
 125:..\..\flexsea-comm\src/flexsea_payload.c ****                 flexsea_payload_5(cp_str);
 126:..\..\flexsea-comm\src/flexsea_payload.c ****                 break;
 127:..\..\flexsea-comm\src/flexsea_payload.c **** 			case 6:
 128:..\..\flexsea-comm\src/flexsea_payload.c ****                 flexsea_payload_6(cp_str);
 129:..\..\flexsea-comm\src/flexsea_payload.c ****                 break;
 130:..\..\flexsea-comm\src/flexsea_payload.c **** 			case 7:
 131:..\..\flexsea-comm\src/flexsea_payload.c ****                 flexsea_payload_7(cp_str);
 132:..\..\flexsea-comm\src/flexsea_payload.c ****                 break;
 133:..\..\flexsea-comm\src/flexsea_payload.c **** 			case 8:
 134:..\..\flexsea-comm\src/flexsea_payload.c ****                 flexsea_payload_8(cp_str);
 135:..\..\flexsea-comm\src/flexsea_payload.c ****                 break;
 136:..\..\flexsea-comm\src/flexsea_payload.c **** 			case 9:
 137:..\..\flexsea-comm\src/flexsea_payload.c ****                 flexsea_payload_9(cp_str);
 138:..\..\flexsea-comm\src/flexsea_payload.c ****                 break;
 139:..\..\flexsea-comm\src/flexsea_payload.c **** 
 140:..\..\flexsea-comm\src/flexsea_payload.c **** 			//10-19:
 141:..\..\flexsea-comm\src/flexsea_payload.c ****             case 10:
 142:..\..\flexsea-comm\src/flexsea_payload.c ****             	flexsea_payload_10(cp_str);
 143:..\..\flexsea-comm\src/flexsea_payload.c ****             	break;
 144:..\..\flexsea-comm\src/flexsea_payload.c ****             case 11:
 145:..\..\flexsea-comm\src/flexsea_payload.c ****             	flexsea_payload_11(cp_str);
 146:..\..\flexsea-comm\src/flexsea_payload.c ****             	break;
ARM GAS  C:\Users\Alex\AppData\Local\Temp\ccjqAdcx.s 			page 4


 147:..\..\flexsea-comm\src/flexsea_payload.c ****             case 12:
 148:..\..\flexsea-comm\src/flexsea_payload.c ****             	flexsea_payload_12(cp_str);
 149:..\..\flexsea-comm\src/flexsea_payload.c ****             	break;
 150:..\..\flexsea-comm\src/flexsea_payload.c ****             case 13:
 151:..\..\flexsea-comm\src/flexsea_payload.c ****             	flexsea_payload_13(cp_str);
 152:..\..\flexsea-comm\src/flexsea_payload.c ****             	break;
 153:..\..\flexsea-comm\src/flexsea_payload.c ****             case 14:
 154:..\..\flexsea-comm\src/flexsea_payload.c ****             	flexsea_payload_14(cp_str);
 155:..\..\flexsea-comm\src/flexsea_payload.c ****             	break;
 156:..\..\flexsea-comm\src/flexsea_payload.c ****             case 15:
 157:..\..\flexsea-comm\src/flexsea_payload.c ****             	flexsea_payload_15(cp_str);
 158:..\..\flexsea-comm\src/flexsea_payload.c ****             	break;
 159:..\..\flexsea-comm\src/flexsea_payload.c ****             case 16:
 160:..\..\flexsea-comm\src/flexsea_payload.c ****             	flexsea_payload_16(cp_str);
 161:..\..\flexsea-comm\src/flexsea_payload.c ****             	break;
 162:..\..\flexsea-comm\src/flexsea_payload.c ****             case 17:
 163:..\..\flexsea-comm\src/flexsea_payload.c ****             	flexsea_payload_17(cp_str);
 164:..\..\flexsea-comm\src/flexsea_payload.c ****             	break;
 165:..\..\flexsea-comm\src/flexsea_payload.c ****             case 18:
 166:..\..\flexsea-comm\src/flexsea_payload.c ****             	flexsea_payload_18(cp_str);
 167:..\..\flexsea-comm\src/flexsea_payload.c ****             	break;
 168:..\..\flexsea-comm\src/flexsea_payload.c ****             case 19:
 169:..\..\flexsea-comm\src/flexsea_payload.c ****             	flexsea_payload_19(cp_str);
 170:..\..\flexsea-comm\src/flexsea_payload.c ****             	break;
 171:..\..\flexsea-comm\src/flexsea_payload.c **** 				
 172:..\..\flexsea-comm\src/flexsea_payload.c **** 			//20-29:	
 173:..\..\flexsea-comm\src/flexsea_payload.c ****             case 20:
 174:..\..\flexsea-comm\src/flexsea_payload.c ****             	flexsea_payload_20(cp_str);
 175:..\..\flexsea-comm\src/flexsea_payload.c ****             	break;
 176:..\..\flexsea-comm\src/flexsea_payload.c ****             case 21:
 177:..\..\flexsea-comm\src/flexsea_payload.c ****             	flexsea_payload_21(cp_str);
 178:..\..\flexsea-comm\src/flexsea_payload.c ****             	break;
 179:..\..\flexsea-comm\src/flexsea_payload.c ****             case 22:
 180:..\..\flexsea-comm\src/flexsea_payload.c ****             	flexsea_payload_22(cp_str);
 181:..\..\flexsea-comm\src/flexsea_payload.c ****             	break;
 182:..\..\flexsea-comm\src/flexsea_payload.c ****             case 23:
 183:..\..\flexsea-comm\src/flexsea_payload.c ****             	flexsea_payload_23(cp_str);
 184:..\..\flexsea-comm\src/flexsea_payload.c ****             	break;
 185:..\..\flexsea-comm\src/flexsea_payload.c ****             case 24:
 186:..\..\flexsea-comm\src/flexsea_payload.c ****             	flexsea_payload_24(cp_str);
 187:..\..\flexsea-comm\src/flexsea_payload.c ****             	break;
 188:..\..\flexsea-comm\src/flexsea_payload.c ****             case 25:
 189:..\..\flexsea-comm\src/flexsea_payload.c ****             	flexsea_payload_25(cp_str);
 190:..\..\flexsea-comm\src/flexsea_payload.c ****             	break;
 191:..\..\flexsea-comm\src/flexsea_payload.c ****             case 26:
 192:..\..\flexsea-comm\src/flexsea_payload.c ****             	flexsea_payload_26(cp_str);
 193:..\..\flexsea-comm\src/flexsea_payload.c ****             	break;
 194:..\..\flexsea-comm\src/flexsea_payload.c ****             case 27:
 195:..\..\flexsea-comm\src/flexsea_payload.c ****             	flexsea_payload_27(cp_str);
 196:..\..\flexsea-comm\src/flexsea_payload.c ****             	break;
 197:..\..\flexsea-comm\src/flexsea_payload.c ****             case 28:
 198:..\..\flexsea-comm\src/flexsea_payload.c ****             	flexsea_payload_28(cp_str);
 199:..\..\flexsea-comm\src/flexsea_payload.c ****             	break;
 200:..\..\flexsea-comm\src/flexsea_payload.c ****             case 29:
 201:..\..\flexsea-comm\src/flexsea_payload.c ****             	flexsea_payload_29(cp_str);
 202:..\..\flexsea-comm\src/flexsea_payload.c ****             	break;
 203:..\..\flexsea-comm\src/flexsea_payload.c **** 				
ARM GAS  C:\Users\Alex\AppData\Local\Temp\ccjqAdcx.s 			page 5


 204:..\..\flexsea-comm\src/flexsea_payload.c **** 			//30-39:	
 205:..\..\flexsea-comm\src/flexsea_payload.c ****             case 30:
 206:..\..\flexsea-comm\src/flexsea_payload.c ****             	flexsea_payload_30(cp_str);
 207:..\..\flexsea-comm\src/flexsea_payload.c ****             	break;
 208:..\..\flexsea-comm\src/flexsea_payload.c ****             case 31:
 209:..\..\flexsea-comm\src/flexsea_payload.c ****             	flexsea_payload_31(cp_str);
 210:..\..\flexsea-comm\src/flexsea_payload.c ****             	break;
 211:..\..\flexsea-comm\src/flexsea_payload.c ****             case 32:
 212:..\..\flexsea-comm\src/flexsea_payload.c ****             	flexsea_payload_32(cp_str);
 213:..\..\flexsea-comm\src/flexsea_payload.c ****             	break;
 214:..\..\flexsea-comm\src/flexsea_payload.c ****             case 33:
 215:..\..\flexsea-comm\src/flexsea_payload.c ****             	flexsea_payload_33(cp_str);
 216:..\..\flexsea-comm\src/flexsea_payload.c ****             	break;
 217:..\..\flexsea-comm\src/flexsea_payload.c ****             case 34:
 218:..\..\flexsea-comm\src/flexsea_payload.c ****             	flexsea_payload_34(cp_str);
 219:..\..\flexsea-comm\src/flexsea_payload.c ****             	break;
 220:..\..\flexsea-comm\src/flexsea_payload.c ****             case 35:
 221:..\..\flexsea-comm\src/flexsea_payload.c ****             	flexsea_payload_35(cp_str);
 222:..\..\flexsea-comm\src/flexsea_payload.c ****             	break;
 223:..\..\flexsea-comm\src/flexsea_payload.c ****             case 36:
 224:..\..\flexsea-comm\src/flexsea_payload.c ****             	flexsea_payload_36(cp_str);
 225:..\..\flexsea-comm\src/flexsea_payload.c ****             	break;
 226:..\..\flexsea-comm\src/flexsea_payload.c ****             case 37:
 227:..\..\flexsea-comm\src/flexsea_payload.c ****             	flexsea_payload_37(cp_str);
 228:..\..\flexsea-comm\src/flexsea_payload.c ****             	break;
 229:..\..\flexsea-comm\src/flexsea_payload.c ****             case 38:
 230:..\..\flexsea-comm\src/flexsea_payload.c ****             	flexsea_payload_38(cp_str);
 231:..\..\flexsea-comm\src/flexsea_payload.c ****             	break;
 232:..\..\flexsea-comm\src/flexsea_payload.c ****             case 39:
 233:..\..\flexsea-comm\src/flexsea_payload.c ****             	flexsea_payload_39(cp_str);
 234:..\..\flexsea-comm\src/flexsea_payload.c ****             	break;
 235:..\..\flexsea-comm\src/flexsea_payload.c **** 				
 236:..\..\flexsea-comm\src/flexsea_payload.c **** 			//40-49:	
 237:..\..\flexsea-comm\src/flexsea_payload.c ****             case 40:
 238:..\..\flexsea-comm\src/flexsea_payload.c ****             	flexsea_payload_40(cp_str);
 239:..\..\flexsea-comm\src/flexsea_payload.c ****             	break;
 240:..\..\flexsea-comm\src/flexsea_payload.c ****             case 41:
 241:..\..\flexsea-comm\src/flexsea_payload.c ****             	flexsea_payload_41(cp_str);
 242:..\..\flexsea-comm\src/flexsea_payload.c ****             	break;
 243:..\..\flexsea-comm\src/flexsea_payload.c ****             case 42:
 244:..\..\flexsea-comm\src/flexsea_payload.c ****             	flexsea_payload_42(cp_str);
 245:..\..\flexsea-comm\src/flexsea_payload.c ****             	break;
 246:..\..\flexsea-comm\src/flexsea_payload.c ****             case 43:
 247:..\..\flexsea-comm\src/flexsea_payload.c ****             	flexsea_payload_43(cp_str);
 248:..\..\flexsea-comm\src/flexsea_payload.c ****             	break;
 249:..\..\flexsea-comm\src/flexsea_payload.c ****             case 44:
 250:..\..\flexsea-comm\src/flexsea_payload.c ****             	flexsea_payload_44(cp_str);
 251:..\..\flexsea-comm\src/flexsea_payload.c ****             	break;
 252:..\..\flexsea-comm\src/flexsea_payload.c ****             case 45:
 253:..\..\flexsea-comm\src/flexsea_payload.c ****             	flexsea_payload_45(cp_str);
 254:..\..\flexsea-comm\src/flexsea_payload.c ****             	break;
 255:..\..\flexsea-comm\src/flexsea_payload.c ****             case 46:
 256:..\..\flexsea-comm\src/flexsea_payload.c ****             	flexsea_payload_46(cp_str);
 257:..\..\flexsea-comm\src/flexsea_payload.c ****             	break;
 258:..\..\flexsea-comm\src/flexsea_payload.c ****             case 47:
 259:..\..\flexsea-comm\src/flexsea_payload.c ****             	flexsea_payload_47(cp_str);
 260:..\..\flexsea-comm\src/flexsea_payload.c ****             	break;
ARM GAS  C:\Users\Alex\AppData\Local\Temp\ccjqAdcx.s 			page 6


 261:..\..\flexsea-comm\src/flexsea_payload.c ****             case 48:
 262:..\..\flexsea-comm\src/flexsea_payload.c ****             	flexsea_payload_48(cp_str);
 263:..\..\flexsea-comm\src/flexsea_payload.c ****             	break;
 264:..\..\flexsea-comm\src/flexsea_payload.c ****             case 49:
 265:..\..\flexsea-comm\src/flexsea_payload.c ****             	flexsea_payload_49(cp_str);
 266:..\..\flexsea-comm\src/flexsea_payload.c ****             	break;
 267:..\..\flexsea-comm\src/flexsea_payload.c **** 				
 268:..\..\flexsea-comm\src/flexsea_payload.c **** 			//50-59:	
 269:..\..\flexsea-comm\src/flexsea_payload.c ****             case 50:
 270:..\..\flexsea-comm\src/flexsea_payload.c ****             	flexsea_payload_50(cp_str);
 271:..\..\flexsea-comm\src/flexsea_payload.c ****             	break;
 272:..\..\flexsea-comm\src/flexsea_payload.c ****             case 51:
 273:..\..\flexsea-comm\src/flexsea_payload.c ****             	flexsea_payload_51(cp_str);
 274:..\..\flexsea-comm\src/flexsea_payload.c ****             	break;
 275:..\..\flexsea-comm\src/flexsea_payload.c ****             case 52:
 276:..\..\flexsea-comm\src/flexsea_payload.c ****             	flexsea_payload_52(cp_str);
 277:..\..\flexsea-comm\src/flexsea_payload.c ****             	break;
 278:..\..\flexsea-comm\src/flexsea_payload.c ****             case 53:
 279:..\..\flexsea-comm\src/flexsea_payload.c ****             	flexsea_payload_53(cp_str);
 280:..\..\flexsea-comm\src/flexsea_payload.c ****             	break;
 281:..\..\flexsea-comm\src/flexsea_payload.c ****             case 54:
 282:..\..\flexsea-comm\src/flexsea_payload.c ****             	flexsea_payload_54(cp_str);
 283:..\..\flexsea-comm\src/flexsea_payload.c ****             	break;
 284:..\..\flexsea-comm\src/flexsea_payload.c ****             case 55:
 285:..\..\flexsea-comm\src/flexsea_payload.c ****             	flexsea_payload_55(cp_str);
 286:..\..\flexsea-comm\src/flexsea_payload.c ****             	break;
 287:..\..\flexsea-comm\src/flexsea_payload.c ****             case 56:
 288:..\..\flexsea-comm\src/flexsea_payload.c ****             	flexsea_payload_56(cp_str);
 289:..\..\flexsea-comm\src/flexsea_payload.c ****             	break;
 290:..\..\flexsea-comm\src/flexsea_payload.c ****             case 57:
 291:..\..\flexsea-comm\src/flexsea_payload.c ****             	flexsea_payload_57(cp_str);
 292:..\..\flexsea-comm\src/flexsea_payload.c ****             	break;
 293:..\..\flexsea-comm\src/flexsea_payload.c ****             case 58:
 294:..\..\flexsea-comm\src/flexsea_payload.c ****             	flexsea_payload_58(cp_str);
 295:..\..\flexsea-comm\src/flexsea_payload.c ****             	break;
 296:..\..\flexsea-comm\src/flexsea_payload.c ****             case 59:
 297:..\..\flexsea-comm\src/flexsea_payload.c ****             	flexsea_payload_59(cp_str);
 298:..\..\flexsea-comm\src/flexsea_payload.c ****             	break;
 299:..\..\flexsea-comm\src/flexsea_payload.c **** 				
 300:..\..\flexsea-comm\src/flexsea_payload.c **** 			//60-69:	
 301:..\..\flexsea-comm\src/flexsea_payload.c ****             case 60:
 302:..\..\flexsea-comm\src/flexsea_payload.c ****             	flexsea_payload_60(cp_str);
 303:..\..\flexsea-comm\src/flexsea_payload.c ****             	break;
 304:..\..\flexsea-comm\src/flexsea_payload.c ****             case 61:
 305:..\..\flexsea-comm\src/flexsea_payload.c ****             	flexsea_payload_61(cp_str);
 306:..\..\flexsea-comm\src/flexsea_payload.c ****             	break;
 307:..\..\flexsea-comm\src/flexsea_payload.c ****             case 62:
 308:..\..\flexsea-comm\src/flexsea_payload.c ****             	flexsea_payload_62(cp_str);
 309:..\..\flexsea-comm\src/flexsea_payload.c ****             	break;
 310:..\..\flexsea-comm\src/flexsea_payload.c ****             case 63:
 311:..\..\flexsea-comm\src/flexsea_payload.c ****             	flexsea_payload_63(cp_str);
 312:..\..\flexsea-comm\src/flexsea_payload.c ****             	break;
 313:..\..\flexsea-comm\src/flexsea_payload.c ****             case 64:
 314:..\..\flexsea-comm\src/flexsea_payload.c ****             	flexsea_payload_64(cp_str);
 315:..\..\flexsea-comm\src/flexsea_payload.c ****             	break;
 316:..\..\flexsea-comm\src/flexsea_payload.c ****             case 65:
 317:..\..\flexsea-comm\src/flexsea_payload.c ****             	flexsea_payload_65(cp_str);
ARM GAS  C:\Users\Alex\AppData\Local\Temp\ccjqAdcx.s 			page 7


 318:..\..\flexsea-comm\src/flexsea_payload.c ****             	break;
 319:..\..\flexsea-comm\src/flexsea_payload.c ****             case 66:
 320:..\..\flexsea-comm\src/flexsea_payload.c ****             	flexsea_payload_66(cp_str);
 321:..\..\flexsea-comm\src/flexsea_payload.c ****             	break;
 322:..\..\flexsea-comm\src/flexsea_payload.c ****             case 67:
 323:..\..\flexsea-comm\src/flexsea_payload.c ****             	flexsea_payload_67(cp_str);
 324:..\..\flexsea-comm\src/flexsea_payload.c ****             	break;
 325:..\..\flexsea-comm\src/flexsea_payload.c ****             case 68:
 326:..\..\flexsea-comm\src/flexsea_payload.c ****             	flexsea_payload_68(cp_str);
 327:..\..\flexsea-comm\src/flexsea_payload.c ****             	break;
 328:..\..\flexsea-comm\src/flexsea_payload.c ****             case 69:
 329:..\..\flexsea-comm\src/flexsea_payload.c ****             	flexsea_payload_69(cp_str);
 330:..\..\flexsea-comm\src/flexsea_payload.c ****             	break;
 331:..\..\flexsea-comm\src/flexsea_payload.c **** 				
 332:..\..\flexsea-comm\src/flexsea_payload.c **** 			//70-79:	
 333:..\..\flexsea-comm\src/flexsea_payload.c ****             case 70:
 334:..\..\flexsea-comm\src/flexsea_payload.c ****             	flexsea_payload_70(cp_str);
 335:..\..\flexsea-comm\src/flexsea_payload.c ****             	break;
 336:..\..\flexsea-comm\src/flexsea_payload.c ****             case 71:
 337:..\..\flexsea-comm\src/flexsea_payload.c ****             	flexsea_payload_71(cp_str);
 338:..\..\flexsea-comm\src/flexsea_payload.c ****             	break;
 339:..\..\flexsea-comm\src/flexsea_payload.c ****             case 72:
 340:..\..\flexsea-comm\src/flexsea_payload.c ****             	flexsea_payload_72(cp_str);
 341:..\..\flexsea-comm\src/flexsea_payload.c ****             	break;
 342:..\..\flexsea-comm\src/flexsea_payload.c ****             case 73:
 343:..\..\flexsea-comm\src/flexsea_payload.c ****             	flexsea_payload_73(cp_str);
 344:..\..\flexsea-comm\src/flexsea_payload.c ****             	break;
 345:..\..\flexsea-comm\src/flexsea_payload.c ****             case 74:
 346:..\..\flexsea-comm\src/flexsea_payload.c ****             	flexsea_payload_74(cp_str);
 347:..\..\flexsea-comm\src/flexsea_payload.c ****             	break;
 348:..\..\flexsea-comm\src/flexsea_payload.c ****             case 75:
 349:..\..\flexsea-comm\src/flexsea_payload.c ****             	flexsea_payload_75(cp_str);
 350:..\..\flexsea-comm\src/flexsea_payload.c ****             	break;
 351:..\..\flexsea-comm\src/flexsea_payload.c ****             case 76:
 352:..\..\flexsea-comm\src/flexsea_payload.c ****             	flexsea_payload_76(cp_str);
 353:..\..\flexsea-comm\src/flexsea_payload.c ****             	break;
 354:..\..\flexsea-comm\src/flexsea_payload.c ****             case 77:
 355:..\..\flexsea-comm\src/flexsea_payload.c ****             	flexsea_payload_77(cp_str);
 356:..\..\flexsea-comm\src/flexsea_payload.c ****             	break;
 357:..\..\flexsea-comm\src/flexsea_payload.c ****             case 78:
 358:..\..\flexsea-comm\src/flexsea_payload.c ****             	flexsea_payload_78(cp_str);
 359:..\..\flexsea-comm\src/flexsea_payload.c ****             	break;
 360:..\..\flexsea-comm\src/flexsea_payload.c ****             case 79:
 361:..\..\flexsea-comm\src/flexsea_payload.c ****             	flexsea_payload_79(cp_str);
 362:..\..\flexsea-comm\src/flexsea_payload.c ****             	break;
 363:..\..\flexsea-comm\src/flexsea_payload.c **** 				
 364:..\..\flexsea-comm\src/flexsea_payload.c **** 			//80-89:	
 365:..\..\flexsea-comm\src/flexsea_payload.c ****             case 80:
 366:..\..\flexsea-comm\src/flexsea_payload.c ****             	flexsea_payload_80(cp_str);
 367:..\..\flexsea-comm\src/flexsea_payload.c ****             	break;
 368:..\..\flexsea-comm\src/flexsea_payload.c ****             case 81:
 369:..\..\flexsea-comm\src/flexsea_payload.c ****             	flexsea_payload_81(cp_str);
 370:..\..\flexsea-comm\src/flexsea_payload.c ****             	break;
 371:..\..\flexsea-comm\src/flexsea_payload.c ****             case 82:
 372:..\..\flexsea-comm\src/flexsea_payload.c ****             	flexsea_payload_82(cp_str);
 373:..\..\flexsea-comm\src/flexsea_payload.c ****             	break;
 374:..\..\flexsea-comm\src/flexsea_payload.c ****             case 83:
ARM GAS  C:\Users\Alex\AppData\Local\Temp\ccjqAdcx.s 			page 8


 375:..\..\flexsea-comm\src/flexsea_payload.c ****             	flexsea_payload_83(cp_str);
 376:..\..\flexsea-comm\src/flexsea_payload.c ****             	break;
 377:..\..\flexsea-comm\src/flexsea_payload.c ****             case 84:
 378:..\..\flexsea-comm\src/flexsea_payload.c ****             	flexsea_payload_84(cp_str);
 379:..\..\flexsea-comm\src/flexsea_payload.c ****             	break;
 380:..\..\flexsea-comm\src/flexsea_payload.c ****             case 85:
 381:..\..\flexsea-comm\src/flexsea_payload.c ****             	flexsea_payload_85(cp_str);
 382:..\..\flexsea-comm\src/flexsea_payload.c ****             	break;
 383:..\..\flexsea-comm\src/flexsea_payload.c ****             case 86:
 384:..\..\flexsea-comm\src/flexsea_payload.c ****             	flexsea_payload_86(cp_str);
 385:..\..\flexsea-comm\src/flexsea_payload.c ****             	break;
 386:..\..\flexsea-comm\src/flexsea_payload.c ****             case 87:
 387:..\..\flexsea-comm\src/flexsea_payload.c ****             	flexsea_payload_87(cp_str);
 388:..\..\flexsea-comm\src/flexsea_payload.c ****             	break;
 389:..\..\flexsea-comm\src/flexsea_payload.c ****             case 88:
 390:..\..\flexsea-comm\src/flexsea_payload.c ****             	flexsea_payload_88(cp_str);
 391:..\..\flexsea-comm\src/flexsea_payload.c ****             	break;
 392:..\..\flexsea-comm\src/flexsea_payload.c ****             case 89:
 393:..\..\flexsea-comm\src/flexsea_payload.c ****             	flexsea_payload_89(cp_str);
 394:..\..\flexsea-comm\src/flexsea_payload.c ****             	break;				
 395:..\..\flexsea-comm\src/flexsea_payload.c **** 
 396:..\..\flexsea-comm\src/flexsea_payload.c **** 			//90-99:	
 397:..\..\flexsea-comm\src/flexsea_payload.c ****             case 90:
 398:..\..\flexsea-comm\src/flexsea_payload.c ****             	flexsea_payload_90(cp_str);
 399:..\..\flexsea-comm\src/flexsea_payload.c ****             	break;
 400:..\..\flexsea-comm\src/flexsea_payload.c ****             case 91:
 401:..\..\flexsea-comm\src/flexsea_payload.c ****             	flexsea_payload_91(cp_str);
 402:..\..\flexsea-comm\src/flexsea_payload.c ****             	break;
 403:..\..\flexsea-comm\src/flexsea_payload.c ****             case 92:
 404:..\..\flexsea-comm\src/flexsea_payload.c ****             	flexsea_payload_92(cp_str);
 405:..\..\flexsea-comm\src/flexsea_payload.c ****             	break;
 406:..\..\flexsea-comm\src/flexsea_payload.c ****             case 93:
 407:..\..\flexsea-comm\src/flexsea_payload.c ****             	flexsea_payload_93(cp_str);
 408:..\..\flexsea-comm\src/flexsea_payload.c ****             	break;
 409:..\..\flexsea-comm\src/flexsea_payload.c ****             case 94:
 410:..\..\flexsea-comm\src/flexsea_payload.c ****             	flexsea_payload_94(cp_str);
 411:..\..\flexsea-comm\src/flexsea_payload.c ****             	break;
 412:..\..\flexsea-comm\src/flexsea_payload.c ****             case 95:
 413:..\..\flexsea-comm\src/flexsea_payload.c ****             	flexsea_payload_95(cp_str);
 414:..\..\flexsea-comm\src/flexsea_payload.c ****             	break;
 415:..\..\flexsea-comm\src/flexsea_payload.c ****             case 96:
 416:..\..\flexsea-comm\src/flexsea_payload.c ****             	flexsea_payload_96(cp_str);
 417:..\..\flexsea-comm\src/flexsea_payload.c ****             	break;
 418:..\..\flexsea-comm\src/flexsea_payload.c ****             case 97:
 419:..\..\flexsea-comm\src/flexsea_payload.c ****             	flexsea_payload_97(cp_str);
 420:..\..\flexsea-comm\src/flexsea_payload.c ****             	break;
 421:..\..\flexsea-comm\src/flexsea_payload.c ****             case 98:
 422:..\..\flexsea-comm\src/flexsea_payload.c ****             	flexsea_payload_98(cp_str);
 423:..\..\flexsea-comm\src/flexsea_payload.c ****             	break;
 424:..\..\flexsea-comm\src/flexsea_payload.c ****             case 99:
 425:..\..\flexsea-comm\src/flexsea_payload.c ****             	flexsea_payload_99(cp_str);
 426:..\..\flexsea-comm\src/flexsea_payload.c ****             	break;
 427:..\..\flexsea-comm\src/flexsea_payload.c **** 				
 428:..\..\flexsea-comm\src/flexsea_payload.c **** 			//100-109:	
 429:..\..\flexsea-comm\src/flexsea_payload.c ****             case 100:
 430:..\..\flexsea-comm\src/flexsea_payload.c ****             	flexsea_payload_100(cp_str);
 431:..\..\flexsea-comm\src/flexsea_payload.c ****             	break;
ARM GAS  C:\Users\Alex\AppData\Local\Temp\ccjqAdcx.s 			page 9


 432:..\..\flexsea-comm\src/flexsea_payload.c ****             case 101:
 433:..\..\flexsea-comm\src/flexsea_payload.c ****             	flexsea_payload_101(cp_str);
 434:..\..\flexsea-comm\src/flexsea_payload.c ****             	break;
 435:..\..\flexsea-comm\src/flexsea_payload.c ****             case 102:
 436:..\..\flexsea-comm\src/flexsea_payload.c ****             	flexsea_payload_102(cp_str);
 437:..\..\flexsea-comm\src/flexsea_payload.c ****             	break;
 438:..\..\flexsea-comm\src/flexsea_payload.c ****             case 103:
 439:..\..\flexsea-comm\src/flexsea_payload.c ****             	flexsea_payload_103(cp_str);
 440:..\..\flexsea-comm\src/flexsea_payload.c ****             	break;
 441:..\..\flexsea-comm\src/flexsea_payload.c ****             case 104:
 442:..\..\flexsea-comm\src/flexsea_payload.c ****             	flexsea_payload_104(cp_str);
 443:..\..\flexsea-comm\src/flexsea_payload.c ****             	break;
 444:..\..\flexsea-comm\src/flexsea_payload.c ****             case 105:
 445:..\..\flexsea-comm\src/flexsea_payload.c ****             	flexsea_payload_105(cp_str);
 446:..\..\flexsea-comm\src/flexsea_payload.c ****             	break;
 447:..\..\flexsea-comm\src/flexsea_payload.c ****             case 106:
 448:..\..\flexsea-comm\src/flexsea_payload.c ****             	flexsea_payload_106(cp_str);
 449:..\..\flexsea-comm\src/flexsea_payload.c ****             	break;
 450:..\..\flexsea-comm\src/flexsea_payload.c ****             case 107:
 451:..\..\flexsea-comm\src/flexsea_payload.c ****             	flexsea_payload_107(cp_str);
 452:..\..\flexsea-comm\src/flexsea_payload.c ****             	break;
 453:..\..\flexsea-comm\src/flexsea_payload.c ****             case 108:
 454:..\..\flexsea-comm\src/flexsea_payload.c ****             	flexsea_payload_108(cp_str);
 455:..\..\flexsea-comm\src/flexsea_payload.c ****             	break;
 456:..\..\flexsea-comm\src/flexsea_payload.c ****             case 109:
 457:..\..\flexsea-comm\src/flexsea_payload.c ****             	flexsea_payload_109(cp_str);
 458:..\..\flexsea-comm\src/flexsea_payload.c ****             	break;
 459:..\..\flexsea-comm\src/flexsea_payload.c **** 				
 460:..\..\flexsea-comm\src/flexsea_payload.c **** 			//110-119:	
 461:..\..\flexsea-comm\src/flexsea_payload.c ****             case 110:
 462:..\..\flexsea-comm\src/flexsea_payload.c ****             	flexsea_payload_110(cp_str);
 463:..\..\flexsea-comm\src/flexsea_payload.c ****             	break;
 464:..\..\flexsea-comm\src/flexsea_payload.c ****             case 111:
 465:..\..\flexsea-comm\src/flexsea_payload.c ****             	flexsea_payload_111(cp_str);
 466:..\..\flexsea-comm\src/flexsea_payload.c ****             	break;
 467:..\..\flexsea-comm\src/flexsea_payload.c ****             case 112:
 468:..\..\flexsea-comm\src/flexsea_payload.c ****             	flexsea_payload_112(cp_str);
 469:..\..\flexsea-comm\src/flexsea_payload.c ****             	break;
 470:..\..\flexsea-comm\src/flexsea_payload.c ****             case 113:
 471:..\..\flexsea-comm\src/flexsea_payload.c ****             	flexsea_payload_113(cp_str);
 472:..\..\flexsea-comm\src/flexsea_payload.c ****             	break;
 473:..\..\flexsea-comm\src/flexsea_payload.c ****             case 114:
 474:..\..\flexsea-comm\src/flexsea_payload.c ****             	flexsea_payload_114(cp_str);
 475:..\..\flexsea-comm\src/flexsea_payload.c ****             	break;
 476:..\..\flexsea-comm\src/flexsea_payload.c ****             case 115:
 477:..\..\flexsea-comm\src/flexsea_payload.c ****             	flexsea_payload_115(cp_str);
 478:..\..\flexsea-comm\src/flexsea_payload.c ****             	break;
 479:..\..\flexsea-comm\src/flexsea_payload.c ****             case 116:
 480:..\..\flexsea-comm\src/flexsea_payload.c ****             	flexsea_payload_116(cp_str);
 481:..\..\flexsea-comm\src/flexsea_payload.c ****             	break;
 482:..\..\flexsea-comm\src/flexsea_payload.c ****             case 117:
 483:..\..\flexsea-comm\src/flexsea_payload.c ****             	flexsea_payload_117(cp_str);
 484:..\..\flexsea-comm\src/flexsea_payload.c ****             	break;
 485:..\..\flexsea-comm\src/flexsea_payload.c ****             case 118:
 486:..\..\flexsea-comm\src/flexsea_payload.c ****             	flexsea_payload_118(cp_str);
 487:..\..\flexsea-comm\src/flexsea_payload.c ****             	break;
 488:..\..\flexsea-comm\src/flexsea_payload.c ****             case 119:
ARM GAS  C:\Users\Alex\AppData\Local\Temp\ccjqAdcx.s 			page 10


 489:..\..\flexsea-comm\src/flexsea_payload.c ****             	flexsea_payload_119(cp_str);
 490:..\..\flexsea-comm\src/flexsea_payload.c ****             	break;
 491:..\..\flexsea-comm\src/flexsea_payload.c **** 				
 492:..\..\flexsea-comm\src/flexsea_payload.c **** 			//120-127:	
 493:..\..\flexsea-comm\src/flexsea_payload.c ****             case 120:
 494:..\..\flexsea-comm\src/flexsea_payload.c ****             	flexsea_payload_120(cp_str);
 495:..\..\flexsea-comm\src/flexsea_payload.c ****             	break;
 496:..\..\flexsea-comm\src/flexsea_payload.c ****             case 121:
 497:..\..\flexsea-comm\src/flexsea_payload.c ****             	flexsea_payload_121(cp_str);
 498:..\..\flexsea-comm\src/flexsea_payload.c ****             	break;
 499:..\..\flexsea-comm\src/flexsea_payload.c ****             case 122:
 500:..\..\flexsea-comm\src/flexsea_payload.c ****             	flexsea_payload_122(cp_str);
 501:..\..\flexsea-comm\src/flexsea_payload.c ****             	break;
 502:..\..\flexsea-comm\src/flexsea_payload.c ****             case 123:
 503:..\..\flexsea-comm\src/flexsea_payload.c ****             	flexsea_payload_123(cp_str);
 504:..\..\flexsea-comm\src/flexsea_payload.c ****             	break;
 505:..\..\flexsea-comm\src/flexsea_payload.c ****             case 124:
 506:..\..\flexsea-comm\src/flexsea_payload.c ****             	flexsea_payload_124(cp_str);
 507:..\..\flexsea-comm\src/flexsea_payload.c ****             	break;
 508:..\..\flexsea-comm\src/flexsea_payload.c ****             case 125:
 509:..\..\flexsea-comm\src/flexsea_payload.c ****             	flexsea_payload_125(cp_str);
 510:..\..\flexsea-comm\src/flexsea_payload.c ****             	break;
 511:..\..\flexsea-comm\src/flexsea_payload.c ****             case 126:
 512:..\..\flexsea-comm\src/flexsea_payload.c ****             	flexsea_payload_126(cp_str);
 513:..\..\flexsea-comm\src/flexsea_payload.c ****             	break;
 514:..\..\flexsea-comm\src/flexsea_payload.c ****             case 127:
 515:..\..\flexsea-comm\src/flexsea_payload.c ****             	flexsea_payload_127(cp_str);
 516:..\..\flexsea-comm\src/flexsea_payload.c ****             	break;
 517:..\..\flexsea-comm\src/flexsea_payload.c **** 			
 518:..\..\flexsea-comm\src/flexsea_payload.c **** 			//Unknown command:
 519:..\..\flexsea-comm\src/flexsea_payload.c ****             default:
 520:..\..\flexsea-comm\src/flexsea_payload.c ****                 output = PARSE_UNKNOWN_CMD;
 521:..\..\flexsea-comm\src/flexsea_payload.c ****                 break;
 522:..\..\flexsea-comm\src/flexsea_payload.c ****         }
 523:..\..\flexsea-comm\src/flexsea_payload.c **** 
 524:..\..\flexsea-comm\src/flexsea_payload.c ****         return output;
 525:..\..\flexsea-comm\src/flexsea_payload.c ****     }
 526:..\..\flexsea-comm\src/flexsea_payload.c ****     else if(id == ID_SUB1_MATCH)
 527:..\..\flexsea-comm\src/flexsea_payload.c ****     {
 528:..\..\flexsea-comm\src/flexsea_payload.c ****         //For a slave on bus #1:
 529:..\..\flexsea-comm\src/flexsea_payload.c **** 
 530:..\..\flexsea-comm\src/flexsea_payload.c ****     	route_to_slave(PORT_SUB1, cp_str, PAYLOAD_BUF_LEN);
 531:..\..\flexsea-comm\src/flexsea_payload.c ****     	//ToDo compute length rather then sending the max
 532:..\..\flexsea-comm\src/flexsea_payload.c ****     }
 533:..\..\flexsea-comm\src/flexsea_payload.c ****     else if(id == ID_SUB2_MATCH)
 534:..\..\flexsea-comm\src/flexsea_payload.c ****     {
 535:..\..\flexsea-comm\src/flexsea_payload.c ****     	//For a slave on bus #2:
 536:..\..\flexsea-comm\src/flexsea_payload.c **** 
 537:..\..\flexsea-comm\src/flexsea_payload.c ****     	route_to_slave(PORT_SUB2, cp_str, PAYLOAD_BUF_LEN);
 538:..\..\flexsea-comm\src/flexsea_payload.c ****     	//ToDo compute length rather then sending the max
 539:..\..\flexsea-comm\src/flexsea_payload.c ****     }
 540:..\..\flexsea-comm\src/flexsea_payload.c ****     else if(id == ID_UP_MATCH)
 541:..\..\flexsea-comm\src/flexsea_payload.c ****     {
 542:..\..\flexsea-comm\src/flexsea_payload.c ****         //For my master:
 543:..\..\flexsea-comm\src/flexsea_payload.c **** 		
 544:..\..\flexsea-comm\src/flexsea_payload.c **** 		#ifdef BOARD_TYPE_FLEXSEA_MANAGE
 545:..\..\flexsea-comm\src/flexsea_payload.c **** 
ARM GAS  C:\Users\Alex\AppData\Local\Temp\ccjqAdcx.s 			page 11


 546:..\..\flexsea-comm\src/flexsea_payload.c ****     	//Manage is the only board that can receive a package destined to his master
 547:..\..\flexsea-comm\src/flexsea_payload.c **** 
 548:..\..\flexsea-comm\src/flexsea_payload.c ****         //Repackages the payload. ToDo: would be more efficient to just resend the comm_str
 549:..\..\flexsea-comm\src/flexsea_payload.c ****         numb = comm_gen_str(cp_str, comm_str_usb, PAYLOAD_BUF_LEN);		//ToDo: shouldn't be fixed at 
 550:..\..\flexsea-comm\src/flexsea_payload.c ****         numb = COMM_STR_BUF_LEN;    //Fixed length for now
 551:..\..\flexsea-comm\src/flexsea_payload.c ****         flexsea_send_serial_master(PORT_USB, comm_str_usb, numb);	//Same comment here - ToDo fix
 552:..\..\flexsea-comm\src/flexsea_payload.c ****         //(the SPI driver will grab comm_str_spi directly)
 553:..\..\flexsea-comm\src/flexsea_payload.c **** 
 554:..\..\flexsea-comm\src/flexsea_payload.c **** 		#endif	//BOARD_TYPE_FLEXSEA_MANAGE
 555:..\..\flexsea-comm\src/flexsea_payload.c ****     }
 556:..\..\flexsea-comm\src/flexsea_payload.c ****     else
 557:..\..\flexsea-comm\src/flexsea_payload.c ****     {
 558:..\..\flexsea-comm\src/flexsea_payload.c ****         return PARSE_ID_NO_MATCH;
 559:..\..\flexsea-comm\src/flexsea_payload.c ****     }
 560:..\..\flexsea-comm\src/flexsea_payload.c **** 
 561:..\..\flexsea-comm\src/flexsea_payload.c ****     //Shouldn't get here...
 562:..\..\flexsea-comm\src/flexsea_payload.c ****     return PARSE_DEFAULT;
 563:..\..\flexsea-comm\src/flexsea_payload.c **** }
 564:..\..\flexsea-comm\src/flexsea_payload.c **** 
 565:..\..\flexsea-comm\src/flexsea_payload.c **** //****************************************************************************
 566:..\..\flexsea-comm\src/flexsea_payload.c **** // Private Function(s):
 567:..\..\flexsea-comm\src/flexsea_payload.c **** //****************************************************************************
 568:..\..\flexsea-comm\src/flexsea_payload.c **** 
 569:..\..\flexsea-comm\src/flexsea_payload.c **** //ToDo not the greatest function...
 570:..\..\flexsea-comm\src/flexsea_payload.c **** static void route_to_slave(uint8_t port, uint8_t *buf, uint32_t len)
 571:..\..\flexsea-comm\src/flexsea_payload.c **** {
 572:..\..\flexsea-comm\src/flexsea_payload.c **** 	uint32_t numb = 0, i = 0;
 573:..\..\flexsea-comm\src/flexsea_payload.c **** 	uint8_t *comm_str_ptr = slaves_485_1.xmit.str;
 574:..\..\flexsea-comm\src/flexsea_payload.c **** 	
 575:..\..\flexsea-comm\src/flexsea_payload.c **** 	#ifdef BOARD_TYPE_FLEXSEA_MANAGE
 576:..\..\flexsea-comm\src/flexsea_payload.c **** 
 577:..\..\flexsea-comm\src/flexsea_payload.c ****     //Repackages the payload. ToDo: would be more efficient to just resend the comm_str
 578:..\..\flexsea-comm\src/flexsea_payload.c ****     numb = comm_gen_str(buf, comm_str_tmp, len);
 579:..\..\flexsea-comm\src/flexsea_payload.c ****     //numb = COMM_STR_BUF_LEN;    //Fixed length for now
 580:..\..\flexsea-comm\src/flexsea_payload.c **** 
 581:..\..\flexsea-comm\src/flexsea_payload.c ****     //Port specific flags and buffer:
 582:..\..\flexsea-comm\src/flexsea_payload.c ****     if(port == PORT_RS485_1)
 583:..\..\flexsea-comm\src/flexsea_payload.c ****     {
 584:..\..\flexsea-comm\src/flexsea_payload.c ****     	comm_str_ptr = slaves_485_1.xmit.str;
 585:..\..\flexsea-comm\src/flexsea_payload.c ****     	slaves_485_1.xmit.cmd = buf[P_CMD1];
 586:..\..\flexsea-comm\src/flexsea_payload.c ****     	slaves_485_1.xmit.flag = 1;
 587:..\..\flexsea-comm\src/flexsea_payload.c ****     }
 588:..\..\flexsea-comm\src/flexsea_payload.c ****     else if(port == PORT_RS485_2)
 589:..\..\flexsea-comm\src/flexsea_payload.c ****     {
 590:..\..\flexsea-comm\src/flexsea_payload.c ****     	comm_str_ptr = slaves_485_2.xmit.str;
 591:..\..\flexsea-comm\src/flexsea_payload.c ****     	slaves_485_2.xmit.cmd = buf[P_CMD1];
 592:..\..\flexsea-comm\src/flexsea_payload.c ****     	slaves_485_2.xmit.flag = 1;
 593:..\..\flexsea-comm\src/flexsea_payload.c ****     }
 594:..\..\flexsea-comm\src/flexsea_payload.c **** 
 595:..\..\flexsea-comm\src/flexsea_payload.c ****     //Copy string:
 596:..\..\flexsea-comm\src/flexsea_payload.c ****     for(i = 0; i < numb+1; i++)
 597:..\..\flexsea-comm\src/flexsea_payload.c ****     {
 598:..\..\flexsea-comm\src/flexsea_payload.c ****     	comm_str_ptr[i] = comm_str_tmp[i];
 599:..\..\flexsea-comm\src/flexsea_payload.c ****     }
 600:..\..\flexsea-comm\src/flexsea_payload.c **** 	
 601:..\..\flexsea-comm\src/flexsea_payload.c **** 	#endif 	//BOARD_TYPE_FLEXSEA_MANAGE
 602:..\..\flexsea-comm\src/flexsea_payload.c **** }
ARM GAS  C:\Users\Alex\AppData\Local\Temp\ccjqAdcx.s 			page 12


 603:..\..\flexsea-comm\src/flexsea_payload.c **** 
 604:..\..\flexsea-comm\src/flexsea_payload.c **** //Is it addressed to me? To a board "below" me? Or to my Master?
 605:..\..\flexsea-comm\src/flexsea_payload.c **** static uint8_t get_rid(uint8_t *pldata)
 606:..\..\flexsea-comm\src/flexsea_payload.c **** {
  26              		.loc 1 606 0
  27              		.cfi_startproc
  28              		@ args = 0, pretend = 0, frame = 0
  29              		@ frame_needed = 0, uses_anonymous_args = 0
  30              		@ link register save eliminated.
  31              	.LVL0:
 607:..\..\flexsea-comm\src/flexsea_payload.c **** 	uint8_t cp_rid = pldata[P_RID];
  32              		.loc 1 607 0
  33 0000 4378     		ldrb	r3, [r0, #1]	@ zero_extendqisi2
  34              	.LVL1:
 608:..\..\flexsea-comm\src/flexsea_payload.c **** 	uint8_t i = 0;
 609:..\..\flexsea-comm\src/flexsea_payload.c **** 
 610:..\..\flexsea-comm\src/flexsea_payload.c **** 	if(cp_rid == board_id)				//This board?
  35              		.loc 1 610 0
  36 0002 074A     		ldr	r2, .L5
  37 0004 1278     		ldrb	r2, [r2]	@ zero_extendqisi2
  38 0006 9342     		cmp	r3, r2
  39 0008 05D0     		beq	.L3
 611:..\..\flexsea-comm\src/flexsea_payload.c **** 	{
 612:..\..\flexsea-comm\src/flexsea_payload.c **** 		return ID_MATCH;
 613:..\..\flexsea-comm\src/flexsea_payload.c **** 	}
 614:..\..\flexsea-comm\src/flexsea_payload.c **** 	else if(cp_rid == board_up_id)		//Master?
  40              		.loc 1 614 0
  41 000a 064A     		ldr	r2, .L5+4
  42 000c 1278     		ldrb	r2, [r2]	@ zero_extendqisi2
  43 000e 9342     		cmp	r3, r2
  44 0010 03D1     		bne	.L4
 615:..\..\flexsea-comm\src/flexsea_payload.c **** 	{
 616:..\..\flexsea-comm\src/flexsea_payload.c **** 		return ID_UP_MATCH;
  45              		.loc 1 616 0
  46 0012 0420     		movs	r0, #4
  47              	.LVL2:
  48 0014 7047     		bx	lr
  49              	.LVL3:
  50              	.L3:
 612:..\..\flexsea-comm\src/flexsea_payload.c **** 	}
  51              		.loc 1 612 0
  52 0016 0120     		movs	r0, #1
  53              	.LVL4:
  54 0018 7047     		bx	lr
  55              	.LVL5:
  56              	.L4:
 617:..\..\flexsea-comm\src/flexsea_payload.c **** 	}
 618:..\..\flexsea-comm\src/flexsea_payload.c **** 	else
 619:..\..\flexsea-comm\src/flexsea_payload.c **** 	{
 620:..\..\flexsea-comm\src/flexsea_payload.c **** 		//Can be on a slave bus, or can be invalid.
 621:..\..\flexsea-comm\src/flexsea_payload.c **** 
 622:..\..\flexsea-comm\src/flexsea_payload.c **** 		//Search on slave bus #1:
 623:..\..\flexsea-comm\src/flexsea_payload.c **** 		for(i = 0; i < SLAVE_BUS_1_CNT; i++)
 624:..\..\flexsea-comm\src/flexsea_payload.c **** 		{
 625:..\..\flexsea-comm\src/flexsea_payload.c **** 			if(cp_rid == board_sub1_id[i])
 626:..\..\flexsea-comm\src/flexsea_payload.c **** 			{
 627:..\..\flexsea-comm\src/flexsea_payload.c **** 				return ID_SUB1_MATCH;
ARM GAS  C:\Users\Alex\AppData\Local\Temp\ccjqAdcx.s 			page 13


 628:..\..\flexsea-comm\src/flexsea_payload.c **** 			}
 629:..\..\flexsea-comm\src/flexsea_payload.c **** 		}
 630:..\..\flexsea-comm\src/flexsea_payload.c **** 
 631:..\..\flexsea-comm\src/flexsea_payload.c **** 		//Then on bus #2:
 632:..\..\flexsea-comm\src/flexsea_payload.c **** 		for(i = 0; i < SLAVE_BUS_1_CNT; i++)
 633:..\..\flexsea-comm\src/flexsea_payload.c **** 		{
 634:..\..\flexsea-comm\src/flexsea_payload.c **** 			if(cp_rid == board_sub2_id[i])
 635:..\..\flexsea-comm\src/flexsea_payload.c **** 			{
 636:..\..\flexsea-comm\src/flexsea_payload.c **** 				return ID_SUB2_MATCH;
 637:..\..\flexsea-comm\src/flexsea_payload.c **** 			}
 638:..\..\flexsea-comm\src/flexsea_payload.c **** 		}
 639:..\..\flexsea-comm\src/flexsea_payload.c **** 	}
 640:..\..\flexsea-comm\src/flexsea_payload.c **** 
 641:..\..\flexsea-comm\src/flexsea_payload.c **** 	//If we end up here it's because we didn't get a match:
 642:..\..\flexsea-comm\src/flexsea_payload.c **** 	return ID_NO_MATCH;
  57              		.loc 1 642 0
  58 001a 0020     		movs	r0, #0
  59              	.LVL6:
 643:..\..\flexsea-comm\src/flexsea_payload.c **** }
  60              		.loc 1 643 0
  61 001c 7047     		bx	lr
  62              	.L6:
  63 001e 00BF     		.align	2
  64              	.L5:
  65 0020 00000000 		.word	board_id
  66 0024 00000000 		.word	board_up_id
  67              		.cfi_endproc
  68              	.LFE5:
  69              		.size	get_rid, .-get_rid
  70              		.section	.text.prepare_empty_payload,"ax",%progbits
  71              		.align	2
  72              		.global	prepare_empty_payload
  73              		.thumb
  74              		.thumb_func
  75              		.type	prepare_empty_payload, %function
  76              	prepare_empty_payload:
  77              	.LFB0:
  43:..\..\flexsea-comm\src/flexsea_payload.c **** 	//Start fresh:
  78              		.loc 1 43 0
  79              		.cfi_startproc
  80              		@ args = 0, pretend = 0, frame = 0
  81              		@ frame_needed = 0, uses_anonymous_args = 0
  82              	.LVL7:
  83 0000 70B5     		push	{r4, r5, r6, lr}
  84              		.cfi_def_cfa_offset 16
  85              		.cfi_offset 4, -16
  86              		.cfi_offset 5, -12
  87              		.cfi_offset 6, -8
  88              		.cfi_offset 14, -4
  89 0002 0646     		mov	r6, r0
  90 0004 0D46     		mov	r5, r1
  91 0006 1446     		mov	r4, r2
  45:..\..\flexsea-comm\src/flexsea_payload.c **** 
  92              		.loc 1 45 0
  93 0008 1046     		mov	r0, r2
  94              	.LVL8:
  95 000a 1946     		mov	r1, r3
ARM GAS  C:\Users\Alex\AppData\Local\Temp\ccjqAdcx.s 			page 14


  96              	.LVL9:
  97 000c 0022     		movs	r2, #0
  98              	.LVL10:
  99 000e FFF7FEFF 		bl	fill_uint8_buf
 100              	.LVL11:
  48:..\..\flexsea-comm\src/flexsea_payload.c ****     buf[P_RID] = to;
 101              		.loc 1 48 0
 102 0012 2670     		strb	r6, [r4]
  49:..\..\flexsea-comm\src/flexsea_payload.c **** }
 103              		.loc 1 49 0
 104 0014 6570     		strb	r5, [r4, #1]
 105 0016 70BD     		pop	{r4, r5, r6, pc}
 106              		.cfi_endproc
 107              	.LFE0:
 108              		.size	prepare_empty_payload, .-prepare_empty_payload
 109              		.section	.text.append_to_payload,"ax",%progbits
 110              		.align	2
 111              		.global	append_to_payload
 112              		.thumb
 113              		.thumb_func
 114              		.type	append_to_payload, %function
 115              	append_to_payload:
 116              	.LFB1:
  56:..\..\flexsea-comm\src/flexsea_payload.c **** 	uint32_t i = 0, cnt = 0;
 117              		.loc 1 56 0
 118              		.cfi_startproc
 119              		@ args = 0, pretend = 0, frame = 0
 120              		@ frame_needed = 0, uses_anonymous_args = 0
 121              		@ link register save eliminated.
 122              	.LVL12:
 123 0000 70B4     		push	{r4, r5, r6}
 124              		.cfi_def_cfa_offset 12
 125              		.cfi_offset 4, -12
 126              		.cfi_offset 5, -8
 127              		.cfi_offset 6, -4
 128 0002 0646     		mov	r6, r0
 129              	.LVL13:
  60:..\..\flexsea-comm\src/flexsea_payload.c **** 	{
 130              		.loc 1 60 0
 131 0004 0846     		mov	r0, r1
 132              	.LVL14:
  57:..\..\flexsea-comm\src/flexsea_payload.c **** 
 133              		.loc 1 57 0
 134 0006 0024     		movs	r4, #0
  60:..\..\flexsea-comm\src/flexsea_payload.c **** 	{
 135              		.loc 1 60 0
 136 0008 03E0     		b	.L10
 137              	.LVL15:
 138              	.L11:
  62:..\..\flexsea-comm\src/flexsea_payload.c **** 	}
 139              		.loc 1 62 0 discriminator 3
 140 000a 155D     		ldrb	r5, [r2, r4]	@ zero_extendqisi2
 141 000c 3554     		strb	r5, [r6, r0]
  60:..\..\flexsea-comm\src/flexsea_payload.c **** 	{
 142              		.loc 1 60 0 discriminator 3
 143 000e 0130     		adds	r0, r0, #1
 144              	.LVL16:
ARM GAS  C:\Users\Alex\AppData\Local\Temp\ccjqAdcx.s 			page 15


  62:..\..\flexsea-comm\src/flexsea_payload.c **** 	}
 145              		.loc 1 62 0 discriminator 3
 146 0010 0134     		adds	r4, r4, #1
 147              	.LVL17:
 148              	.L10:
  60:..\..\flexsea-comm\src/flexsea_payload.c **** 	{
 149              		.loc 1 60 0 discriminator 1
 150 0012 CD18     		adds	r5, r1, r3
 151 0014 8542     		cmp	r5, r0
 152 0016 F8D8     		bhi	.L11
  67:..\..\flexsea-comm\src/flexsea_payload.c **** 
 153              		.loc 1 67 0
 154 0018 70BC     		pop	{r4, r5, r6}
 155              		.cfi_restore 6
 156              		.cfi_restore 5
 157              		.cfi_restore 4
 158              		.cfi_def_cfa_offset 0
 159              	.LVL18:
 160 001a 7047     		bx	lr
 161              		.cfi_endproc
 162              	.LFE1:
 163              		.size	append_to_payload, .-append_to_payload
 164              		.section	.text.sent_from_a_slave,"ax",%progbits
 165              		.align	2
 166              		.global	sent_from_a_slave
 167              		.thumb
 168              		.thumb_func
 169              		.type	sent_from_a_slave, %function
 170              	sent_from_a_slave:
 171              	.LFB2:
  71:..\..\flexsea-comm\src/flexsea_payload.c **** 	//Slaves have higher addresses than their master.
 172              		.loc 1 71 0
 173              		.cfi_startproc
 174              		@ args = 0, pretend = 0, frame = 0
 175              		@ frame_needed = 0, uses_anonymous_args = 0
 176              		@ link register save eliminated.
 177              	.LVL19:
  73:..\..\flexsea-comm\src/flexsea_payload.c **** 	{
 178              		.loc 1 73 0
 179 0000 0278     		ldrb	r2, [r0]	@ zero_extendqisi2
 180 0002 4378     		ldrb	r3, [r0, #1]	@ zero_extendqisi2
 181 0004 9A42     		cmp	r2, r3
 182 0006 01D9     		bls	.L15
  76:..\..\flexsea-comm\src/flexsea_payload.c **** 	}
 183              		.loc 1 76 0
 184 0008 0120     		movs	r0, #1
 185              	.LVL20:
 186 000a 7047     		bx	lr
 187              	.LVL21:
 188              	.L15:
  81:..\..\flexsea-comm\src/flexsea_payload.c **** 	}
 189              		.loc 1 81 0
 190 000c 0020     		movs	r0, #0
 191              	.LVL22:
  86:..\..\flexsea-comm\src/flexsea_payload.c **** 
 192              		.loc 1 86 0
 193 000e 7047     		bx	lr
ARM GAS  C:\Users\Alex\AppData\Local\Temp\ccjqAdcx.s 			page 16


 194              		.cfi_endproc
 195              	.LFE2:
 196              		.size	sent_from_a_slave, .-sent_from_a_slave
 197              		.section	.text.payload_parse_str,"ax",%progbits
 198              		.align	2
 199              		.global	payload_parse_str
 200              		.thumb
 201              		.thumb_func
 202              		.type	payload_parse_str, %function
 203              	payload_parse_str:
 204              	.LFB3:
  91:..\..\flexsea-comm\src/flexsea_payload.c ****     unsigned char cmd = 0, cmd_7bits = 0, output = PARSE_SUCCESSFUL, numb = 0;
 205              		.loc 1 91 0
 206              		.cfi_startproc
 207              		@ args = 0, pretend = 0, frame = 0
 208              		@ frame_needed = 0, uses_anonymous_args = 0
 209              	.LVL23:
 210 0000 38B5     		push	{r3, r4, r5, lr}
 211              		.cfi_def_cfa_offset 16
 212              		.cfi_offset 3, -16
 213              		.cfi_offset 4, -12
 214              		.cfi_offset 5, -8
 215              		.cfi_offset 14, -4
 216 0002 0546     		mov	r5, r0
 217              	.LVL24:
  96:..\..\flexsea-comm\src/flexsea_payload.c ****     cmd_7bits = CMD_7BITS(cmd);	//CMD code, no R/W information
 218              		.loc 1 96 0
 219 0004 C378     		ldrb	r3, [r0, #3]	@ zero_extendqisi2
 220              	.LVL25:
  97:..\..\flexsea-comm\src/flexsea_payload.c **** 
 221              		.loc 1 97 0
 222 0006 5C08     		lsrs	r4, r3, #1
 223              	.LVL26:
 100:..\..\flexsea-comm\src/flexsea_payload.c ****     if(id == ID_MATCH)
 224              		.loc 1 100 0
 225 0008 FFF7FEFF 		bl	get_rid
 226              	.LVL27:
 101:..\..\flexsea-comm\src/flexsea_payload.c ****     {
 227              		.loc 1 101 0
 228 000c 0128     		cmp	r0, #1
 229 000e 40F00783 		bne	.L17
 106:..\..\flexsea-comm\src/flexsea_payload.c ****         {
 230              		.loc 1 106 0
 231 0012 7F2C     		cmp	r4, #127
 232 0014 00F20283 		bhi	.L149
 233 0018 DFE814F0 		tbh	[pc, r4, lsl #1]
 234              	.L20:
 235 001c 8000     		.2byte	(.L19-.L20)/2
 236 001e 8500     		.2byte	(.L21-.L20)/2
 237 0020 8A00     		.2byte	(.L22-.L20)/2
 238 0022 8F00     		.2byte	(.L23-.L20)/2
 239 0024 9400     		.2byte	(.L24-.L20)/2
 240 0026 9900     		.2byte	(.L25-.L20)/2
 241 0028 9E00     		.2byte	(.L26-.L20)/2
 242 002a A300     		.2byte	(.L27-.L20)/2
 243 002c A800     		.2byte	(.L28-.L20)/2
 244 002e AD00     		.2byte	(.L29-.L20)/2
ARM GAS  C:\Users\Alex\AppData\Local\Temp\ccjqAdcx.s 			page 17


 245 0030 B200     		.2byte	(.L30-.L20)/2
 246 0032 B700     		.2byte	(.L31-.L20)/2
 247 0034 BC00     		.2byte	(.L32-.L20)/2
 248 0036 C100     		.2byte	(.L33-.L20)/2
 249 0038 C600     		.2byte	(.L34-.L20)/2
 250 003a CB00     		.2byte	(.L35-.L20)/2
 251 003c D000     		.2byte	(.L36-.L20)/2
 252 003e D500     		.2byte	(.L37-.L20)/2
 253 0040 DA00     		.2byte	(.L38-.L20)/2
 254 0042 DF00     		.2byte	(.L39-.L20)/2
 255 0044 E400     		.2byte	(.L40-.L20)/2
 256 0046 E900     		.2byte	(.L41-.L20)/2
 257 0048 EE00     		.2byte	(.L42-.L20)/2
 258 004a F300     		.2byte	(.L43-.L20)/2
 259 004c F800     		.2byte	(.L44-.L20)/2
 260 004e FD00     		.2byte	(.L45-.L20)/2
 261 0050 0201     		.2byte	(.L46-.L20)/2
 262 0052 0701     		.2byte	(.L47-.L20)/2
 263 0054 0C01     		.2byte	(.L48-.L20)/2
 264 0056 1101     		.2byte	(.L49-.L20)/2
 265 0058 1601     		.2byte	(.L50-.L20)/2
 266 005a 1B01     		.2byte	(.L51-.L20)/2
 267 005c 2001     		.2byte	(.L52-.L20)/2
 268 005e 2501     		.2byte	(.L53-.L20)/2
 269 0060 2A01     		.2byte	(.L54-.L20)/2
 270 0062 2F01     		.2byte	(.L55-.L20)/2
 271 0064 3401     		.2byte	(.L56-.L20)/2
 272 0066 3901     		.2byte	(.L57-.L20)/2
 273 0068 3E01     		.2byte	(.L58-.L20)/2
 274 006a 4301     		.2byte	(.L59-.L20)/2
 275 006c 4801     		.2byte	(.L60-.L20)/2
 276 006e 4D01     		.2byte	(.L61-.L20)/2
 277 0070 5201     		.2byte	(.L62-.L20)/2
 278 0072 5701     		.2byte	(.L63-.L20)/2
 279 0074 5C01     		.2byte	(.L64-.L20)/2
 280 0076 6101     		.2byte	(.L65-.L20)/2
 281 0078 6601     		.2byte	(.L66-.L20)/2
 282 007a 6B01     		.2byte	(.L67-.L20)/2
 283 007c 7001     		.2byte	(.L68-.L20)/2
 284 007e 7501     		.2byte	(.L69-.L20)/2
 285 0080 7A01     		.2byte	(.L70-.L20)/2
 286 0082 7F01     		.2byte	(.L71-.L20)/2
 287 0084 8401     		.2byte	(.L72-.L20)/2
 288 0086 8901     		.2byte	(.L73-.L20)/2
 289 0088 8E01     		.2byte	(.L74-.L20)/2
 290 008a 9301     		.2byte	(.L75-.L20)/2
 291 008c 9801     		.2byte	(.L76-.L20)/2
 292 008e 9D01     		.2byte	(.L77-.L20)/2
 293 0090 A201     		.2byte	(.L78-.L20)/2
 294 0092 A701     		.2byte	(.L79-.L20)/2
 295 0094 AC01     		.2byte	(.L80-.L20)/2
 296 0096 B101     		.2byte	(.L81-.L20)/2
 297 0098 B601     		.2byte	(.L82-.L20)/2
 298 009a BB01     		.2byte	(.L83-.L20)/2
 299 009c C001     		.2byte	(.L84-.L20)/2
 300 009e C501     		.2byte	(.L85-.L20)/2
 301 00a0 CA01     		.2byte	(.L86-.L20)/2
ARM GAS  C:\Users\Alex\AppData\Local\Temp\ccjqAdcx.s 			page 18


 302 00a2 CF01     		.2byte	(.L87-.L20)/2
 303 00a4 D401     		.2byte	(.L88-.L20)/2
 304 00a6 D901     		.2byte	(.L89-.L20)/2
 305 00a8 DE01     		.2byte	(.L90-.L20)/2
 306 00aa E301     		.2byte	(.L91-.L20)/2
 307 00ac E801     		.2byte	(.L92-.L20)/2
 308 00ae ED01     		.2byte	(.L93-.L20)/2
 309 00b0 F201     		.2byte	(.L94-.L20)/2
 310 00b2 F701     		.2byte	(.L95-.L20)/2
 311 00b4 FC01     		.2byte	(.L96-.L20)/2
 312 00b6 0102     		.2byte	(.L97-.L20)/2
 313 00b8 0602     		.2byte	(.L98-.L20)/2
 314 00ba 0B02     		.2byte	(.L99-.L20)/2
 315 00bc 1002     		.2byte	(.L100-.L20)/2
 316 00be 1502     		.2byte	(.L101-.L20)/2
 317 00c0 1A02     		.2byte	(.L102-.L20)/2
 318 00c2 1F02     		.2byte	(.L103-.L20)/2
 319 00c4 2402     		.2byte	(.L104-.L20)/2
 320 00c6 2902     		.2byte	(.L105-.L20)/2
 321 00c8 2E02     		.2byte	(.L106-.L20)/2
 322 00ca 3302     		.2byte	(.L107-.L20)/2
 323 00cc 3802     		.2byte	(.L108-.L20)/2
 324 00ce 3D02     		.2byte	(.L109-.L20)/2
 325 00d0 4202     		.2byte	(.L110-.L20)/2
 326 00d2 4702     		.2byte	(.L111-.L20)/2
 327 00d4 4C02     		.2byte	(.L112-.L20)/2
 328 00d6 5102     		.2byte	(.L113-.L20)/2
 329 00d8 5602     		.2byte	(.L114-.L20)/2
 330 00da 5B02     		.2byte	(.L115-.L20)/2
 331 00dc 6002     		.2byte	(.L116-.L20)/2
 332 00de 6502     		.2byte	(.L117-.L20)/2
 333 00e0 6A02     		.2byte	(.L118-.L20)/2
 334 00e2 6F02     		.2byte	(.L119-.L20)/2
 335 00e4 7402     		.2byte	(.L120-.L20)/2
 336 00e6 7902     		.2byte	(.L121-.L20)/2
 337 00e8 7E02     		.2byte	(.L122-.L20)/2
 338 00ea 8302     		.2byte	(.L123-.L20)/2
 339 00ec 8802     		.2byte	(.L124-.L20)/2
 340 00ee 8D02     		.2byte	(.L125-.L20)/2
 341 00f0 9202     		.2byte	(.L126-.L20)/2
 342 00f2 9702     		.2byte	(.L127-.L20)/2
 343 00f4 9C02     		.2byte	(.L128-.L20)/2
 344 00f6 A102     		.2byte	(.L129-.L20)/2
 345 00f8 A602     		.2byte	(.L130-.L20)/2
 346 00fa AB02     		.2byte	(.L131-.L20)/2
 347 00fc B002     		.2byte	(.L132-.L20)/2
 348 00fe B502     		.2byte	(.L133-.L20)/2
 349 0100 BA02     		.2byte	(.L134-.L20)/2
 350 0102 BF02     		.2byte	(.L135-.L20)/2
 351 0104 C402     		.2byte	(.L136-.L20)/2
 352 0106 C902     		.2byte	(.L137-.L20)/2
 353 0108 CE02     		.2byte	(.L138-.L20)/2
 354 010a D302     		.2byte	(.L139-.L20)/2
 355 010c D802     		.2byte	(.L140-.L20)/2
 356 010e DD02     		.2byte	(.L141-.L20)/2
 357 0110 E202     		.2byte	(.L142-.L20)/2
 358 0112 E702     		.2byte	(.L143-.L20)/2
ARM GAS  C:\Users\Alex\AppData\Local\Temp\ccjqAdcx.s 			page 19


 359 0114 EC02     		.2byte	(.L144-.L20)/2
 360 0116 F102     		.2byte	(.L145-.L20)/2
 361 0118 F602     		.2byte	(.L146-.L20)/2
 362 011a FB02     		.2byte	(.L147-.L20)/2
 363              		.p2align 1
 364              	.L19:
 110:..\..\flexsea-comm\src/flexsea_payload.c ****                 break;            
 365              		.loc 1 110 0
 366 011c 2846     		mov	r0, r5
 367              	.LVL28:
 368 011e FFF7FEFF 		bl	flexsea_payload_0
 369              	.LVL29:
 103:..\..\flexsea-comm\src/flexsea_payload.c **** 
 370              		.loc 1 103 0
 371 0122 0220     		movs	r0, #2
 111:..\..\flexsea-comm\src/flexsea_payload.c ****             case 1:		//FlexSEA Stack Test
 372              		.loc 1 111 0
 373 0124 38BD     		pop	{r3, r4, r5, pc}
 374              	.LVL30:
 375              	.L21:
 113:..\..\flexsea-comm\src/flexsea_payload.c ****             	break;
 376              		.loc 1 113 0
 377 0126 2846     		mov	r0, r5
 378              	.LVL31:
 379 0128 FFF7FEFF 		bl	rx_cmd_test
 380              	.LVL32:
 103:..\..\flexsea-comm\src/flexsea_payload.c **** 
 381              		.loc 1 103 0
 382 012c 0220     		movs	r0, #2
 114:..\..\flexsea-comm\src/flexsea_payload.c ****             case 2:
 383              		.loc 1 114 0
 384 012e 38BD     		pop	{r3, r4, r5, pc}
 385              	.LVL33:
 386              	.L22:
 116:..\..\flexsea-comm\src/flexsea_payload.c ****                 break;
 387              		.loc 1 116 0
 388 0130 2846     		mov	r0, r5
 389              	.LVL34:
 390 0132 FFF7FEFF 		bl	flexsea_payload_2
 391              	.LVL35:
 103:..\..\flexsea-comm\src/flexsea_payload.c **** 
 392              		.loc 1 103 0
 393 0136 0220     		movs	r0, #2
 117:..\..\flexsea-comm\src/flexsea_payload.c **** 			case 3:
 394              		.loc 1 117 0
 395 0138 38BD     		pop	{r3, r4, r5, pc}
 396              	.LVL36:
 397              	.L23:
 119:..\..\flexsea-comm\src/flexsea_payload.c ****                 break;
 398              		.loc 1 119 0
 399 013a 2846     		mov	r0, r5
 400              	.LVL37:
 401 013c FFF7FEFF 		bl	flexsea_payload_3
 402              	.LVL38:
 103:..\..\flexsea-comm\src/flexsea_payload.c **** 
 403              		.loc 1 103 0
 404 0140 0220     		movs	r0, #2
ARM GAS  C:\Users\Alex\AppData\Local\Temp\ccjqAdcx.s 			page 20


 120:..\..\flexsea-comm\src/flexsea_payload.c **** 			case 4:
 405              		.loc 1 120 0
 406 0142 38BD     		pop	{r3, r4, r5, pc}
 407              	.LVL39:
 408              	.L24:
 122:..\..\flexsea-comm\src/flexsea_payload.c ****                 break;
 409              		.loc 1 122 0
 410 0144 2846     		mov	r0, r5
 411              	.LVL40:
 412 0146 FFF7FEFF 		bl	flexsea_payload_4
 413              	.LVL41:
 103:..\..\flexsea-comm\src/flexsea_payload.c **** 
 414              		.loc 1 103 0
 415 014a 0220     		movs	r0, #2
 123:..\..\flexsea-comm\src/flexsea_payload.c **** 			case 5:
 416              		.loc 1 123 0
 417 014c 38BD     		pop	{r3, r4, r5, pc}
 418              	.LVL42:
 419              	.L25:
 125:..\..\flexsea-comm\src/flexsea_payload.c ****                 break;
 420              		.loc 1 125 0
 421 014e 2846     		mov	r0, r5
 422              	.LVL43:
 423 0150 FFF7FEFF 		bl	flexsea_payload_5
 424              	.LVL44:
 103:..\..\flexsea-comm\src/flexsea_payload.c **** 
 425              		.loc 1 103 0
 426 0154 0220     		movs	r0, #2
 126:..\..\flexsea-comm\src/flexsea_payload.c **** 			case 6:
 427              		.loc 1 126 0
 428 0156 38BD     		pop	{r3, r4, r5, pc}
 429              	.LVL45:
 430              	.L26:
 128:..\..\flexsea-comm\src/flexsea_payload.c ****                 break;
 431              		.loc 1 128 0
 432 0158 2846     		mov	r0, r5
 433              	.LVL46:
 434 015a FFF7FEFF 		bl	flexsea_payload_6
 435              	.LVL47:
 103:..\..\flexsea-comm\src/flexsea_payload.c **** 
 436              		.loc 1 103 0
 437 015e 0220     		movs	r0, #2
 129:..\..\flexsea-comm\src/flexsea_payload.c **** 			case 7:
 438              		.loc 1 129 0
 439 0160 38BD     		pop	{r3, r4, r5, pc}
 440              	.LVL48:
 441              	.L27:
 131:..\..\flexsea-comm\src/flexsea_payload.c ****                 break;
 442              		.loc 1 131 0
 443 0162 2846     		mov	r0, r5
 444              	.LVL49:
 445 0164 FFF7FEFF 		bl	flexsea_payload_7
 446              	.LVL50:
 103:..\..\flexsea-comm\src/flexsea_payload.c **** 
 447              		.loc 1 103 0
 448 0168 0220     		movs	r0, #2
 132:..\..\flexsea-comm\src/flexsea_payload.c **** 			case 8:
ARM GAS  C:\Users\Alex\AppData\Local\Temp\ccjqAdcx.s 			page 21


 449              		.loc 1 132 0
 450 016a 38BD     		pop	{r3, r4, r5, pc}
 451              	.LVL51:
 452              	.L28:
 134:..\..\flexsea-comm\src/flexsea_payload.c ****                 break;
 453              		.loc 1 134 0
 454 016c 2846     		mov	r0, r5
 455              	.LVL52:
 456 016e FFF7FEFF 		bl	flexsea_payload_8
 457              	.LVL53:
 103:..\..\flexsea-comm\src/flexsea_payload.c **** 
 458              		.loc 1 103 0
 459 0172 0220     		movs	r0, #2
 135:..\..\flexsea-comm\src/flexsea_payload.c **** 			case 9:
 460              		.loc 1 135 0
 461 0174 38BD     		pop	{r3, r4, r5, pc}
 462              	.LVL54:
 463              	.L29:
 137:..\..\flexsea-comm\src/flexsea_payload.c ****                 break;
 464              		.loc 1 137 0
 465 0176 2846     		mov	r0, r5
 466              	.LVL55:
 467 0178 FFF7FEFF 		bl	flexsea_payload_9
 468              	.LVL56:
 103:..\..\flexsea-comm\src/flexsea_payload.c **** 
 469              		.loc 1 103 0
 470 017c 0220     		movs	r0, #2
 138:..\..\flexsea-comm\src/flexsea_payload.c **** 
 471              		.loc 1 138 0
 472 017e 38BD     		pop	{r3, r4, r5, pc}
 473              	.LVL57:
 474              	.L30:
 142:..\..\flexsea-comm\src/flexsea_payload.c ****             	break;
 475              		.loc 1 142 0
 476 0180 2846     		mov	r0, r5
 477              	.LVL58:
 478 0182 FFF7FEFF 		bl	flexsea_payload_10
 479              	.LVL59:
 103:..\..\flexsea-comm\src/flexsea_payload.c **** 
 480              		.loc 1 103 0
 481 0186 0220     		movs	r0, #2
 143:..\..\flexsea-comm\src/flexsea_payload.c ****             case 11:
 482              		.loc 1 143 0
 483 0188 38BD     		pop	{r3, r4, r5, pc}
 484              	.LVL60:
 485              	.L31:
 145:..\..\flexsea-comm\src/flexsea_payload.c ****             	break;
 486              		.loc 1 145 0
 487 018a 2846     		mov	r0, r5
 488              	.LVL61:
 489 018c FFF7FEFF 		bl	flexsea_payload_11
 490              	.LVL62:
 103:..\..\flexsea-comm\src/flexsea_payload.c **** 
 491              		.loc 1 103 0
 492 0190 0220     		movs	r0, #2
 146:..\..\flexsea-comm\src/flexsea_payload.c ****             case 12:
 493              		.loc 1 146 0
ARM GAS  C:\Users\Alex\AppData\Local\Temp\ccjqAdcx.s 			page 22


 494 0192 38BD     		pop	{r3, r4, r5, pc}
 495              	.LVL63:
 496              	.L32:
 148:..\..\flexsea-comm\src/flexsea_payload.c ****             	break;
 497              		.loc 1 148 0
 498 0194 2846     		mov	r0, r5
 499              	.LVL64:
 500 0196 FFF7FEFF 		bl	flexsea_payload_12
 501              	.LVL65:
 103:..\..\flexsea-comm\src/flexsea_payload.c **** 
 502              		.loc 1 103 0
 503 019a 0220     		movs	r0, #2
 149:..\..\flexsea-comm\src/flexsea_payload.c ****             case 13:
 504              		.loc 1 149 0
 505 019c 38BD     		pop	{r3, r4, r5, pc}
 506              	.LVL66:
 507              	.L33:
 151:..\..\flexsea-comm\src/flexsea_payload.c ****             	break;
 508              		.loc 1 151 0
 509 019e 2846     		mov	r0, r5
 510              	.LVL67:
 511 01a0 FFF7FEFF 		bl	flexsea_payload_13
 512              	.LVL68:
 103:..\..\flexsea-comm\src/flexsea_payload.c **** 
 513              		.loc 1 103 0
 514 01a4 0220     		movs	r0, #2
 152:..\..\flexsea-comm\src/flexsea_payload.c ****             case 14:
 515              		.loc 1 152 0
 516 01a6 38BD     		pop	{r3, r4, r5, pc}
 517              	.LVL69:
 518              	.L34:
 154:..\..\flexsea-comm\src/flexsea_payload.c ****             	break;
 519              		.loc 1 154 0
 520 01a8 2846     		mov	r0, r5
 521              	.LVL70:
 522 01aa FFF7FEFF 		bl	flexsea_payload_14
 523              	.LVL71:
 103:..\..\flexsea-comm\src/flexsea_payload.c **** 
 524              		.loc 1 103 0
 525 01ae 0220     		movs	r0, #2
 155:..\..\flexsea-comm\src/flexsea_payload.c ****             case 15:
 526              		.loc 1 155 0
 527 01b0 38BD     		pop	{r3, r4, r5, pc}
 528              	.LVL72:
 529              	.L35:
 157:..\..\flexsea-comm\src/flexsea_payload.c ****             	break;
 530              		.loc 1 157 0
 531 01b2 2846     		mov	r0, r5
 532              	.LVL73:
 533 01b4 FFF7FEFF 		bl	flexsea_payload_15
 534              	.LVL74:
 103:..\..\flexsea-comm\src/flexsea_payload.c **** 
 535              		.loc 1 103 0
 536 01b8 0220     		movs	r0, #2
 158:..\..\flexsea-comm\src/flexsea_payload.c ****             case 16:
 537              		.loc 1 158 0
 538 01ba 38BD     		pop	{r3, r4, r5, pc}
ARM GAS  C:\Users\Alex\AppData\Local\Temp\ccjqAdcx.s 			page 23


 539              	.LVL75:
 540              	.L36:
 160:..\..\flexsea-comm\src/flexsea_payload.c ****             	break;
 541              		.loc 1 160 0
 542 01bc 2846     		mov	r0, r5
 543              	.LVL76:
 544 01be FFF7FEFF 		bl	flexsea_payload_16
 545              	.LVL77:
 103:..\..\flexsea-comm\src/flexsea_payload.c **** 
 546              		.loc 1 103 0
 547 01c2 0220     		movs	r0, #2
 161:..\..\flexsea-comm\src/flexsea_payload.c ****             case 17:
 548              		.loc 1 161 0
 549 01c4 38BD     		pop	{r3, r4, r5, pc}
 550              	.LVL78:
 551              	.L37:
 163:..\..\flexsea-comm\src/flexsea_payload.c ****             	break;
 552              		.loc 1 163 0
 553 01c6 2846     		mov	r0, r5
 554              	.LVL79:
 555 01c8 FFF7FEFF 		bl	flexsea_payload_17
 556              	.LVL80:
 103:..\..\flexsea-comm\src/flexsea_payload.c **** 
 557              		.loc 1 103 0
 558 01cc 0220     		movs	r0, #2
 164:..\..\flexsea-comm\src/flexsea_payload.c ****             case 18:
 559              		.loc 1 164 0
 560 01ce 38BD     		pop	{r3, r4, r5, pc}
 561              	.LVL81:
 562              	.L38:
 166:..\..\flexsea-comm\src/flexsea_payload.c ****             	break;
 563              		.loc 1 166 0
 564 01d0 2846     		mov	r0, r5
 565              	.LVL82:
 566 01d2 FFF7FEFF 		bl	flexsea_payload_18
 567              	.LVL83:
 103:..\..\flexsea-comm\src/flexsea_payload.c **** 
 568              		.loc 1 103 0
 569 01d6 0220     		movs	r0, #2
 167:..\..\flexsea-comm\src/flexsea_payload.c ****             case 19:
 570              		.loc 1 167 0
 571 01d8 38BD     		pop	{r3, r4, r5, pc}
 572              	.LVL84:
 573              	.L39:
 169:..\..\flexsea-comm\src/flexsea_payload.c ****             	break;
 574              		.loc 1 169 0
 575 01da 2846     		mov	r0, r5
 576              	.LVL85:
 577 01dc FFF7FEFF 		bl	flexsea_payload_19
 578              	.LVL86:
 103:..\..\flexsea-comm\src/flexsea_payload.c **** 
 579              		.loc 1 103 0
 580 01e0 0220     		movs	r0, #2
 170:..\..\flexsea-comm\src/flexsea_payload.c **** 				
 581              		.loc 1 170 0
 582 01e2 38BD     		pop	{r3, r4, r5, pc}
 583              	.LVL87:
ARM GAS  C:\Users\Alex\AppData\Local\Temp\ccjqAdcx.s 			page 24


 584              	.L40:
 174:..\..\flexsea-comm\src/flexsea_payload.c ****             	break;
 585              		.loc 1 174 0
 586 01e4 2846     		mov	r0, r5
 587              	.LVL88:
 588 01e6 FFF7FEFF 		bl	flexsea_payload_20
 589              	.LVL89:
 103:..\..\flexsea-comm\src/flexsea_payload.c **** 
 590              		.loc 1 103 0
 591 01ea 0220     		movs	r0, #2
 175:..\..\flexsea-comm\src/flexsea_payload.c ****             case 21:
 592              		.loc 1 175 0
 593 01ec 38BD     		pop	{r3, r4, r5, pc}
 594              	.LVL90:
 595              	.L41:
 177:..\..\flexsea-comm\src/flexsea_payload.c ****             	break;
 596              		.loc 1 177 0
 597 01ee 2846     		mov	r0, r5
 598              	.LVL91:
 599 01f0 FFF7FEFF 		bl	flexsea_payload_21
 600              	.LVL92:
 103:..\..\flexsea-comm\src/flexsea_payload.c **** 
 601              		.loc 1 103 0
 602 01f4 0220     		movs	r0, #2
 178:..\..\flexsea-comm\src/flexsea_payload.c ****             case 22:
 603              		.loc 1 178 0
 604 01f6 38BD     		pop	{r3, r4, r5, pc}
 605              	.LVL93:
 606              	.L42:
 180:..\..\flexsea-comm\src/flexsea_payload.c ****             	break;
 607              		.loc 1 180 0
 608 01f8 2846     		mov	r0, r5
 609              	.LVL94:
 610 01fa FFF7FEFF 		bl	flexsea_payload_22
 611              	.LVL95:
 103:..\..\flexsea-comm\src/flexsea_payload.c **** 
 612              		.loc 1 103 0
 613 01fe 0220     		movs	r0, #2
 181:..\..\flexsea-comm\src/flexsea_payload.c ****             case 23:
 614              		.loc 1 181 0
 615 0200 38BD     		pop	{r3, r4, r5, pc}
 616              	.LVL96:
 617              	.L43:
 183:..\..\flexsea-comm\src/flexsea_payload.c ****             	break;
 618              		.loc 1 183 0
 619 0202 2846     		mov	r0, r5
 620              	.LVL97:
 621 0204 FFF7FEFF 		bl	flexsea_payload_23
 622              	.LVL98:
 103:..\..\flexsea-comm\src/flexsea_payload.c **** 
 623              		.loc 1 103 0
 624 0208 0220     		movs	r0, #2
 184:..\..\flexsea-comm\src/flexsea_payload.c ****             case 24:
 625              		.loc 1 184 0
 626 020a 38BD     		pop	{r3, r4, r5, pc}
 627              	.LVL99:
 628              	.L44:
ARM GAS  C:\Users\Alex\AppData\Local\Temp\ccjqAdcx.s 			page 25


 186:..\..\flexsea-comm\src/flexsea_payload.c ****             	break;
 629              		.loc 1 186 0
 630 020c 2846     		mov	r0, r5
 631              	.LVL100:
 632 020e FFF7FEFF 		bl	flexsea_payload_24
 633              	.LVL101:
 103:..\..\flexsea-comm\src/flexsea_payload.c **** 
 634              		.loc 1 103 0
 635 0212 0220     		movs	r0, #2
 187:..\..\flexsea-comm\src/flexsea_payload.c ****             case 25:
 636              		.loc 1 187 0
 637 0214 38BD     		pop	{r3, r4, r5, pc}
 638              	.LVL102:
 639              	.L45:
 189:..\..\flexsea-comm\src/flexsea_payload.c ****             	break;
 640              		.loc 1 189 0
 641 0216 2846     		mov	r0, r5
 642              	.LVL103:
 643 0218 FFF7FEFF 		bl	flexsea_payload_25
 644              	.LVL104:
 103:..\..\flexsea-comm\src/flexsea_payload.c **** 
 645              		.loc 1 103 0
 646 021c 0220     		movs	r0, #2
 190:..\..\flexsea-comm\src/flexsea_payload.c ****             case 26:
 647              		.loc 1 190 0
 648 021e 38BD     		pop	{r3, r4, r5, pc}
 649              	.LVL105:
 650              	.L46:
 192:..\..\flexsea-comm\src/flexsea_payload.c ****             	break;
 651              		.loc 1 192 0
 652 0220 2846     		mov	r0, r5
 653              	.LVL106:
 654 0222 FFF7FEFF 		bl	flexsea_payload_26
 655              	.LVL107:
 103:..\..\flexsea-comm\src/flexsea_payload.c **** 
 656              		.loc 1 103 0
 657 0226 0220     		movs	r0, #2
 193:..\..\flexsea-comm\src/flexsea_payload.c ****             case 27:
 658              		.loc 1 193 0
 659 0228 38BD     		pop	{r3, r4, r5, pc}
 660              	.LVL108:
 661              	.L47:
 195:..\..\flexsea-comm\src/flexsea_payload.c ****             	break;
 662              		.loc 1 195 0
 663 022a 2846     		mov	r0, r5
 664              	.LVL109:
 665 022c FFF7FEFF 		bl	flexsea_payload_27
 666              	.LVL110:
 103:..\..\flexsea-comm\src/flexsea_payload.c **** 
 667              		.loc 1 103 0
 668 0230 0220     		movs	r0, #2
 196:..\..\flexsea-comm\src/flexsea_payload.c ****             case 28:
 669              		.loc 1 196 0
 670 0232 38BD     		pop	{r3, r4, r5, pc}
 671              	.LVL111:
 672              	.L48:
 198:..\..\flexsea-comm\src/flexsea_payload.c ****             	break;
ARM GAS  C:\Users\Alex\AppData\Local\Temp\ccjqAdcx.s 			page 26


 673              		.loc 1 198 0
 674 0234 2846     		mov	r0, r5
 675              	.LVL112:
 676 0236 FFF7FEFF 		bl	flexsea_payload_28
 677              	.LVL113:
 103:..\..\flexsea-comm\src/flexsea_payload.c **** 
 678              		.loc 1 103 0
 679 023a 0220     		movs	r0, #2
 199:..\..\flexsea-comm\src/flexsea_payload.c ****             case 29:
 680              		.loc 1 199 0
 681 023c 38BD     		pop	{r3, r4, r5, pc}
 682              	.LVL114:
 683              	.L49:
 201:..\..\flexsea-comm\src/flexsea_payload.c ****             	break;
 684              		.loc 1 201 0
 685 023e 2846     		mov	r0, r5
 686              	.LVL115:
 687 0240 FFF7FEFF 		bl	flexsea_payload_29
 688              	.LVL116:
 103:..\..\flexsea-comm\src/flexsea_payload.c **** 
 689              		.loc 1 103 0
 690 0244 0220     		movs	r0, #2
 202:..\..\flexsea-comm\src/flexsea_payload.c **** 				
 691              		.loc 1 202 0
 692 0246 38BD     		pop	{r3, r4, r5, pc}
 693              	.LVL117:
 694              	.L50:
 206:..\..\flexsea-comm\src/flexsea_payload.c ****             	break;
 695              		.loc 1 206 0
 696 0248 2846     		mov	r0, r5
 697              	.LVL118:
 698 024a FFF7FEFF 		bl	flexsea_payload_30
 699              	.LVL119:
 103:..\..\flexsea-comm\src/flexsea_payload.c **** 
 700              		.loc 1 103 0
 701 024e 0220     		movs	r0, #2
 207:..\..\flexsea-comm\src/flexsea_payload.c ****             case 31:
 702              		.loc 1 207 0
 703 0250 38BD     		pop	{r3, r4, r5, pc}
 704              	.LVL120:
 705              	.L51:
 209:..\..\flexsea-comm\src/flexsea_payload.c ****             	break;
 706              		.loc 1 209 0
 707 0252 2846     		mov	r0, r5
 708              	.LVL121:
 709 0254 FFF7FEFF 		bl	flexsea_payload_31
 710              	.LVL122:
 103:..\..\flexsea-comm\src/flexsea_payload.c **** 
 711              		.loc 1 103 0
 712 0258 0220     		movs	r0, #2
 210:..\..\flexsea-comm\src/flexsea_payload.c ****             case 32:
 713              		.loc 1 210 0
 714 025a 38BD     		pop	{r3, r4, r5, pc}
 715              	.LVL123:
 716              	.L52:
 212:..\..\flexsea-comm\src/flexsea_payload.c ****             	break;
 717              		.loc 1 212 0
ARM GAS  C:\Users\Alex\AppData\Local\Temp\ccjqAdcx.s 			page 27


 718 025c 2846     		mov	r0, r5
 719              	.LVL124:
 720 025e FFF7FEFF 		bl	flexsea_payload_32
 721              	.LVL125:
 103:..\..\flexsea-comm\src/flexsea_payload.c **** 
 722              		.loc 1 103 0
 723 0262 0220     		movs	r0, #2
 213:..\..\flexsea-comm\src/flexsea_payload.c ****             case 33:
 724              		.loc 1 213 0
 725 0264 38BD     		pop	{r3, r4, r5, pc}
 726              	.LVL126:
 727              	.L53:
 215:..\..\flexsea-comm\src/flexsea_payload.c ****             	break;
 728              		.loc 1 215 0
 729 0266 2846     		mov	r0, r5
 730              	.LVL127:
 731 0268 FFF7FEFF 		bl	flexsea_payload_33
 732              	.LVL128:
 103:..\..\flexsea-comm\src/flexsea_payload.c **** 
 733              		.loc 1 103 0
 734 026c 0220     		movs	r0, #2
 216:..\..\flexsea-comm\src/flexsea_payload.c ****             case 34:
 735              		.loc 1 216 0
 736 026e 38BD     		pop	{r3, r4, r5, pc}
 737              	.LVL129:
 738              	.L54:
 218:..\..\flexsea-comm\src/flexsea_payload.c ****             	break;
 739              		.loc 1 218 0
 740 0270 2846     		mov	r0, r5
 741              	.LVL130:
 742 0272 FFF7FEFF 		bl	flexsea_payload_34
 743              	.LVL131:
 103:..\..\flexsea-comm\src/flexsea_payload.c **** 
 744              		.loc 1 103 0
 745 0276 0220     		movs	r0, #2
 219:..\..\flexsea-comm\src/flexsea_payload.c ****             case 35:
 746              		.loc 1 219 0
 747 0278 38BD     		pop	{r3, r4, r5, pc}
 748              	.LVL132:
 749              	.L55:
 221:..\..\flexsea-comm\src/flexsea_payload.c ****             	break;
 750              		.loc 1 221 0
 751 027a 2846     		mov	r0, r5
 752              	.LVL133:
 753 027c FFF7FEFF 		bl	flexsea_payload_35
 754              	.LVL134:
 103:..\..\flexsea-comm\src/flexsea_payload.c **** 
 755              		.loc 1 103 0
 756 0280 0220     		movs	r0, #2
 222:..\..\flexsea-comm\src/flexsea_payload.c ****             case 36:
 757              		.loc 1 222 0
 758 0282 38BD     		pop	{r3, r4, r5, pc}
 759              	.LVL135:
 760              	.L56:
 224:..\..\flexsea-comm\src/flexsea_payload.c ****             	break;
 761              		.loc 1 224 0
 762 0284 2846     		mov	r0, r5
ARM GAS  C:\Users\Alex\AppData\Local\Temp\ccjqAdcx.s 			page 28


 763              	.LVL136:
 764 0286 FFF7FEFF 		bl	flexsea_payload_36
 765              	.LVL137:
 103:..\..\flexsea-comm\src/flexsea_payload.c **** 
 766              		.loc 1 103 0
 767 028a 0220     		movs	r0, #2
 225:..\..\flexsea-comm\src/flexsea_payload.c ****             case 37:
 768              		.loc 1 225 0
 769 028c 38BD     		pop	{r3, r4, r5, pc}
 770              	.LVL138:
 771              	.L57:
 227:..\..\flexsea-comm\src/flexsea_payload.c ****             	break;
 772              		.loc 1 227 0
 773 028e 2846     		mov	r0, r5
 774              	.LVL139:
 775 0290 FFF7FEFF 		bl	flexsea_payload_37
 776              	.LVL140:
 103:..\..\flexsea-comm\src/flexsea_payload.c **** 
 777              		.loc 1 103 0
 778 0294 0220     		movs	r0, #2
 228:..\..\flexsea-comm\src/flexsea_payload.c ****             case 38:
 779              		.loc 1 228 0
 780 0296 38BD     		pop	{r3, r4, r5, pc}
 781              	.LVL141:
 782              	.L58:
 230:..\..\flexsea-comm\src/flexsea_payload.c ****             	break;
 783              		.loc 1 230 0
 784 0298 2846     		mov	r0, r5
 785              	.LVL142:
 786 029a FFF7FEFF 		bl	flexsea_payload_38
 787              	.LVL143:
 103:..\..\flexsea-comm\src/flexsea_payload.c **** 
 788              		.loc 1 103 0
 789 029e 0220     		movs	r0, #2
 231:..\..\flexsea-comm\src/flexsea_payload.c ****             case 39:
 790              		.loc 1 231 0
 791 02a0 38BD     		pop	{r3, r4, r5, pc}
 792              	.LVL144:
 793              	.L59:
 233:..\..\flexsea-comm\src/flexsea_payload.c ****             	break;
 794              		.loc 1 233 0
 795 02a2 2846     		mov	r0, r5
 796              	.LVL145:
 797 02a4 FFF7FEFF 		bl	flexsea_payload_39
 798              	.LVL146:
 103:..\..\flexsea-comm\src/flexsea_payload.c **** 
 799              		.loc 1 103 0
 800 02a8 0220     		movs	r0, #2
 234:..\..\flexsea-comm\src/flexsea_payload.c **** 				
 801              		.loc 1 234 0
 802 02aa 38BD     		pop	{r3, r4, r5, pc}
 803              	.LVL147:
 804              	.L60:
 238:..\..\flexsea-comm\src/flexsea_payload.c ****             	break;
 805              		.loc 1 238 0
 806 02ac 2846     		mov	r0, r5
 807              	.LVL148:
ARM GAS  C:\Users\Alex\AppData\Local\Temp\ccjqAdcx.s 			page 29


 808 02ae FFF7FEFF 		bl	flexsea_payload_40
 809              	.LVL149:
 103:..\..\flexsea-comm\src/flexsea_payload.c **** 
 810              		.loc 1 103 0
 811 02b2 0220     		movs	r0, #2
 239:..\..\flexsea-comm\src/flexsea_payload.c ****             case 41:
 812              		.loc 1 239 0
 813 02b4 38BD     		pop	{r3, r4, r5, pc}
 814              	.LVL150:
 815              	.L61:
 241:..\..\flexsea-comm\src/flexsea_payload.c ****             	break;
 816              		.loc 1 241 0
 817 02b6 2846     		mov	r0, r5
 818              	.LVL151:
 819 02b8 FFF7FEFF 		bl	flexsea_payload_41
 820              	.LVL152:
 103:..\..\flexsea-comm\src/flexsea_payload.c **** 
 821              		.loc 1 103 0
 822 02bc 0220     		movs	r0, #2
 242:..\..\flexsea-comm\src/flexsea_payload.c ****             case 42:
 823              		.loc 1 242 0
 824 02be 38BD     		pop	{r3, r4, r5, pc}
 825              	.LVL153:
 826              	.L62:
 244:..\..\flexsea-comm\src/flexsea_payload.c ****             	break;
 827              		.loc 1 244 0
 828 02c0 2846     		mov	r0, r5
 829              	.LVL154:
 830 02c2 FFF7FEFF 		bl	flexsea_payload_42
 831              	.LVL155:
 103:..\..\flexsea-comm\src/flexsea_payload.c **** 
 832              		.loc 1 103 0
 833 02c6 0220     		movs	r0, #2
 245:..\..\flexsea-comm\src/flexsea_payload.c ****             case 43:
 834              		.loc 1 245 0
 835 02c8 38BD     		pop	{r3, r4, r5, pc}
 836              	.LVL156:
 837              	.L63:
 247:..\..\flexsea-comm\src/flexsea_payload.c ****             	break;
 838              		.loc 1 247 0
 839 02ca 2846     		mov	r0, r5
 840              	.LVL157:
 841 02cc FFF7FEFF 		bl	flexsea_payload_43
 842              	.LVL158:
 103:..\..\flexsea-comm\src/flexsea_payload.c **** 
 843              		.loc 1 103 0
 844 02d0 0220     		movs	r0, #2
 248:..\..\flexsea-comm\src/flexsea_payload.c ****             case 44:
 845              		.loc 1 248 0
 846 02d2 38BD     		pop	{r3, r4, r5, pc}
 847              	.LVL159:
 848              	.L64:
 250:..\..\flexsea-comm\src/flexsea_payload.c ****             	break;
 849              		.loc 1 250 0
 850 02d4 2846     		mov	r0, r5
 851              	.LVL160:
 852 02d6 FFF7FEFF 		bl	flexsea_payload_44
ARM GAS  C:\Users\Alex\AppData\Local\Temp\ccjqAdcx.s 			page 30


 853              	.LVL161:
 103:..\..\flexsea-comm\src/flexsea_payload.c **** 
 854              		.loc 1 103 0
 855 02da 0220     		movs	r0, #2
 251:..\..\flexsea-comm\src/flexsea_payload.c ****             case 45:
 856              		.loc 1 251 0
 857 02dc 38BD     		pop	{r3, r4, r5, pc}
 858              	.LVL162:
 859              	.L65:
 253:..\..\flexsea-comm\src/flexsea_payload.c ****             	break;
 860              		.loc 1 253 0
 861 02de 2846     		mov	r0, r5
 862              	.LVL163:
 863 02e0 FFF7FEFF 		bl	flexsea_payload_45
 864              	.LVL164:
 103:..\..\flexsea-comm\src/flexsea_payload.c **** 
 865              		.loc 1 103 0
 866 02e4 0220     		movs	r0, #2
 254:..\..\flexsea-comm\src/flexsea_payload.c ****             case 46:
 867              		.loc 1 254 0
 868 02e6 38BD     		pop	{r3, r4, r5, pc}
 869              	.LVL165:
 870              	.L66:
 256:..\..\flexsea-comm\src/flexsea_payload.c ****             	break;
 871              		.loc 1 256 0
 872 02e8 2846     		mov	r0, r5
 873              	.LVL166:
 874 02ea FFF7FEFF 		bl	flexsea_payload_46
 875              	.LVL167:
 103:..\..\flexsea-comm\src/flexsea_payload.c **** 
 876              		.loc 1 103 0
 877 02ee 0220     		movs	r0, #2
 257:..\..\flexsea-comm\src/flexsea_payload.c ****             case 47:
 878              		.loc 1 257 0
 879 02f0 38BD     		pop	{r3, r4, r5, pc}
 880              	.LVL168:
 881              	.L67:
 259:..\..\flexsea-comm\src/flexsea_payload.c ****             	break;
 882              		.loc 1 259 0
 883 02f2 2846     		mov	r0, r5
 884              	.LVL169:
 885 02f4 FFF7FEFF 		bl	flexsea_payload_47
 886              	.LVL170:
 103:..\..\flexsea-comm\src/flexsea_payload.c **** 
 887              		.loc 1 103 0
 888 02f8 0220     		movs	r0, #2
 260:..\..\flexsea-comm\src/flexsea_payload.c ****             case 48:
 889              		.loc 1 260 0
 890 02fa 38BD     		pop	{r3, r4, r5, pc}
 891              	.LVL171:
 892              	.L68:
 262:..\..\flexsea-comm\src/flexsea_payload.c ****             	break;
 893              		.loc 1 262 0
 894 02fc 2846     		mov	r0, r5
 895              	.LVL172:
 896 02fe FFF7FEFF 		bl	flexsea_payload_48
 897              	.LVL173:
ARM GAS  C:\Users\Alex\AppData\Local\Temp\ccjqAdcx.s 			page 31


 103:..\..\flexsea-comm\src/flexsea_payload.c **** 
 898              		.loc 1 103 0
 899 0302 0220     		movs	r0, #2
 263:..\..\flexsea-comm\src/flexsea_payload.c ****             case 49:
 900              		.loc 1 263 0
 901 0304 38BD     		pop	{r3, r4, r5, pc}
 902              	.LVL174:
 903              	.L69:
 265:..\..\flexsea-comm\src/flexsea_payload.c ****             	break;
 904              		.loc 1 265 0
 905 0306 2846     		mov	r0, r5
 906              	.LVL175:
 907 0308 FFF7FEFF 		bl	flexsea_payload_49
 908              	.LVL176:
 103:..\..\flexsea-comm\src/flexsea_payload.c **** 
 909              		.loc 1 103 0
 910 030c 0220     		movs	r0, #2
 266:..\..\flexsea-comm\src/flexsea_payload.c **** 				
 911              		.loc 1 266 0
 912 030e 38BD     		pop	{r3, r4, r5, pc}
 913              	.LVL177:
 914              	.L70:
 270:..\..\flexsea-comm\src/flexsea_payload.c ****             	break;
 915              		.loc 1 270 0
 916 0310 2846     		mov	r0, r5
 917              	.LVL178:
 918 0312 FFF7FEFF 		bl	flexsea_payload_50
 919              	.LVL179:
 103:..\..\flexsea-comm\src/flexsea_payload.c **** 
 920              		.loc 1 103 0
 921 0316 0220     		movs	r0, #2
 271:..\..\flexsea-comm\src/flexsea_payload.c ****             case 51:
 922              		.loc 1 271 0
 923 0318 38BD     		pop	{r3, r4, r5, pc}
 924              	.LVL180:
 925              	.L71:
 273:..\..\flexsea-comm\src/flexsea_payload.c ****             	break;
 926              		.loc 1 273 0
 927 031a 2846     		mov	r0, r5
 928              	.LVL181:
 929 031c FFF7FEFF 		bl	flexsea_payload_51
 930              	.LVL182:
 103:..\..\flexsea-comm\src/flexsea_payload.c **** 
 931              		.loc 1 103 0
 932 0320 0220     		movs	r0, #2
 274:..\..\flexsea-comm\src/flexsea_payload.c ****             case 52:
 933              		.loc 1 274 0
 934 0322 38BD     		pop	{r3, r4, r5, pc}
 935              	.LVL183:
 936              	.L72:
 276:..\..\flexsea-comm\src/flexsea_payload.c ****             	break;
 937              		.loc 1 276 0
 938 0324 2846     		mov	r0, r5
 939              	.LVL184:
 940 0326 FFF7FEFF 		bl	flexsea_payload_52
 941              	.LVL185:
 103:..\..\flexsea-comm\src/flexsea_payload.c **** 
ARM GAS  C:\Users\Alex\AppData\Local\Temp\ccjqAdcx.s 			page 32


 942              		.loc 1 103 0
 943 032a 0220     		movs	r0, #2
 277:..\..\flexsea-comm\src/flexsea_payload.c ****             case 53:
 944              		.loc 1 277 0
 945 032c 38BD     		pop	{r3, r4, r5, pc}
 946              	.LVL186:
 947              	.L73:
 279:..\..\flexsea-comm\src/flexsea_payload.c ****             	break;
 948              		.loc 1 279 0
 949 032e 2846     		mov	r0, r5
 950              	.LVL187:
 951 0330 FFF7FEFF 		bl	flexsea_payload_53
 952              	.LVL188:
 103:..\..\flexsea-comm\src/flexsea_payload.c **** 
 953              		.loc 1 103 0
 954 0334 0220     		movs	r0, #2
 280:..\..\flexsea-comm\src/flexsea_payload.c ****             case 54:
 955              		.loc 1 280 0
 956 0336 38BD     		pop	{r3, r4, r5, pc}
 957              	.LVL189:
 958              	.L74:
 282:..\..\flexsea-comm\src/flexsea_payload.c ****             	break;
 959              		.loc 1 282 0
 960 0338 2846     		mov	r0, r5
 961              	.LVL190:
 962 033a FFF7FEFF 		bl	flexsea_payload_54
 963              	.LVL191:
 103:..\..\flexsea-comm\src/flexsea_payload.c **** 
 964              		.loc 1 103 0
 965 033e 0220     		movs	r0, #2
 283:..\..\flexsea-comm\src/flexsea_payload.c ****             case 55:
 966              		.loc 1 283 0
 967 0340 38BD     		pop	{r3, r4, r5, pc}
 968              	.LVL192:
 969              	.L75:
 285:..\..\flexsea-comm\src/flexsea_payload.c ****             	break;
 970              		.loc 1 285 0
 971 0342 2846     		mov	r0, r5
 972              	.LVL193:
 973 0344 FFF7FEFF 		bl	flexsea_payload_55
 974              	.LVL194:
 103:..\..\flexsea-comm\src/flexsea_payload.c **** 
 975              		.loc 1 103 0
 976 0348 0220     		movs	r0, #2
 286:..\..\flexsea-comm\src/flexsea_payload.c ****             case 56:
 977              		.loc 1 286 0
 978 034a 38BD     		pop	{r3, r4, r5, pc}
 979              	.LVL195:
 980              	.L76:
 288:..\..\flexsea-comm\src/flexsea_payload.c ****             	break;
 981              		.loc 1 288 0
 982 034c 2846     		mov	r0, r5
 983              	.LVL196:
 984 034e FFF7FEFF 		bl	flexsea_payload_56
 985              	.LVL197:
 103:..\..\flexsea-comm\src/flexsea_payload.c **** 
 986              		.loc 1 103 0
ARM GAS  C:\Users\Alex\AppData\Local\Temp\ccjqAdcx.s 			page 33


 987 0352 0220     		movs	r0, #2
 289:..\..\flexsea-comm\src/flexsea_payload.c ****             case 57:
 988              		.loc 1 289 0
 989 0354 38BD     		pop	{r3, r4, r5, pc}
 990              	.LVL198:
 991              	.L77:
 291:..\..\flexsea-comm\src/flexsea_payload.c ****             	break;
 992              		.loc 1 291 0
 993 0356 2846     		mov	r0, r5
 994              	.LVL199:
 995 0358 FFF7FEFF 		bl	flexsea_payload_57
 996              	.LVL200:
 103:..\..\flexsea-comm\src/flexsea_payload.c **** 
 997              		.loc 1 103 0
 998 035c 0220     		movs	r0, #2
 292:..\..\flexsea-comm\src/flexsea_payload.c ****             case 58:
 999              		.loc 1 292 0
 1000 035e 38BD     		pop	{r3, r4, r5, pc}
 1001              	.LVL201:
 1002              	.L78:
 294:..\..\flexsea-comm\src/flexsea_payload.c ****             	break;
 1003              		.loc 1 294 0
 1004 0360 2846     		mov	r0, r5
 1005              	.LVL202:
 1006 0362 FFF7FEFF 		bl	flexsea_payload_58
 1007              	.LVL203:
 103:..\..\flexsea-comm\src/flexsea_payload.c **** 
 1008              		.loc 1 103 0
 1009 0366 0220     		movs	r0, #2
 295:..\..\flexsea-comm\src/flexsea_payload.c ****             case 59:
 1010              		.loc 1 295 0
 1011 0368 38BD     		pop	{r3, r4, r5, pc}
 1012              	.LVL204:
 1013              	.L79:
 297:..\..\flexsea-comm\src/flexsea_payload.c ****             	break;
 1014              		.loc 1 297 0
 1015 036a 2846     		mov	r0, r5
 1016              	.LVL205:
 1017 036c FFF7FEFF 		bl	flexsea_payload_59
 1018              	.LVL206:
 103:..\..\flexsea-comm\src/flexsea_payload.c **** 
 1019              		.loc 1 103 0
 1020 0370 0220     		movs	r0, #2
 298:..\..\flexsea-comm\src/flexsea_payload.c **** 				
 1021              		.loc 1 298 0
 1022 0372 38BD     		pop	{r3, r4, r5, pc}
 1023              	.LVL207:
 1024              	.L80:
 302:..\..\flexsea-comm\src/flexsea_payload.c ****             	break;
 1025              		.loc 1 302 0
 1026 0374 2846     		mov	r0, r5
 1027              	.LVL208:
 1028 0376 FFF7FEFF 		bl	flexsea_payload_60
 1029              	.LVL209:
 103:..\..\flexsea-comm\src/flexsea_payload.c **** 
 1030              		.loc 1 103 0
 1031 037a 0220     		movs	r0, #2
ARM GAS  C:\Users\Alex\AppData\Local\Temp\ccjqAdcx.s 			page 34


 303:..\..\flexsea-comm\src/flexsea_payload.c ****             case 61:
 1032              		.loc 1 303 0
 1033 037c 38BD     		pop	{r3, r4, r5, pc}
 1034              	.LVL210:
 1035              	.L81:
 305:..\..\flexsea-comm\src/flexsea_payload.c ****             	break;
 1036              		.loc 1 305 0
 1037 037e 2846     		mov	r0, r5
 1038              	.LVL211:
 1039 0380 FFF7FEFF 		bl	flexsea_payload_61
 1040              	.LVL212:
 103:..\..\flexsea-comm\src/flexsea_payload.c **** 
 1041              		.loc 1 103 0
 1042 0384 0220     		movs	r0, #2
 306:..\..\flexsea-comm\src/flexsea_payload.c ****             case 62:
 1043              		.loc 1 306 0
 1044 0386 38BD     		pop	{r3, r4, r5, pc}
 1045              	.LVL213:
 1046              	.L82:
 308:..\..\flexsea-comm\src/flexsea_payload.c ****             	break;
 1047              		.loc 1 308 0
 1048 0388 2846     		mov	r0, r5
 1049              	.LVL214:
 1050 038a FFF7FEFF 		bl	flexsea_payload_62
 1051              	.LVL215:
 103:..\..\flexsea-comm\src/flexsea_payload.c **** 
 1052              		.loc 1 103 0
 1053 038e 0220     		movs	r0, #2
 309:..\..\flexsea-comm\src/flexsea_payload.c ****             case 63:
 1054              		.loc 1 309 0
 1055 0390 38BD     		pop	{r3, r4, r5, pc}
 1056              	.LVL216:
 1057              	.L83:
 311:..\..\flexsea-comm\src/flexsea_payload.c ****             	break;
 1058              		.loc 1 311 0
 1059 0392 2846     		mov	r0, r5
 1060              	.LVL217:
 1061 0394 FFF7FEFF 		bl	flexsea_payload_63
 1062              	.LVL218:
 103:..\..\flexsea-comm\src/flexsea_payload.c **** 
 1063              		.loc 1 103 0
 1064 0398 0220     		movs	r0, #2
 312:..\..\flexsea-comm\src/flexsea_payload.c ****             case 64:
 1065              		.loc 1 312 0
 1066 039a 38BD     		pop	{r3, r4, r5, pc}
 1067              	.LVL219:
 1068              	.L84:
 314:..\..\flexsea-comm\src/flexsea_payload.c ****             	break;
 1069              		.loc 1 314 0
 1070 039c 2846     		mov	r0, r5
 1071              	.LVL220:
 1072 039e FFF7FEFF 		bl	flexsea_payload_64
 1073              	.LVL221:
 103:..\..\flexsea-comm\src/flexsea_payload.c **** 
 1074              		.loc 1 103 0
 1075 03a2 0220     		movs	r0, #2
 315:..\..\flexsea-comm\src/flexsea_payload.c ****             case 65:
ARM GAS  C:\Users\Alex\AppData\Local\Temp\ccjqAdcx.s 			page 35


 1076              		.loc 1 315 0
 1077 03a4 38BD     		pop	{r3, r4, r5, pc}
 1078              	.LVL222:
 1079              	.L85:
 317:..\..\flexsea-comm\src/flexsea_payload.c ****             	break;
 1080              		.loc 1 317 0
 1081 03a6 2846     		mov	r0, r5
 1082              	.LVL223:
 1083 03a8 FFF7FEFF 		bl	flexsea_payload_65
 1084              	.LVL224:
 103:..\..\flexsea-comm\src/flexsea_payload.c **** 
 1085              		.loc 1 103 0
 1086 03ac 0220     		movs	r0, #2
 318:..\..\flexsea-comm\src/flexsea_payload.c ****             case 66:
 1087              		.loc 1 318 0
 1088 03ae 38BD     		pop	{r3, r4, r5, pc}
 1089              	.LVL225:
 1090              	.L86:
 320:..\..\flexsea-comm\src/flexsea_payload.c ****             	break;
 1091              		.loc 1 320 0
 1092 03b0 2846     		mov	r0, r5
 1093              	.LVL226:
 1094 03b2 FFF7FEFF 		bl	flexsea_payload_66
 1095              	.LVL227:
 103:..\..\flexsea-comm\src/flexsea_payload.c **** 
 1096              		.loc 1 103 0
 1097 03b6 0220     		movs	r0, #2
 321:..\..\flexsea-comm\src/flexsea_payload.c ****             case 67:
 1098              		.loc 1 321 0
 1099 03b8 38BD     		pop	{r3, r4, r5, pc}
 1100              	.LVL228:
 1101              	.L87:
 323:..\..\flexsea-comm\src/flexsea_payload.c ****             	break;
 1102              		.loc 1 323 0
 1103 03ba 2846     		mov	r0, r5
 1104              	.LVL229:
 1105 03bc FFF7FEFF 		bl	flexsea_payload_67
 1106              	.LVL230:
 103:..\..\flexsea-comm\src/flexsea_payload.c **** 
 1107              		.loc 1 103 0
 1108 03c0 0220     		movs	r0, #2
 324:..\..\flexsea-comm\src/flexsea_payload.c ****             case 68:
 1109              		.loc 1 324 0
 1110 03c2 38BD     		pop	{r3, r4, r5, pc}
 1111              	.LVL231:
 1112              	.L88:
 326:..\..\flexsea-comm\src/flexsea_payload.c ****             	break;
 1113              		.loc 1 326 0
 1114 03c4 2846     		mov	r0, r5
 1115              	.LVL232:
 1116 03c6 FFF7FEFF 		bl	flexsea_payload_68
 1117              	.LVL233:
 103:..\..\flexsea-comm\src/flexsea_payload.c **** 
 1118              		.loc 1 103 0
 1119 03ca 0220     		movs	r0, #2
 327:..\..\flexsea-comm\src/flexsea_payload.c ****             case 69:
 1120              		.loc 1 327 0
ARM GAS  C:\Users\Alex\AppData\Local\Temp\ccjqAdcx.s 			page 36


 1121 03cc 38BD     		pop	{r3, r4, r5, pc}
 1122              	.LVL234:
 1123              	.L89:
 329:..\..\flexsea-comm\src/flexsea_payload.c ****             	break;
 1124              		.loc 1 329 0
 1125 03ce 2846     		mov	r0, r5
 1126              	.LVL235:
 1127 03d0 FFF7FEFF 		bl	flexsea_payload_69
 1128              	.LVL236:
 103:..\..\flexsea-comm\src/flexsea_payload.c **** 
 1129              		.loc 1 103 0
 1130 03d4 0220     		movs	r0, #2
 330:..\..\flexsea-comm\src/flexsea_payload.c **** 				
 1131              		.loc 1 330 0
 1132 03d6 38BD     		pop	{r3, r4, r5, pc}
 1133              	.LVL237:
 1134              	.L90:
 334:..\..\flexsea-comm\src/flexsea_payload.c ****             	break;
 1135              		.loc 1 334 0
 1136 03d8 2846     		mov	r0, r5
 1137              	.LVL238:
 1138 03da FFF7FEFF 		bl	flexsea_payload_70
 1139              	.LVL239:
 103:..\..\flexsea-comm\src/flexsea_payload.c **** 
 1140              		.loc 1 103 0
 1141 03de 0220     		movs	r0, #2
 335:..\..\flexsea-comm\src/flexsea_payload.c ****             case 71:
 1142              		.loc 1 335 0
 1143 03e0 38BD     		pop	{r3, r4, r5, pc}
 1144              	.LVL240:
 1145              	.L91:
 337:..\..\flexsea-comm\src/flexsea_payload.c ****             	break;
 1146              		.loc 1 337 0
 1147 03e2 2846     		mov	r0, r5
 1148              	.LVL241:
 1149 03e4 FFF7FEFF 		bl	flexsea_payload_71
 1150              	.LVL242:
 103:..\..\flexsea-comm\src/flexsea_payload.c **** 
 1151              		.loc 1 103 0
 1152 03e8 0220     		movs	r0, #2
 338:..\..\flexsea-comm\src/flexsea_payload.c ****             case 72:
 1153              		.loc 1 338 0
 1154 03ea 38BD     		pop	{r3, r4, r5, pc}
 1155              	.LVL243:
 1156              	.L92:
 340:..\..\flexsea-comm\src/flexsea_payload.c ****             	break;
 1157              		.loc 1 340 0
 1158 03ec 2846     		mov	r0, r5
 1159              	.LVL244:
 1160 03ee FFF7FEFF 		bl	flexsea_payload_72
 1161              	.LVL245:
 103:..\..\flexsea-comm\src/flexsea_payload.c **** 
 1162              		.loc 1 103 0
 1163 03f2 0220     		movs	r0, #2
 341:..\..\flexsea-comm\src/flexsea_payload.c ****             case 73:
 1164              		.loc 1 341 0
 1165 03f4 38BD     		pop	{r3, r4, r5, pc}
ARM GAS  C:\Users\Alex\AppData\Local\Temp\ccjqAdcx.s 			page 37


 1166              	.LVL246:
 1167              	.L93:
 343:..\..\flexsea-comm\src/flexsea_payload.c ****             	break;
 1168              		.loc 1 343 0
 1169 03f6 2846     		mov	r0, r5
 1170              	.LVL247:
 1171 03f8 FFF7FEFF 		bl	flexsea_payload_73
 1172              	.LVL248:
 103:..\..\flexsea-comm\src/flexsea_payload.c **** 
 1173              		.loc 1 103 0
 1174 03fc 0220     		movs	r0, #2
 344:..\..\flexsea-comm\src/flexsea_payload.c ****             case 74:
 1175              		.loc 1 344 0
 1176 03fe 38BD     		pop	{r3, r4, r5, pc}
 1177              	.LVL249:
 1178              	.L94:
 346:..\..\flexsea-comm\src/flexsea_payload.c ****             	break;
 1179              		.loc 1 346 0
 1180 0400 2846     		mov	r0, r5
 1181              	.LVL250:
 1182 0402 FFF7FEFF 		bl	flexsea_payload_74
 1183              	.LVL251:
 103:..\..\flexsea-comm\src/flexsea_payload.c **** 
 1184              		.loc 1 103 0
 1185 0406 0220     		movs	r0, #2
 347:..\..\flexsea-comm\src/flexsea_payload.c ****             case 75:
 1186              		.loc 1 347 0
 1187 0408 38BD     		pop	{r3, r4, r5, pc}
 1188              	.LVL252:
 1189              	.L95:
 349:..\..\flexsea-comm\src/flexsea_payload.c ****             	break;
 1190              		.loc 1 349 0
 1191 040a 2846     		mov	r0, r5
 1192              	.LVL253:
 1193 040c FFF7FEFF 		bl	flexsea_payload_75
 1194              	.LVL254:
 103:..\..\flexsea-comm\src/flexsea_payload.c **** 
 1195              		.loc 1 103 0
 1196 0410 0220     		movs	r0, #2
 350:..\..\flexsea-comm\src/flexsea_payload.c ****             case 76:
 1197              		.loc 1 350 0
 1198 0412 38BD     		pop	{r3, r4, r5, pc}
 1199              	.LVL255:
 1200              	.L96:
 352:..\..\flexsea-comm\src/flexsea_payload.c ****             	break;
 1201              		.loc 1 352 0
 1202 0414 2846     		mov	r0, r5
 1203              	.LVL256:
 1204 0416 FFF7FEFF 		bl	flexsea_payload_76
 1205              	.LVL257:
 103:..\..\flexsea-comm\src/flexsea_payload.c **** 
 1206              		.loc 1 103 0
 1207 041a 0220     		movs	r0, #2
 353:..\..\flexsea-comm\src/flexsea_payload.c ****             case 77:
 1208              		.loc 1 353 0
 1209 041c 38BD     		pop	{r3, r4, r5, pc}
 1210              	.LVL258:
ARM GAS  C:\Users\Alex\AppData\Local\Temp\ccjqAdcx.s 			page 38


 1211              	.L97:
 355:..\..\flexsea-comm\src/flexsea_payload.c ****             	break;
 1212              		.loc 1 355 0
 1213 041e 2846     		mov	r0, r5
 1214              	.LVL259:
 1215 0420 FFF7FEFF 		bl	flexsea_payload_77
 1216              	.LVL260:
 103:..\..\flexsea-comm\src/flexsea_payload.c **** 
 1217              		.loc 1 103 0
 1218 0424 0220     		movs	r0, #2
 356:..\..\flexsea-comm\src/flexsea_payload.c ****             case 78:
 1219              		.loc 1 356 0
 1220 0426 38BD     		pop	{r3, r4, r5, pc}
 1221              	.LVL261:
 1222              	.L98:
 358:..\..\flexsea-comm\src/flexsea_payload.c ****             	break;
 1223              		.loc 1 358 0
 1224 0428 2846     		mov	r0, r5
 1225              	.LVL262:
 1226 042a FFF7FEFF 		bl	flexsea_payload_78
 1227              	.LVL263:
 103:..\..\flexsea-comm\src/flexsea_payload.c **** 
 1228              		.loc 1 103 0
 1229 042e 0220     		movs	r0, #2
 359:..\..\flexsea-comm\src/flexsea_payload.c ****             case 79:
 1230              		.loc 1 359 0
 1231 0430 38BD     		pop	{r3, r4, r5, pc}
 1232              	.LVL264:
 1233              	.L99:
 361:..\..\flexsea-comm\src/flexsea_payload.c ****             	break;
 1234              		.loc 1 361 0
 1235 0432 2846     		mov	r0, r5
 1236              	.LVL265:
 1237 0434 FFF7FEFF 		bl	flexsea_payload_79
 1238              	.LVL266:
 103:..\..\flexsea-comm\src/flexsea_payload.c **** 
 1239              		.loc 1 103 0
 1240 0438 0220     		movs	r0, #2
 362:..\..\flexsea-comm\src/flexsea_payload.c **** 				
 1241              		.loc 1 362 0
 1242 043a 38BD     		pop	{r3, r4, r5, pc}
 1243              	.LVL267:
 1244              	.L100:
 366:..\..\flexsea-comm\src/flexsea_payload.c ****             	break;
 1245              		.loc 1 366 0
 1246 043c 2846     		mov	r0, r5
 1247              	.LVL268:
 1248 043e FFF7FEFF 		bl	flexsea_payload_80
 1249              	.LVL269:
 103:..\..\flexsea-comm\src/flexsea_payload.c **** 
 1250              		.loc 1 103 0
 1251 0442 0220     		movs	r0, #2
 367:..\..\flexsea-comm\src/flexsea_payload.c ****             case 81:
 1252              		.loc 1 367 0
 1253 0444 38BD     		pop	{r3, r4, r5, pc}
 1254              	.LVL270:
 1255              	.L101:
ARM GAS  C:\Users\Alex\AppData\Local\Temp\ccjqAdcx.s 			page 39


 369:..\..\flexsea-comm\src/flexsea_payload.c ****             	break;
 1256              		.loc 1 369 0
 1257 0446 2846     		mov	r0, r5
 1258              	.LVL271:
 1259 0448 FFF7FEFF 		bl	flexsea_payload_81
 1260              	.LVL272:
 103:..\..\flexsea-comm\src/flexsea_payload.c **** 
 1261              		.loc 1 103 0
 1262 044c 0220     		movs	r0, #2
 370:..\..\flexsea-comm\src/flexsea_payload.c ****             case 82:
 1263              		.loc 1 370 0
 1264 044e 38BD     		pop	{r3, r4, r5, pc}
 1265              	.LVL273:
 1266              	.L102:
 372:..\..\flexsea-comm\src/flexsea_payload.c ****             	break;
 1267              		.loc 1 372 0
 1268 0450 2846     		mov	r0, r5
 1269              	.LVL274:
 1270 0452 FFF7FEFF 		bl	flexsea_payload_82
 1271              	.LVL275:
 103:..\..\flexsea-comm\src/flexsea_payload.c **** 
 1272              		.loc 1 103 0
 1273 0456 0220     		movs	r0, #2
 373:..\..\flexsea-comm\src/flexsea_payload.c ****             case 83:
 1274              		.loc 1 373 0
 1275 0458 38BD     		pop	{r3, r4, r5, pc}
 1276              	.LVL276:
 1277              	.L103:
 375:..\..\flexsea-comm\src/flexsea_payload.c ****             	break;
 1278              		.loc 1 375 0
 1279 045a 2846     		mov	r0, r5
 1280              	.LVL277:
 1281 045c FFF7FEFF 		bl	flexsea_payload_83
 1282              	.LVL278:
 103:..\..\flexsea-comm\src/flexsea_payload.c **** 
 1283              		.loc 1 103 0
 1284 0460 0220     		movs	r0, #2
 376:..\..\flexsea-comm\src/flexsea_payload.c ****             case 84:
 1285              		.loc 1 376 0
 1286 0462 38BD     		pop	{r3, r4, r5, pc}
 1287              	.LVL279:
 1288              	.L104:
 378:..\..\flexsea-comm\src/flexsea_payload.c ****             	break;
 1289              		.loc 1 378 0
 1290 0464 2846     		mov	r0, r5
 1291              	.LVL280:
 1292 0466 FFF7FEFF 		bl	flexsea_payload_84
 1293              	.LVL281:
 103:..\..\flexsea-comm\src/flexsea_payload.c **** 
 1294              		.loc 1 103 0
 1295 046a 0220     		movs	r0, #2
 379:..\..\flexsea-comm\src/flexsea_payload.c ****             case 85:
 1296              		.loc 1 379 0
 1297 046c 38BD     		pop	{r3, r4, r5, pc}
 1298              	.LVL282:
 1299              	.L105:
 381:..\..\flexsea-comm\src/flexsea_payload.c ****             	break;
ARM GAS  C:\Users\Alex\AppData\Local\Temp\ccjqAdcx.s 			page 40


 1300              		.loc 1 381 0
 1301 046e 2846     		mov	r0, r5
 1302              	.LVL283:
 1303 0470 FFF7FEFF 		bl	flexsea_payload_85
 1304              	.LVL284:
 103:..\..\flexsea-comm\src/flexsea_payload.c **** 
 1305              		.loc 1 103 0
 1306 0474 0220     		movs	r0, #2
 382:..\..\flexsea-comm\src/flexsea_payload.c ****             case 86:
 1307              		.loc 1 382 0
 1308 0476 38BD     		pop	{r3, r4, r5, pc}
 1309              	.LVL285:
 1310              	.L106:
 384:..\..\flexsea-comm\src/flexsea_payload.c ****             	break;
 1311              		.loc 1 384 0
 1312 0478 2846     		mov	r0, r5
 1313              	.LVL286:
 1314 047a FFF7FEFF 		bl	flexsea_payload_86
 1315              	.LVL287:
 103:..\..\flexsea-comm\src/flexsea_payload.c **** 
 1316              		.loc 1 103 0
 1317 047e 0220     		movs	r0, #2
 385:..\..\flexsea-comm\src/flexsea_payload.c ****             case 87:
 1318              		.loc 1 385 0
 1319 0480 38BD     		pop	{r3, r4, r5, pc}
 1320              	.LVL288:
 1321              	.L107:
 387:..\..\flexsea-comm\src/flexsea_payload.c ****             	break;
 1322              		.loc 1 387 0
 1323 0482 2846     		mov	r0, r5
 1324              	.LVL289:
 1325 0484 FFF7FEFF 		bl	flexsea_payload_87
 1326              	.LVL290:
 103:..\..\flexsea-comm\src/flexsea_payload.c **** 
 1327              		.loc 1 103 0
 1328 0488 0220     		movs	r0, #2
 388:..\..\flexsea-comm\src/flexsea_payload.c ****             case 88:
 1329              		.loc 1 388 0
 1330 048a 38BD     		pop	{r3, r4, r5, pc}
 1331              	.LVL291:
 1332              	.L108:
 390:..\..\flexsea-comm\src/flexsea_payload.c ****             	break;
 1333              		.loc 1 390 0
 1334 048c 2846     		mov	r0, r5
 1335              	.LVL292:
 1336 048e FFF7FEFF 		bl	flexsea_payload_88
 1337              	.LVL293:
 103:..\..\flexsea-comm\src/flexsea_payload.c **** 
 1338              		.loc 1 103 0
 1339 0492 0220     		movs	r0, #2
 391:..\..\flexsea-comm\src/flexsea_payload.c ****             case 89:
 1340              		.loc 1 391 0
 1341 0494 38BD     		pop	{r3, r4, r5, pc}
 1342              	.LVL294:
 1343              	.L109:
 393:..\..\flexsea-comm\src/flexsea_payload.c ****             	break;				
 1344              		.loc 1 393 0
ARM GAS  C:\Users\Alex\AppData\Local\Temp\ccjqAdcx.s 			page 41


 1345 0496 2846     		mov	r0, r5
 1346              	.LVL295:
 1347 0498 FFF7FEFF 		bl	flexsea_payload_89
 1348              	.LVL296:
 103:..\..\flexsea-comm\src/flexsea_payload.c **** 
 1349              		.loc 1 103 0
 1350 049c 0220     		movs	r0, #2
 394:..\..\flexsea-comm\src/flexsea_payload.c **** 
 1351              		.loc 1 394 0
 1352 049e 38BD     		pop	{r3, r4, r5, pc}
 1353              	.LVL297:
 1354              	.L110:
 398:..\..\flexsea-comm\src/flexsea_payload.c ****             	break;
 1355              		.loc 1 398 0
 1356 04a0 2846     		mov	r0, r5
 1357              	.LVL298:
 1358 04a2 FFF7FEFF 		bl	flexsea_payload_90
 1359              	.LVL299:
 103:..\..\flexsea-comm\src/flexsea_payload.c **** 
 1360              		.loc 1 103 0
 1361 04a6 0220     		movs	r0, #2
 399:..\..\flexsea-comm\src/flexsea_payload.c ****             case 91:
 1362              		.loc 1 399 0
 1363 04a8 38BD     		pop	{r3, r4, r5, pc}
 1364              	.LVL300:
 1365              	.L111:
 401:..\..\flexsea-comm\src/flexsea_payload.c ****             	break;
 1366              		.loc 1 401 0
 1367 04aa 2846     		mov	r0, r5
 1368              	.LVL301:
 1369 04ac FFF7FEFF 		bl	flexsea_payload_91
 1370              	.LVL302:
 103:..\..\flexsea-comm\src/flexsea_payload.c **** 
 1371              		.loc 1 103 0
 1372 04b0 0220     		movs	r0, #2
 402:..\..\flexsea-comm\src/flexsea_payload.c ****             case 92:
 1373              		.loc 1 402 0
 1374 04b2 38BD     		pop	{r3, r4, r5, pc}
 1375              	.LVL303:
 1376              	.L112:
 404:..\..\flexsea-comm\src/flexsea_payload.c ****             	break;
 1377              		.loc 1 404 0
 1378 04b4 2846     		mov	r0, r5
 1379              	.LVL304:
 1380 04b6 FFF7FEFF 		bl	flexsea_payload_92
 1381              	.LVL305:
 103:..\..\flexsea-comm\src/flexsea_payload.c **** 
 1382              		.loc 1 103 0
 1383 04ba 0220     		movs	r0, #2
 405:..\..\flexsea-comm\src/flexsea_payload.c ****             case 93:
 1384              		.loc 1 405 0
 1385 04bc 38BD     		pop	{r3, r4, r5, pc}
 1386              	.LVL306:
 1387              	.L113:
 407:..\..\flexsea-comm\src/flexsea_payload.c ****             	break;
 1388              		.loc 1 407 0
 1389 04be 2846     		mov	r0, r5
ARM GAS  C:\Users\Alex\AppData\Local\Temp\ccjqAdcx.s 			page 42


 1390              	.LVL307:
 1391 04c0 FFF7FEFF 		bl	flexsea_payload_93
 1392              	.LVL308:
 103:..\..\flexsea-comm\src/flexsea_payload.c **** 
 1393              		.loc 1 103 0
 1394 04c4 0220     		movs	r0, #2
 408:..\..\flexsea-comm\src/flexsea_payload.c ****             case 94:
 1395              		.loc 1 408 0
 1396 04c6 38BD     		pop	{r3, r4, r5, pc}
 1397              	.LVL309:
 1398              	.L114:
 410:..\..\flexsea-comm\src/flexsea_payload.c ****             	break;
 1399              		.loc 1 410 0
 1400 04c8 2846     		mov	r0, r5
 1401              	.LVL310:
 1402 04ca FFF7FEFF 		bl	flexsea_payload_94
 1403              	.LVL311:
 103:..\..\flexsea-comm\src/flexsea_payload.c **** 
 1404              		.loc 1 103 0
 1405 04ce 0220     		movs	r0, #2
 411:..\..\flexsea-comm\src/flexsea_payload.c ****             case 95:
 1406              		.loc 1 411 0
 1407 04d0 38BD     		pop	{r3, r4, r5, pc}
 1408              	.LVL312:
 1409              	.L115:
 413:..\..\flexsea-comm\src/flexsea_payload.c ****             	break;
 1410              		.loc 1 413 0
 1411 04d2 2846     		mov	r0, r5
 1412              	.LVL313:
 1413 04d4 FFF7FEFF 		bl	flexsea_payload_95
 1414              	.LVL314:
 103:..\..\flexsea-comm\src/flexsea_payload.c **** 
 1415              		.loc 1 103 0
 1416 04d8 0220     		movs	r0, #2
 414:..\..\flexsea-comm\src/flexsea_payload.c ****             case 96:
 1417              		.loc 1 414 0
 1418 04da 38BD     		pop	{r3, r4, r5, pc}
 1419              	.LVL315:
 1420              	.L116:
 416:..\..\flexsea-comm\src/flexsea_payload.c ****             	break;
 1421              		.loc 1 416 0
 1422 04dc 2846     		mov	r0, r5
 1423              	.LVL316:
 1424 04de FFF7FEFF 		bl	flexsea_payload_96
 1425              	.LVL317:
 103:..\..\flexsea-comm\src/flexsea_payload.c **** 
 1426              		.loc 1 103 0
 1427 04e2 0220     		movs	r0, #2
 417:..\..\flexsea-comm\src/flexsea_payload.c ****             case 97:
 1428              		.loc 1 417 0
 1429 04e4 38BD     		pop	{r3, r4, r5, pc}
 1430              	.LVL318:
 1431              	.L117:
 419:..\..\flexsea-comm\src/flexsea_payload.c ****             	break;
 1432              		.loc 1 419 0
 1433 04e6 2846     		mov	r0, r5
 1434              	.LVL319:
ARM GAS  C:\Users\Alex\AppData\Local\Temp\ccjqAdcx.s 			page 43


 1435 04e8 FFF7FEFF 		bl	flexsea_payload_97
 1436              	.LVL320:
 103:..\..\flexsea-comm\src/flexsea_payload.c **** 
 1437              		.loc 1 103 0
 1438 04ec 0220     		movs	r0, #2
 420:..\..\flexsea-comm\src/flexsea_payload.c ****             case 98:
 1439              		.loc 1 420 0
 1440 04ee 38BD     		pop	{r3, r4, r5, pc}
 1441              	.LVL321:
 1442              	.L118:
 422:..\..\flexsea-comm\src/flexsea_payload.c ****             	break;
 1443              		.loc 1 422 0
 1444 04f0 2846     		mov	r0, r5
 1445              	.LVL322:
 1446 04f2 FFF7FEFF 		bl	flexsea_payload_98
 1447              	.LVL323:
 103:..\..\flexsea-comm\src/flexsea_payload.c **** 
 1448              		.loc 1 103 0
 1449 04f6 0220     		movs	r0, #2
 423:..\..\flexsea-comm\src/flexsea_payload.c ****             case 99:
 1450              		.loc 1 423 0
 1451 04f8 38BD     		pop	{r3, r4, r5, pc}
 1452              	.LVL324:
 1453              	.L119:
 425:..\..\flexsea-comm\src/flexsea_payload.c ****             	break;
 1454              		.loc 1 425 0
 1455 04fa 2846     		mov	r0, r5
 1456              	.LVL325:
 1457 04fc FFF7FEFF 		bl	flexsea_payload_99
 1458              	.LVL326:
 103:..\..\flexsea-comm\src/flexsea_payload.c **** 
 1459              		.loc 1 103 0
 1460 0500 0220     		movs	r0, #2
 426:..\..\flexsea-comm\src/flexsea_payload.c **** 				
 1461              		.loc 1 426 0
 1462 0502 38BD     		pop	{r3, r4, r5, pc}
 1463              	.LVL327:
 1464              	.L120:
 430:..\..\flexsea-comm\src/flexsea_payload.c ****             	break;
 1465              		.loc 1 430 0
 1466 0504 2846     		mov	r0, r5
 1467              	.LVL328:
 1468 0506 FFF7FEFF 		bl	flexsea_payload_100
 1469              	.LVL329:
 103:..\..\flexsea-comm\src/flexsea_payload.c **** 
 1470              		.loc 1 103 0
 1471 050a 0220     		movs	r0, #2
 431:..\..\flexsea-comm\src/flexsea_payload.c ****             case 101:
 1472              		.loc 1 431 0
 1473 050c 38BD     		pop	{r3, r4, r5, pc}
 1474              	.LVL330:
 1475              	.L121:
 433:..\..\flexsea-comm\src/flexsea_payload.c ****             	break;
 1476              		.loc 1 433 0
 1477 050e 2846     		mov	r0, r5
 1478              	.LVL331:
 1479 0510 FFF7FEFF 		bl	flexsea_payload_101
ARM GAS  C:\Users\Alex\AppData\Local\Temp\ccjqAdcx.s 			page 44


 1480              	.LVL332:
 103:..\..\flexsea-comm\src/flexsea_payload.c **** 
 1481              		.loc 1 103 0
 1482 0514 0220     		movs	r0, #2
 434:..\..\flexsea-comm\src/flexsea_payload.c ****             case 102:
 1483              		.loc 1 434 0
 1484 0516 38BD     		pop	{r3, r4, r5, pc}
 1485              	.LVL333:
 1486              	.L122:
 436:..\..\flexsea-comm\src/flexsea_payload.c ****             	break;
 1487              		.loc 1 436 0
 1488 0518 2846     		mov	r0, r5
 1489              	.LVL334:
 1490 051a FFF7FEFF 		bl	flexsea_payload_102
 1491              	.LVL335:
 103:..\..\flexsea-comm\src/flexsea_payload.c **** 
 1492              		.loc 1 103 0
 1493 051e 0220     		movs	r0, #2
 437:..\..\flexsea-comm\src/flexsea_payload.c ****             case 103:
 1494              		.loc 1 437 0
 1495 0520 38BD     		pop	{r3, r4, r5, pc}
 1496              	.LVL336:
 1497              	.L123:
 439:..\..\flexsea-comm\src/flexsea_payload.c ****             	break;
 1498              		.loc 1 439 0
 1499 0522 2846     		mov	r0, r5
 1500              	.LVL337:
 1501 0524 FFF7FEFF 		bl	flexsea_payload_103
 1502              	.LVL338:
 103:..\..\flexsea-comm\src/flexsea_payload.c **** 
 1503              		.loc 1 103 0
 1504 0528 0220     		movs	r0, #2
 440:..\..\flexsea-comm\src/flexsea_payload.c ****             case 104:
 1505              		.loc 1 440 0
 1506 052a 38BD     		pop	{r3, r4, r5, pc}
 1507              	.LVL339:
 1508              	.L124:
 442:..\..\flexsea-comm\src/flexsea_payload.c ****             	break;
 1509              		.loc 1 442 0
 1510 052c 2846     		mov	r0, r5
 1511              	.LVL340:
 1512 052e FFF7FEFF 		bl	flexsea_payload_104
 1513              	.LVL341:
 103:..\..\flexsea-comm\src/flexsea_payload.c **** 
 1514              		.loc 1 103 0
 1515 0532 0220     		movs	r0, #2
 443:..\..\flexsea-comm\src/flexsea_payload.c ****             case 105:
 1516              		.loc 1 443 0
 1517 0534 38BD     		pop	{r3, r4, r5, pc}
 1518              	.LVL342:
 1519              	.L125:
 445:..\..\flexsea-comm\src/flexsea_payload.c ****             	break;
 1520              		.loc 1 445 0
 1521 0536 2846     		mov	r0, r5
 1522              	.LVL343:
 1523 0538 FFF7FEFF 		bl	flexsea_payload_105
 1524              	.LVL344:
ARM GAS  C:\Users\Alex\AppData\Local\Temp\ccjqAdcx.s 			page 45


 103:..\..\flexsea-comm\src/flexsea_payload.c **** 
 1525              		.loc 1 103 0
 1526 053c 0220     		movs	r0, #2
 446:..\..\flexsea-comm\src/flexsea_payload.c ****             case 106:
 1527              		.loc 1 446 0
 1528 053e 38BD     		pop	{r3, r4, r5, pc}
 1529              	.LVL345:
 1530              	.L126:
 448:..\..\flexsea-comm\src/flexsea_payload.c ****             	break;
 1531              		.loc 1 448 0
 1532 0540 2846     		mov	r0, r5
 1533              	.LVL346:
 1534 0542 FFF7FEFF 		bl	flexsea_payload_106
 1535              	.LVL347:
 103:..\..\flexsea-comm\src/flexsea_payload.c **** 
 1536              		.loc 1 103 0
 1537 0546 0220     		movs	r0, #2
 449:..\..\flexsea-comm\src/flexsea_payload.c ****             case 107:
 1538              		.loc 1 449 0
 1539 0548 38BD     		pop	{r3, r4, r5, pc}
 1540              	.LVL348:
 1541              	.L127:
 451:..\..\flexsea-comm\src/flexsea_payload.c ****             	break;
 1542              		.loc 1 451 0
 1543 054a 2846     		mov	r0, r5
 1544              	.LVL349:
 1545 054c FFF7FEFF 		bl	flexsea_payload_107
 1546              	.LVL350:
 103:..\..\flexsea-comm\src/flexsea_payload.c **** 
 1547              		.loc 1 103 0
 1548 0550 0220     		movs	r0, #2
 452:..\..\flexsea-comm\src/flexsea_payload.c ****             case 108:
 1549              		.loc 1 452 0
 1550 0552 38BD     		pop	{r3, r4, r5, pc}
 1551              	.LVL351:
 1552              	.L128:
 454:..\..\flexsea-comm\src/flexsea_payload.c ****             	break;
 1553              		.loc 1 454 0
 1554 0554 2846     		mov	r0, r5
 1555              	.LVL352:
 1556 0556 FFF7FEFF 		bl	flexsea_payload_108
 1557              	.LVL353:
 103:..\..\flexsea-comm\src/flexsea_payload.c **** 
 1558              		.loc 1 103 0
 1559 055a 0220     		movs	r0, #2
 455:..\..\flexsea-comm\src/flexsea_payload.c ****             case 109:
 1560              		.loc 1 455 0
 1561 055c 38BD     		pop	{r3, r4, r5, pc}
 1562              	.LVL354:
 1563              	.L129:
 457:..\..\flexsea-comm\src/flexsea_payload.c ****             	break;
 1564              		.loc 1 457 0
 1565 055e 2846     		mov	r0, r5
 1566              	.LVL355:
 1567 0560 FFF7FEFF 		bl	flexsea_payload_109
 1568              	.LVL356:
 103:..\..\flexsea-comm\src/flexsea_payload.c **** 
ARM GAS  C:\Users\Alex\AppData\Local\Temp\ccjqAdcx.s 			page 46


 1569              		.loc 1 103 0
 1570 0564 0220     		movs	r0, #2
 458:..\..\flexsea-comm\src/flexsea_payload.c **** 				
 1571              		.loc 1 458 0
 1572 0566 38BD     		pop	{r3, r4, r5, pc}
 1573              	.LVL357:
 1574              	.L130:
 462:..\..\flexsea-comm\src/flexsea_payload.c ****             	break;
 1575              		.loc 1 462 0
 1576 0568 2846     		mov	r0, r5
 1577              	.LVL358:
 1578 056a FFF7FEFF 		bl	flexsea_payload_110
 1579              	.LVL359:
 103:..\..\flexsea-comm\src/flexsea_payload.c **** 
 1580              		.loc 1 103 0
 1581 056e 0220     		movs	r0, #2
 463:..\..\flexsea-comm\src/flexsea_payload.c ****             case 111:
 1582              		.loc 1 463 0
 1583 0570 38BD     		pop	{r3, r4, r5, pc}
 1584              	.LVL360:
 1585              	.L131:
 465:..\..\flexsea-comm\src/flexsea_payload.c ****             	break;
 1586              		.loc 1 465 0
 1587 0572 2846     		mov	r0, r5
 1588              	.LVL361:
 1589 0574 FFF7FEFF 		bl	flexsea_payload_111
 1590              	.LVL362:
 103:..\..\flexsea-comm\src/flexsea_payload.c **** 
 1591              		.loc 1 103 0
 1592 0578 0220     		movs	r0, #2
 466:..\..\flexsea-comm\src/flexsea_payload.c ****             case 112:
 1593              		.loc 1 466 0
 1594 057a 38BD     		pop	{r3, r4, r5, pc}
 1595              	.LVL363:
 1596              	.L132:
 468:..\..\flexsea-comm\src/flexsea_payload.c ****             	break;
 1597              		.loc 1 468 0
 1598 057c 2846     		mov	r0, r5
 1599              	.LVL364:
 1600 057e FFF7FEFF 		bl	flexsea_payload_112
 1601              	.LVL365:
 103:..\..\flexsea-comm\src/flexsea_payload.c **** 
 1602              		.loc 1 103 0
 1603 0582 0220     		movs	r0, #2
 469:..\..\flexsea-comm\src/flexsea_payload.c ****             case 113:
 1604              		.loc 1 469 0
 1605 0584 38BD     		pop	{r3, r4, r5, pc}
 1606              	.LVL366:
 1607              	.L133:
 471:..\..\flexsea-comm\src/flexsea_payload.c ****             	break;
 1608              		.loc 1 471 0
 1609 0586 2846     		mov	r0, r5
 1610              	.LVL367:
 1611 0588 FFF7FEFF 		bl	flexsea_payload_113
 1612              	.LVL368:
 103:..\..\flexsea-comm\src/flexsea_payload.c **** 
 1613              		.loc 1 103 0
ARM GAS  C:\Users\Alex\AppData\Local\Temp\ccjqAdcx.s 			page 47


 1614 058c 0220     		movs	r0, #2
 472:..\..\flexsea-comm\src/flexsea_payload.c ****             case 114:
 1615              		.loc 1 472 0
 1616 058e 38BD     		pop	{r3, r4, r5, pc}
 1617              	.LVL369:
 1618              	.L134:
 474:..\..\flexsea-comm\src/flexsea_payload.c ****             	break;
 1619              		.loc 1 474 0
 1620 0590 2846     		mov	r0, r5
 1621              	.LVL370:
 1622 0592 FFF7FEFF 		bl	flexsea_payload_114
 1623              	.LVL371:
 103:..\..\flexsea-comm\src/flexsea_payload.c **** 
 1624              		.loc 1 103 0
 1625 0596 0220     		movs	r0, #2
 475:..\..\flexsea-comm\src/flexsea_payload.c ****             case 115:
 1626              		.loc 1 475 0
 1627 0598 38BD     		pop	{r3, r4, r5, pc}
 1628              	.LVL372:
 1629              	.L135:
 477:..\..\flexsea-comm\src/flexsea_payload.c ****             	break;
 1630              		.loc 1 477 0
 1631 059a 2846     		mov	r0, r5
 1632              	.LVL373:
 1633 059c FFF7FEFF 		bl	flexsea_payload_115
 1634              	.LVL374:
 103:..\..\flexsea-comm\src/flexsea_payload.c **** 
 1635              		.loc 1 103 0
 1636 05a0 0220     		movs	r0, #2
 478:..\..\flexsea-comm\src/flexsea_payload.c ****             case 116:
 1637              		.loc 1 478 0
 1638 05a2 38BD     		pop	{r3, r4, r5, pc}
 1639              	.LVL375:
 1640              	.L136:
 480:..\..\flexsea-comm\src/flexsea_payload.c ****             	break;
 1641              		.loc 1 480 0
 1642 05a4 2846     		mov	r0, r5
 1643              	.LVL376:
 1644 05a6 FFF7FEFF 		bl	flexsea_payload_116
 1645              	.LVL377:
 103:..\..\flexsea-comm\src/flexsea_payload.c **** 
 1646              		.loc 1 103 0
 1647 05aa 0220     		movs	r0, #2
 481:..\..\flexsea-comm\src/flexsea_payload.c ****             case 117:
 1648              		.loc 1 481 0
 1649 05ac 38BD     		pop	{r3, r4, r5, pc}
 1650              	.LVL378:
 1651              	.L137:
 483:..\..\flexsea-comm\src/flexsea_payload.c ****             	break;
 1652              		.loc 1 483 0
 1653 05ae 2846     		mov	r0, r5
 1654              	.LVL379:
 1655 05b0 FFF7FEFF 		bl	flexsea_payload_117
 1656              	.LVL380:
 103:..\..\flexsea-comm\src/flexsea_payload.c **** 
 1657              		.loc 1 103 0
 1658 05b4 0220     		movs	r0, #2
ARM GAS  C:\Users\Alex\AppData\Local\Temp\ccjqAdcx.s 			page 48


 484:..\..\flexsea-comm\src/flexsea_payload.c ****             case 118:
 1659              		.loc 1 484 0
 1660 05b6 38BD     		pop	{r3, r4, r5, pc}
 1661              	.LVL381:
 1662              	.L138:
 486:..\..\flexsea-comm\src/flexsea_payload.c ****             	break;
 1663              		.loc 1 486 0
 1664 05b8 2846     		mov	r0, r5
 1665              	.LVL382:
 1666 05ba FFF7FEFF 		bl	flexsea_payload_118
 1667              	.LVL383:
 103:..\..\flexsea-comm\src/flexsea_payload.c **** 
 1668              		.loc 1 103 0
 1669 05be 0220     		movs	r0, #2
 487:..\..\flexsea-comm\src/flexsea_payload.c ****             case 119:
 1670              		.loc 1 487 0
 1671 05c0 38BD     		pop	{r3, r4, r5, pc}
 1672              	.LVL384:
 1673              	.L139:
 489:..\..\flexsea-comm\src/flexsea_payload.c ****             	break;
 1674              		.loc 1 489 0
 1675 05c2 2846     		mov	r0, r5
 1676              	.LVL385:
 1677 05c4 FFF7FEFF 		bl	flexsea_payload_119
 1678              	.LVL386:
 103:..\..\flexsea-comm\src/flexsea_payload.c **** 
 1679              		.loc 1 103 0
 1680 05c8 0220     		movs	r0, #2
 490:..\..\flexsea-comm\src/flexsea_payload.c **** 				
 1681              		.loc 1 490 0
 1682 05ca 38BD     		pop	{r3, r4, r5, pc}
 1683              	.LVL387:
 1684              	.L140:
 494:..\..\flexsea-comm\src/flexsea_payload.c ****             	break;
 1685              		.loc 1 494 0
 1686 05cc 2846     		mov	r0, r5
 1687              	.LVL388:
 1688 05ce FFF7FEFF 		bl	flexsea_payload_120
 1689              	.LVL389:
 103:..\..\flexsea-comm\src/flexsea_payload.c **** 
 1690              		.loc 1 103 0
 1691 05d2 0220     		movs	r0, #2
 495:..\..\flexsea-comm\src/flexsea_payload.c ****             case 121:
 1692              		.loc 1 495 0
 1693 05d4 38BD     		pop	{r3, r4, r5, pc}
 1694              	.LVL390:
 1695              	.L141:
 497:..\..\flexsea-comm\src/flexsea_payload.c ****             	break;
 1696              		.loc 1 497 0
 1697 05d6 2846     		mov	r0, r5
 1698              	.LVL391:
 1699 05d8 FFF7FEFF 		bl	flexsea_payload_121
 1700              	.LVL392:
 103:..\..\flexsea-comm\src/flexsea_payload.c **** 
 1701              		.loc 1 103 0
 1702 05dc 0220     		movs	r0, #2
 498:..\..\flexsea-comm\src/flexsea_payload.c ****             case 122:
ARM GAS  C:\Users\Alex\AppData\Local\Temp\ccjqAdcx.s 			page 49


 1703              		.loc 1 498 0
 1704 05de 38BD     		pop	{r3, r4, r5, pc}
 1705              	.LVL393:
 1706              	.L142:
 500:..\..\flexsea-comm\src/flexsea_payload.c ****             	break;
 1707              		.loc 1 500 0
 1708 05e0 2846     		mov	r0, r5
 1709              	.LVL394:
 1710 05e2 FFF7FEFF 		bl	flexsea_payload_122
 1711              	.LVL395:
 103:..\..\flexsea-comm\src/flexsea_payload.c **** 
 1712              		.loc 1 103 0
 1713 05e6 0220     		movs	r0, #2
 501:..\..\flexsea-comm\src/flexsea_payload.c ****             case 123:
 1714              		.loc 1 501 0
 1715 05e8 38BD     		pop	{r3, r4, r5, pc}
 1716              	.LVL396:
 1717              	.L143:
 503:..\..\flexsea-comm\src/flexsea_payload.c ****             	break;
 1718              		.loc 1 503 0
 1719 05ea 2846     		mov	r0, r5
 1720              	.LVL397:
 1721 05ec FFF7FEFF 		bl	flexsea_payload_123
 1722              	.LVL398:
 103:..\..\flexsea-comm\src/flexsea_payload.c **** 
 1723              		.loc 1 103 0
 1724 05f0 0220     		movs	r0, #2
 504:..\..\flexsea-comm\src/flexsea_payload.c ****             case 124:
 1725              		.loc 1 504 0
 1726 05f2 38BD     		pop	{r3, r4, r5, pc}
 1727              	.LVL399:
 1728              	.L144:
 506:..\..\flexsea-comm\src/flexsea_payload.c ****             	break;
 1729              		.loc 1 506 0
 1730 05f4 2846     		mov	r0, r5
 1731              	.LVL400:
 1732 05f6 FFF7FEFF 		bl	flexsea_payload_124
 1733              	.LVL401:
 103:..\..\flexsea-comm\src/flexsea_payload.c **** 
 1734              		.loc 1 103 0
 1735 05fa 0220     		movs	r0, #2
 507:..\..\flexsea-comm\src/flexsea_payload.c ****             case 125:
 1736              		.loc 1 507 0
 1737 05fc 38BD     		pop	{r3, r4, r5, pc}
 1738              	.LVL402:
 1739              	.L145:
 509:..\..\flexsea-comm\src/flexsea_payload.c ****             	break;
 1740              		.loc 1 509 0
 1741 05fe 2846     		mov	r0, r5
 1742              	.LVL403:
 1743 0600 FFF7FEFF 		bl	flexsea_payload_125
 1744              	.LVL404:
 103:..\..\flexsea-comm\src/flexsea_payload.c **** 
 1745              		.loc 1 103 0
 1746 0604 0220     		movs	r0, #2
 510:..\..\flexsea-comm\src/flexsea_payload.c ****             case 126:
 1747              		.loc 1 510 0
ARM GAS  C:\Users\Alex\AppData\Local\Temp\ccjqAdcx.s 			page 50


 1748 0606 38BD     		pop	{r3, r4, r5, pc}
 1749              	.LVL405:
 1750              	.L146:
 512:..\..\flexsea-comm\src/flexsea_payload.c ****             	break;
 1751              		.loc 1 512 0
 1752 0608 2846     		mov	r0, r5
 1753              	.LVL406:
 1754 060a FFF7FEFF 		bl	flexsea_payload_126
 1755              	.LVL407:
 103:..\..\flexsea-comm\src/flexsea_payload.c **** 
 1756              		.loc 1 103 0
 1757 060e 0220     		movs	r0, #2
 513:..\..\flexsea-comm\src/flexsea_payload.c ****             case 127:
 1758              		.loc 1 513 0
 1759 0610 38BD     		pop	{r3, r4, r5, pc}
 1760              	.LVL408:
 1761              	.L147:
 515:..\..\flexsea-comm\src/flexsea_payload.c ****             	break;
 1762              		.loc 1 515 0
 1763 0612 2846     		mov	r0, r5
 1764              	.LVL409:
 1765 0614 FFF7FEFF 		bl	flexsea_payload_127
 1766              	.LVL410:
 103:..\..\flexsea-comm\src/flexsea_payload.c **** 
 1767              		.loc 1 103 0
 1768 0618 0220     		movs	r0, #2
 516:..\..\flexsea-comm\src/flexsea_payload.c **** 			
 1769              		.loc 1 516 0
 1770 061a 38BD     		pop	{r3, r4, r5, pc}
 1771              	.LVL411:
 1772              	.L149:
 520:..\..\flexsea-comm\src/flexsea_payload.c ****                 break;
 1773              		.loc 1 520 0
 1774 061c 0320     		movs	r0, #3
 1775              	.LVL412:
 524:..\..\flexsea-comm\src/flexsea_payload.c ****     }
 1776              		.loc 1 524 0
 1777 061e 38BD     		pop	{r3, r4, r5, pc}
 1778              	.LVL413:
 1779              	.L17:
 526:..\..\flexsea-comm\src/flexsea_payload.c ****     {
 1780              		.loc 1 526 0
 1781 0620 0228     		cmp	r0, #2
 1782 0622 05D0     		beq	.L150
 533:..\..\flexsea-comm\src/flexsea_payload.c ****     {
 1783              		.loc 1 533 0
 1784 0624 0328     		cmp	r0, #3
 1785 0626 05D0     		beq	.L151
 540:..\..\flexsea-comm\src/flexsea_payload.c ****     {
 1786              		.loc 1 540 0
 1787 0628 0428     		cmp	r0, #4
 1788 062a 05D0     		beq	.L152
 558:..\..\flexsea-comm\src/flexsea_payload.c ****     }
 1789              		.loc 1 558 0
 1790 062c 0120     		movs	r0, #1
 1791              	.LVL414:
 1792 062e 38BD     		pop	{r3, r4, r5, pc}
ARM GAS  C:\Users\Alex\AppData\Local\Temp\ccjqAdcx.s 			page 51


 1793              	.LVL415:
 1794              	.L150:
 562:..\..\flexsea-comm\src/flexsea_payload.c **** }
 1795              		.loc 1 562 0
 1796 0630 0020     		movs	r0, #0
 1797              	.LVL416:
 1798 0632 38BD     		pop	{r3, r4, r5, pc}
 1799              	.LVL417:
 1800              	.L151:
 1801 0634 0020     		movs	r0, #0
 1802              	.LVL418:
 1803 0636 38BD     		pop	{r3, r4, r5, pc}
 1804              	.LVL419:
 1805              	.L152:
 1806 0638 0020     		movs	r0, #0
 1807              	.LVL420:
 563:..\..\flexsea-comm\src/flexsea_payload.c **** 
 1808              		.loc 1 563 0
 1809 063a 38BD     		pop	{r3, r4, r5, pc}
 1810              		.cfi_endproc
 1811              	.LFE3:
 1812              		.size	payload_parse_str, .-payload_parse_str
 1813              		.comm	payload_str,36,4
 1814              		.weak	flexsea_payload_127
 1815              		.weak	flexsea_payload_126
 1816              		.weak	flexsea_payload_125
 1817              		.weak	flexsea_payload_124
 1818              		.weak	flexsea_payload_123
 1819              		.weak	flexsea_payload_122
 1820              		.weak	flexsea_payload_121
 1821              		.weak	flexsea_payload_120
 1822              		.weak	flexsea_payload_119
 1823              		.weak	flexsea_payload_118
 1824              		.weak	flexsea_payload_117
 1825              		.weak	flexsea_payload_116
 1826              		.weak	flexsea_payload_115
 1827              		.weak	flexsea_payload_114
 1828              		.weak	flexsea_payload_113
 1829              		.weak	flexsea_payload_112
 1830              		.weak	flexsea_payload_111
 1831              		.weak	flexsea_payload_110
 1832              		.weak	flexsea_payload_109
 1833              		.weak	flexsea_payload_108
 1834              		.weak	flexsea_payload_107
 1835              		.weak	flexsea_payload_106
 1836              		.weak	flexsea_payload_105
 1837              		.weak	flexsea_payload_104
 1838              		.weak	flexsea_payload_103
 1839              		.weak	flexsea_payload_102
 1840              		.weak	flexsea_payload_101
 1841              		.weak	flexsea_payload_100
 1842              		.weak	flexsea_payload_99
 1843              		.weak	flexsea_payload_98
 1844              		.weak	flexsea_payload_97
 1845              		.weak	flexsea_payload_96
 1846              		.weak	flexsea_payload_95
 1847              		.weak	flexsea_payload_94
ARM GAS  C:\Users\Alex\AppData\Local\Temp\ccjqAdcx.s 			page 52


 1848              		.weak	flexsea_payload_93
 1849              		.weak	flexsea_payload_92
 1850              		.weak	flexsea_payload_91
 1851              		.weak	flexsea_payload_90
 1852              		.weak	flexsea_payload_89
 1853              		.weak	flexsea_payload_88
 1854              		.weak	flexsea_payload_87
 1855              		.weak	flexsea_payload_86
 1856              		.weak	flexsea_payload_85
 1857              		.weak	flexsea_payload_84
 1858              		.weak	flexsea_payload_83
 1859              		.weak	flexsea_payload_82
 1860              		.weak	flexsea_payload_81
 1861              		.weak	flexsea_payload_80
 1862              		.weak	flexsea_payload_79
 1863              		.weak	flexsea_payload_78
 1864              		.weak	flexsea_payload_77
 1865              		.weak	flexsea_payload_76
 1866              		.weak	flexsea_payload_75
 1867              		.weak	flexsea_payload_74
 1868              		.weak	flexsea_payload_73
 1869              		.weak	flexsea_payload_72
 1870              		.weak	flexsea_payload_71
 1871              		.weak	flexsea_payload_70
 1872              		.weak	flexsea_payload_69
 1873              		.weak	flexsea_payload_68
 1874              		.weak	flexsea_payload_67
 1875              		.weak	flexsea_payload_66
 1876              		.weak	flexsea_payload_65
 1877              		.weak	flexsea_payload_64
 1878              		.weak	flexsea_payload_63
 1879              		.weak	flexsea_payload_62
 1880              		.weak	flexsea_payload_61
 1881              		.weak	flexsea_payload_60
 1882              		.weak	flexsea_payload_59
 1883              		.weak	flexsea_payload_58
 1884              		.weak	flexsea_payload_57
 1885              		.weak	flexsea_payload_56
 1886              		.weak	flexsea_payload_55
 1887              		.weak	flexsea_payload_54
 1888              		.weak	flexsea_payload_53
 1889              		.weak	flexsea_payload_52
 1890              		.weak	flexsea_payload_51
 1891              		.weak	flexsea_payload_50
 1892              		.weak	flexsea_payload_49
 1893              		.weak	flexsea_payload_48
 1894              		.weak	flexsea_payload_47
 1895              		.weak	flexsea_payload_46
 1896              		.weak	flexsea_payload_45
 1897              		.weak	flexsea_payload_44
 1898              		.weak	flexsea_payload_43
 1899              		.weak	flexsea_payload_42
 1900              		.weak	flexsea_payload_41
 1901              		.weak	flexsea_payload_40
 1902              		.weak	flexsea_payload_39
 1903              		.weak	flexsea_payload_38
 1904              		.weak	flexsea_payload_37
ARM GAS  C:\Users\Alex\AppData\Local\Temp\ccjqAdcx.s 			page 53


 1905              		.weak	flexsea_payload_36
 1906              		.weak	flexsea_payload_35
 1907              		.weak	flexsea_payload_34
 1908              		.weak	flexsea_payload_33
 1909              		.weak	flexsea_payload_32
 1910              		.weak	flexsea_payload_31
 1911              		.weak	flexsea_payload_30
 1912              		.weak	flexsea_payload_29
 1913              		.weak	flexsea_payload_28
 1914              		.weak	flexsea_payload_27
 1915              		.weak	flexsea_payload_26
 1916              		.weak	flexsea_payload_25
 1917              		.weak	flexsea_payload_24
 1918              		.weak	flexsea_payload_23
 1919              		.weak	flexsea_payload_22
 1920              		.weak	flexsea_payload_21
 1921              		.weak	flexsea_payload_20
 1922              		.weak	flexsea_payload_19
 1923              		.weak	flexsea_payload_18
 1924              		.weak	flexsea_payload_17
 1925              		.weak	flexsea_payload_16
 1926              		.weak	flexsea_payload_15
 1927              		.weak	flexsea_payload_14
 1928              		.weak	flexsea_payload_13
 1929              		.weak	flexsea_payload_12
 1930              		.weak	flexsea_payload_11
 1931              		.weak	flexsea_payload_10
 1932              		.weak	flexsea_payload_9
 1933              		.weak	flexsea_payload_8
 1934              		.weak	flexsea_payload_7
 1935              		.weak	flexsea_payload_6
 1936              		.weak	flexsea_payload_5
 1937              		.weak	flexsea_payload_4
 1938              		.weak	flexsea_payload_3
 1939              		.weak	flexsea_payload_2
 1940              		.weak	flexsea_payload_0
 1941              		.text
 1942              	.Letext0:
 1943              		.file 2 "c:\\program files (x86)\\cypress\\psoc creator\\3.3\\psoc creator\\import\\gnu\\arm\\4.9.
 1944              		.file 3 "c:\\program files (x86)\\cypress\\psoc creator\\3.3\\psoc creator\\import\\gnu\\arm\\4.9.
 1945              		.file 4 "..\\..\\flexsea-comm\\src\\../inc/flexsea_comm.h"
 1946              		.file 5 "..\\inc/flexsea_board.h"
 1947              		.file 6 "..\\..\\flexsea-comm\\src\\../inc/flexsea.h"
 1948              		.file 7 "..\\..\\flexsea-comm\\src\\../inc/flexsea_payload.h"
 1949              		.section	.debug_info,"",%progbits
 1950              	.Ldebug_info0:
 1951 0000 2F160000 		.4byte	0x162f
 1952 0004 0400     		.2byte	0x4
 1953 0006 00000000 		.4byte	.Ldebug_abbrev0
 1954 000a 04       		.byte	0x4
 1955 000b 01       		.uleb128 0x1
 1956 000c E90A0000 		.4byte	.LASF172
 1957 0010 01       		.byte	0x1
 1958 0011 A2010000 		.4byte	.LASF173
 1959 0015 91050000 		.4byte	.LASF174
 1960 0019 00000000 		.4byte	.Ldebug_ranges0+0
 1961 001d 00000000 		.4byte	0
ARM GAS  C:\Users\Alex\AppData\Local\Temp\ccjqAdcx.s 			page 54


 1962 0021 00000000 		.4byte	.Ldebug_line0
 1963 0025 02       		.uleb128 0x2
 1964 0026 01       		.byte	0x1
 1965 0027 06       		.byte	0x6
 1966 0028 1D0C0000 		.4byte	.LASF0
 1967 002c 03       		.uleb128 0x3
 1968 002d CB090000 		.4byte	.LASF5
 1969 0031 02       		.byte	0x2
 1970 0032 1D       		.byte	0x1d
 1971 0033 37000000 		.4byte	0x37
 1972 0037 02       		.uleb128 0x2
 1973 0038 01       		.byte	0x1
 1974 0039 08       		.byte	0x8
 1975 003a D00A0000 		.4byte	.LASF1
 1976 003e 02       		.uleb128 0x2
 1977 003f 02       		.byte	0x2
 1978 0040 05       		.byte	0x5
 1979 0041 DF080000 		.4byte	.LASF2
 1980 0045 02       		.uleb128 0x2
 1981 0046 02       		.byte	0x2
 1982 0047 07       		.byte	0x7
 1983 0048 290C0000 		.4byte	.LASF3
 1984 004c 02       		.uleb128 0x2
 1985 004d 04       		.byte	0x4
 1986 004e 05       		.byte	0x5
 1987 004f E9080000 		.4byte	.LASF4
 1988 0053 03       		.uleb128 0x3
 1989 0054 DE0A0000 		.4byte	.LASF6
 1990 0058 02       		.byte	0x2
 1991 0059 41       		.byte	0x41
 1992 005a 5E000000 		.4byte	0x5e
 1993 005e 02       		.uleb128 0x2
 1994 005f 04       		.byte	0x4
 1995 0060 07       		.byte	0x7
 1996 0061 A60A0000 		.4byte	.LASF7
 1997 0065 02       		.uleb128 0x2
 1998 0066 08       		.byte	0x8
 1999 0067 05       		.byte	0x5
 2000 0068 E8070000 		.4byte	.LASF8
 2001 006c 02       		.uleb128 0x2
 2002 006d 08       		.byte	0x8
 2003 006e 07       		.byte	0x7
 2004 006f 91030000 		.4byte	.LASF9
 2005 0073 04       		.uleb128 0x4
 2006 0074 04       		.byte	0x4
 2007 0075 05       		.byte	0x5
 2008 0076 696E7400 		.ascii	"int\000"
 2009 007a 02       		.uleb128 0x2
 2010 007b 04       		.byte	0x4
 2011 007c 07       		.byte	0x7
 2012 007d 95010000 		.4byte	.LASF10
 2013 0081 02       		.uleb128 0x2
 2014 0082 04       		.byte	0x4
 2015 0083 07       		.byte	0x7
 2016 0084 9D0A0000 		.4byte	.LASF11
 2017 0088 05       		.uleb128 0x5
 2018 0089 04       		.byte	0x4
ARM GAS  C:\Users\Alex\AppData\Local\Temp\ccjqAdcx.s 			page 55


 2019 008a 37000000 		.4byte	0x37
 2020 008e 02       		.uleb128 0x2
 2021 008f 01       		.byte	0x1
 2022 0090 08       		.byte	0x8
 2023 0091 E5060000 		.4byte	.LASF12
 2024 0095 03       		.uleb128 0x3
 2025 0096 15070000 		.4byte	.LASF13
 2026 009a 03       		.byte	0x3
 2027 009b 15       		.byte	0x15
 2028 009c 2C000000 		.4byte	0x2c
 2029 00a0 03       		.uleb128 0x3
 2030 00a1 C1020000 		.4byte	.LASF14
 2031 00a5 03       		.byte	0x3
 2032 00a6 2D       		.byte	0x2d
 2033 00a7 53000000 		.4byte	0x53
 2034 00ab 06       		.uleb128 0x6
 2035 00ac FC050000 		.4byte	.LASF18
 2036 00b0 34       		.byte	0x34
 2037 00b1 04       		.byte	0x4
 2038 00b2 62       		.byte	0x62
 2039 00b3 F4000000 		.4byte	0xf4
 2040 00b7 07       		.uleb128 0x7
 2041 00b8 C6090000 		.4byte	.LASF15
 2042 00bc 04       		.byte	0x4
 2043 00bd 64       		.byte	0x64
 2044 00be 95000000 		.4byte	0x95
 2045 00c2 00       		.byte	0
 2046 00c3 08       		.uleb128 0x8
 2047 00c4 73747200 		.ascii	"str\000"
 2048 00c8 04       		.byte	0x4
 2049 00c9 65       		.byte	0x65
 2050 00ca F4000000 		.4byte	0xf4
 2051 00ce 01       		.byte	0x1
 2052 00cf 07       		.uleb128 0x7
 2053 00d0 F7080000 		.4byte	.LASF16
 2054 00d4 04       		.byte	0x4
 2055 00d5 66       		.byte	0x66
 2056 00d6 95000000 		.4byte	0x95
 2057 00da 31       		.byte	0x31
 2058 00db 08       		.uleb128 0x8
 2059 00dc 636D6400 		.ascii	"cmd\000"
 2060 00e0 04       		.byte	0x4
 2061 00e1 67       		.byte	0x67
 2062 00e2 95000000 		.4byte	0x95
 2063 00e6 32       		.byte	0x32
 2064 00e7 07       		.uleb128 0x7
 2065 00e8 F5050000 		.4byte	.LASF17
 2066 00ec 04       		.byte	0x4
 2067 00ed 68       		.byte	0x68
 2068 00ee 95000000 		.4byte	0x95
 2069 00f2 33       		.byte	0x33
 2070 00f3 00       		.byte	0
 2071 00f4 09       		.uleb128 0x9
 2072 00f5 95000000 		.4byte	0x95
 2073 00f9 04010000 		.4byte	0x104
 2074 00fd 0A       		.uleb128 0xa
 2075 00fe 81000000 		.4byte	0x81
ARM GAS  C:\Users\Alex\AppData\Local\Temp\ccjqAdcx.s 			page 56


 2076 0102 2F       		.byte	0x2f
 2077 0103 00       		.byte	0
 2078 0104 06       		.uleb128 0x6
 2079 0105 CA000000 		.4byte	.LASF19
 2080 0109 6C       		.byte	0x6c
 2081 010a 04       		.byte	0x4
 2082 010b 6B       		.byte	0x6b
 2083 010c 59010000 		.4byte	0x159
 2084 0110 07       		.uleb128 0x7
 2085 0111 97020000 		.4byte	.LASF20
 2086 0115 04       		.byte	0x4
 2087 0116 6D       		.byte	0x6d
 2088 0117 95000000 		.4byte	0x95
 2089 011b 00       		.byte	0
 2090 011c 07       		.uleb128 0x7
 2091 011d CB0A0000 		.4byte	.LASF21
 2092 0121 04       		.byte	0x4
 2093 0122 6E       		.byte	0x6e
 2094 0123 95000000 		.4byte	0x95
 2095 0127 01       		.byte	0x1
 2096 0128 07       		.uleb128 0x7
 2097 0129 9F0B0000 		.4byte	.LASF22
 2098 012d 04       		.byte	0x4
 2099 012e 6F       		.byte	0x6f
 2100 012f 95000000 		.4byte	0x95
 2101 0133 02       		.byte	0x2
 2102 0134 07       		.uleb128 0x7
 2103 0135 410C0000 		.4byte	.LASF23
 2104 0139 04       		.byte	0x4
 2105 013a 70       		.byte	0x70
 2106 013b 95000000 		.4byte	0x95
 2107 013f 03       		.byte	0x3
 2108 0140 07       		.uleb128 0x7
 2109 0141 3C0C0000 		.4byte	.LASF24
 2110 0145 04       		.byte	0x4
 2111 0146 75       		.byte	0x75
 2112 0147 AB000000 		.4byte	0xab
 2113 014b 04       		.byte	0x4
 2114 014c 07       		.uleb128 0x7
 2115 014d D5010000 		.4byte	.LASF25
 2116 0151 04       		.byte	0x4
 2117 0152 76       		.byte	0x76
 2118 0153 AB000000 		.4byte	0xab
 2119 0157 38       		.byte	0x38
 2120 0158 00       		.byte	0
 2121 0159 0B       		.uleb128 0xb
 2122 015a D7080000 		.4byte	.LASF175
 2123 015e 01       		.byte	0x1
 2124 015f 5D02     		.2byte	0x25d
 2125 0161 95000000 		.4byte	0x95
 2126 0165 00000000 		.4byte	.LFB5
 2127 0169 28000000 		.4byte	.LFE5-.LFB5
 2128 016d 01       		.uleb128 0x1
 2129 016e 9C       		.byte	0x9c
 2130 016f 9D010000 		.4byte	0x19d
 2131 0173 0C       		.uleb128 0xc
 2132 0174 BB080000 		.4byte	.LASF27
ARM GAS  C:\Users\Alex\AppData\Local\Temp\ccjqAdcx.s 			page 57


 2133 0178 01       		.byte	0x1
 2134 0179 5D02     		.2byte	0x25d
 2135 017b 9D010000 		.4byte	0x19d
 2136 017f 00000000 		.4byte	.LLST0
 2137 0183 0D       		.uleb128 0xd
 2138 0184 EA060000 		.4byte	.LASF26
 2139 0188 01       		.byte	0x1
 2140 0189 5F02     		.2byte	0x25f
 2141 018b 95000000 		.4byte	0x95
 2142 018f 01       		.uleb128 0x1
 2143 0190 53       		.byte	0x53
 2144 0191 0E       		.uleb128 0xe
 2145 0192 6900     		.ascii	"i\000"
 2146 0194 01       		.byte	0x1
 2147 0195 6002     		.2byte	0x260
 2148 0197 95000000 		.4byte	0x95
 2149 019b 00       		.byte	0
 2150 019c 00       		.byte	0
 2151 019d 05       		.uleb128 0x5
 2152 019e 04       		.byte	0x4
 2153 019f 95000000 		.4byte	0x95
 2154 01a3 0F       		.uleb128 0xf
 2155 01a4 F1060000 		.4byte	.LASF176
 2156 01a8 01       		.byte	0x1
 2157 01a9 2A       		.byte	0x2a
 2158 01aa 00000000 		.4byte	.LFB0
 2159 01ae 18000000 		.4byte	.LFE0-.LFB0
 2160 01b2 01       		.uleb128 0x1
 2161 01b3 9C       		.byte	0x9c
 2162 01b4 10020000 		.4byte	0x210
 2163 01b8 10       		.uleb128 0x10
 2164 01b9 BE000000 		.4byte	.LASF28
 2165 01bd 01       		.byte	0x1
 2166 01be 2A       		.byte	0x2a
 2167 01bf 95000000 		.4byte	0x95
 2168 01c3 53000000 		.4byte	.LLST1
 2169 01c7 11       		.uleb128 0x11
 2170 01c8 746F00   		.ascii	"to\000"
 2171 01cb 01       		.byte	0x1
 2172 01cc 2A       		.byte	0x2a
 2173 01cd 95000000 		.4byte	0x95
 2174 01d1 74000000 		.4byte	.LLST2
 2175 01d5 11       		.uleb128 0x11
 2176 01d6 62756600 		.ascii	"buf\000"
 2177 01da 01       		.byte	0x1
 2178 01db 2A       		.byte	0x2a
 2179 01dc 9D010000 		.4byte	0x19d
 2180 01e0 95000000 		.4byte	.LLST3
 2181 01e4 11       		.uleb128 0x11
 2182 01e5 6C656E00 		.ascii	"len\000"
 2183 01e9 01       		.byte	0x1
 2184 01ea 2A       		.byte	0x2a
 2185 01eb A0000000 		.4byte	0xa0
 2186 01ef BE000000 		.4byte	.LLST4
 2187 01f3 12       		.uleb128 0x12
 2188 01f4 12000000 		.4byte	.LVL11
 2189 01f8 9B0D0000 		.4byte	0xd9b
ARM GAS  C:\Users\Alex\AppData\Local\Temp\ccjqAdcx.s 			page 58


 2190 01fc 13       		.uleb128 0x13
 2191 01fd 01       		.uleb128 0x1
 2192 01fe 52       		.byte	0x52
 2193 01ff 01       		.uleb128 0x1
 2194 0200 30       		.byte	0x30
 2195 0201 13       		.uleb128 0x13
 2196 0202 01       		.uleb128 0x1
 2197 0203 51       		.byte	0x51
 2198 0204 03       		.uleb128 0x3
 2199 0205 F3       		.byte	0xf3
 2200 0206 01       		.uleb128 0x1
 2201 0207 53       		.byte	0x53
 2202 0208 13       		.uleb128 0x13
 2203 0209 01       		.uleb128 0x1
 2204 020a 50       		.byte	0x50
 2205 020b 02       		.uleb128 0x2
 2206 020c 74       		.byte	0x74
 2207 020d 00       		.sleb128 0
 2208 020e 00       		.byte	0
 2209 020f 00       		.byte	0
 2210 0210 14       		.uleb128 0x14
 2211 0211 4B0C0000 		.4byte	.LASF31
 2212 0215 01       		.byte	0x1
 2213 0216 37       		.byte	0x37
 2214 0217 A0000000 		.4byte	0xa0
 2215 021b 00000000 		.4byte	.LFB1
 2216 021f 1C000000 		.4byte	.LFE1-.LFB1
 2217 0223 01       		.uleb128 0x1
 2218 0224 9C       		.byte	0x9c
 2219 0225 7C020000 		.4byte	0x27c
 2220 0229 10       		.uleb128 0x10
 2221 022a 84040000 		.4byte	.LASF29
 2222 022e 01       		.byte	0x1
 2223 022f 37       		.byte	0x37
 2224 0230 9D010000 		.4byte	0x19d
 2225 0234 DF000000 		.4byte	.LLST5
 2226 0238 15       		.uleb128 0x15
 2227 0239 69647800 		.ascii	"idx\000"
 2228 023d 01       		.byte	0x1
 2229 023e 37       		.byte	0x37
 2230 023f A0000000 		.4byte	0xa0
 2231 0243 01       		.uleb128 0x1
 2232 0244 51       		.byte	0x51
 2233 0245 16       		.uleb128 0x16
 2234 0246 C2080000 		.4byte	.LASF30
 2235 024a 01       		.byte	0x1
 2236 024b 37       		.byte	0x37
 2237 024c 9D010000 		.4byte	0x19d
 2238 0250 01       		.uleb128 0x1
 2239 0251 52       		.byte	0x52
 2240 0252 15       		.uleb128 0x15
 2241 0253 6C656E00 		.ascii	"len\000"
 2242 0257 01       		.byte	0x1
 2243 0258 37       		.byte	0x37
 2244 0259 A0000000 		.4byte	0xa0
 2245 025d 01       		.uleb128 0x1
 2246 025e 53       		.byte	0x53
ARM GAS  C:\Users\Alex\AppData\Local\Temp\ccjqAdcx.s 			page 59


 2247 025f 17       		.uleb128 0x17
 2248 0260 6900     		.ascii	"i\000"
 2249 0262 01       		.byte	0x1
 2250 0263 39       		.byte	0x39
 2251 0264 A0000000 		.4byte	0xa0
 2252 0268 0B010000 		.4byte	.LLST6
 2253 026c 17       		.uleb128 0x17
 2254 026d 636E7400 		.ascii	"cnt\000"
 2255 0271 01       		.byte	0x1
 2256 0272 39       		.byte	0x39
 2257 0273 A0000000 		.4byte	0xa0
 2258 0277 29010000 		.4byte	.LLST7
 2259 027b 00       		.byte	0
 2260 027c 14       		.uleb128 0x14
 2261 027d 72040000 		.4byte	.LASF32
 2262 0281 01       		.byte	0x1
 2263 0282 46       		.byte	0x46
 2264 0283 95000000 		.4byte	0x95
 2265 0287 00000000 		.4byte	.LFB2
 2266 028b 10000000 		.4byte	.LFE2-.LFB2
 2267 028f 01       		.uleb128 0x1
 2268 0290 9C       		.byte	0x9c
 2269 0291 A5020000 		.4byte	0x2a5
 2270 0295 11       		.uleb128 0x11
 2271 0296 62756600 		.ascii	"buf\000"
 2272 029a 01       		.byte	0x1
 2273 029b 46       		.byte	0x46
 2274 029c 9D010000 		.4byte	0x19d
 2275 02a0 55010000 		.4byte	.LLST8
 2276 02a4 00       		.byte	0
 2277 02a5 14       		.uleb128 0x14
 2278 02a6 C4060000 		.4byte	.LASF33
 2279 02aa 01       		.byte	0x1
 2280 02ab 5A       		.byte	0x5a
 2281 02ac 7A000000 		.4byte	0x7a
 2282 02b0 00000000 		.4byte	.LFB3
 2283 02b4 3C060000 		.4byte	.LFE3-.LFB3
 2284 02b8 01       		.uleb128 0x1
 2285 02b9 9C       		.byte	0x9c
 2286 02ba 250D0000 		.4byte	0xd25
 2287 02be 10       		.uleb128 0x10
 2288 02bf B4080000 		.4byte	.LASF34
 2289 02c3 01       		.byte	0x1
 2290 02c4 5A       		.byte	0x5a
 2291 02c5 88000000 		.4byte	0x88
 2292 02c9 8F010000 		.4byte	.LLST9
 2293 02cd 17       		.uleb128 0x17
 2294 02ce 636D6400 		.ascii	"cmd\000"
 2295 02d2 01       		.byte	0x1
 2296 02d3 5C       		.byte	0x5c
 2297 02d4 37000000 		.4byte	0x37
 2298 02d8 AD010000 		.4byte	.LLST10
 2299 02dc 18       		.uleb128 0x18
 2300 02dd CB010000 		.4byte	.LASF35
 2301 02e1 01       		.byte	0x1
 2302 02e2 5C       		.byte	0x5c
 2303 02e3 37000000 		.4byte	0x37
ARM GAS  C:\Users\Alex\AppData\Local\Temp\ccjqAdcx.s 			page 60


 2304 02e7 CC010000 		.4byte	.LLST11
 2305 02eb 18       		.uleb128 0x18
 2306 02ec C3000000 		.4byte	.LASF36
 2307 02f0 01       		.byte	0x1
 2308 02f1 5C       		.byte	0x5c
 2309 02f2 37000000 		.4byte	0x37
 2310 02f6 EB010000 		.4byte	.LLST12
 2311 02fa 19       		.uleb128 0x19
 2312 02fb F2080000 		.4byte	.LASF37
 2313 02ff 01       		.byte	0x1
 2314 0300 5C       		.byte	0x5c
 2315 0301 37000000 		.4byte	0x37
 2316 0305 00       		.byte	0
 2317 0306 17       		.uleb128 0x17
 2318 0307 696400   		.ascii	"id\000"
 2319 030a 01       		.byte	0x1
 2320 030b 5D       		.byte	0x5d
 2321 030c 7A000000 		.4byte	0x7a
 2322 0310 16020000 		.4byte	.LLST13
 2323 0314 1A       		.uleb128 0x1a
 2324 0315 0C000000 		.4byte	.LVL27
 2325 0319 59010000 		.4byte	0x159
 2326 031d 28030000 		.4byte	0x328
 2327 0321 13       		.uleb128 0x13
 2328 0322 01       		.uleb128 0x1
 2329 0323 50       		.byte	0x50
 2330 0324 02       		.uleb128 0x2
 2331 0325 75       		.byte	0x75
 2332 0326 00       		.sleb128 0
 2333 0327 00       		.byte	0
 2334 0328 1A       		.uleb128 0x1a
 2335 0329 22010000 		.4byte	.LVL29
 2336 032d B60D0000 		.4byte	0xdb6
 2337 0331 3C030000 		.4byte	0x33c
 2338 0335 13       		.uleb128 0x13
 2339 0336 01       		.uleb128 0x1
 2340 0337 50       		.byte	0x50
 2341 0338 02       		.uleb128 0x2
 2342 0339 75       		.byte	0x75
 2343 033a 00       		.sleb128 0
 2344 033b 00       		.byte	0
 2345 033c 1A       		.uleb128 0x1a
 2346 033d 2C010000 		.4byte	.LVL32
 2347 0341 C70D0000 		.4byte	0xdc7
 2348 0345 50030000 		.4byte	0x350
 2349 0349 13       		.uleb128 0x13
 2350 034a 01       		.uleb128 0x1
 2351 034b 50       		.byte	0x50
 2352 034c 02       		.uleb128 0x2
 2353 034d 75       		.byte	0x75
 2354 034e 00       		.sleb128 0
 2355 034f 00       		.byte	0
 2356 0350 1A       		.uleb128 0x1a
 2357 0351 36010000 		.4byte	.LVL35
 2358 0355 D80D0000 		.4byte	0xdd8
 2359 0359 64030000 		.4byte	0x364
 2360 035d 13       		.uleb128 0x13
ARM GAS  C:\Users\Alex\AppData\Local\Temp\ccjqAdcx.s 			page 61


 2361 035e 01       		.uleb128 0x1
 2362 035f 50       		.byte	0x50
 2363 0360 02       		.uleb128 0x2
 2364 0361 75       		.byte	0x75
 2365 0362 00       		.sleb128 0
 2366 0363 00       		.byte	0
 2367 0364 1A       		.uleb128 0x1a
 2368 0365 40010000 		.4byte	.LVL38
 2369 0369 E90D0000 		.4byte	0xde9
 2370 036d 78030000 		.4byte	0x378
 2371 0371 13       		.uleb128 0x13
 2372 0372 01       		.uleb128 0x1
 2373 0373 50       		.byte	0x50
 2374 0374 02       		.uleb128 0x2
 2375 0375 75       		.byte	0x75
 2376 0376 00       		.sleb128 0
 2377 0377 00       		.byte	0
 2378 0378 1A       		.uleb128 0x1a
 2379 0379 4A010000 		.4byte	.LVL41
 2380 037d FA0D0000 		.4byte	0xdfa
 2381 0381 8C030000 		.4byte	0x38c
 2382 0385 13       		.uleb128 0x13
 2383 0386 01       		.uleb128 0x1
 2384 0387 50       		.byte	0x50
 2385 0388 02       		.uleb128 0x2
 2386 0389 75       		.byte	0x75
 2387 038a 00       		.sleb128 0
 2388 038b 00       		.byte	0
 2389 038c 1A       		.uleb128 0x1a
 2390 038d 54010000 		.4byte	.LVL44
 2391 0391 0B0E0000 		.4byte	0xe0b
 2392 0395 A0030000 		.4byte	0x3a0
 2393 0399 13       		.uleb128 0x13
 2394 039a 01       		.uleb128 0x1
 2395 039b 50       		.byte	0x50
 2396 039c 02       		.uleb128 0x2
 2397 039d 75       		.byte	0x75
 2398 039e 00       		.sleb128 0
 2399 039f 00       		.byte	0
 2400 03a0 1A       		.uleb128 0x1a
 2401 03a1 5E010000 		.4byte	.LVL47
 2402 03a5 1C0E0000 		.4byte	0xe1c
 2403 03a9 B4030000 		.4byte	0x3b4
 2404 03ad 13       		.uleb128 0x13
 2405 03ae 01       		.uleb128 0x1
 2406 03af 50       		.byte	0x50
 2407 03b0 02       		.uleb128 0x2
 2408 03b1 75       		.byte	0x75
 2409 03b2 00       		.sleb128 0
 2410 03b3 00       		.byte	0
 2411 03b4 1A       		.uleb128 0x1a
 2412 03b5 68010000 		.4byte	.LVL50
 2413 03b9 2D0E0000 		.4byte	0xe2d
 2414 03bd C8030000 		.4byte	0x3c8
 2415 03c1 13       		.uleb128 0x13
 2416 03c2 01       		.uleb128 0x1
 2417 03c3 50       		.byte	0x50
ARM GAS  C:\Users\Alex\AppData\Local\Temp\ccjqAdcx.s 			page 62


 2418 03c4 02       		.uleb128 0x2
 2419 03c5 75       		.byte	0x75
 2420 03c6 00       		.sleb128 0
 2421 03c7 00       		.byte	0
 2422 03c8 1A       		.uleb128 0x1a
 2423 03c9 72010000 		.4byte	.LVL53
 2424 03cd 3E0E0000 		.4byte	0xe3e
 2425 03d1 DC030000 		.4byte	0x3dc
 2426 03d5 13       		.uleb128 0x13
 2427 03d6 01       		.uleb128 0x1
 2428 03d7 50       		.byte	0x50
 2429 03d8 02       		.uleb128 0x2
 2430 03d9 75       		.byte	0x75
 2431 03da 00       		.sleb128 0
 2432 03db 00       		.byte	0
 2433 03dc 1A       		.uleb128 0x1a
 2434 03dd 7C010000 		.4byte	.LVL56
 2435 03e1 4F0E0000 		.4byte	0xe4f
 2436 03e5 F0030000 		.4byte	0x3f0
 2437 03e9 13       		.uleb128 0x13
 2438 03ea 01       		.uleb128 0x1
 2439 03eb 50       		.byte	0x50
 2440 03ec 02       		.uleb128 0x2
 2441 03ed 75       		.byte	0x75
 2442 03ee 00       		.sleb128 0
 2443 03ef 00       		.byte	0
 2444 03f0 1A       		.uleb128 0x1a
 2445 03f1 86010000 		.4byte	.LVL59
 2446 03f5 600E0000 		.4byte	0xe60
 2447 03f9 04040000 		.4byte	0x404
 2448 03fd 13       		.uleb128 0x13
 2449 03fe 01       		.uleb128 0x1
 2450 03ff 50       		.byte	0x50
 2451 0400 02       		.uleb128 0x2
 2452 0401 75       		.byte	0x75
 2453 0402 00       		.sleb128 0
 2454 0403 00       		.byte	0
 2455 0404 1A       		.uleb128 0x1a
 2456 0405 90010000 		.4byte	.LVL62
 2457 0409 710E0000 		.4byte	0xe71
 2458 040d 18040000 		.4byte	0x418
 2459 0411 13       		.uleb128 0x13
 2460 0412 01       		.uleb128 0x1
 2461 0413 50       		.byte	0x50
 2462 0414 02       		.uleb128 0x2
 2463 0415 75       		.byte	0x75
 2464 0416 00       		.sleb128 0
 2465 0417 00       		.byte	0
 2466 0418 1A       		.uleb128 0x1a
 2467 0419 9A010000 		.4byte	.LVL65
 2468 041d 820E0000 		.4byte	0xe82
 2469 0421 2C040000 		.4byte	0x42c
 2470 0425 13       		.uleb128 0x13
 2471 0426 01       		.uleb128 0x1
 2472 0427 50       		.byte	0x50
 2473 0428 02       		.uleb128 0x2
 2474 0429 75       		.byte	0x75
ARM GAS  C:\Users\Alex\AppData\Local\Temp\ccjqAdcx.s 			page 63


 2475 042a 00       		.sleb128 0
 2476 042b 00       		.byte	0
 2477 042c 1A       		.uleb128 0x1a
 2478 042d A4010000 		.4byte	.LVL68
 2479 0431 930E0000 		.4byte	0xe93
 2480 0435 40040000 		.4byte	0x440
 2481 0439 13       		.uleb128 0x13
 2482 043a 01       		.uleb128 0x1
 2483 043b 50       		.byte	0x50
 2484 043c 02       		.uleb128 0x2
 2485 043d 75       		.byte	0x75
 2486 043e 00       		.sleb128 0
 2487 043f 00       		.byte	0
 2488 0440 1A       		.uleb128 0x1a
 2489 0441 AE010000 		.4byte	.LVL71
 2490 0445 A40E0000 		.4byte	0xea4
 2491 0449 54040000 		.4byte	0x454
 2492 044d 13       		.uleb128 0x13
 2493 044e 01       		.uleb128 0x1
 2494 044f 50       		.byte	0x50
 2495 0450 02       		.uleb128 0x2
 2496 0451 75       		.byte	0x75
 2497 0452 00       		.sleb128 0
 2498 0453 00       		.byte	0
 2499 0454 1A       		.uleb128 0x1a
 2500 0455 B8010000 		.4byte	.LVL74
 2501 0459 B50E0000 		.4byte	0xeb5
 2502 045d 68040000 		.4byte	0x468
 2503 0461 13       		.uleb128 0x13
 2504 0462 01       		.uleb128 0x1
 2505 0463 50       		.byte	0x50
 2506 0464 02       		.uleb128 0x2
 2507 0465 75       		.byte	0x75
 2508 0466 00       		.sleb128 0
 2509 0467 00       		.byte	0
 2510 0468 1A       		.uleb128 0x1a
 2511 0469 C2010000 		.4byte	.LVL77
 2512 046d C60E0000 		.4byte	0xec6
 2513 0471 7C040000 		.4byte	0x47c
 2514 0475 13       		.uleb128 0x13
 2515 0476 01       		.uleb128 0x1
 2516 0477 50       		.byte	0x50
 2517 0478 02       		.uleb128 0x2
 2518 0479 75       		.byte	0x75
 2519 047a 00       		.sleb128 0
 2520 047b 00       		.byte	0
 2521 047c 1A       		.uleb128 0x1a
 2522 047d CC010000 		.4byte	.LVL80
 2523 0481 D70E0000 		.4byte	0xed7
 2524 0485 90040000 		.4byte	0x490
 2525 0489 13       		.uleb128 0x13
 2526 048a 01       		.uleb128 0x1
 2527 048b 50       		.byte	0x50
 2528 048c 02       		.uleb128 0x2
 2529 048d 75       		.byte	0x75
 2530 048e 00       		.sleb128 0
 2531 048f 00       		.byte	0
ARM GAS  C:\Users\Alex\AppData\Local\Temp\ccjqAdcx.s 			page 64


 2532 0490 1A       		.uleb128 0x1a
 2533 0491 D6010000 		.4byte	.LVL83
 2534 0495 E80E0000 		.4byte	0xee8
 2535 0499 A4040000 		.4byte	0x4a4
 2536 049d 13       		.uleb128 0x13
 2537 049e 01       		.uleb128 0x1
 2538 049f 50       		.byte	0x50
 2539 04a0 02       		.uleb128 0x2
 2540 04a1 75       		.byte	0x75
 2541 04a2 00       		.sleb128 0
 2542 04a3 00       		.byte	0
 2543 04a4 1A       		.uleb128 0x1a
 2544 04a5 E0010000 		.4byte	.LVL86
 2545 04a9 F90E0000 		.4byte	0xef9
 2546 04ad B8040000 		.4byte	0x4b8
 2547 04b1 13       		.uleb128 0x13
 2548 04b2 01       		.uleb128 0x1
 2549 04b3 50       		.byte	0x50
 2550 04b4 02       		.uleb128 0x2
 2551 04b5 75       		.byte	0x75
 2552 04b6 00       		.sleb128 0
 2553 04b7 00       		.byte	0
 2554 04b8 1A       		.uleb128 0x1a
 2555 04b9 EA010000 		.4byte	.LVL89
 2556 04bd 0A0F0000 		.4byte	0xf0a
 2557 04c1 CC040000 		.4byte	0x4cc
 2558 04c5 13       		.uleb128 0x13
 2559 04c6 01       		.uleb128 0x1
 2560 04c7 50       		.byte	0x50
 2561 04c8 02       		.uleb128 0x2
 2562 04c9 75       		.byte	0x75
 2563 04ca 00       		.sleb128 0
 2564 04cb 00       		.byte	0
 2565 04cc 1A       		.uleb128 0x1a
 2566 04cd F4010000 		.4byte	.LVL92
 2567 04d1 1B0F0000 		.4byte	0xf1b
 2568 04d5 E0040000 		.4byte	0x4e0
 2569 04d9 13       		.uleb128 0x13
 2570 04da 01       		.uleb128 0x1
 2571 04db 50       		.byte	0x50
 2572 04dc 02       		.uleb128 0x2
 2573 04dd 75       		.byte	0x75
 2574 04de 00       		.sleb128 0
 2575 04df 00       		.byte	0
 2576 04e0 1A       		.uleb128 0x1a
 2577 04e1 FE010000 		.4byte	.LVL95
 2578 04e5 2C0F0000 		.4byte	0xf2c
 2579 04e9 F4040000 		.4byte	0x4f4
 2580 04ed 13       		.uleb128 0x13
 2581 04ee 01       		.uleb128 0x1
 2582 04ef 50       		.byte	0x50
 2583 04f0 02       		.uleb128 0x2
 2584 04f1 75       		.byte	0x75
 2585 04f2 00       		.sleb128 0
 2586 04f3 00       		.byte	0
 2587 04f4 1A       		.uleb128 0x1a
 2588 04f5 08020000 		.4byte	.LVL98
ARM GAS  C:\Users\Alex\AppData\Local\Temp\ccjqAdcx.s 			page 65


 2589 04f9 3D0F0000 		.4byte	0xf3d
 2590 04fd 08050000 		.4byte	0x508
 2591 0501 13       		.uleb128 0x13
 2592 0502 01       		.uleb128 0x1
 2593 0503 50       		.byte	0x50
 2594 0504 02       		.uleb128 0x2
 2595 0505 75       		.byte	0x75
 2596 0506 00       		.sleb128 0
 2597 0507 00       		.byte	0
 2598 0508 1A       		.uleb128 0x1a
 2599 0509 12020000 		.4byte	.LVL101
 2600 050d 4E0F0000 		.4byte	0xf4e
 2601 0511 1C050000 		.4byte	0x51c
 2602 0515 13       		.uleb128 0x13
 2603 0516 01       		.uleb128 0x1
 2604 0517 50       		.byte	0x50
 2605 0518 02       		.uleb128 0x2
 2606 0519 75       		.byte	0x75
 2607 051a 00       		.sleb128 0
 2608 051b 00       		.byte	0
 2609 051c 1A       		.uleb128 0x1a
 2610 051d 1C020000 		.4byte	.LVL104
 2611 0521 5F0F0000 		.4byte	0xf5f
 2612 0525 30050000 		.4byte	0x530
 2613 0529 13       		.uleb128 0x13
 2614 052a 01       		.uleb128 0x1
 2615 052b 50       		.byte	0x50
 2616 052c 02       		.uleb128 0x2
 2617 052d 75       		.byte	0x75
 2618 052e 00       		.sleb128 0
 2619 052f 00       		.byte	0
 2620 0530 1A       		.uleb128 0x1a
 2621 0531 26020000 		.4byte	.LVL107
 2622 0535 700F0000 		.4byte	0xf70
 2623 0539 44050000 		.4byte	0x544
 2624 053d 13       		.uleb128 0x13
 2625 053e 01       		.uleb128 0x1
 2626 053f 50       		.byte	0x50
 2627 0540 02       		.uleb128 0x2
 2628 0541 75       		.byte	0x75
 2629 0542 00       		.sleb128 0
 2630 0543 00       		.byte	0
 2631 0544 1A       		.uleb128 0x1a
 2632 0545 30020000 		.4byte	.LVL110
 2633 0549 810F0000 		.4byte	0xf81
 2634 054d 58050000 		.4byte	0x558
 2635 0551 13       		.uleb128 0x13
 2636 0552 01       		.uleb128 0x1
 2637 0553 50       		.byte	0x50
 2638 0554 02       		.uleb128 0x2
 2639 0555 75       		.byte	0x75
 2640 0556 00       		.sleb128 0
 2641 0557 00       		.byte	0
 2642 0558 1A       		.uleb128 0x1a
 2643 0559 3A020000 		.4byte	.LVL113
 2644 055d 920F0000 		.4byte	0xf92
 2645 0561 6C050000 		.4byte	0x56c
ARM GAS  C:\Users\Alex\AppData\Local\Temp\ccjqAdcx.s 			page 66


 2646 0565 13       		.uleb128 0x13
 2647 0566 01       		.uleb128 0x1
 2648 0567 50       		.byte	0x50
 2649 0568 02       		.uleb128 0x2
 2650 0569 75       		.byte	0x75
 2651 056a 00       		.sleb128 0
 2652 056b 00       		.byte	0
 2653 056c 1A       		.uleb128 0x1a
 2654 056d 44020000 		.4byte	.LVL116
 2655 0571 A30F0000 		.4byte	0xfa3
 2656 0575 80050000 		.4byte	0x580
 2657 0579 13       		.uleb128 0x13
 2658 057a 01       		.uleb128 0x1
 2659 057b 50       		.byte	0x50
 2660 057c 02       		.uleb128 0x2
 2661 057d 75       		.byte	0x75
 2662 057e 00       		.sleb128 0
 2663 057f 00       		.byte	0
 2664 0580 1A       		.uleb128 0x1a
 2665 0581 4E020000 		.4byte	.LVL119
 2666 0585 B40F0000 		.4byte	0xfb4
 2667 0589 94050000 		.4byte	0x594
 2668 058d 13       		.uleb128 0x13
 2669 058e 01       		.uleb128 0x1
 2670 058f 50       		.byte	0x50
 2671 0590 02       		.uleb128 0x2
 2672 0591 75       		.byte	0x75
 2673 0592 00       		.sleb128 0
 2674 0593 00       		.byte	0
 2675 0594 1A       		.uleb128 0x1a
 2676 0595 58020000 		.4byte	.LVL122
 2677 0599 C50F0000 		.4byte	0xfc5
 2678 059d A8050000 		.4byte	0x5a8
 2679 05a1 13       		.uleb128 0x13
 2680 05a2 01       		.uleb128 0x1
 2681 05a3 50       		.byte	0x50
 2682 05a4 02       		.uleb128 0x2
 2683 05a5 75       		.byte	0x75
 2684 05a6 00       		.sleb128 0
 2685 05a7 00       		.byte	0
 2686 05a8 1A       		.uleb128 0x1a
 2687 05a9 62020000 		.4byte	.LVL125
 2688 05ad D60F0000 		.4byte	0xfd6
 2689 05b1 BC050000 		.4byte	0x5bc
 2690 05b5 13       		.uleb128 0x13
 2691 05b6 01       		.uleb128 0x1
 2692 05b7 50       		.byte	0x50
 2693 05b8 02       		.uleb128 0x2
 2694 05b9 75       		.byte	0x75
 2695 05ba 00       		.sleb128 0
 2696 05bb 00       		.byte	0
 2697 05bc 1A       		.uleb128 0x1a
 2698 05bd 6C020000 		.4byte	.LVL128
 2699 05c1 E70F0000 		.4byte	0xfe7
 2700 05c5 D0050000 		.4byte	0x5d0
 2701 05c9 13       		.uleb128 0x13
 2702 05ca 01       		.uleb128 0x1
ARM GAS  C:\Users\Alex\AppData\Local\Temp\ccjqAdcx.s 			page 67


 2703 05cb 50       		.byte	0x50
 2704 05cc 02       		.uleb128 0x2
 2705 05cd 75       		.byte	0x75
 2706 05ce 00       		.sleb128 0
 2707 05cf 00       		.byte	0
 2708 05d0 1A       		.uleb128 0x1a
 2709 05d1 76020000 		.4byte	.LVL131
 2710 05d5 F80F0000 		.4byte	0xff8
 2711 05d9 E4050000 		.4byte	0x5e4
 2712 05dd 13       		.uleb128 0x13
 2713 05de 01       		.uleb128 0x1
 2714 05df 50       		.byte	0x50
 2715 05e0 02       		.uleb128 0x2
 2716 05e1 75       		.byte	0x75
 2717 05e2 00       		.sleb128 0
 2718 05e3 00       		.byte	0
 2719 05e4 1A       		.uleb128 0x1a
 2720 05e5 80020000 		.4byte	.LVL134
 2721 05e9 09100000 		.4byte	0x1009
 2722 05ed F8050000 		.4byte	0x5f8
 2723 05f1 13       		.uleb128 0x13
 2724 05f2 01       		.uleb128 0x1
 2725 05f3 50       		.byte	0x50
 2726 05f4 02       		.uleb128 0x2
 2727 05f5 75       		.byte	0x75
 2728 05f6 00       		.sleb128 0
 2729 05f7 00       		.byte	0
 2730 05f8 1A       		.uleb128 0x1a
 2731 05f9 8A020000 		.4byte	.LVL137
 2732 05fd 1A100000 		.4byte	0x101a
 2733 0601 0C060000 		.4byte	0x60c
 2734 0605 13       		.uleb128 0x13
 2735 0606 01       		.uleb128 0x1
 2736 0607 50       		.byte	0x50
 2737 0608 02       		.uleb128 0x2
 2738 0609 75       		.byte	0x75
 2739 060a 00       		.sleb128 0
 2740 060b 00       		.byte	0
 2741 060c 1A       		.uleb128 0x1a
 2742 060d 94020000 		.4byte	.LVL140
 2743 0611 2B100000 		.4byte	0x102b
 2744 0615 20060000 		.4byte	0x620
 2745 0619 13       		.uleb128 0x13
 2746 061a 01       		.uleb128 0x1
 2747 061b 50       		.byte	0x50
 2748 061c 02       		.uleb128 0x2
 2749 061d 75       		.byte	0x75
 2750 061e 00       		.sleb128 0
 2751 061f 00       		.byte	0
 2752 0620 1A       		.uleb128 0x1a
 2753 0621 9E020000 		.4byte	.LVL143
 2754 0625 3C100000 		.4byte	0x103c
 2755 0629 34060000 		.4byte	0x634
 2756 062d 13       		.uleb128 0x13
 2757 062e 01       		.uleb128 0x1
 2758 062f 50       		.byte	0x50
 2759 0630 02       		.uleb128 0x2
ARM GAS  C:\Users\Alex\AppData\Local\Temp\ccjqAdcx.s 			page 68


 2760 0631 75       		.byte	0x75
 2761 0632 00       		.sleb128 0
 2762 0633 00       		.byte	0
 2763 0634 1A       		.uleb128 0x1a
 2764 0635 A8020000 		.4byte	.LVL146
 2765 0639 4D100000 		.4byte	0x104d
 2766 063d 48060000 		.4byte	0x648
 2767 0641 13       		.uleb128 0x13
 2768 0642 01       		.uleb128 0x1
 2769 0643 50       		.byte	0x50
 2770 0644 02       		.uleb128 0x2
 2771 0645 75       		.byte	0x75
 2772 0646 00       		.sleb128 0
 2773 0647 00       		.byte	0
 2774 0648 1A       		.uleb128 0x1a
 2775 0649 B2020000 		.4byte	.LVL149
 2776 064d 5E100000 		.4byte	0x105e
 2777 0651 5C060000 		.4byte	0x65c
 2778 0655 13       		.uleb128 0x13
 2779 0656 01       		.uleb128 0x1
 2780 0657 50       		.byte	0x50
 2781 0658 02       		.uleb128 0x2
 2782 0659 75       		.byte	0x75
 2783 065a 00       		.sleb128 0
 2784 065b 00       		.byte	0
 2785 065c 1A       		.uleb128 0x1a
 2786 065d BC020000 		.4byte	.LVL152
 2787 0661 6F100000 		.4byte	0x106f
 2788 0665 70060000 		.4byte	0x670
 2789 0669 13       		.uleb128 0x13
 2790 066a 01       		.uleb128 0x1
 2791 066b 50       		.byte	0x50
 2792 066c 02       		.uleb128 0x2
 2793 066d 75       		.byte	0x75
 2794 066e 00       		.sleb128 0
 2795 066f 00       		.byte	0
 2796 0670 1A       		.uleb128 0x1a
 2797 0671 C6020000 		.4byte	.LVL155
 2798 0675 80100000 		.4byte	0x1080
 2799 0679 84060000 		.4byte	0x684
 2800 067d 13       		.uleb128 0x13
 2801 067e 01       		.uleb128 0x1
 2802 067f 50       		.byte	0x50
 2803 0680 02       		.uleb128 0x2
 2804 0681 75       		.byte	0x75
 2805 0682 00       		.sleb128 0
 2806 0683 00       		.byte	0
 2807 0684 1A       		.uleb128 0x1a
 2808 0685 D0020000 		.4byte	.LVL158
 2809 0689 91100000 		.4byte	0x1091
 2810 068d 98060000 		.4byte	0x698
 2811 0691 13       		.uleb128 0x13
 2812 0692 01       		.uleb128 0x1
 2813 0693 50       		.byte	0x50
 2814 0694 02       		.uleb128 0x2
 2815 0695 75       		.byte	0x75
 2816 0696 00       		.sleb128 0
ARM GAS  C:\Users\Alex\AppData\Local\Temp\ccjqAdcx.s 			page 69


 2817 0697 00       		.byte	0
 2818 0698 1A       		.uleb128 0x1a
 2819 0699 DA020000 		.4byte	.LVL161
 2820 069d A2100000 		.4byte	0x10a2
 2821 06a1 AC060000 		.4byte	0x6ac
 2822 06a5 13       		.uleb128 0x13
 2823 06a6 01       		.uleb128 0x1
 2824 06a7 50       		.byte	0x50
 2825 06a8 02       		.uleb128 0x2
 2826 06a9 75       		.byte	0x75
 2827 06aa 00       		.sleb128 0
 2828 06ab 00       		.byte	0
 2829 06ac 1A       		.uleb128 0x1a
 2830 06ad E4020000 		.4byte	.LVL164
 2831 06b1 B3100000 		.4byte	0x10b3
 2832 06b5 C0060000 		.4byte	0x6c0
 2833 06b9 13       		.uleb128 0x13
 2834 06ba 01       		.uleb128 0x1
 2835 06bb 50       		.byte	0x50
 2836 06bc 02       		.uleb128 0x2
 2837 06bd 75       		.byte	0x75
 2838 06be 00       		.sleb128 0
 2839 06bf 00       		.byte	0
 2840 06c0 1A       		.uleb128 0x1a
 2841 06c1 EE020000 		.4byte	.LVL167
 2842 06c5 C4100000 		.4byte	0x10c4
 2843 06c9 D4060000 		.4byte	0x6d4
 2844 06cd 13       		.uleb128 0x13
 2845 06ce 01       		.uleb128 0x1
 2846 06cf 50       		.byte	0x50
 2847 06d0 02       		.uleb128 0x2
 2848 06d1 75       		.byte	0x75
 2849 06d2 00       		.sleb128 0
 2850 06d3 00       		.byte	0
 2851 06d4 1A       		.uleb128 0x1a
 2852 06d5 F8020000 		.4byte	.LVL170
 2853 06d9 D5100000 		.4byte	0x10d5
 2854 06dd E8060000 		.4byte	0x6e8
 2855 06e1 13       		.uleb128 0x13
 2856 06e2 01       		.uleb128 0x1
 2857 06e3 50       		.byte	0x50
 2858 06e4 02       		.uleb128 0x2
 2859 06e5 75       		.byte	0x75
 2860 06e6 00       		.sleb128 0
 2861 06e7 00       		.byte	0
 2862 06e8 1A       		.uleb128 0x1a
 2863 06e9 02030000 		.4byte	.LVL173
 2864 06ed E6100000 		.4byte	0x10e6
 2865 06f1 FC060000 		.4byte	0x6fc
 2866 06f5 13       		.uleb128 0x13
 2867 06f6 01       		.uleb128 0x1
 2868 06f7 50       		.byte	0x50
 2869 06f8 02       		.uleb128 0x2
 2870 06f9 75       		.byte	0x75
 2871 06fa 00       		.sleb128 0
 2872 06fb 00       		.byte	0
 2873 06fc 1A       		.uleb128 0x1a
ARM GAS  C:\Users\Alex\AppData\Local\Temp\ccjqAdcx.s 			page 70


 2874 06fd 0C030000 		.4byte	.LVL176
 2875 0701 F7100000 		.4byte	0x10f7
 2876 0705 10070000 		.4byte	0x710
 2877 0709 13       		.uleb128 0x13
 2878 070a 01       		.uleb128 0x1
 2879 070b 50       		.byte	0x50
 2880 070c 02       		.uleb128 0x2
 2881 070d 75       		.byte	0x75
 2882 070e 00       		.sleb128 0
 2883 070f 00       		.byte	0
 2884 0710 1A       		.uleb128 0x1a
 2885 0711 16030000 		.4byte	.LVL179
 2886 0715 08110000 		.4byte	0x1108
 2887 0719 24070000 		.4byte	0x724
 2888 071d 13       		.uleb128 0x13
 2889 071e 01       		.uleb128 0x1
 2890 071f 50       		.byte	0x50
 2891 0720 02       		.uleb128 0x2
 2892 0721 75       		.byte	0x75
 2893 0722 00       		.sleb128 0
 2894 0723 00       		.byte	0
 2895 0724 1A       		.uleb128 0x1a
 2896 0725 20030000 		.4byte	.LVL182
 2897 0729 19110000 		.4byte	0x1119
 2898 072d 38070000 		.4byte	0x738
 2899 0731 13       		.uleb128 0x13
 2900 0732 01       		.uleb128 0x1
 2901 0733 50       		.byte	0x50
 2902 0734 02       		.uleb128 0x2
 2903 0735 75       		.byte	0x75
 2904 0736 00       		.sleb128 0
 2905 0737 00       		.byte	0
 2906 0738 1A       		.uleb128 0x1a
 2907 0739 2A030000 		.4byte	.LVL185
 2908 073d 2A110000 		.4byte	0x112a
 2909 0741 4C070000 		.4byte	0x74c
 2910 0745 13       		.uleb128 0x13
 2911 0746 01       		.uleb128 0x1
 2912 0747 50       		.byte	0x50
 2913 0748 02       		.uleb128 0x2
 2914 0749 75       		.byte	0x75
 2915 074a 00       		.sleb128 0
 2916 074b 00       		.byte	0
 2917 074c 1A       		.uleb128 0x1a
 2918 074d 34030000 		.4byte	.LVL188
 2919 0751 3B110000 		.4byte	0x113b
 2920 0755 60070000 		.4byte	0x760
 2921 0759 13       		.uleb128 0x13
 2922 075a 01       		.uleb128 0x1
 2923 075b 50       		.byte	0x50
 2924 075c 02       		.uleb128 0x2
 2925 075d 75       		.byte	0x75
 2926 075e 00       		.sleb128 0
 2927 075f 00       		.byte	0
 2928 0760 1A       		.uleb128 0x1a
 2929 0761 3E030000 		.4byte	.LVL191
 2930 0765 4C110000 		.4byte	0x114c
ARM GAS  C:\Users\Alex\AppData\Local\Temp\ccjqAdcx.s 			page 71


 2931 0769 74070000 		.4byte	0x774
 2932 076d 13       		.uleb128 0x13
 2933 076e 01       		.uleb128 0x1
 2934 076f 50       		.byte	0x50
 2935 0770 02       		.uleb128 0x2
 2936 0771 75       		.byte	0x75
 2937 0772 00       		.sleb128 0
 2938 0773 00       		.byte	0
 2939 0774 1A       		.uleb128 0x1a
 2940 0775 48030000 		.4byte	.LVL194
 2941 0779 5D110000 		.4byte	0x115d
 2942 077d 88070000 		.4byte	0x788
 2943 0781 13       		.uleb128 0x13
 2944 0782 01       		.uleb128 0x1
 2945 0783 50       		.byte	0x50
 2946 0784 02       		.uleb128 0x2
 2947 0785 75       		.byte	0x75
 2948 0786 00       		.sleb128 0
 2949 0787 00       		.byte	0
 2950 0788 1A       		.uleb128 0x1a
 2951 0789 52030000 		.4byte	.LVL197
 2952 078d 6E110000 		.4byte	0x116e
 2953 0791 9C070000 		.4byte	0x79c
 2954 0795 13       		.uleb128 0x13
 2955 0796 01       		.uleb128 0x1
 2956 0797 50       		.byte	0x50
 2957 0798 02       		.uleb128 0x2
 2958 0799 75       		.byte	0x75
 2959 079a 00       		.sleb128 0
 2960 079b 00       		.byte	0
 2961 079c 1A       		.uleb128 0x1a
 2962 079d 5C030000 		.4byte	.LVL200
 2963 07a1 7F110000 		.4byte	0x117f
 2964 07a5 B0070000 		.4byte	0x7b0
 2965 07a9 13       		.uleb128 0x13
 2966 07aa 01       		.uleb128 0x1
 2967 07ab 50       		.byte	0x50
 2968 07ac 02       		.uleb128 0x2
 2969 07ad 75       		.byte	0x75
 2970 07ae 00       		.sleb128 0
 2971 07af 00       		.byte	0
 2972 07b0 1A       		.uleb128 0x1a
 2973 07b1 66030000 		.4byte	.LVL203
 2974 07b5 90110000 		.4byte	0x1190
 2975 07b9 C4070000 		.4byte	0x7c4
 2976 07bd 13       		.uleb128 0x13
 2977 07be 01       		.uleb128 0x1
 2978 07bf 50       		.byte	0x50
 2979 07c0 02       		.uleb128 0x2
 2980 07c1 75       		.byte	0x75
 2981 07c2 00       		.sleb128 0
 2982 07c3 00       		.byte	0
 2983 07c4 1A       		.uleb128 0x1a
 2984 07c5 70030000 		.4byte	.LVL206
 2985 07c9 A1110000 		.4byte	0x11a1
 2986 07cd D8070000 		.4byte	0x7d8
 2987 07d1 13       		.uleb128 0x13
ARM GAS  C:\Users\Alex\AppData\Local\Temp\ccjqAdcx.s 			page 72


 2988 07d2 01       		.uleb128 0x1
 2989 07d3 50       		.byte	0x50
 2990 07d4 02       		.uleb128 0x2
 2991 07d5 75       		.byte	0x75
 2992 07d6 00       		.sleb128 0
 2993 07d7 00       		.byte	0
 2994 07d8 1A       		.uleb128 0x1a
 2995 07d9 7A030000 		.4byte	.LVL209
 2996 07dd B2110000 		.4byte	0x11b2
 2997 07e1 EC070000 		.4byte	0x7ec
 2998 07e5 13       		.uleb128 0x13
 2999 07e6 01       		.uleb128 0x1
 3000 07e7 50       		.byte	0x50
 3001 07e8 02       		.uleb128 0x2
 3002 07e9 75       		.byte	0x75
 3003 07ea 00       		.sleb128 0
 3004 07eb 00       		.byte	0
 3005 07ec 1A       		.uleb128 0x1a
 3006 07ed 84030000 		.4byte	.LVL212
 3007 07f1 C3110000 		.4byte	0x11c3
 3008 07f5 00080000 		.4byte	0x800
 3009 07f9 13       		.uleb128 0x13
 3010 07fa 01       		.uleb128 0x1
 3011 07fb 50       		.byte	0x50
 3012 07fc 02       		.uleb128 0x2
 3013 07fd 75       		.byte	0x75
 3014 07fe 00       		.sleb128 0
 3015 07ff 00       		.byte	0
 3016 0800 1A       		.uleb128 0x1a
 3017 0801 8E030000 		.4byte	.LVL215
 3018 0805 D4110000 		.4byte	0x11d4
 3019 0809 14080000 		.4byte	0x814
 3020 080d 13       		.uleb128 0x13
 3021 080e 01       		.uleb128 0x1
 3022 080f 50       		.byte	0x50
 3023 0810 02       		.uleb128 0x2
 3024 0811 75       		.byte	0x75
 3025 0812 00       		.sleb128 0
 3026 0813 00       		.byte	0
 3027 0814 1A       		.uleb128 0x1a
 3028 0815 98030000 		.4byte	.LVL218
 3029 0819 E5110000 		.4byte	0x11e5
 3030 081d 28080000 		.4byte	0x828
 3031 0821 13       		.uleb128 0x13
 3032 0822 01       		.uleb128 0x1
 3033 0823 50       		.byte	0x50
 3034 0824 02       		.uleb128 0x2
 3035 0825 75       		.byte	0x75
 3036 0826 00       		.sleb128 0
 3037 0827 00       		.byte	0
 3038 0828 1A       		.uleb128 0x1a
 3039 0829 A2030000 		.4byte	.LVL221
 3040 082d F6110000 		.4byte	0x11f6
 3041 0831 3C080000 		.4byte	0x83c
 3042 0835 13       		.uleb128 0x13
 3043 0836 01       		.uleb128 0x1
 3044 0837 50       		.byte	0x50
ARM GAS  C:\Users\Alex\AppData\Local\Temp\ccjqAdcx.s 			page 73


 3045 0838 02       		.uleb128 0x2
 3046 0839 75       		.byte	0x75
 3047 083a 00       		.sleb128 0
 3048 083b 00       		.byte	0
 3049 083c 1A       		.uleb128 0x1a
 3050 083d AC030000 		.4byte	.LVL224
 3051 0841 07120000 		.4byte	0x1207
 3052 0845 50080000 		.4byte	0x850
 3053 0849 13       		.uleb128 0x13
 3054 084a 01       		.uleb128 0x1
 3055 084b 50       		.byte	0x50
 3056 084c 02       		.uleb128 0x2
 3057 084d 75       		.byte	0x75
 3058 084e 00       		.sleb128 0
 3059 084f 00       		.byte	0
 3060 0850 1A       		.uleb128 0x1a
 3061 0851 B6030000 		.4byte	.LVL227
 3062 0855 18120000 		.4byte	0x1218
 3063 0859 64080000 		.4byte	0x864
 3064 085d 13       		.uleb128 0x13
 3065 085e 01       		.uleb128 0x1
 3066 085f 50       		.byte	0x50
 3067 0860 02       		.uleb128 0x2
 3068 0861 75       		.byte	0x75
 3069 0862 00       		.sleb128 0
 3070 0863 00       		.byte	0
 3071 0864 1A       		.uleb128 0x1a
 3072 0865 C0030000 		.4byte	.LVL230
 3073 0869 29120000 		.4byte	0x1229
 3074 086d 78080000 		.4byte	0x878
 3075 0871 13       		.uleb128 0x13
 3076 0872 01       		.uleb128 0x1
 3077 0873 50       		.byte	0x50
 3078 0874 02       		.uleb128 0x2
 3079 0875 75       		.byte	0x75
 3080 0876 00       		.sleb128 0
 3081 0877 00       		.byte	0
 3082 0878 1A       		.uleb128 0x1a
 3083 0879 CA030000 		.4byte	.LVL233
 3084 087d 3A120000 		.4byte	0x123a
 3085 0881 8C080000 		.4byte	0x88c
 3086 0885 13       		.uleb128 0x13
 3087 0886 01       		.uleb128 0x1
 3088 0887 50       		.byte	0x50
 3089 0888 02       		.uleb128 0x2
 3090 0889 75       		.byte	0x75
 3091 088a 00       		.sleb128 0
 3092 088b 00       		.byte	0
 3093 088c 1A       		.uleb128 0x1a
 3094 088d D4030000 		.4byte	.LVL236
 3095 0891 4B120000 		.4byte	0x124b
 3096 0895 A0080000 		.4byte	0x8a0
 3097 0899 13       		.uleb128 0x13
 3098 089a 01       		.uleb128 0x1
 3099 089b 50       		.byte	0x50
 3100 089c 02       		.uleb128 0x2
 3101 089d 75       		.byte	0x75
ARM GAS  C:\Users\Alex\AppData\Local\Temp\ccjqAdcx.s 			page 74


 3102 089e 00       		.sleb128 0
 3103 089f 00       		.byte	0
 3104 08a0 1A       		.uleb128 0x1a
 3105 08a1 DE030000 		.4byte	.LVL239
 3106 08a5 5C120000 		.4byte	0x125c
 3107 08a9 B4080000 		.4byte	0x8b4
 3108 08ad 13       		.uleb128 0x13
 3109 08ae 01       		.uleb128 0x1
 3110 08af 50       		.byte	0x50
 3111 08b0 02       		.uleb128 0x2
 3112 08b1 75       		.byte	0x75
 3113 08b2 00       		.sleb128 0
 3114 08b3 00       		.byte	0
 3115 08b4 1A       		.uleb128 0x1a
 3116 08b5 E8030000 		.4byte	.LVL242
 3117 08b9 6D120000 		.4byte	0x126d
 3118 08bd C8080000 		.4byte	0x8c8
 3119 08c1 13       		.uleb128 0x13
 3120 08c2 01       		.uleb128 0x1
 3121 08c3 50       		.byte	0x50
 3122 08c4 02       		.uleb128 0x2
 3123 08c5 75       		.byte	0x75
 3124 08c6 00       		.sleb128 0
 3125 08c7 00       		.byte	0
 3126 08c8 1A       		.uleb128 0x1a
 3127 08c9 F2030000 		.4byte	.LVL245
 3128 08cd 7E120000 		.4byte	0x127e
 3129 08d1 DC080000 		.4byte	0x8dc
 3130 08d5 13       		.uleb128 0x13
 3131 08d6 01       		.uleb128 0x1
 3132 08d7 50       		.byte	0x50
 3133 08d8 02       		.uleb128 0x2
 3134 08d9 75       		.byte	0x75
 3135 08da 00       		.sleb128 0
 3136 08db 00       		.byte	0
 3137 08dc 1A       		.uleb128 0x1a
 3138 08dd FC030000 		.4byte	.LVL248
 3139 08e1 8F120000 		.4byte	0x128f
 3140 08e5 F0080000 		.4byte	0x8f0
 3141 08e9 13       		.uleb128 0x13
 3142 08ea 01       		.uleb128 0x1
 3143 08eb 50       		.byte	0x50
 3144 08ec 02       		.uleb128 0x2
 3145 08ed 75       		.byte	0x75
 3146 08ee 00       		.sleb128 0
 3147 08ef 00       		.byte	0
 3148 08f0 1A       		.uleb128 0x1a
 3149 08f1 06040000 		.4byte	.LVL251
 3150 08f5 A0120000 		.4byte	0x12a0
 3151 08f9 04090000 		.4byte	0x904
 3152 08fd 13       		.uleb128 0x13
 3153 08fe 01       		.uleb128 0x1
 3154 08ff 50       		.byte	0x50
 3155 0900 02       		.uleb128 0x2
 3156 0901 75       		.byte	0x75
 3157 0902 00       		.sleb128 0
 3158 0903 00       		.byte	0
ARM GAS  C:\Users\Alex\AppData\Local\Temp\ccjqAdcx.s 			page 75


 3159 0904 1A       		.uleb128 0x1a
 3160 0905 10040000 		.4byte	.LVL254
 3161 0909 B1120000 		.4byte	0x12b1
 3162 090d 18090000 		.4byte	0x918
 3163 0911 13       		.uleb128 0x13
 3164 0912 01       		.uleb128 0x1
 3165 0913 50       		.byte	0x50
 3166 0914 02       		.uleb128 0x2
 3167 0915 75       		.byte	0x75
 3168 0916 00       		.sleb128 0
 3169 0917 00       		.byte	0
 3170 0918 1A       		.uleb128 0x1a
 3171 0919 1A040000 		.4byte	.LVL257
 3172 091d C2120000 		.4byte	0x12c2
 3173 0921 2C090000 		.4byte	0x92c
 3174 0925 13       		.uleb128 0x13
 3175 0926 01       		.uleb128 0x1
 3176 0927 50       		.byte	0x50
 3177 0928 02       		.uleb128 0x2
 3178 0929 75       		.byte	0x75
 3179 092a 00       		.sleb128 0
 3180 092b 00       		.byte	0
 3181 092c 1A       		.uleb128 0x1a
 3182 092d 24040000 		.4byte	.LVL260
 3183 0931 D3120000 		.4byte	0x12d3
 3184 0935 40090000 		.4byte	0x940
 3185 0939 13       		.uleb128 0x13
 3186 093a 01       		.uleb128 0x1
 3187 093b 50       		.byte	0x50
 3188 093c 02       		.uleb128 0x2
 3189 093d 75       		.byte	0x75
 3190 093e 00       		.sleb128 0
 3191 093f 00       		.byte	0
 3192 0940 1A       		.uleb128 0x1a
 3193 0941 2E040000 		.4byte	.LVL263
 3194 0945 E4120000 		.4byte	0x12e4
 3195 0949 54090000 		.4byte	0x954
 3196 094d 13       		.uleb128 0x13
 3197 094e 01       		.uleb128 0x1
 3198 094f 50       		.byte	0x50
 3199 0950 02       		.uleb128 0x2
 3200 0951 75       		.byte	0x75
 3201 0952 00       		.sleb128 0
 3202 0953 00       		.byte	0
 3203 0954 1A       		.uleb128 0x1a
 3204 0955 38040000 		.4byte	.LVL266
 3205 0959 F5120000 		.4byte	0x12f5
 3206 095d 68090000 		.4byte	0x968
 3207 0961 13       		.uleb128 0x13
 3208 0962 01       		.uleb128 0x1
 3209 0963 50       		.byte	0x50
 3210 0964 02       		.uleb128 0x2
 3211 0965 75       		.byte	0x75
 3212 0966 00       		.sleb128 0
 3213 0967 00       		.byte	0
 3214 0968 1A       		.uleb128 0x1a
 3215 0969 42040000 		.4byte	.LVL269
ARM GAS  C:\Users\Alex\AppData\Local\Temp\ccjqAdcx.s 			page 76


 3216 096d 06130000 		.4byte	0x1306
 3217 0971 7C090000 		.4byte	0x97c
 3218 0975 13       		.uleb128 0x13
 3219 0976 01       		.uleb128 0x1
 3220 0977 50       		.byte	0x50
 3221 0978 02       		.uleb128 0x2
 3222 0979 75       		.byte	0x75
 3223 097a 00       		.sleb128 0
 3224 097b 00       		.byte	0
 3225 097c 1A       		.uleb128 0x1a
 3226 097d 4C040000 		.4byte	.LVL272
 3227 0981 17130000 		.4byte	0x1317
 3228 0985 90090000 		.4byte	0x990
 3229 0989 13       		.uleb128 0x13
 3230 098a 01       		.uleb128 0x1
 3231 098b 50       		.byte	0x50
 3232 098c 02       		.uleb128 0x2
 3233 098d 75       		.byte	0x75
 3234 098e 00       		.sleb128 0
 3235 098f 00       		.byte	0
 3236 0990 1A       		.uleb128 0x1a
 3237 0991 56040000 		.4byte	.LVL275
 3238 0995 28130000 		.4byte	0x1328
 3239 0999 A4090000 		.4byte	0x9a4
 3240 099d 13       		.uleb128 0x13
 3241 099e 01       		.uleb128 0x1
 3242 099f 50       		.byte	0x50
 3243 09a0 02       		.uleb128 0x2
 3244 09a1 75       		.byte	0x75
 3245 09a2 00       		.sleb128 0
 3246 09a3 00       		.byte	0
 3247 09a4 1A       		.uleb128 0x1a
 3248 09a5 60040000 		.4byte	.LVL278
 3249 09a9 39130000 		.4byte	0x1339
 3250 09ad B8090000 		.4byte	0x9b8
 3251 09b1 13       		.uleb128 0x13
 3252 09b2 01       		.uleb128 0x1
 3253 09b3 50       		.byte	0x50
 3254 09b4 02       		.uleb128 0x2
 3255 09b5 75       		.byte	0x75
 3256 09b6 00       		.sleb128 0
 3257 09b7 00       		.byte	0
 3258 09b8 1A       		.uleb128 0x1a
 3259 09b9 6A040000 		.4byte	.LVL281
 3260 09bd 4A130000 		.4byte	0x134a
 3261 09c1 CC090000 		.4byte	0x9cc
 3262 09c5 13       		.uleb128 0x13
 3263 09c6 01       		.uleb128 0x1
 3264 09c7 50       		.byte	0x50
 3265 09c8 02       		.uleb128 0x2
 3266 09c9 75       		.byte	0x75
 3267 09ca 00       		.sleb128 0
 3268 09cb 00       		.byte	0
 3269 09cc 1A       		.uleb128 0x1a
 3270 09cd 74040000 		.4byte	.LVL284
 3271 09d1 5B130000 		.4byte	0x135b
 3272 09d5 E0090000 		.4byte	0x9e0
ARM GAS  C:\Users\Alex\AppData\Local\Temp\ccjqAdcx.s 			page 77


 3273 09d9 13       		.uleb128 0x13
 3274 09da 01       		.uleb128 0x1
 3275 09db 50       		.byte	0x50
 3276 09dc 02       		.uleb128 0x2
 3277 09dd 75       		.byte	0x75
 3278 09de 00       		.sleb128 0
 3279 09df 00       		.byte	0
 3280 09e0 1A       		.uleb128 0x1a
 3281 09e1 7E040000 		.4byte	.LVL287
 3282 09e5 6C130000 		.4byte	0x136c
 3283 09e9 F4090000 		.4byte	0x9f4
 3284 09ed 13       		.uleb128 0x13
 3285 09ee 01       		.uleb128 0x1
 3286 09ef 50       		.byte	0x50
 3287 09f0 02       		.uleb128 0x2
 3288 09f1 75       		.byte	0x75
 3289 09f2 00       		.sleb128 0
 3290 09f3 00       		.byte	0
 3291 09f4 1A       		.uleb128 0x1a
 3292 09f5 88040000 		.4byte	.LVL290
 3293 09f9 7D130000 		.4byte	0x137d
 3294 09fd 080A0000 		.4byte	0xa08
 3295 0a01 13       		.uleb128 0x13
 3296 0a02 01       		.uleb128 0x1
 3297 0a03 50       		.byte	0x50
 3298 0a04 02       		.uleb128 0x2
 3299 0a05 75       		.byte	0x75
 3300 0a06 00       		.sleb128 0
 3301 0a07 00       		.byte	0
 3302 0a08 1A       		.uleb128 0x1a
 3303 0a09 92040000 		.4byte	.LVL293
 3304 0a0d 8E130000 		.4byte	0x138e
 3305 0a11 1C0A0000 		.4byte	0xa1c
 3306 0a15 13       		.uleb128 0x13
 3307 0a16 01       		.uleb128 0x1
 3308 0a17 50       		.byte	0x50
 3309 0a18 02       		.uleb128 0x2
 3310 0a19 75       		.byte	0x75
 3311 0a1a 00       		.sleb128 0
 3312 0a1b 00       		.byte	0
 3313 0a1c 1A       		.uleb128 0x1a
 3314 0a1d 9C040000 		.4byte	.LVL296
 3315 0a21 9F130000 		.4byte	0x139f
 3316 0a25 300A0000 		.4byte	0xa30
 3317 0a29 13       		.uleb128 0x13
 3318 0a2a 01       		.uleb128 0x1
 3319 0a2b 50       		.byte	0x50
 3320 0a2c 02       		.uleb128 0x2
 3321 0a2d 75       		.byte	0x75
 3322 0a2e 00       		.sleb128 0
 3323 0a2f 00       		.byte	0
 3324 0a30 1A       		.uleb128 0x1a
 3325 0a31 A6040000 		.4byte	.LVL299
 3326 0a35 B0130000 		.4byte	0x13b0
 3327 0a39 440A0000 		.4byte	0xa44
 3328 0a3d 13       		.uleb128 0x13
 3329 0a3e 01       		.uleb128 0x1
ARM GAS  C:\Users\Alex\AppData\Local\Temp\ccjqAdcx.s 			page 78


 3330 0a3f 50       		.byte	0x50
 3331 0a40 02       		.uleb128 0x2
 3332 0a41 75       		.byte	0x75
 3333 0a42 00       		.sleb128 0
 3334 0a43 00       		.byte	0
 3335 0a44 1A       		.uleb128 0x1a
 3336 0a45 B0040000 		.4byte	.LVL302
 3337 0a49 C1130000 		.4byte	0x13c1
 3338 0a4d 580A0000 		.4byte	0xa58
 3339 0a51 13       		.uleb128 0x13
 3340 0a52 01       		.uleb128 0x1
 3341 0a53 50       		.byte	0x50
 3342 0a54 02       		.uleb128 0x2
 3343 0a55 75       		.byte	0x75
 3344 0a56 00       		.sleb128 0
 3345 0a57 00       		.byte	0
 3346 0a58 1A       		.uleb128 0x1a
 3347 0a59 BA040000 		.4byte	.LVL305
 3348 0a5d D2130000 		.4byte	0x13d2
 3349 0a61 6C0A0000 		.4byte	0xa6c
 3350 0a65 13       		.uleb128 0x13
 3351 0a66 01       		.uleb128 0x1
 3352 0a67 50       		.byte	0x50
 3353 0a68 02       		.uleb128 0x2
 3354 0a69 75       		.byte	0x75
 3355 0a6a 00       		.sleb128 0
 3356 0a6b 00       		.byte	0
 3357 0a6c 1A       		.uleb128 0x1a
 3358 0a6d C4040000 		.4byte	.LVL308
 3359 0a71 E3130000 		.4byte	0x13e3
 3360 0a75 800A0000 		.4byte	0xa80
 3361 0a79 13       		.uleb128 0x13
 3362 0a7a 01       		.uleb128 0x1
 3363 0a7b 50       		.byte	0x50
 3364 0a7c 02       		.uleb128 0x2
 3365 0a7d 75       		.byte	0x75
 3366 0a7e 00       		.sleb128 0
 3367 0a7f 00       		.byte	0
 3368 0a80 1A       		.uleb128 0x1a
 3369 0a81 CE040000 		.4byte	.LVL311
 3370 0a85 F4130000 		.4byte	0x13f4
 3371 0a89 940A0000 		.4byte	0xa94
 3372 0a8d 13       		.uleb128 0x13
 3373 0a8e 01       		.uleb128 0x1
 3374 0a8f 50       		.byte	0x50
 3375 0a90 02       		.uleb128 0x2
 3376 0a91 75       		.byte	0x75
 3377 0a92 00       		.sleb128 0
 3378 0a93 00       		.byte	0
 3379 0a94 1A       		.uleb128 0x1a
 3380 0a95 D8040000 		.4byte	.LVL314
 3381 0a99 05140000 		.4byte	0x1405
 3382 0a9d A80A0000 		.4byte	0xaa8
 3383 0aa1 13       		.uleb128 0x13
 3384 0aa2 01       		.uleb128 0x1
 3385 0aa3 50       		.byte	0x50
 3386 0aa4 02       		.uleb128 0x2
ARM GAS  C:\Users\Alex\AppData\Local\Temp\ccjqAdcx.s 			page 79


 3387 0aa5 75       		.byte	0x75
 3388 0aa6 00       		.sleb128 0
 3389 0aa7 00       		.byte	0
 3390 0aa8 1A       		.uleb128 0x1a
 3391 0aa9 E2040000 		.4byte	.LVL317
 3392 0aad 16140000 		.4byte	0x1416
 3393 0ab1 BC0A0000 		.4byte	0xabc
 3394 0ab5 13       		.uleb128 0x13
 3395 0ab6 01       		.uleb128 0x1
 3396 0ab7 50       		.byte	0x50
 3397 0ab8 02       		.uleb128 0x2
 3398 0ab9 75       		.byte	0x75
 3399 0aba 00       		.sleb128 0
 3400 0abb 00       		.byte	0
 3401 0abc 1A       		.uleb128 0x1a
 3402 0abd EC040000 		.4byte	.LVL320
 3403 0ac1 27140000 		.4byte	0x1427
 3404 0ac5 D00A0000 		.4byte	0xad0
 3405 0ac9 13       		.uleb128 0x13
 3406 0aca 01       		.uleb128 0x1
 3407 0acb 50       		.byte	0x50
 3408 0acc 02       		.uleb128 0x2
 3409 0acd 75       		.byte	0x75
 3410 0ace 00       		.sleb128 0
 3411 0acf 00       		.byte	0
 3412 0ad0 1A       		.uleb128 0x1a
 3413 0ad1 F6040000 		.4byte	.LVL323
 3414 0ad5 38140000 		.4byte	0x1438
 3415 0ad9 E40A0000 		.4byte	0xae4
 3416 0add 13       		.uleb128 0x13
 3417 0ade 01       		.uleb128 0x1
 3418 0adf 50       		.byte	0x50
 3419 0ae0 02       		.uleb128 0x2
 3420 0ae1 75       		.byte	0x75
 3421 0ae2 00       		.sleb128 0
 3422 0ae3 00       		.byte	0
 3423 0ae4 1A       		.uleb128 0x1a
 3424 0ae5 00050000 		.4byte	.LVL326
 3425 0ae9 49140000 		.4byte	0x1449
 3426 0aed F80A0000 		.4byte	0xaf8
 3427 0af1 13       		.uleb128 0x13
 3428 0af2 01       		.uleb128 0x1
 3429 0af3 50       		.byte	0x50
 3430 0af4 02       		.uleb128 0x2
 3431 0af5 75       		.byte	0x75
 3432 0af6 00       		.sleb128 0
 3433 0af7 00       		.byte	0
 3434 0af8 1A       		.uleb128 0x1a
 3435 0af9 0A050000 		.4byte	.LVL329
 3436 0afd 5A140000 		.4byte	0x145a
 3437 0b01 0C0B0000 		.4byte	0xb0c
 3438 0b05 13       		.uleb128 0x13
 3439 0b06 01       		.uleb128 0x1
 3440 0b07 50       		.byte	0x50
 3441 0b08 02       		.uleb128 0x2
 3442 0b09 75       		.byte	0x75
 3443 0b0a 00       		.sleb128 0
ARM GAS  C:\Users\Alex\AppData\Local\Temp\ccjqAdcx.s 			page 80


 3444 0b0b 00       		.byte	0
 3445 0b0c 1A       		.uleb128 0x1a
 3446 0b0d 14050000 		.4byte	.LVL332
 3447 0b11 6B140000 		.4byte	0x146b
 3448 0b15 200B0000 		.4byte	0xb20
 3449 0b19 13       		.uleb128 0x13
 3450 0b1a 01       		.uleb128 0x1
 3451 0b1b 50       		.byte	0x50
 3452 0b1c 02       		.uleb128 0x2
 3453 0b1d 75       		.byte	0x75
 3454 0b1e 00       		.sleb128 0
 3455 0b1f 00       		.byte	0
 3456 0b20 1A       		.uleb128 0x1a
 3457 0b21 1E050000 		.4byte	.LVL335
 3458 0b25 7C140000 		.4byte	0x147c
 3459 0b29 340B0000 		.4byte	0xb34
 3460 0b2d 13       		.uleb128 0x13
 3461 0b2e 01       		.uleb128 0x1
 3462 0b2f 50       		.byte	0x50
 3463 0b30 02       		.uleb128 0x2
 3464 0b31 75       		.byte	0x75
 3465 0b32 00       		.sleb128 0
 3466 0b33 00       		.byte	0
 3467 0b34 1A       		.uleb128 0x1a
 3468 0b35 28050000 		.4byte	.LVL338
 3469 0b39 8D140000 		.4byte	0x148d
 3470 0b3d 480B0000 		.4byte	0xb48
 3471 0b41 13       		.uleb128 0x13
 3472 0b42 01       		.uleb128 0x1
 3473 0b43 50       		.byte	0x50
 3474 0b44 02       		.uleb128 0x2
 3475 0b45 75       		.byte	0x75
 3476 0b46 00       		.sleb128 0
 3477 0b47 00       		.byte	0
 3478 0b48 1A       		.uleb128 0x1a
 3479 0b49 32050000 		.4byte	.LVL341
 3480 0b4d 9E140000 		.4byte	0x149e
 3481 0b51 5C0B0000 		.4byte	0xb5c
 3482 0b55 13       		.uleb128 0x13
 3483 0b56 01       		.uleb128 0x1
 3484 0b57 50       		.byte	0x50
 3485 0b58 02       		.uleb128 0x2
 3486 0b59 75       		.byte	0x75
 3487 0b5a 00       		.sleb128 0
 3488 0b5b 00       		.byte	0
 3489 0b5c 1A       		.uleb128 0x1a
 3490 0b5d 3C050000 		.4byte	.LVL344
 3491 0b61 AF140000 		.4byte	0x14af
 3492 0b65 700B0000 		.4byte	0xb70
 3493 0b69 13       		.uleb128 0x13
 3494 0b6a 01       		.uleb128 0x1
 3495 0b6b 50       		.byte	0x50
 3496 0b6c 02       		.uleb128 0x2
 3497 0b6d 75       		.byte	0x75
 3498 0b6e 00       		.sleb128 0
 3499 0b6f 00       		.byte	0
 3500 0b70 1A       		.uleb128 0x1a
ARM GAS  C:\Users\Alex\AppData\Local\Temp\ccjqAdcx.s 			page 81


 3501 0b71 46050000 		.4byte	.LVL347
 3502 0b75 C0140000 		.4byte	0x14c0
 3503 0b79 840B0000 		.4byte	0xb84
 3504 0b7d 13       		.uleb128 0x13
 3505 0b7e 01       		.uleb128 0x1
 3506 0b7f 50       		.byte	0x50
 3507 0b80 02       		.uleb128 0x2
 3508 0b81 75       		.byte	0x75
 3509 0b82 00       		.sleb128 0
 3510 0b83 00       		.byte	0
 3511 0b84 1A       		.uleb128 0x1a
 3512 0b85 50050000 		.4byte	.LVL350
 3513 0b89 D1140000 		.4byte	0x14d1
 3514 0b8d 980B0000 		.4byte	0xb98
 3515 0b91 13       		.uleb128 0x13
 3516 0b92 01       		.uleb128 0x1
 3517 0b93 50       		.byte	0x50
 3518 0b94 02       		.uleb128 0x2
 3519 0b95 75       		.byte	0x75
 3520 0b96 00       		.sleb128 0
 3521 0b97 00       		.byte	0
 3522 0b98 1A       		.uleb128 0x1a
 3523 0b99 5A050000 		.4byte	.LVL353
 3524 0b9d E2140000 		.4byte	0x14e2
 3525 0ba1 AC0B0000 		.4byte	0xbac
 3526 0ba5 13       		.uleb128 0x13
 3527 0ba6 01       		.uleb128 0x1
 3528 0ba7 50       		.byte	0x50
 3529 0ba8 02       		.uleb128 0x2
 3530 0ba9 75       		.byte	0x75
 3531 0baa 00       		.sleb128 0
 3532 0bab 00       		.byte	0
 3533 0bac 1A       		.uleb128 0x1a
 3534 0bad 64050000 		.4byte	.LVL356
 3535 0bb1 F3140000 		.4byte	0x14f3
 3536 0bb5 C00B0000 		.4byte	0xbc0
 3537 0bb9 13       		.uleb128 0x13
 3538 0bba 01       		.uleb128 0x1
 3539 0bbb 50       		.byte	0x50
 3540 0bbc 02       		.uleb128 0x2
 3541 0bbd 75       		.byte	0x75
 3542 0bbe 00       		.sleb128 0
 3543 0bbf 00       		.byte	0
 3544 0bc0 1A       		.uleb128 0x1a
 3545 0bc1 6E050000 		.4byte	.LVL359
 3546 0bc5 04150000 		.4byte	0x1504
 3547 0bc9 D40B0000 		.4byte	0xbd4
 3548 0bcd 13       		.uleb128 0x13
 3549 0bce 01       		.uleb128 0x1
 3550 0bcf 50       		.byte	0x50
 3551 0bd0 02       		.uleb128 0x2
 3552 0bd1 75       		.byte	0x75
 3553 0bd2 00       		.sleb128 0
 3554 0bd3 00       		.byte	0
 3555 0bd4 1A       		.uleb128 0x1a
 3556 0bd5 78050000 		.4byte	.LVL362
 3557 0bd9 15150000 		.4byte	0x1515
ARM GAS  C:\Users\Alex\AppData\Local\Temp\ccjqAdcx.s 			page 82


 3558 0bdd E80B0000 		.4byte	0xbe8
 3559 0be1 13       		.uleb128 0x13
 3560 0be2 01       		.uleb128 0x1
 3561 0be3 50       		.byte	0x50
 3562 0be4 02       		.uleb128 0x2
 3563 0be5 75       		.byte	0x75
 3564 0be6 00       		.sleb128 0
 3565 0be7 00       		.byte	0
 3566 0be8 1A       		.uleb128 0x1a
 3567 0be9 82050000 		.4byte	.LVL365
 3568 0bed 26150000 		.4byte	0x1526
 3569 0bf1 FC0B0000 		.4byte	0xbfc
 3570 0bf5 13       		.uleb128 0x13
 3571 0bf6 01       		.uleb128 0x1
 3572 0bf7 50       		.byte	0x50
 3573 0bf8 02       		.uleb128 0x2
 3574 0bf9 75       		.byte	0x75
 3575 0bfa 00       		.sleb128 0
 3576 0bfb 00       		.byte	0
 3577 0bfc 1A       		.uleb128 0x1a
 3578 0bfd 8C050000 		.4byte	.LVL368
 3579 0c01 37150000 		.4byte	0x1537
 3580 0c05 100C0000 		.4byte	0xc10
 3581 0c09 13       		.uleb128 0x13
 3582 0c0a 01       		.uleb128 0x1
 3583 0c0b 50       		.byte	0x50
 3584 0c0c 02       		.uleb128 0x2
 3585 0c0d 75       		.byte	0x75
 3586 0c0e 00       		.sleb128 0
 3587 0c0f 00       		.byte	0
 3588 0c10 1A       		.uleb128 0x1a
 3589 0c11 96050000 		.4byte	.LVL371
 3590 0c15 48150000 		.4byte	0x1548
 3591 0c19 240C0000 		.4byte	0xc24
 3592 0c1d 13       		.uleb128 0x13
 3593 0c1e 01       		.uleb128 0x1
 3594 0c1f 50       		.byte	0x50
 3595 0c20 02       		.uleb128 0x2
 3596 0c21 75       		.byte	0x75
 3597 0c22 00       		.sleb128 0
 3598 0c23 00       		.byte	0
 3599 0c24 1A       		.uleb128 0x1a
 3600 0c25 A0050000 		.4byte	.LVL374
 3601 0c29 59150000 		.4byte	0x1559
 3602 0c2d 380C0000 		.4byte	0xc38
 3603 0c31 13       		.uleb128 0x13
 3604 0c32 01       		.uleb128 0x1
 3605 0c33 50       		.byte	0x50
 3606 0c34 02       		.uleb128 0x2
 3607 0c35 75       		.byte	0x75
 3608 0c36 00       		.sleb128 0
 3609 0c37 00       		.byte	0
 3610 0c38 1A       		.uleb128 0x1a
 3611 0c39 AA050000 		.4byte	.LVL377
 3612 0c3d 6A150000 		.4byte	0x156a
 3613 0c41 4C0C0000 		.4byte	0xc4c
 3614 0c45 13       		.uleb128 0x13
ARM GAS  C:\Users\Alex\AppData\Local\Temp\ccjqAdcx.s 			page 83


 3615 0c46 01       		.uleb128 0x1
 3616 0c47 50       		.byte	0x50
 3617 0c48 02       		.uleb128 0x2
 3618 0c49 75       		.byte	0x75
 3619 0c4a 00       		.sleb128 0
 3620 0c4b 00       		.byte	0
 3621 0c4c 1A       		.uleb128 0x1a
 3622 0c4d B4050000 		.4byte	.LVL380
 3623 0c51 7B150000 		.4byte	0x157b
 3624 0c55 600C0000 		.4byte	0xc60
 3625 0c59 13       		.uleb128 0x13
 3626 0c5a 01       		.uleb128 0x1
 3627 0c5b 50       		.byte	0x50
 3628 0c5c 02       		.uleb128 0x2
 3629 0c5d 75       		.byte	0x75
 3630 0c5e 00       		.sleb128 0
 3631 0c5f 00       		.byte	0
 3632 0c60 1A       		.uleb128 0x1a
 3633 0c61 BE050000 		.4byte	.LVL383
 3634 0c65 8C150000 		.4byte	0x158c
 3635 0c69 740C0000 		.4byte	0xc74
 3636 0c6d 13       		.uleb128 0x13
 3637 0c6e 01       		.uleb128 0x1
 3638 0c6f 50       		.byte	0x50
 3639 0c70 02       		.uleb128 0x2
 3640 0c71 75       		.byte	0x75
 3641 0c72 00       		.sleb128 0
 3642 0c73 00       		.byte	0
 3643 0c74 1A       		.uleb128 0x1a
 3644 0c75 C8050000 		.4byte	.LVL386
 3645 0c79 9D150000 		.4byte	0x159d
 3646 0c7d 880C0000 		.4byte	0xc88
 3647 0c81 13       		.uleb128 0x13
 3648 0c82 01       		.uleb128 0x1
 3649 0c83 50       		.byte	0x50
 3650 0c84 02       		.uleb128 0x2
 3651 0c85 75       		.byte	0x75
 3652 0c86 00       		.sleb128 0
 3653 0c87 00       		.byte	0
 3654 0c88 1A       		.uleb128 0x1a
 3655 0c89 D2050000 		.4byte	.LVL389
 3656 0c8d AE150000 		.4byte	0x15ae
 3657 0c91 9C0C0000 		.4byte	0xc9c
 3658 0c95 13       		.uleb128 0x13
 3659 0c96 01       		.uleb128 0x1
 3660 0c97 50       		.byte	0x50
 3661 0c98 02       		.uleb128 0x2
 3662 0c99 75       		.byte	0x75
 3663 0c9a 00       		.sleb128 0
 3664 0c9b 00       		.byte	0
 3665 0c9c 1A       		.uleb128 0x1a
 3666 0c9d DC050000 		.4byte	.LVL392
 3667 0ca1 BF150000 		.4byte	0x15bf
 3668 0ca5 B00C0000 		.4byte	0xcb0
 3669 0ca9 13       		.uleb128 0x13
 3670 0caa 01       		.uleb128 0x1
 3671 0cab 50       		.byte	0x50
ARM GAS  C:\Users\Alex\AppData\Local\Temp\ccjqAdcx.s 			page 84


 3672 0cac 02       		.uleb128 0x2
 3673 0cad 75       		.byte	0x75
 3674 0cae 00       		.sleb128 0
 3675 0caf 00       		.byte	0
 3676 0cb0 1A       		.uleb128 0x1a
 3677 0cb1 E6050000 		.4byte	.LVL395
 3678 0cb5 D0150000 		.4byte	0x15d0
 3679 0cb9 C40C0000 		.4byte	0xcc4
 3680 0cbd 13       		.uleb128 0x13
 3681 0cbe 01       		.uleb128 0x1
 3682 0cbf 50       		.byte	0x50
 3683 0cc0 02       		.uleb128 0x2
 3684 0cc1 75       		.byte	0x75
 3685 0cc2 00       		.sleb128 0
 3686 0cc3 00       		.byte	0
 3687 0cc4 1A       		.uleb128 0x1a
 3688 0cc5 F0050000 		.4byte	.LVL398
 3689 0cc9 E1150000 		.4byte	0x15e1
 3690 0ccd D80C0000 		.4byte	0xcd8
 3691 0cd1 13       		.uleb128 0x13
 3692 0cd2 01       		.uleb128 0x1
 3693 0cd3 50       		.byte	0x50
 3694 0cd4 02       		.uleb128 0x2
 3695 0cd5 75       		.byte	0x75
 3696 0cd6 00       		.sleb128 0
 3697 0cd7 00       		.byte	0
 3698 0cd8 1A       		.uleb128 0x1a
 3699 0cd9 FA050000 		.4byte	.LVL401
 3700 0cdd F2150000 		.4byte	0x15f2
 3701 0ce1 EC0C0000 		.4byte	0xcec
 3702 0ce5 13       		.uleb128 0x13
 3703 0ce6 01       		.uleb128 0x1
 3704 0ce7 50       		.byte	0x50
 3705 0ce8 02       		.uleb128 0x2
 3706 0ce9 75       		.byte	0x75
 3707 0cea 00       		.sleb128 0
 3708 0ceb 00       		.byte	0
 3709 0cec 1A       		.uleb128 0x1a
 3710 0ced 04060000 		.4byte	.LVL404
 3711 0cf1 03160000 		.4byte	0x1603
 3712 0cf5 000D0000 		.4byte	0xd00
 3713 0cf9 13       		.uleb128 0x13
 3714 0cfa 01       		.uleb128 0x1
 3715 0cfb 50       		.byte	0x50
 3716 0cfc 02       		.uleb128 0x2
 3717 0cfd 75       		.byte	0x75
 3718 0cfe 00       		.sleb128 0
 3719 0cff 00       		.byte	0
 3720 0d00 1A       		.uleb128 0x1a
 3721 0d01 0E060000 		.4byte	.LVL407
 3722 0d05 14160000 		.4byte	0x1614
 3723 0d09 140D0000 		.4byte	0xd14
 3724 0d0d 13       		.uleb128 0x13
 3725 0d0e 01       		.uleb128 0x1
 3726 0d0f 50       		.byte	0x50
 3727 0d10 02       		.uleb128 0x2
 3728 0d11 75       		.byte	0x75
ARM GAS  C:\Users\Alex\AppData\Local\Temp\ccjqAdcx.s 			page 85


 3729 0d12 00       		.sleb128 0
 3730 0d13 00       		.byte	0
 3731 0d14 12       		.uleb128 0x12
 3732 0d15 18060000 		.4byte	.LVL410
 3733 0d19 25160000 		.4byte	0x1625
 3734 0d1d 13       		.uleb128 0x13
 3735 0d1e 01       		.uleb128 0x1
 3736 0d1f 50       		.byte	0x50
 3737 0d20 02       		.uleb128 0x2
 3738 0d21 75       		.byte	0x75
 3739 0d22 00       		.sleb128 0
 3740 0d23 00       		.byte	0
 3741 0d24 00       		.byte	0
 3742 0d25 1B       		.uleb128 0x1b
 3743 0d26 88030000 		.4byte	.LASF38
 3744 0d2a 05       		.byte	0x5
 3745 0d2b 54       		.byte	0x54
 3746 0d2c 95000000 		.4byte	0x95
 3747 0d30 1B       		.uleb128 0x1b
 3748 0d31 E0010000 		.4byte	.LASF39
 3749 0d35 05       		.byte	0x5
 3750 0d36 55       		.byte	0x55
 3751 0d37 95000000 		.4byte	0x95
 3752 0d3b 09       		.uleb128 0x9
 3753 0d3c 95000000 		.4byte	0x95
 3754 0d40 4A0D0000 		.4byte	0xd4a
 3755 0d44 1C       		.uleb128 0x1c
 3756 0d45 81000000 		.4byte	0x81
 3757 0d49 00       		.byte	0
 3758 0d4a 1B       		.uleb128 0x1b
 3759 0d4b 0F0C0000 		.4byte	.LASF40
 3760 0d4f 05       		.byte	0x5
 3761 0d50 56       		.byte	0x56
 3762 0d51 3B0D0000 		.4byte	0xd3b
 3763 0d55 09       		.uleb128 0x9
 3764 0d56 95000000 		.4byte	0x95
 3765 0d5a 640D0000 		.4byte	0xd64
 3766 0d5e 1C       		.uleb128 0x1c
 3767 0d5f 81000000 		.4byte	0x81
 3768 0d63 00       		.byte	0
 3769 0d64 1B       		.uleb128 0x1b
 3770 0d65 07070000 		.4byte	.LASF41
 3771 0d69 05       		.byte	0x5
 3772 0d6a 57       		.byte	0x57
 3773 0d6b 550D0000 		.4byte	0xd55
 3774 0d6f 1B       		.uleb128 0x1b
 3775 0d70 DB070000 		.4byte	.LASF42
 3776 0d74 04       		.byte	0x4
 3777 0d75 31       		.byte	0x31
 3778 0d76 04010000 		.4byte	0x104
 3779 0d7a 09       		.uleb128 0x9
 3780 0d7b 95000000 		.4byte	0x95
 3781 0d7f 8A0D0000 		.4byte	0xd8a
 3782 0d83 0A       		.uleb128 0xa
 3783 0d84 81000000 		.4byte	0x81
 3784 0d88 23       		.byte	0x23
 3785 0d89 00       		.byte	0
ARM GAS  C:\Users\Alex\AppData\Local\Temp\ccjqAdcx.s 			page 86


 3786 0d8a 1D       		.uleb128 0x1d
 3787 0d8b A8030000 		.4byte	.LASF43
 3788 0d8f 01       		.byte	0x1
 3789 0d90 1C       		.byte	0x1c
 3790 0d91 7A0D0000 		.4byte	0xd7a
 3791 0d95 05       		.uleb128 0x5
 3792 0d96 03       		.byte	0x3
 3793 0d97 00000000 		.4byte	payload_str
 3794 0d9b 1E       		.uleb128 0x1e
 3795 0d9c D6060000 		.4byte	.LASF44
 3796 0da0 06       		.byte	0x6
 3797 0da1 1B       		.byte	0x1b
 3798 0da2 B60D0000 		.4byte	0xdb6
 3799 0da6 1F       		.uleb128 0x1f
 3800 0da7 9D010000 		.4byte	0x19d
 3801 0dab 1F       		.uleb128 0x1f
 3802 0dac A0000000 		.4byte	0xa0
 3803 0db0 1F       		.uleb128 0x1f
 3804 0db1 95000000 		.4byte	0x95
 3805 0db5 00       		.byte	0
 3806 0db6 1E       		.uleb128 0x1e
 3807 0db7 37050000 		.4byte	.LASF45
 3808 0dbb 07       		.byte	0x7
 3809 0dbc 28       		.byte	0x28
 3810 0dbd C70D0000 		.4byte	0xdc7
 3811 0dc1 1F       		.uleb128 0x1f
 3812 0dc2 9D010000 		.4byte	0x19d
 3813 0dc6 00       		.byte	0
 3814 0dc7 1E       		.uleb128 0x1e
 3815 0dc8 CB080000 		.4byte	.LASF46
 3816 0dcc 06       		.byte	0x6
 3817 0dcd 1E       		.byte	0x1e
 3818 0dce D80D0000 		.4byte	0xdd8
 3819 0dd2 1F       		.uleb128 0x1f
 3820 0dd3 9D010000 		.4byte	0x19d
 3821 0dd7 00       		.byte	0
 3822 0dd8 1E       		.uleb128 0x1e
 3823 0dd9 49050000 		.4byte	.LASF47
 3824 0ddd 07       		.byte	0x7
 3825 0dde 2A       		.byte	0x2a
 3826 0ddf E90D0000 		.4byte	0xde9
 3827 0de3 1F       		.uleb128 0x1f
 3828 0de4 9D010000 		.4byte	0x19d
 3829 0de8 00       		.byte	0
 3830 0de9 1E       		.uleb128 0x1e
 3831 0dea 5B050000 		.4byte	.LASF48
 3832 0dee 07       		.byte	0x7
 3833 0def 2B       		.byte	0x2b
 3834 0df0 FA0D0000 		.4byte	0xdfa
 3835 0df4 1F       		.uleb128 0x1f
 3836 0df5 9D010000 		.4byte	0x19d
 3837 0df9 00       		.byte	0
 3838 0dfa 1E       		.uleb128 0x1e
 3839 0dfb 6D050000 		.4byte	.LASF49
 3840 0dff 07       		.byte	0x7
 3841 0e00 2C       		.byte	0x2c
 3842 0e01 0B0E0000 		.4byte	0xe0b
ARM GAS  C:\Users\Alex\AppData\Local\Temp\ccjqAdcx.s 			page 87


 3843 0e05 1F       		.uleb128 0x1f
 3844 0e06 9D010000 		.4byte	0x19d
 3845 0e0a 00       		.byte	0
 3846 0e0b 1E       		.uleb128 0x1e
 3847 0e0c 7F050000 		.4byte	.LASF50
 3848 0e10 07       		.byte	0x7
 3849 0e11 2D       		.byte	0x2d
 3850 0e12 1C0E0000 		.4byte	0xe1c
 3851 0e16 1F       		.uleb128 0x1f
 3852 0e17 9D010000 		.4byte	0x19d
 3853 0e1b 00       		.byte	0
 3854 0e1c 1E       		.uleb128 0x1e
 3855 0e1d AF020000 		.4byte	.LASF51
 3856 0e21 07       		.byte	0x7
 3857 0e22 2E       		.byte	0x2e
 3858 0e23 2D0E0000 		.4byte	0xe2d
 3859 0e27 1F       		.uleb128 0x1f
 3860 0e28 9D010000 		.4byte	0x19d
 3861 0e2c 00       		.byte	0
 3862 0e2d 1E       		.uleb128 0x1e
 3863 0e2e BF050000 		.4byte	.LASF52
 3864 0e32 07       		.byte	0x7
 3865 0e33 2F       		.byte	0x2f
 3866 0e34 3E0E0000 		.4byte	0xe3e
 3867 0e38 1F       		.uleb128 0x1f
 3868 0e39 9D010000 		.4byte	0x19d
 3869 0e3d 00       		.byte	0
 3870 0e3e 1E       		.uleb128 0x1e
 3871 0e3f D1050000 		.4byte	.LASF53
 3872 0e43 07       		.byte	0x7
 3873 0e44 30       		.byte	0x30
 3874 0e45 4F0E0000 		.4byte	0xe4f
 3875 0e49 1F       		.uleb128 0x1f
 3876 0e4a 9D010000 		.4byte	0x19d
 3877 0e4e 00       		.byte	0
 3878 0e4f 1E       		.uleb128 0x1e
 3879 0e50 E3050000 		.4byte	.LASF54
 3880 0e54 07       		.byte	0x7
 3881 0e55 31       		.byte	0x31
 3882 0e56 600E0000 		.4byte	0xe60
 3883 0e5a 1F       		.uleb128 0x1f
 3884 0e5b 9D010000 		.4byte	0x19d
 3885 0e5f 00       		.byte	0
 3886 0e60 1E       		.uleb128 0x1e
 3887 0e61 00000000 		.4byte	.LASF55
 3888 0e65 07       		.byte	0x7
 3889 0e66 34       		.byte	0x34
 3890 0e67 710E0000 		.4byte	0xe71
 3891 0e6b 1F       		.uleb128 0x1f
 3892 0e6c 9D010000 		.4byte	0x19d
 3893 0e70 00       		.byte	0
 3894 0e71 1E       		.uleb128 0x1e
 3895 0e72 13000000 		.4byte	.LASF56
 3896 0e76 07       		.byte	0x7
 3897 0e77 35       		.byte	0x35
 3898 0e78 820E0000 		.4byte	0xe82
 3899 0e7c 1F       		.uleb128 0x1f
ARM GAS  C:\Users\Alex\AppData\Local\Temp\ccjqAdcx.s 			page 88


 3900 0e7d 9D010000 		.4byte	0x19d
 3901 0e81 00       		.byte	0
 3902 0e82 1E       		.uleb128 0x1e
 3903 0e83 26000000 		.4byte	.LASF57
 3904 0e87 07       		.byte	0x7
 3905 0e88 36       		.byte	0x36
 3906 0e89 930E0000 		.4byte	0xe93
 3907 0e8d 1F       		.uleb128 0x1f
 3908 0e8e 9D010000 		.4byte	0x19d
 3909 0e92 00       		.byte	0
 3910 0e93 1E       		.uleb128 0x1e
 3911 0e94 39000000 		.4byte	.LASF58
 3912 0e98 07       		.byte	0x7
 3913 0e99 37       		.byte	0x37
 3914 0e9a A40E0000 		.4byte	0xea4
 3915 0e9e 1F       		.uleb128 0x1f
 3916 0e9f 9D010000 		.4byte	0x19d
 3917 0ea3 00       		.byte	0
 3918 0ea4 1E       		.uleb128 0x1e
 3919 0ea5 4C000000 		.4byte	.LASF59
 3920 0ea9 07       		.byte	0x7
 3921 0eaa 38       		.byte	0x38
 3922 0eab B50E0000 		.4byte	0xeb5
 3923 0eaf 1F       		.uleb128 0x1f
 3924 0eb0 9D010000 		.4byte	0x19d
 3925 0eb4 00       		.byte	0
 3926 0eb5 1E       		.uleb128 0x1e
 3927 0eb6 5F000000 		.4byte	.LASF60
 3928 0eba 07       		.byte	0x7
 3929 0ebb 39       		.byte	0x39
 3930 0ebc C60E0000 		.4byte	0xec6
 3931 0ec0 1F       		.uleb128 0x1f
 3932 0ec1 9D010000 		.4byte	0x19d
 3933 0ec5 00       		.byte	0
 3934 0ec6 1E       		.uleb128 0x1e
 3935 0ec7 72000000 		.4byte	.LASF61
 3936 0ecb 07       		.byte	0x7
 3937 0ecc 3A       		.byte	0x3a
 3938 0ecd D70E0000 		.4byte	0xed7
 3939 0ed1 1F       		.uleb128 0x1f
 3940 0ed2 9D010000 		.4byte	0x19d
 3941 0ed6 00       		.byte	0
 3942 0ed7 1E       		.uleb128 0x1e
 3943 0ed8 85000000 		.4byte	.LASF62
 3944 0edc 07       		.byte	0x7
 3945 0edd 3B       		.byte	0x3b
 3946 0ede E80E0000 		.4byte	0xee8
 3947 0ee2 1F       		.uleb128 0x1f
 3948 0ee3 9D010000 		.4byte	0x19d
 3949 0ee7 00       		.byte	0
 3950 0ee8 1E       		.uleb128 0x1e
 3951 0ee9 98000000 		.4byte	.LASF63
 3952 0eed 07       		.byte	0x7
 3953 0eee 3C       		.byte	0x3c
 3954 0eef F90E0000 		.4byte	0xef9
 3955 0ef3 1F       		.uleb128 0x1f
 3956 0ef4 9D010000 		.4byte	0x19d
ARM GAS  C:\Users\Alex\AppData\Local\Temp\ccjqAdcx.s 			page 89


 3957 0ef8 00       		.byte	0
 3958 0ef9 1E       		.uleb128 0x1e
 3959 0efa AB000000 		.4byte	.LASF64
 3960 0efe 07       		.byte	0x7
 3961 0eff 3D       		.byte	0x3d
 3962 0f00 0A0F0000 		.4byte	0xf0a
 3963 0f04 1F       		.uleb128 0x1f
 3964 0f05 9D010000 		.4byte	0x19d
 3965 0f09 00       		.byte	0
 3966 0f0a 1E       		.uleb128 0x1e
 3967 0f0b D7000000 		.4byte	.LASF65
 3968 0f0f 07       		.byte	0x7
 3969 0f10 40       		.byte	0x40
 3970 0f11 1B0F0000 		.4byte	0xf1b
 3971 0f15 1F       		.uleb128 0x1f
 3972 0f16 9D010000 		.4byte	0x19d
 3973 0f1a 00       		.byte	0
 3974 0f1b 1E       		.uleb128 0x1e
 3975 0f1c EA000000 		.4byte	.LASF66
 3976 0f20 07       		.byte	0x7
 3977 0f21 41       		.byte	0x41
 3978 0f22 2C0F0000 		.4byte	0xf2c
 3979 0f26 1F       		.uleb128 0x1f
 3980 0f27 9D010000 		.4byte	0x19d
 3981 0f2b 00       		.byte	0
 3982 0f2c 1E       		.uleb128 0x1e
 3983 0f2d FD000000 		.4byte	.LASF67
 3984 0f31 07       		.byte	0x7
 3985 0f32 42       		.byte	0x42
 3986 0f33 3D0F0000 		.4byte	0xf3d
 3987 0f37 1F       		.uleb128 0x1f
 3988 0f38 9D010000 		.4byte	0x19d
 3989 0f3c 00       		.byte	0
 3990 0f3d 1E       		.uleb128 0x1e
 3991 0f3e 10010000 		.4byte	.LASF68
 3992 0f42 07       		.byte	0x7
 3993 0f43 43       		.byte	0x43
 3994 0f44 4E0F0000 		.4byte	0xf4e
 3995 0f48 1F       		.uleb128 0x1f
 3996 0f49 9D010000 		.4byte	0x19d
 3997 0f4d 00       		.byte	0
 3998 0f4e 1E       		.uleb128 0x1e
 3999 0f4f 23010000 		.4byte	.LASF69
 4000 0f53 07       		.byte	0x7
 4001 0f54 44       		.byte	0x44
 4002 0f55 5F0F0000 		.4byte	0xf5f
 4003 0f59 1F       		.uleb128 0x1f
 4004 0f5a 9D010000 		.4byte	0x19d
 4005 0f5e 00       		.byte	0
 4006 0f5f 1E       		.uleb128 0x1e
 4007 0f60 36010000 		.4byte	.LASF70
 4008 0f64 07       		.byte	0x7
 4009 0f65 45       		.byte	0x45
 4010 0f66 700F0000 		.4byte	0xf70
 4011 0f6a 1F       		.uleb128 0x1f
 4012 0f6b 9D010000 		.4byte	0x19d
 4013 0f6f 00       		.byte	0
ARM GAS  C:\Users\Alex\AppData\Local\Temp\ccjqAdcx.s 			page 90


 4014 0f70 1E       		.uleb128 0x1e
 4015 0f71 49010000 		.4byte	.LASF71
 4016 0f75 07       		.byte	0x7
 4017 0f76 46       		.byte	0x46
 4018 0f77 810F0000 		.4byte	0xf81
 4019 0f7b 1F       		.uleb128 0x1f
 4020 0f7c 9D010000 		.4byte	0x19d
 4021 0f80 00       		.byte	0
 4022 0f81 1E       		.uleb128 0x1e
 4023 0f82 5C010000 		.4byte	.LASF72
 4024 0f86 07       		.byte	0x7
 4025 0f87 47       		.byte	0x47
 4026 0f88 920F0000 		.4byte	0xf92
 4027 0f8c 1F       		.uleb128 0x1f
 4028 0f8d 9D010000 		.4byte	0x19d
 4029 0f91 00       		.byte	0
 4030 0f92 1E       		.uleb128 0x1e
 4031 0f93 6F010000 		.4byte	.LASF73
 4032 0f97 07       		.byte	0x7
 4033 0f98 48       		.byte	0x48
 4034 0f99 A30F0000 		.4byte	0xfa3
 4035 0f9d 1F       		.uleb128 0x1f
 4036 0f9e 9D010000 		.4byte	0x19d
 4037 0fa2 00       		.byte	0
 4038 0fa3 1E       		.uleb128 0x1e
 4039 0fa4 82010000 		.4byte	.LASF74
 4040 0fa8 07       		.byte	0x7
 4041 0fa9 49       		.byte	0x49
 4042 0faa B40F0000 		.4byte	0xfb4
 4043 0fae 1F       		.uleb128 0x1f
 4044 0faf 9D010000 		.4byte	0x19d
 4045 0fb3 00       		.byte	0
 4046 0fb4 1E       		.uleb128 0x1e
 4047 0fb5 EC010000 		.4byte	.LASF75
 4048 0fb9 07       		.byte	0x7
 4049 0fba 4C       		.byte	0x4c
 4050 0fbb C50F0000 		.4byte	0xfc5
 4051 0fbf 1F       		.uleb128 0x1f
 4052 0fc0 9D010000 		.4byte	0x19d
 4053 0fc4 00       		.byte	0
 4054 0fc5 1E       		.uleb128 0x1e
 4055 0fc6 FF010000 		.4byte	.LASF76
 4056 0fca 07       		.byte	0x7
 4057 0fcb 4D       		.byte	0x4d
 4058 0fcc D60F0000 		.4byte	0xfd6
 4059 0fd0 1F       		.uleb128 0x1f
 4060 0fd1 9D010000 		.4byte	0x19d
 4061 0fd5 00       		.byte	0
 4062 0fd6 1E       		.uleb128 0x1e
 4063 0fd7 12020000 		.4byte	.LASF77
 4064 0fdb 07       		.byte	0x7
 4065 0fdc 4E       		.byte	0x4e
 4066 0fdd E70F0000 		.4byte	0xfe7
 4067 0fe1 1F       		.uleb128 0x1f
 4068 0fe2 9D010000 		.4byte	0x19d
 4069 0fe6 00       		.byte	0
 4070 0fe7 1E       		.uleb128 0x1e
ARM GAS  C:\Users\Alex\AppData\Local\Temp\ccjqAdcx.s 			page 91


 4071 0fe8 25020000 		.4byte	.LASF78
 4072 0fec 07       		.byte	0x7
 4073 0fed 4F       		.byte	0x4f
 4074 0fee F80F0000 		.4byte	0xff8
 4075 0ff2 1F       		.uleb128 0x1f
 4076 0ff3 9D010000 		.4byte	0x19d
 4077 0ff7 00       		.byte	0
 4078 0ff8 1E       		.uleb128 0x1e
 4079 0ff9 38020000 		.4byte	.LASF79
 4080 0ffd 07       		.byte	0x7
 4081 0ffe 50       		.byte	0x50
 4082 0fff 09100000 		.4byte	0x1009
 4083 1003 1F       		.uleb128 0x1f
 4084 1004 9D010000 		.4byte	0x19d
 4085 1008 00       		.byte	0
 4086 1009 1E       		.uleb128 0x1e
 4087 100a 4B020000 		.4byte	.LASF80
 4088 100e 07       		.byte	0x7
 4089 100f 51       		.byte	0x51
 4090 1010 1A100000 		.4byte	0x101a
 4091 1014 1F       		.uleb128 0x1f
 4092 1015 9D010000 		.4byte	0x19d
 4093 1019 00       		.byte	0
 4094 101a 1E       		.uleb128 0x1e
 4095 101b 5E020000 		.4byte	.LASF81
 4096 101f 07       		.byte	0x7
 4097 1020 52       		.byte	0x52
 4098 1021 2B100000 		.4byte	0x102b
 4099 1025 1F       		.uleb128 0x1f
 4100 1026 9D010000 		.4byte	0x19d
 4101 102a 00       		.byte	0
 4102 102b 1E       		.uleb128 0x1e
 4103 102c 71020000 		.4byte	.LASF82
 4104 1030 07       		.byte	0x7
 4105 1031 53       		.byte	0x53
 4106 1032 3C100000 		.4byte	0x103c
 4107 1036 1F       		.uleb128 0x1f
 4108 1037 9D010000 		.4byte	0x19d
 4109 103b 00       		.byte	0
 4110 103c 1E       		.uleb128 0x1e
 4111 103d 84020000 		.4byte	.LASF83
 4112 1041 07       		.byte	0x7
 4113 1042 54       		.byte	0x54
 4114 1043 4D100000 		.4byte	0x104d
 4115 1047 1F       		.uleb128 0x1f
 4116 1048 9D010000 		.4byte	0x19d
 4117 104c 00       		.byte	0
 4118 104d 1E       		.uleb128 0x1e
 4119 104e B80A0000 		.4byte	.LASF84
 4120 1052 07       		.byte	0x7
 4121 1053 55       		.byte	0x55
 4122 1054 5E100000 		.4byte	0x105e
 4123 1058 1F       		.uleb128 0x1f
 4124 1059 9D010000 		.4byte	0x19d
 4125 105d 00       		.byte	0
 4126 105e 1E       		.uleb128 0x1e
 4127 105f CA020000 		.4byte	.LASF85
ARM GAS  C:\Users\Alex\AppData\Local\Temp\ccjqAdcx.s 			page 92


 4128 1063 07       		.byte	0x7
 4129 1064 58       		.byte	0x58
 4130 1065 6F100000 		.4byte	0x106f
 4131 1069 1F       		.uleb128 0x1f
 4132 106a 9D010000 		.4byte	0x19d
 4133 106e 00       		.byte	0
 4134 106f 1E       		.uleb128 0x1e
 4135 1070 DD020000 		.4byte	.LASF86
 4136 1074 07       		.byte	0x7
 4137 1075 59       		.byte	0x59
 4138 1076 80100000 		.4byte	0x1080
 4139 107a 1F       		.uleb128 0x1f
 4140 107b 9D010000 		.4byte	0x19d
 4141 107f 00       		.byte	0
 4142 1080 1E       		.uleb128 0x1e
 4143 1081 F0020000 		.4byte	.LASF87
 4144 1085 07       		.byte	0x7
 4145 1086 5A       		.byte	0x5a
 4146 1087 91100000 		.4byte	0x1091
 4147 108b 1F       		.uleb128 0x1f
 4148 108c 9D010000 		.4byte	0x19d
 4149 1090 00       		.byte	0
 4150 1091 1E       		.uleb128 0x1e
 4151 1092 03030000 		.4byte	.LASF88
 4152 1096 07       		.byte	0x7
 4153 1097 5B       		.byte	0x5b
 4154 1098 A2100000 		.4byte	0x10a2
 4155 109c 1F       		.uleb128 0x1f
 4156 109d 9D010000 		.4byte	0x19d
 4157 10a1 00       		.byte	0
 4158 10a2 1E       		.uleb128 0x1e
 4159 10a3 16030000 		.4byte	.LASF89
 4160 10a7 07       		.byte	0x7
 4161 10a8 5C       		.byte	0x5c
 4162 10a9 B3100000 		.4byte	0x10b3
 4163 10ad 1F       		.uleb128 0x1f
 4164 10ae 9D010000 		.4byte	0x19d
 4165 10b2 00       		.byte	0
 4166 10b3 1E       		.uleb128 0x1e
 4167 10b4 29030000 		.4byte	.LASF90
 4168 10b8 07       		.byte	0x7
 4169 10b9 5D       		.byte	0x5d
 4170 10ba C4100000 		.4byte	0x10c4
 4171 10be 1F       		.uleb128 0x1f
 4172 10bf 9D010000 		.4byte	0x19d
 4173 10c3 00       		.byte	0
 4174 10c4 1E       		.uleb128 0x1e
 4175 10c5 3C030000 		.4byte	.LASF91
 4176 10c9 07       		.byte	0x7
 4177 10ca 5E       		.byte	0x5e
 4178 10cb D5100000 		.4byte	0x10d5
 4179 10cf 1F       		.uleb128 0x1f
 4180 10d0 9D010000 		.4byte	0x19d
 4181 10d4 00       		.byte	0
 4182 10d5 1E       		.uleb128 0x1e
 4183 10d6 4F030000 		.4byte	.LASF92
 4184 10da 07       		.byte	0x7
ARM GAS  C:\Users\Alex\AppData\Local\Temp\ccjqAdcx.s 			page 93


 4185 10db 5F       		.byte	0x5f
 4186 10dc E6100000 		.4byte	0x10e6
 4187 10e0 1F       		.uleb128 0x1f
 4188 10e1 9D010000 		.4byte	0x19d
 4189 10e5 00       		.byte	0
 4190 10e6 1E       		.uleb128 0x1e
 4191 10e7 62030000 		.4byte	.LASF93
 4192 10eb 07       		.byte	0x7
 4193 10ec 60       		.byte	0x60
 4194 10ed F7100000 		.4byte	0x10f7
 4195 10f1 1F       		.uleb128 0x1f
 4196 10f2 9D010000 		.4byte	0x19d
 4197 10f6 00       		.byte	0
 4198 10f7 1E       		.uleb128 0x1e
 4199 10f8 75030000 		.4byte	.LASF94
 4200 10fc 07       		.byte	0x7
 4201 10fd 61       		.byte	0x61
 4202 10fe 08110000 		.4byte	0x1108
 4203 1102 1F       		.uleb128 0x1f
 4204 1103 9D010000 		.4byte	0x19d
 4205 1107 00       		.byte	0
 4206 1108 1E       		.uleb128 0x1e
 4207 1109 B4030000 		.4byte	.LASF95
 4208 110d 07       		.byte	0x7
 4209 110e 64       		.byte	0x64
 4210 110f 19110000 		.4byte	0x1119
 4211 1113 1F       		.uleb128 0x1f
 4212 1114 9D010000 		.4byte	0x19d
 4213 1118 00       		.byte	0
 4214 1119 1E       		.uleb128 0x1e
 4215 111a C7030000 		.4byte	.LASF96
 4216 111e 07       		.byte	0x7
 4217 111f 65       		.byte	0x65
 4218 1120 2A110000 		.4byte	0x112a
 4219 1124 1F       		.uleb128 0x1f
 4220 1125 9D010000 		.4byte	0x19d
 4221 1129 00       		.byte	0
 4222 112a 1E       		.uleb128 0x1e
 4223 112b DA030000 		.4byte	.LASF97
 4224 112f 07       		.byte	0x7
 4225 1130 66       		.byte	0x66
 4226 1131 3B110000 		.4byte	0x113b
 4227 1135 1F       		.uleb128 0x1f
 4228 1136 9D010000 		.4byte	0x19d
 4229 113a 00       		.byte	0
 4230 113b 1E       		.uleb128 0x1e
 4231 113c ED030000 		.4byte	.LASF98
 4232 1140 07       		.byte	0x7
 4233 1141 67       		.byte	0x67
 4234 1142 4C110000 		.4byte	0x114c
 4235 1146 1F       		.uleb128 0x1f
 4236 1147 9D010000 		.4byte	0x19d
 4237 114b 00       		.byte	0
 4238 114c 1E       		.uleb128 0x1e
 4239 114d 00040000 		.4byte	.LASF99
 4240 1151 07       		.byte	0x7
 4241 1152 68       		.byte	0x68
ARM GAS  C:\Users\Alex\AppData\Local\Temp\ccjqAdcx.s 			page 94


 4242 1153 5D110000 		.4byte	0x115d
 4243 1157 1F       		.uleb128 0x1f
 4244 1158 9D010000 		.4byte	0x19d
 4245 115c 00       		.byte	0
 4246 115d 1E       		.uleb128 0x1e
 4247 115e 13040000 		.4byte	.LASF100
 4248 1162 07       		.byte	0x7
 4249 1163 69       		.byte	0x69
 4250 1164 6E110000 		.4byte	0x116e
 4251 1168 1F       		.uleb128 0x1f
 4252 1169 9D010000 		.4byte	0x19d
 4253 116d 00       		.byte	0
 4254 116e 1E       		.uleb128 0x1e
 4255 116f 26040000 		.4byte	.LASF101
 4256 1173 07       		.byte	0x7
 4257 1174 6A       		.byte	0x6a
 4258 1175 7F110000 		.4byte	0x117f
 4259 1179 1F       		.uleb128 0x1f
 4260 117a 9D010000 		.4byte	0x19d
 4261 117e 00       		.byte	0
 4262 117f 1E       		.uleb128 0x1e
 4263 1180 39040000 		.4byte	.LASF102
 4264 1184 07       		.byte	0x7
 4265 1185 6B       		.byte	0x6b
 4266 1186 90110000 		.4byte	0x1190
 4267 118a 1F       		.uleb128 0x1f
 4268 118b 9D010000 		.4byte	0x19d
 4269 118f 00       		.byte	0
 4270 1190 1E       		.uleb128 0x1e
 4271 1191 4C040000 		.4byte	.LASF103
 4272 1195 07       		.byte	0x7
 4273 1196 6C       		.byte	0x6c
 4274 1197 A1110000 		.4byte	0x11a1
 4275 119b 1F       		.uleb128 0x1f
 4276 119c 9D010000 		.4byte	0x19d
 4277 11a0 00       		.byte	0
 4278 11a1 1E       		.uleb128 0x1e
 4279 11a2 5F040000 		.4byte	.LASF104
 4280 11a6 07       		.byte	0x7
 4281 11a7 6D       		.byte	0x6d
 4282 11a8 B2110000 		.4byte	0x11b2
 4283 11ac 1F       		.uleb128 0x1f
 4284 11ad 9D010000 		.4byte	0x19d
 4285 11b1 00       		.byte	0
 4286 11b2 1E       		.uleb128 0x1e
 4287 11b3 8C040000 		.4byte	.LASF105
 4288 11b7 07       		.byte	0x7
 4289 11b8 70       		.byte	0x70
 4290 11b9 C3110000 		.4byte	0x11c3
 4291 11bd 1F       		.uleb128 0x1f
 4292 11be 9D010000 		.4byte	0x19d
 4293 11c2 00       		.byte	0
 4294 11c3 1E       		.uleb128 0x1e
 4295 11c4 9F040000 		.4byte	.LASF106
 4296 11c8 07       		.byte	0x7
 4297 11c9 71       		.byte	0x71
 4298 11ca D4110000 		.4byte	0x11d4
ARM GAS  C:\Users\Alex\AppData\Local\Temp\ccjqAdcx.s 			page 95


 4299 11ce 1F       		.uleb128 0x1f
 4300 11cf 9D010000 		.4byte	0x19d
 4301 11d3 00       		.byte	0
 4302 11d4 1E       		.uleb128 0x1e
 4303 11d5 B2040000 		.4byte	.LASF107
 4304 11d9 07       		.byte	0x7
 4305 11da 72       		.byte	0x72
 4306 11db E5110000 		.4byte	0x11e5
 4307 11df 1F       		.uleb128 0x1f
 4308 11e0 9D010000 		.4byte	0x19d
 4309 11e4 00       		.byte	0
 4310 11e5 1E       		.uleb128 0x1e
 4311 11e6 C5040000 		.4byte	.LASF108
 4312 11ea 07       		.byte	0x7
 4313 11eb 73       		.byte	0x73
 4314 11ec F6110000 		.4byte	0x11f6
 4315 11f0 1F       		.uleb128 0x1f
 4316 11f1 9D010000 		.4byte	0x19d
 4317 11f5 00       		.byte	0
 4318 11f6 1E       		.uleb128 0x1e
 4319 11f7 9C020000 		.4byte	.LASF109
 4320 11fb 07       		.byte	0x7
 4321 11fc 74       		.byte	0x74
 4322 11fd 07120000 		.4byte	0x1207
 4323 1201 1F       		.uleb128 0x1f
 4324 1202 9D010000 		.4byte	0x19d
 4325 1206 00       		.byte	0
 4326 1207 1E       		.uleb128 0x1e
 4327 1208 D8040000 		.4byte	.LASF110
 4328 120c 07       		.byte	0x7
 4329 120d 75       		.byte	0x75
 4330 120e 18120000 		.4byte	0x1218
 4331 1212 1F       		.uleb128 0x1f
 4332 1213 9D010000 		.4byte	0x19d
 4333 1217 00       		.byte	0
 4334 1218 1E       		.uleb128 0x1e
 4335 1219 EB040000 		.4byte	.LASF111
 4336 121d 07       		.byte	0x7
 4337 121e 76       		.byte	0x76
 4338 121f 29120000 		.4byte	0x1229
 4339 1223 1F       		.uleb128 0x1f
 4340 1224 9D010000 		.4byte	0x19d
 4341 1228 00       		.byte	0
 4342 1229 1E       		.uleb128 0x1e
 4343 122a FE040000 		.4byte	.LASF112
 4344 122e 07       		.byte	0x7
 4345 122f 77       		.byte	0x77
 4346 1230 3A120000 		.4byte	0x123a
 4347 1234 1F       		.uleb128 0x1f
 4348 1235 9D010000 		.4byte	0x19d
 4349 1239 00       		.byte	0
 4350 123a 1E       		.uleb128 0x1e
 4351 123b 11050000 		.4byte	.LASF113
 4352 123f 07       		.byte	0x7
 4353 1240 78       		.byte	0x78
 4354 1241 4B120000 		.4byte	0x124b
 4355 1245 1F       		.uleb128 0x1f
ARM GAS  C:\Users\Alex\AppData\Local\Temp\ccjqAdcx.s 			page 96


 4356 1246 9D010000 		.4byte	0x19d
 4357 124a 00       		.byte	0
 4358 124b 1E       		.uleb128 0x1e
 4359 124c 24050000 		.4byte	.LASF114
 4360 1250 07       		.byte	0x7
 4361 1251 79       		.byte	0x79
 4362 1252 5C120000 		.4byte	0x125c
 4363 1256 1F       		.uleb128 0x1f
 4364 1257 9D010000 		.4byte	0x19d
 4365 125b 00       		.byte	0
 4366 125c 1E       		.uleb128 0x1e
 4367 125d 06060000 		.4byte	.LASF115
 4368 1261 07       		.byte	0x7
 4369 1262 7C       		.byte	0x7c
 4370 1263 6D120000 		.4byte	0x126d
 4371 1267 1F       		.uleb128 0x1f
 4372 1268 9D010000 		.4byte	0x19d
 4373 126c 00       		.byte	0
 4374 126d 1E       		.uleb128 0x1e
 4375 126e 19060000 		.4byte	.LASF116
 4376 1272 07       		.byte	0x7
 4377 1273 7D       		.byte	0x7d
 4378 1274 7E120000 		.4byte	0x127e
 4379 1278 1F       		.uleb128 0x1f
 4380 1279 9D010000 		.4byte	0x19d
 4381 127d 00       		.byte	0
 4382 127e 1E       		.uleb128 0x1e
 4383 127f 2C060000 		.4byte	.LASF117
 4384 1283 07       		.byte	0x7
 4385 1284 7E       		.byte	0x7e
 4386 1285 8F120000 		.4byte	0x128f
 4387 1289 1F       		.uleb128 0x1f
 4388 128a 9D010000 		.4byte	0x19d
 4389 128e 00       		.byte	0
 4390 128f 1E       		.uleb128 0x1e
 4391 1290 3F060000 		.4byte	.LASF118
 4392 1294 07       		.byte	0x7
 4393 1295 7F       		.byte	0x7f
 4394 1296 A0120000 		.4byte	0x12a0
 4395 129a 1F       		.uleb128 0x1f
 4396 129b 9D010000 		.4byte	0x19d
 4397 129f 00       		.byte	0
 4398 12a0 1E       		.uleb128 0x1e
 4399 12a1 52060000 		.4byte	.LASF119
 4400 12a5 07       		.byte	0x7
 4401 12a6 80       		.byte	0x80
 4402 12a7 B1120000 		.4byte	0x12b1
 4403 12ab 1F       		.uleb128 0x1f
 4404 12ac 9D010000 		.4byte	0x19d
 4405 12b0 00       		.byte	0
 4406 12b1 1E       		.uleb128 0x1e
 4407 12b2 65060000 		.4byte	.LASF120
 4408 12b6 07       		.byte	0x7
 4409 12b7 81       		.byte	0x81
 4410 12b8 C2120000 		.4byte	0x12c2
 4411 12bc 1F       		.uleb128 0x1f
 4412 12bd 9D010000 		.4byte	0x19d
ARM GAS  C:\Users\Alex\AppData\Local\Temp\ccjqAdcx.s 			page 97


 4413 12c1 00       		.byte	0
 4414 12c2 1E       		.uleb128 0x1e
 4415 12c3 78060000 		.4byte	.LASF121
 4416 12c7 07       		.byte	0x7
 4417 12c8 82       		.byte	0x82
 4418 12c9 D3120000 		.4byte	0x12d3
 4419 12cd 1F       		.uleb128 0x1f
 4420 12ce 9D010000 		.4byte	0x19d
 4421 12d2 00       		.byte	0
 4422 12d3 1E       		.uleb128 0x1e
 4423 12d4 8B060000 		.4byte	.LASF122
 4424 12d8 07       		.byte	0x7
 4425 12d9 83       		.byte	0x83
 4426 12da E4120000 		.4byte	0x12e4
 4427 12de 1F       		.uleb128 0x1f
 4428 12df 9D010000 		.4byte	0x19d
 4429 12e3 00       		.byte	0
 4430 12e4 1E       		.uleb128 0x1e
 4431 12e5 9E060000 		.4byte	.LASF123
 4432 12e9 07       		.byte	0x7
 4433 12ea 84       		.byte	0x84
 4434 12eb F5120000 		.4byte	0x12f5
 4435 12ef 1F       		.uleb128 0x1f
 4436 12f0 9D010000 		.4byte	0x19d
 4437 12f4 00       		.byte	0
 4438 12f5 1E       		.uleb128 0x1e
 4439 12f6 B1060000 		.4byte	.LASF124
 4440 12fa 07       		.byte	0x7
 4441 12fb 85       		.byte	0x85
 4442 12fc 06130000 		.4byte	0x1306
 4443 1300 1F       		.uleb128 0x1f
 4444 1301 9D010000 		.4byte	0x19d
 4445 1305 00       		.byte	0
 4446 1306 1E       		.uleb128 0x1e
 4447 1307 1D070000 		.4byte	.LASF125
 4448 130b 07       		.byte	0x7
 4449 130c 88       		.byte	0x88
 4450 130d 17130000 		.4byte	0x1317
 4451 1311 1F       		.uleb128 0x1f
 4452 1312 9D010000 		.4byte	0x19d
 4453 1316 00       		.byte	0
 4454 1317 1E       		.uleb128 0x1e
 4455 1318 30070000 		.4byte	.LASF126
 4456 131c 07       		.byte	0x7
 4457 131d 89       		.byte	0x89
 4458 131e 28130000 		.4byte	0x1328
 4459 1322 1F       		.uleb128 0x1f
 4460 1323 9D010000 		.4byte	0x19d
 4461 1327 00       		.byte	0
 4462 1328 1E       		.uleb128 0x1e
 4463 1329 43070000 		.4byte	.LASF127
 4464 132d 07       		.byte	0x7
 4465 132e 8A       		.byte	0x8a
 4466 132f 39130000 		.4byte	0x1339
 4467 1333 1F       		.uleb128 0x1f
 4468 1334 9D010000 		.4byte	0x19d
 4469 1338 00       		.byte	0
ARM GAS  C:\Users\Alex\AppData\Local\Temp\ccjqAdcx.s 			page 98


 4470 1339 1E       		.uleb128 0x1e
 4471 133a 56070000 		.4byte	.LASF128
 4472 133e 07       		.byte	0x7
 4473 133f 8B       		.byte	0x8b
 4474 1340 4A130000 		.4byte	0x134a
 4475 1344 1F       		.uleb128 0x1f
 4476 1345 9D010000 		.4byte	0x19d
 4477 1349 00       		.byte	0
 4478 134a 1E       		.uleb128 0x1e
 4479 134b 69070000 		.4byte	.LASF129
 4480 134f 07       		.byte	0x7
 4481 1350 8C       		.byte	0x8c
 4482 1351 5B130000 		.4byte	0x135b
 4483 1355 1F       		.uleb128 0x1f
 4484 1356 9D010000 		.4byte	0x19d
 4485 135a 00       		.byte	0
 4486 135b 1E       		.uleb128 0x1e
 4487 135c 7C070000 		.4byte	.LASF130
 4488 1360 07       		.byte	0x7
 4489 1361 8D       		.byte	0x8d
 4490 1362 6C130000 		.4byte	0x136c
 4491 1366 1F       		.uleb128 0x1f
 4492 1367 9D010000 		.4byte	0x19d
 4493 136b 00       		.byte	0
 4494 136c 1E       		.uleb128 0x1e
 4495 136d 8F070000 		.4byte	.LASF131
 4496 1371 07       		.byte	0x7
 4497 1372 8E       		.byte	0x8e
 4498 1373 7D130000 		.4byte	0x137d
 4499 1377 1F       		.uleb128 0x1f
 4500 1378 9D010000 		.4byte	0x19d
 4501 137c 00       		.byte	0
 4502 137d 1E       		.uleb128 0x1e
 4503 137e A2070000 		.4byte	.LASF132
 4504 1382 07       		.byte	0x7
 4505 1383 8F       		.byte	0x8f
 4506 1384 8E130000 		.4byte	0x138e
 4507 1388 1F       		.uleb128 0x1f
 4508 1389 9D010000 		.4byte	0x19d
 4509 138d 00       		.byte	0
 4510 138e 1E       		.uleb128 0x1e
 4511 138f B5070000 		.4byte	.LASF133
 4512 1393 07       		.byte	0x7
 4513 1394 90       		.byte	0x90
 4514 1395 9F130000 		.4byte	0x139f
 4515 1399 1F       		.uleb128 0x1f
 4516 139a 9D010000 		.4byte	0x19d
 4517 139e 00       		.byte	0
 4518 139f 1E       		.uleb128 0x1e
 4519 13a0 C8070000 		.4byte	.LASF134
 4520 13a4 07       		.byte	0x7
 4521 13a5 91       		.byte	0x91
 4522 13a6 B0130000 		.4byte	0x13b0
 4523 13aa 1F       		.uleb128 0x1f
 4524 13ab 9D010000 		.4byte	0x19d
 4525 13af 00       		.byte	0
 4526 13b0 1E       		.uleb128 0x1e
ARM GAS  C:\Users\Alex\AppData\Local\Temp\ccjqAdcx.s 			page 99


 4527 13b1 F6070000 		.4byte	.LASF135
 4528 13b5 07       		.byte	0x7
 4529 13b6 94       		.byte	0x94
 4530 13b7 C1130000 		.4byte	0x13c1
 4531 13bb 1F       		.uleb128 0x1f
 4532 13bc 9D010000 		.4byte	0x19d
 4533 13c0 00       		.byte	0
 4534 13c1 1E       		.uleb128 0x1e
 4535 13c2 09080000 		.4byte	.LASF136
 4536 13c6 07       		.byte	0x7
 4537 13c7 95       		.byte	0x95
 4538 13c8 D2130000 		.4byte	0x13d2
 4539 13cc 1F       		.uleb128 0x1f
 4540 13cd 9D010000 		.4byte	0x19d
 4541 13d1 00       		.byte	0
 4542 13d2 1E       		.uleb128 0x1e
 4543 13d3 1C080000 		.4byte	.LASF137
 4544 13d7 07       		.byte	0x7
 4545 13d8 96       		.byte	0x96
 4546 13d9 E3130000 		.4byte	0x13e3
 4547 13dd 1F       		.uleb128 0x1f
 4548 13de 9D010000 		.4byte	0x19d
 4549 13e2 00       		.byte	0
 4550 13e3 1E       		.uleb128 0x1e
 4551 13e4 2F080000 		.4byte	.LASF138
 4552 13e8 07       		.byte	0x7
 4553 13e9 97       		.byte	0x97
 4554 13ea F4130000 		.4byte	0x13f4
 4555 13ee 1F       		.uleb128 0x1f
 4556 13ef 9D010000 		.4byte	0x19d
 4557 13f3 00       		.byte	0
 4558 13f4 1E       		.uleb128 0x1e
 4559 13f5 42080000 		.4byte	.LASF139
 4560 13f9 07       		.byte	0x7
 4561 13fa 98       		.byte	0x98
 4562 13fb 05140000 		.4byte	0x1405
 4563 13ff 1F       		.uleb128 0x1f
 4564 1400 9D010000 		.4byte	0x19d
 4565 1404 00       		.byte	0
 4566 1405 1E       		.uleb128 0x1e
 4567 1406 55080000 		.4byte	.LASF140
 4568 140a 07       		.byte	0x7
 4569 140b 99       		.byte	0x99
 4570 140c 16140000 		.4byte	0x1416
 4571 1410 1F       		.uleb128 0x1f
 4572 1411 9D010000 		.4byte	0x19d
 4573 1415 00       		.byte	0
 4574 1416 1E       		.uleb128 0x1e
 4575 1417 68080000 		.4byte	.LASF141
 4576 141b 07       		.byte	0x7
 4577 141c 9A       		.byte	0x9a
 4578 141d 27140000 		.4byte	0x1427
 4579 1421 1F       		.uleb128 0x1f
 4580 1422 9D010000 		.4byte	0x19d
 4581 1426 00       		.byte	0
 4582 1427 1E       		.uleb128 0x1e
 4583 1428 7B080000 		.4byte	.LASF142
ARM GAS  C:\Users\Alex\AppData\Local\Temp\ccjqAdcx.s 			page 100


 4584 142c 07       		.byte	0x7
 4585 142d 9B       		.byte	0x9b
 4586 142e 38140000 		.4byte	0x1438
 4587 1432 1F       		.uleb128 0x1f
 4588 1433 9D010000 		.4byte	0x19d
 4589 1437 00       		.byte	0
 4590 1438 1E       		.uleb128 0x1e
 4591 1439 8E080000 		.4byte	.LASF143
 4592 143d 07       		.byte	0x7
 4593 143e 9C       		.byte	0x9c
 4594 143f 49140000 		.4byte	0x1449
 4595 1443 1F       		.uleb128 0x1f
 4596 1444 9D010000 		.4byte	0x19d
 4597 1448 00       		.byte	0
 4598 1449 1E       		.uleb128 0x1e
 4599 144a A1080000 		.4byte	.LASF144
 4600 144e 07       		.byte	0x7
 4601 144f 9D       		.byte	0x9d
 4602 1450 5A140000 		.4byte	0x145a
 4603 1454 1F       		.uleb128 0x1f
 4604 1455 9D010000 		.4byte	0x19d
 4605 1459 00       		.byte	0
 4606 145a 1E       		.uleb128 0x1e
 4607 145b FE080000 		.4byte	.LASF145
 4608 145f 07       		.byte	0x7
 4609 1460 A0       		.byte	0xa0
 4610 1461 6B140000 		.4byte	0x146b
 4611 1465 1F       		.uleb128 0x1f
 4612 1466 9D010000 		.4byte	0x19d
 4613 146a 00       		.byte	0
 4614 146b 1E       		.uleb128 0x1e
 4615 146c 12090000 		.4byte	.LASF146
 4616 1470 07       		.byte	0x7
 4617 1471 A1       		.byte	0xa1
 4618 1472 7C140000 		.4byte	0x147c
 4619 1476 1F       		.uleb128 0x1f
 4620 1477 9D010000 		.4byte	0x19d
 4621 147b 00       		.byte	0
 4622 147c 1E       		.uleb128 0x1e
 4623 147d 26090000 		.4byte	.LASF147
 4624 1481 07       		.byte	0x7
 4625 1482 A2       		.byte	0xa2
 4626 1483 8D140000 		.4byte	0x148d
 4627 1487 1F       		.uleb128 0x1f
 4628 1488 9D010000 		.4byte	0x19d
 4629 148c 00       		.byte	0
 4630 148d 1E       		.uleb128 0x1e
 4631 148e 3A090000 		.4byte	.LASF148
 4632 1492 07       		.byte	0x7
 4633 1493 A3       		.byte	0xa3
 4634 1494 9E140000 		.4byte	0x149e
 4635 1498 1F       		.uleb128 0x1f
 4636 1499 9D010000 		.4byte	0x19d
 4637 149d 00       		.byte	0
 4638 149e 1E       		.uleb128 0x1e
 4639 149f 4E090000 		.4byte	.LASF149
 4640 14a3 07       		.byte	0x7
ARM GAS  C:\Users\Alex\AppData\Local\Temp\ccjqAdcx.s 			page 101


 4641 14a4 A4       		.byte	0xa4
 4642 14a5 AF140000 		.4byte	0x14af
 4643 14a9 1F       		.uleb128 0x1f
 4644 14aa 9D010000 		.4byte	0x19d
 4645 14ae 00       		.byte	0
 4646 14af 1E       		.uleb128 0x1e
 4647 14b0 62090000 		.4byte	.LASF150
 4648 14b4 07       		.byte	0x7
 4649 14b5 A5       		.byte	0xa5
 4650 14b6 C0140000 		.4byte	0x14c0
 4651 14ba 1F       		.uleb128 0x1f
 4652 14bb 9D010000 		.4byte	0x19d
 4653 14bf 00       		.byte	0
 4654 14c0 1E       		.uleb128 0x1e
 4655 14c1 76090000 		.4byte	.LASF151
 4656 14c5 07       		.byte	0x7
 4657 14c6 A6       		.byte	0xa6
 4658 14c7 D1140000 		.4byte	0x14d1
 4659 14cb 1F       		.uleb128 0x1f
 4660 14cc 9D010000 		.4byte	0x19d
 4661 14d0 00       		.byte	0
 4662 14d1 1E       		.uleb128 0x1e
 4663 14d2 8A090000 		.4byte	.LASF152
 4664 14d6 07       		.byte	0x7
 4665 14d7 A7       		.byte	0xa7
 4666 14d8 E2140000 		.4byte	0x14e2
 4667 14dc 1F       		.uleb128 0x1f
 4668 14dd 9D010000 		.4byte	0x19d
 4669 14e1 00       		.byte	0
 4670 14e2 1E       		.uleb128 0x1e
 4671 14e3 9E090000 		.4byte	.LASF153
 4672 14e7 07       		.byte	0x7
 4673 14e8 A8       		.byte	0xa8
 4674 14e9 F3140000 		.4byte	0x14f3
 4675 14ed 1F       		.uleb128 0x1f
 4676 14ee 9D010000 		.4byte	0x19d
 4677 14f2 00       		.byte	0
 4678 14f3 1E       		.uleb128 0x1e
 4679 14f4 B2090000 		.4byte	.LASF154
 4680 14f8 07       		.byte	0x7
 4681 14f9 A9       		.byte	0xa9
 4682 14fa 04150000 		.4byte	0x1504
 4683 14fe 1F       		.uleb128 0x1f
 4684 14ff 9D010000 		.4byte	0x19d
 4685 1503 00       		.byte	0
 4686 1504 1E       		.uleb128 0x1e
 4687 1505 D5090000 		.4byte	.LASF155
 4688 1509 07       		.byte	0x7
 4689 150a AC       		.byte	0xac
 4690 150b 15150000 		.4byte	0x1515
 4691 150f 1F       		.uleb128 0x1f
 4692 1510 9D010000 		.4byte	0x19d
 4693 1514 00       		.byte	0
 4694 1515 1E       		.uleb128 0x1e
 4695 1516 E9090000 		.4byte	.LASF156
 4696 151a 07       		.byte	0x7
 4697 151b AD       		.byte	0xad
ARM GAS  C:\Users\Alex\AppData\Local\Temp\ccjqAdcx.s 			page 102


 4698 151c 26150000 		.4byte	0x1526
 4699 1520 1F       		.uleb128 0x1f
 4700 1521 9D010000 		.4byte	0x19d
 4701 1525 00       		.byte	0
 4702 1526 1E       		.uleb128 0x1e
 4703 1527 FD090000 		.4byte	.LASF157
 4704 152b 07       		.byte	0x7
 4705 152c AE       		.byte	0xae
 4706 152d 37150000 		.4byte	0x1537
 4707 1531 1F       		.uleb128 0x1f
 4708 1532 9D010000 		.4byte	0x19d
 4709 1536 00       		.byte	0
 4710 1537 1E       		.uleb128 0x1e
 4711 1538 110A0000 		.4byte	.LASF158
 4712 153c 07       		.byte	0x7
 4713 153d AF       		.byte	0xaf
 4714 153e 48150000 		.4byte	0x1548
 4715 1542 1F       		.uleb128 0x1f
 4716 1543 9D010000 		.4byte	0x19d
 4717 1547 00       		.byte	0
 4718 1548 1E       		.uleb128 0x1e
 4719 1549 250A0000 		.4byte	.LASF159
 4720 154d 07       		.byte	0x7
 4721 154e B0       		.byte	0xb0
 4722 154f 59150000 		.4byte	0x1559
 4723 1553 1F       		.uleb128 0x1f
 4724 1554 9D010000 		.4byte	0x19d
 4725 1558 00       		.byte	0
 4726 1559 1E       		.uleb128 0x1e
 4727 155a 390A0000 		.4byte	.LASF160
 4728 155e 07       		.byte	0x7
 4729 155f B1       		.byte	0xb1
 4730 1560 6A150000 		.4byte	0x156a
 4731 1564 1F       		.uleb128 0x1f
 4732 1565 9D010000 		.4byte	0x19d
 4733 1569 00       		.byte	0
 4734 156a 1E       		.uleb128 0x1e
 4735 156b 4D0A0000 		.4byte	.LASF161
 4736 156f 07       		.byte	0x7
 4737 1570 B2       		.byte	0xb2
 4738 1571 7B150000 		.4byte	0x157b
 4739 1575 1F       		.uleb128 0x1f
 4740 1576 9D010000 		.4byte	0x19d
 4741 157a 00       		.byte	0
 4742 157b 1E       		.uleb128 0x1e
 4743 157c 610A0000 		.4byte	.LASF162
 4744 1580 07       		.byte	0x7
 4745 1581 B3       		.byte	0xb3
 4746 1582 8C150000 		.4byte	0x158c
 4747 1586 1F       		.uleb128 0x1f
 4748 1587 9D010000 		.4byte	0x19d
 4749 158b 00       		.byte	0
 4750 158c 1E       		.uleb128 0x1e
 4751 158d 750A0000 		.4byte	.LASF163
 4752 1591 07       		.byte	0x7
 4753 1592 B4       		.byte	0xb4
 4754 1593 9D150000 		.4byte	0x159d
ARM GAS  C:\Users\Alex\AppData\Local\Temp\ccjqAdcx.s 			page 103


 4755 1597 1F       		.uleb128 0x1f
 4756 1598 9D010000 		.4byte	0x19d
 4757 159c 00       		.byte	0
 4758 159d 1E       		.uleb128 0x1e
 4759 159e 890A0000 		.4byte	.LASF164
 4760 15a2 07       		.byte	0x7
 4761 15a3 B5       		.byte	0xb5
 4762 15a4 AE150000 		.4byte	0x15ae
 4763 15a8 1F       		.uleb128 0x1f
 4764 15a9 9D010000 		.4byte	0x19d
 4765 15ad 00       		.byte	0
 4766 15ae 1E       		.uleb128 0x1e
 4767 15af 770B0000 		.4byte	.LASF165
 4768 15b3 07       		.byte	0x7
 4769 15b4 B8       		.byte	0xb8
 4770 15b5 BF150000 		.4byte	0x15bf
 4771 15b9 1F       		.uleb128 0x1f
 4772 15ba 9D010000 		.4byte	0x19d
 4773 15be 00       		.byte	0
 4774 15bf 1E       		.uleb128 0x1e
 4775 15c0 8B0B0000 		.4byte	.LASF166
 4776 15c4 07       		.byte	0x7
 4777 15c5 B9       		.byte	0xb9
 4778 15c6 D0150000 		.4byte	0x15d0
 4779 15ca 1F       		.uleb128 0x1f
 4780 15cb 9D010000 		.4byte	0x19d
 4781 15cf 00       		.byte	0
 4782 15d0 1E       		.uleb128 0x1e
 4783 15d1 5D0C0000 		.4byte	.LASF167
 4784 15d5 07       		.byte	0x7
 4785 15d6 BA       		.byte	0xba
 4786 15d7 E1150000 		.4byte	0x15e1
 4787 15db 1F       		.uleb128 0x1f
 4788 15dc 9D010000 		.4byte	0x19d
 4789 15e0 00       		.byte	0
 4790 15e1 1E       		.uleb128 0x1e
 4791 15e2 AB0B0000 		.4byte	.LASF168
 4792 15e6 07       		.byte	0x7
 4793 15e7 BB       		.byte	0xbb
 4794 15e8 F2150000 		.4byte	0x15f2
 4795 15ec 1F       		.uleb128 0x1f
 4796 15ed 9D010000 		.4byte	0x19d
 4797 15f1 00       		.byte	0
 4798 15f2 1E       		.uleb128 0x1e
 4799 15f3 BF0B0000 		.4byte	.LASF169
 4800 15f7 07       		.byte	0x7
 4801 15f8 BC       		.byte	0xbc
 4802 15f9 03160000 		.4byte	0x1603
 4803 15fd 1F       		.uleb128 0x1f
 4804 15fe 9D010000 		.4byte	0x19d
 4805 1602 00       		.byte	0
 4806 1603 1E       		.uleb128 0x1e
 4807 1604 D30B0000 		.4byte	.LASF170
 4808 1608 07       		.byte	0x7
 4809 1609 BD       		.byte	0xbd
 4810 160a 14160000 		.4byte	0x1614
 4811 160e 1F       		.uleb128 0x1f
ARM GAS  C:\Users\Alex\AppData\Local\Temp\ccjqAdcx.s 			page 104


 4812 160f 9D010000 		.4byte	0x19d
 4813 1613 00       		.byte	0
 4814 1614 1E       		.uleb128 0x1e
 4815 1615 E70B0000 		.4byte	.LASF171
 4816 1619 07       		.byte	0x7
 4817 161a BE       		.byte	0xbe
 4818 161b 25160000 		.4byte	0x1625
 4819 161f 1F       		.uleb128 0x1f
 4820 1620 9D010000 		.4byte	0x19d
 4821 1624 00       		.byte	0
 4822 1625 20       		.uleb128 0x20
 4823 1626 FB0B0000 		.4byte	.LASF177
 4824 162a 07       		.byte	0x7
 4825 162b BF       		.byte	0xbf
 4826 162c 1F       		.uleb128 0x1f
 4827 162d 9D010000 		.4byte	0x19d
 4828 1631 00       		.byte	0
 4829 1632 00       		.byte	0
 4830              		.section	.debug_abbrev,"",%progbits
 4831              	.Ldebug_abbrev0:
 4832 0000 01       		.uleb128 0x1
 4833 0001 11       		.uleb128 0x11
 4834 0002 01       		.byte	0x1
 4835 0003 25       		.uleb128 0x25
 4836 0004 0E       		.uleb128 0xe
 4837 0005 13       		.uleb128 0x13
 4838 0006 0B       		.uleb128 0xb
 4839 0007 03       		.uleb128 0x3
 4840 0008 0E       		.uleb128 0xe
 4841 0009 1B       		.uleb128 0x1b
 4842 000a 0E       		.uleb128 0xe
 4843 000b 55       		.uleb128 0x55
 4844 000c 17       		.uleb128 0x17
 4845 000d 11       		.uleb128 0x11
 4846 000e 01       		.uleb128 0x1
 4847 000f 10       		.uleb128 0x10
 4848 0010 17       		.uleb128 0x17
 4849 0011 00       		.byte	0
 4850 0012 00       		.byte	0
 4851 0013 02       		.uleb128 0x2
 4852 0014 24       		.uleb128 0x24
 4853 0015 00       		.byte	0
 4854 0016 0B       		.uleb128 0xb
 4855 0017 0B       		.uleb128 0xb
 4856 0018 3E       		.uleb128 0x3e
 4857 0019 0B       		.uleb128 0xb
 4858 001a 03       		.uleb128 0x3
 4859 001b 0E       		.uleb128 0xe
 4860 001c 00       		.byte	0
 4861 001d 00       		.byte	0
 4862 001e 03       		.uleb128 0x3
 4863 001f 16       		.uleb128 0x16
 4864 0020 00       		.byte	0
 4865 0021 03       		.uleb128 0x3
 4866 0022 0E       		.uleb128 0xe
 4867 0023 3A       		.uleb128 0x3a
 4868 0024 0B       		.uleb128 0xb
ARM GAS  C:\Users\Alex\AppData\Local\Temp\ccjqAdcx.s 			page 105


 4869 0025 3B       		.uleb128 0x3b
 4870 0026 0B       		.uleb128 0xb
 4871 0027 49       		.uleb128 0x49
 4872 0028 13       		.uleb128 0x13
 4873 0029 00       		.byte	0
 4874 002a 00       		.byte	0
 4875 002b 04       		.uleb128 0x4
 4876 002c 24       		.uleb128 0x24
 4877 002d 00       		.byte	0
 4878 002e 0B       		.uleb128 0xb
 4879 002f 0B       		.uleb128 0xb
 4880 0030 3E       		.uleb128 0x3e
 4881 0031 0B       		.uleb128 0xb
 4882 0032 03       		.uleb128 0x3
 4883 0033 08       		.uleb128 0x8
 4884 0034 00       		.byte	0
 4885 0035 00       		.byte	0
 4886 0036 05       		.uleb128 0x5
 4887 0037 0F       		.uleb128 0xf
 4888 0038 00       		.byte	0
 4889 0039 0B       		.uleb128 0xb
 4890 003a 0B       		.uleb128 0xb
 4891 003b 49       		.uleb128 0x49
 4892 003c 13       		.uleb128 0x13
 4893 003d 00       		.byte	0
 4894 003e 00       		.byte	0
 4895 003f 06       		.uleb128 0x6
 4896 0040 13       		.uleb128 0x13
 4897 0041 01       		.byte	0x1
 4898 0042 03       		.uleb128 0x3
 4899 0043 0E       		.uleb128 0xe
 4900 0044 0B       		.uleb128 0xb
 4901 0045 0B       		.uleb128 0xb
 4902 0046 3A       		.uleb128 0x3a
 4903 0047 0B       		.uleb128 0xb
 4904 0048 3B       		.uleb128 0x3b
 4905 0049 0B       		.uleb128 0xb
 4906 004a 01       		.uleb128 0x1
 4907 004b 13       		.uleb128 0x13
 4908 004c 00       		.byte	0
 4909 004d 00       		.byte	0
 4910 004e 07       		.uleb128 0x7
 4911 004f 0D       		.uleb128 0xd
 4912 0050 00       		.byte	0
 4913 0051 03       		.uleb128 0x3
 4914 0052 0E       		.uleb128 0xe
 4915 0053 3A       		.uleb128 0x3a
 4916 0054 0B       		.uleb128 0xb
 4917 0055 3B       		.uleb128 0x3b
 4918 0056 0B       		.uleb128 0xb
 4919 0057 49       		.uleb128 0x49
 4920 0058 13       		.uleb128 0x13
 4921 0059 38       		.uleb128 0x38
 4922 005a 0B       		.uleb128 0xb
 4923 005b 00       		.byte	0
 4924 005c 00       		.byte	0
 4925 005d 08       		.uleb128 0x8
ARM GAS  C:\Users\Alex\AppData\Local\Temp\ccjqAdcx.s 			page 106


 4926 005e 0D       		.uleb128 0xd
 4927 005f 00       		.byte	0
 4928 0060 03       		.uleb128 0x3
 4929 0061 08       		.uleb128 0x8
 4930 0062 3A       		.uleb128 0x3a
 4931 0063 0B       		.uleb128 0xb
 4932 0064 3B       		.uleb128 0x3b
 4933 0065 0B       		.uleb128 0xb
 4934 0066 49       		.uleb128 0x49
 4935 0067 13       		.uleb128 0x13
 4936 0068 38       		.uleb128 0x38
 4937 0069 0B       		.uleb128 0xb
 4938 006a 00       		.byte	0
 4939 006b 00       		.byte	0
 4940 006c 09       		.uleb128 0x9
 4941 006d 01       		.uleb128 0x1
 4942 006e 01       		.byte	0x1
 4943 006f 49       		.uleb128 0x49
 4944 0070 13       		.uleb128 0x13
 4945 0071 01       		.uleb128 0x1
 4946 0072 13       		.uleb128 0x13
 4947 0073 00       		.byte	0
 4948 0074 00       		.byte	0
 4949 0075 0A       		.uleb128 0xa
 4950 0076 21       		.uleb128 0x21
 4951 0077 00       		.byte	0
 4952 0078 49       		.uleb128 0x49
 4953 0079 13       		.uleb128 0x13
 4954 007a 2F       		.uleb128 0x2f
 4955 007b 0B       		.uleb128 0xb
 4956 007c 00       		.byte	0
 4957 007d 00       		.byte	0
 4958 007e 0B       		.uleb128 0xb
 4959 007f 2E       		.uleb128 0x2e
 4960 0080 01       		.byte	0x1
 4961 0081 03       		.uleb128 0x3
 4962 0082 0E       		.uleb128 0xe
 4963 0083 3A       		.uleb128 0x3a
 4964 0084 0B       		.uleb128 0xb
 4965 0085 3B       		.uleb128 0x3b
 4966 0086 05       		.uleb128 0x5
 4967 0087 27       		.uleb128 0x27
 4968 0088 19       		.uleb128 0x19
 4969 0089 49       		.uleb128 0x49
 4970 008a 13       		.uleb128 0x13
 4971 008b 11       		.uleb128 0x11
 4972 008c 01       		.uleb128 0x1
 4973 008d 12       		.uleb128 0x12
 4974 008e 06       		.uleb128 0x6
 4975 008f 40       		.uleb128 0x40
 4976 0090 18       		.uleb128 0x18
 4977 0091 9742     		.uleb128 0x2117
 4978 0093 19       		.uleb128 0x19
 4979 0094 01       		.uleb128 0x1
 4980 0095 13       		.uleb128 0x13
 4981 0096 00       		.byte	0
 4982 0097 00       		.byte	0
ARM GAS  C:\Users\Alex\AppData\Local\Temp\ccjqAdcx.s 			page 107


 4983 0098 0C       		.uleb128 0xc
 4984 0099 05       		.uleb128 0x5
 4985 009a 00       		.byte	0
 4986 009b 03       		.uleb128 0x3
 4987 009c 0E       		.uleb128 0xe
 4988 009d 3A       		.uleb128 0x3a
 4989 009e 0B       		.uleb128 0xb
 4990 009f 3B       		.uleb128 0x3b
 4991 00a0 05       		.uleb128 0x5
 4992 00a1 49       		.uleb128 0x49
 4993 00a2 13       		.uleb128 0x13
 4994 00a3 02       		.uleb128 0x2
 4995 00a4 17       		.uleb128 0x17
 4996 00a5 00       		.byte	0
 4997 00a6 00       		.byte	0
 4998 00a7 0D       		.uleb128 0xd
 4999 00a8 34       		.uleb128 0x34
 5000 00a9 00       		.byte	0
 5001 00aa 03       		.uleb128 0x3
 5002 00ab 0E       		.uleb128 0xe
 5003 00ac 3A       		.uleb128 0x3a
 5004 00ad 0B       		.uleb128 0xb
 5005 00ae 3B       		.uleb128 0x3b
 5006 00af 05       		.uleb128 0x5
 5007 00b0 49       		.uleb128 0x49
 5008 00b1 13       		.uleb128 0x13
 5009 00b2 02       		.uleb128 0x2
 5010 00b3 18       		.uleb128 0x18
 5011 00b4 00       		.byte	0
 5012 00b5 00       		.byte	0
 5013 00b6 0E       		.uleb128 0xe
 5014 00b7 34       		.uleb128 0x34
 5015 00b8 00       		.byte	0
 5016 00b9 03       		.uleb128 0x3
 5017 00ba 08       		.uleb128 0x8
 5018 00bb 3A       		.uleb128 0x3a
 5019 00bc 0B       		.uleb128 0xb
 5020 00bd 3B       		.uleb128 0x3b
 5021 00be 05       		.uleb128 0x5
 5022 00bf 49       		.uleb128 0x49
 5023 00c0 13       		.uleb128 0x13
 5024 00c1 1C       		.uleb128 0x1c
 5025 00c2 0B       		.uleb128 0xb
 5026 00c3 00       		.byte	0
 5027 00c4 00       		.byte	0
 5028 00c5 0F       		.uleb128 0xf
 5029 00c6 2E       		.uleb128 0x2e
 5030 00c7 01       		.byte	0x1
 5031 00c8 3F       		.uleb128 0x3f
 5032 00c9 19       		.uleb128 0x19
 5033 00ca 03       		.uleb128 0x3
 5034 00cb 0E       		.uleb128 0xe
 5035 00cc 3A       		.uleb128 0x3a
 5036 00cd 0B       		.uleb128 0xb
 5037 00ce 3B       		.uleb128 0x3b
 5038 00cf 0B       		.uleb128 0xb
 5039 00d0 27       		.uleb128 0x27
ARM GAS  C:\Users\Alex\AppData\Local\Temp\ccjqAdcx.s 			page 108


 5040 00d1 19       		.uleb128 0x19
 5041 00d2 11       		.uleb128 0x11
 5042 00d3 01       		.uleb128 0x1
 5043 00d4 12       		.uleb128 0x12
 5044 00d5 06       		.uleb128 0x6
 5045 00d6 40       		.uleb128 0x40
 5046 00d7 18       		.uleb128 0x18
 5047 00d8 9742     		.uleb128 0x2117
 5048 00da 19       		.uleb128 0x19
 5049 00db 01       		.uleb128 0x1
 5050 00dc 13       		.uleb128 0x13
 5051 00dd 00       		.byte	0
 5052 00de 00       		.byte	0
 5053 00df 10       		.uleb128 0x10
 5054 00e0 05       		.uleb128 0x5
 5055 00e1 00       		.byte	0
 5056 00e2 03       		.uleb128 0x3
 5057 00e3 0E       		.uleb128 0xe
 5058 00e4 3A       		.uleb128 0x3a
 5059 00e5 0B       		.uleb128 0xb
 5060 00e6 3B       		.uleb128 0x3b
 5061 00e7 0B       		.uleb128 0xb
 5062 00e8 49       		.uleb128 0x49
 5063 00e9 13       		.uleb128 0x13
 5064 00ea 02       		.uleb128 0x2
 5065 00eb 17       		.uleb128 0x17
 5066 00ec 00       		.byte	0
 5067 00ed 00       		.byte	0
 5068 00ee 11       		.uleb128 0x11
 5069 00ef 05       		.uleb128 0x5
 5070 00f0 00       		.byte	0
 5071 00f1 03       		.uleb128 0x3
 5072 00f2 08       		.uleb128 0x8
 5073 00f3 3A       		.uleb128 0x3a
 5074 00f4 0B       		.uleb128 0xb
 5075 00f5 3B       		.uleb128 0x3b
 5076 00f6 0B       		.uleb128 0xb
 5077 00f7 49       		.uleb128 0x49
 5078 00f8 13       		.uleb128 0x13
 5079 00f9 02       		.uleb128 0x2
 5080 00fa 17       		.uleb128 0x17
 5081 00fb 00       		.byte	0
 5082 00fc 00       		.byte	0
 5083 00fd 12       		.uleb128 0x12
 5084 00fe 898201   		.uleb128 0x4109
 5085 0101 01       		.byte	0x1
 5086 0102 11       		.uleb128 0x11
 5087 0103 01       		.uleb128 0x1
 5088 0104 31       		.uleb128 0x31
 5089 0105 13       		.uleb128 0x13
 5090 0106 00       		.byte	0
 5091 0107 00       		.byte	0
 5092 0108 13       		.uleb128 0x13
 5093 0109 8A8201   		.uleb128 0x410a
 5094 010c 00       		.byte	0
 5095 010d 02       		.uleb128 0x2
 5096 010e 18       		.uleb128 0x18
ARM GAS  C:\Users\Alex\AppData\Local\Temp\ccjqAdcx.s 			page 109


 5097 010f 9142     		.uleb128 0x2111
 5098 0111 18       		.uleb128 0x18
 5099 0112 00       		.byte	0
 5100 0113 00       		.byte	0
 5101 0114 14       		.uleb128 0x14
 5102 0115 2E       		.uleb128 0x2e
 5103 0116 01       		.byte	0x1
 5104 0117 3F       		.uleb128 0x3f
 5105 0118 19       		.uleb128 0x19
 5106 0119 03       		.uleb128 0x3
 5107 011a 0E       		.uleb128 0xe
 5108 011b 3A       		.uleb128 0x3a
 5109 011c 0B       		.uleb128 0xb
 5110 011d 3B       		.uleb128 0x3b
 5111 011e 0B       		.uleb128 0xb
 5112 011f 27       		.uleb128 0x27
 5113 0120 19       		.uleb128 0x19
 5114 0121 49       		.uleb128 0x49
 5115 0122 13       		.uleb128 0x13
 5116 0123 11       		.uleb128 0x11
 5117 0124 01       		.uleb128 0x1
 5118 0125 12       		.uleb128 0x12
 5119 0126 06       		.uleb128 0x6
 5120 0127 40       		.uleb128 0x40
 5121 0128 18       		.uleb128 0x18
 5122 0129 9742     		.uleb128 0x2117
 5123 012b 19       		.uleb128 0x19
 5124 012c 01       		.uleb128 0x1
 5125 012d 13       		.uleb128 0x13
 5126 012e 00       		.byte	0
 5127 012f 00       		.byte	0
 5128 0130 15       		.uleb128 0x15
 5129 0131 05       		.uleb128 0x5
 5130 0132 00       		.byte	0
 5131 0133 03       		.uleb128 0x3
 5132 0134 08       		.uleb128 0x8
 5133 0135 3A       		.uleb128 0x3a
 5134 0136 0B       		.uleb128 0xb
 5135 0137 3B       		.uleb128 0x3b
 5136 0138 0B       		.uleb128 0xb
 5137 0139 49       		.uleb128 0x49
 5138 013a 13       		.uleb128 0x13
 5139 013b 02       		.uleb128 0x2
 5140 013c 18       		.uleb128 0x18
 5141 013d 00       		.byte	0
 5142 013e 00       		.byte	0
 5143 013f 16       		.uleb128 0x16
 5144 0140 05       		.uleb128 0x5
 5145 0141 00       		.byte	0
 5146 0142 03       		.uleb128 0x3
 5147 0143 0E       		.uleb128 0xe
 5148 0144 3A       		.uleb128 0x3a
 5149 0145 0B       		.uleb128 0xb
 5150 0146 3B       		.uleb128 0x3b
 5151 0147 0B       		.uleb128 0xb
 5152 0148 49       		.uleb128 0x49
 5153 0149 13       		.uleb128 0x13
ARM GAS  C:\Users\Alex\AppData\Local\Temp\ccjqAdcx.s 			page 110


 5154 014a 02       		.uleb128 0x2
 5155 014b 18       		.uleb128 0x18
 5156 014c 00       		.byte	0
 5157 014d 00       		.byte	0
 5158 014e 17       		.uleb128 0x17
 5159 014f 34       		.uleb128 0x34
 5160 0150 00       		.byte	0
 5161 0151 03       		.uleb128 0x3
 5162 0152 08       		.uleb128 0x8
 5163 0153 3A       		.uleb128 0x3a
 5164 0154 0B       		.uleb128 0xb
 5165 0155 3B       		.uleb128 0x3b
 5166 0156 0B       		.uleb128 0xb
 5167 0157 49       		.uleb128 0x49
 5168 0158 13       		.uleb128 0x13
 5169 0159 02       		.uleb128 0x2
 5170 015a 17       		.uleb128 0x17
 5171 015b 00       		.byte	0
 5172 015c 00       		.byte	0
 5173 015d 18       		.uleb128 0x18
 5174 015e 34       		.uleb128 0x34
 5175 015f 00       		.byte	0
 5176 0160 03       		.uleb128 0x3
 5177 0161 0E       		.uleb128 0xe
 5178 0162 3A       		.uleb128 0x3a
 5179 0163 0B       		.uleb128 0xb
 5180 0164 3B       		.uleb128 0x3b
 5181 0165 0B       		.uleb128 0xb
 5182 0166 49       		.uleb128 0x49
 5183 0167 13       		.uleb128 0x13
 5184 0168 02       		.uleb128 0x2
 5185 0169 17       		.uleb128 0x17
 5186 016a 00       		.byte	0
 5187 016b 00       		.byte	0
 5188 016c 19       		.uleb128 0x19
 5189 016d 34       		.uleb128 0x34
 5190 016e 00       		.byte	0
 5191 016f 03       		.uleb128 0x3
 5192 0170 0E       		.uleb128 0xe
 5193 0171 3A       		.uleb128 0x3a
 5194 0172 0B       		.uleb128 0xb
 5195 0173 3B       		.uleb128 0x3b
 5196 0174 0B       		.uleb128 0xb
 5197 0175 49       		.uleb128 0x49
 5198 0176 13       		.uleb128 0x13
 5199 0177 1C       		.uleb128 0x1c
 5200 0178 0B       		.uleb128 0xb
 5201 0179 00       		.byte	0
 5202 017a 00       		.byte	0
 5203 017b 1A       		.uleb128 0x1a
 5204 017c 898201   		.uleb128 0x4109
 5205 017f 01       		.byte	0x1
 5206 0180 11       		.uleb128 0x11
 5207 0181 01       		.uleb128 0x1
 5208 0182 31       		.uleb128 0x31
 5209 0183 13       		.uleb128 0x13
 5210 0184 01       		.uleb128 0x1
ARM GAS  C:\Users\Alex\AppData\Local\Temp\ccjqAdcx.s 			page 111


 5211 0185 13       		.uleb128 0x13
 5212 0186 00       		.byte	0
 5213 0187 00       		.byte	0
 5214 0188 1B       		.uleb128 0x1b
 5215 0189 34       		.uleb128 0x34
 5216 018a 00       		.byte	0
 5217 018b 03       		.uleb128 0x3
 5218 018c 0E       		.uleb128 0xe
 5219 018d 3A       		.uleb128 0x3a
 5220 018e 0B       		.uleb128 0xb
 5221 018f 3B       		.uleb128 0x3b
 5222 0190 0B       		.uleb128 0xb
 5223 0191 49       		.uleb128 0x49
 5224 0192 13       		.uleb128 0x13
 5225 0193 3F       		.uleb128 0x3f
 5226 0194 19       		.uleb128 0x19
 5227 0195 3C       		.uleb128 0x3c
 5228 0196 19       		.uleb128 0x19
 5229 0197 00       		.byte	0
 5230 0198 00       		.byte	0
 5231 0199 1C       		.uleb128 0x1c
 5232 019a 21       		.uleb128 0x21
 5233 019b 00       		.byte	0
 5234 019c 49       		.uleb128 0x49
 5235 019d 13       		.uleb128 0x13
 5236 019e 00       		.byte	0
 5237 019f 00       		.byte	0
 5238 01a0 1D       		.uleb128 0x1d
 5239 01a1 34       		.uleb128 0x34
 5240 01a2 00       		.byte	0
 5241 01a3 03       		.uleb128 0x3
 5242 01a4 0E       		.uleb128 0xe
 5243 01a5 3A       		.uleb128 0x3a
 5244 01a6 0B       		.uleb128 0xb
 5245 01a7 3B       		.uleb128 0x3b
 5246 01a8 0B       		.uleb128 0xb
 5247 01a9 49       		.uleb128 0x49
 5248 01aa 13       		.uleb128 0x13
 5249 01ab 3F       		.uleb128 0x3f
 5250 01ac 19       		.uleb128 0x19
 5251 01ad 02       		.uleb128 0x2
 5252 01ae 18       		.uleb128 0x18
 5253 01af 00       		.byte	0
 5254 01b0 00       		.byte	0
 5255 01b1 1E       		.uleb128 0x1e
 5256 01b2 2E       		.uleb128 0x2e
 5257 01b3 01       		.byte	0x1
 5258 01b4 3F       		.uleb128 0x3f
 5259 01b5 19       		.uleb128 0x19
 5260 01b6 03       		.uleb128 0x3
 5261 01b7 0E       		.uleb128 0xe
 5262 01b8 3A       		.uleb128 0x3a
 5263 01b9 0B       		.uleb128 0xb
 5264 01ba 3B       		.uleb128 0x3b
 5265 01bb 0B       		.uleb128 0xb
 5266 01bc 27       		.uleb128 0x27
 5267 01bd 19       		.uleb128 0x19
ARM GAS  C:\Users\Alex\AppData\Local\Temp\ccjqAdcx.s 			page 112


 5268 01be 3C       		.uleb128 0x3c
 5269 01bf 19       		.uleb128 0x19
 5270 01c0 01       		.uleb128 0x1
 5271 01c1 13       		.uleb128 0x13
 5272 01c2 00       		.byte	0
 5273 01c3 00       		.byte	0
 5274 01c4 1F       		.uleb128 0x1f
 5275 01c5 05       		.uleb128 0x5
 5276 01c6 00       		.byte	0
 5277 01c7 49       		.uleb128 0x49
 5278 01c8 13       		.uleb128 0x13
 5279 01c9 00       		.byte	0
 5280 01ca 00       		.byte	0
 5281 01cb 20       		.uleb128 0x20
 5282 01cc 2E       		.uleb128 0x2e
 5283 01cd 01       		.byte	0x1
 5284 01ce 3F       		.uleb128 0x3f
 5285 01cf 19       		.uleb128 0x19
 5286 01d0 03       		.uleb128 0x3
 5287 01d1 0E       		.uleb128 0xe
 5288 01d2 3A       		.uleb128 0x3a
 5289 01d3 0B       		.uleb128 0xb
 5290 01d4 3B       		.uleb128 0x3b
 5291 01d5 0B       		.uleb128 0xb
 5292 01d6 27       		.uleb128 0x27
 5293 01d7 19       		.uleb128 0x19
 5294 01d8 3C       		.uleb128 0x3c
 5295 01d9 19       		.uleb128 0x19
 5296 01da 00       		.byte	0
 5297 01db 00       		.byte	0
 5298 01dc 00       		.byte	0
 5299              		.section	.debug_loc,"",%progbits
 5300              	.Ldebug_loc0:
 5301              	.LLST0:
 5302 0000 00000000 		.4byte	.LVL0
 5303 0004 14000000 		.4byte	.LVL2
 5304 0008 0100     		.2byte	0x1
 5305 000a 50       		.byte	0x50
 5306 000b 14000000 		.4byte	.LVL2
 5307 000f 16000000 		.4byte	.LVL3
 5308 0013 0400     		.2byte	0x4
 5309 0015 F3       		.byte	0xf3
 5310 0016 01       		.uleb128 0x1
 5311 0017 50       		.byte	0x50
 5312 0018 9F       		.byte	0x9f
 5313 0019 16000000 		.4byte	.LVL3
 5314 001d 18000000 		.4byte	.LVL4
 5315 0021 0100     		.2byte	0x1
 5316 0023 50       		.byte	0x50
 5317 0024 18000000 		.4byte	.LVL4
 5318 0028 1A000000 		.4byte	.LVL5
 5319 002c 0400     		.2byte	0x4
 5320 002e F3       		.byte	0xf3
 5321 002f 01       		.uleb128 0x1
 5322 0030 50       		.byte	0x50
 5323 0031 9F       		.byte	0x9f
 5324 0032 1A000000 		.4byte	.LVL5
ARM GAS  C:\Users\Alex\AppData\Local\Temp\ccjqAdcx.s 			page 113


 5325 0036 1C000000 		.4byte	.LVL6
 5326 003a 0100     		.2byte	0x1
 5327 003c 50       		.byte	0x50
 5328 003d 1C000000 		.4byte	.LVL6
 5329 0041 28000000 		.4byte	.LFE5
 5330 0045 0400     		.2byte	0x4
 5331 0047 F3       		.byte	0xf3
 5332 0048 01       		.uleb128 0x1
 5333 0049 50       		.byte	0x50
 5334 004a 9F       		.byte	0x9f
 5335 004b 00000000 		.4byte	0
 5336 004f 00000000 		.4byte	0
 5337              	.LLST1:
 5338 0053 00000000 		.4byte	.LVL7
 5339 0057 0A000000 		.4byte	.LVL8
 5340 005b 0100     		.2byte	0x1
 5341 005d 50       		.byte	0x50
 5342 005e 0A000000 		.4byte	.LVL8
 5343 0062 18000000 		.4byte	.LFE0
 5344 0066 0400     		.2byte	0x4
 5345 0068 F3       		.byte	0xf3
 5346 0069 01       		.uleb128 0x1
 5347 006a 50       		.byte	0x50
 5348 006b 9F       		.byte	0x9f
 5349 006c 00000000 		.4byte	0
 5350 0070 00000000 		.4byte	0
 5351              	.LLST2:
 5352 0074 00000000 		.4byte	.LVL7
 5353 0078 0C000000 		.4byte	.LVL9
 5354 007c 0100     		.2byte	0x1
 5355 007e 51       		.byte	0x51
 5356 007f 0C000000 		.4byte	.LVL9
 5357 0083 18000000 		.4byte	.LFE0
 5358 0087 0400     		.2byte	0x4
 5359 0089 F3       		.byte	0xf3
 5360 008a 01       		.uleb128 0x1
 5361 008b 51       		.byte	0x51
 5362 008c 9F       		.byte	0x9f
 5363 008d 00000000 		.4byte	0
 5364 0091 00000000 		.4byte	0
 5365              	.LLST3:
 5366 0095 00000000 		.4byte	.LVL7
 5367 0099 0E000000 		.4byte	.LVL10
 5368 009d 0100     		.2byte	0x1
 5369 009f 52       		.byte	0x52
 5370 00a0 0E000000 		.4byte	.LVL10
 5371 00a4 11000000 		.4byte	.LVL11-1
 5372 00a8 0100     		.2byte	0x1
 5373 00aa 50       		.byte	0x50
 5374 00ab 11000000 		.4byte	.LVL11-1
 5375 00af 18000000 		.4byte	.LFE0
 5376 00b3 0100     		.2byte	0x1
 5377 00b5 54       		.byte	0x54
 5378 00b6 00000000 		.4byte	0
 5379 00ba 00000000 		.4byte	0
 5380              	.LLST4:
 5381 00be 00000000 		.4byte	.LVL7
ARM GAS  C:\Users\Alex\AppData\Local\Temp\ccjqAdcx.s 			page 114


 5382 00c2 11000000 		.4byte	.LVL11-1
 5383 00c6 0100     		.2byte	0x1
 5384 00c8 53       		.byte	0x53
 5385 00c9 11000000 		.4byte	.LVL11-1
 5386 00cd 18000000 		.4byte	.LFE0
 5387 00d1 0400     		.2byte	0x4
 5388 00d3 F3       		.byte	0xf3
 5389 00d4 01       		.uleb128 0x1
 5390 00d5 53       		.byte	0x53
 5391 00d6 9F       		.byte	0x9f
 5392 00d7 00000000 		.4byte	0
 5393 00db 00000000 		.4byte	0
 5394              	.LLST5:
 5395 00df 00000000 		.4byte	.LVL12
 5396 00e3 06000000 		.4byte	.LVL14
 5397 00e7 0100     		.2byte	0x1
 5398 00e9 50       		.byte	0x50
 5399 00ea 06000000 		.4byte	.LVL14
 5400 00ee 1A000000 		.4byte	.LVL18
 5401 00f2 0100     		.2byte	0x1
 5402 00f4 56       		.byte	0x56
 5403 00f5 1A000000 		.4byte	.LVL18
 5404 00f9 1C000000 		.4byte	.LFE1
 5405 00fd 0400     		.2byte	0x4
 5406 00ff F3       		.byte	0xf3
 5407 0100 01       		.uleb128 0x1
 5408 0101 50       		.byte	0x50
 5409 0102 9F       		.byte	0x9f
 5410 0103 00000000 		.4byte	0
 5411 0107 00000000 		.4byte	0
 5412              	.LLST6:
 5413 010b 04000000 		.4byte	.LVL13
 5414 010f 0A000000 		.4byte	.LVL15
 5415 0113 0100     		.2byte	0x1
 5416 0115 51       		.byte	0x51
 5417 0116 0A000000 		.4byte	.LVL15
 5418 011a 1C000000 		.4byte	.LFE1
 5419 011e 0100     		.2byte	0x1
 5420 0120 50       		.byte	0x50
 5421 0121 00000000 		.4byte	0
 5422 0125 00000000 		.4byte	0
 5423              	.LLST7:
 5424 0129 04000000 		.4byte	.LVL13
 5425 012d 0A000000 		.4byte	.LVL15
 5426 0131 0200     		.2byte	0x2
 5427 0133 30       		.byte	0x30
 5428 0134 9F       		.byte	0x9f
 5429 0135 0A000000 		.4byte	.LVL15
 5430 0139 12000000 		.4byte	.LVL17
 5431 013d 0300     		.2byte	0x3
 5432 013f 74       		.byte	0x74
 5433 0140 01       		.sleb128 1
 5434 0141 9F       		.byte	0x9f
 5435 0142 12000000 		.4byte	.LVL17
 5436 0146 1A000000 		.4byte	.LVL18
 5437 014a 0100     		.2byte	0x1
 5438 014c 54       		.byte	0x54
ARM GAS  C:\Users\Alex\AppData\Local\Temp\ccjqAdcx.s 			page 115


 5439 014d 00000000 		.4byte	0
 5440 0151 00000000 		.4byte	0
 5441              	.LLST8:
 5442 0155 00000000 		.4byte	.LVL19
 5443 0159 0A000000 		.4byte	.LVL20
 5444 015d 0100     		.2byte	0x1
 5445 015f 50       		.byte	0x50
 5446 0160 0A000000 		.4byte	.LVL20
 5447 0164 0C000000 		.4byte	.LVL21
 5448 0168 0400     		.2byte	0x4
 5449 016a F3       		.byte	0xf3
 5450 016b 01       		.uleb128 0x1
 5451 016c 50       		.byte	0x50
 5452 016d 9F       		.byte	0x9f
 5453 016e 0C000000 		.4byte	.LVL21
 5454 0172 0E000000 		.4byte	.LVL22
 5455 0176 0100     		.2byte	0x1
 5456 0178 50       		.byte	0x50
 5457 0179 0E000000 		.4byte	.LVL22
 5458 017d 10000000 		.4byte	.LFE2
 5459 0181 0400     		.2byte	0x4
 5460 0183 F3       		.byte	0xf3
 5461 0184 01       		.uleb128 0x1
 5462 0185 50       		.byte	0x50
 5463 0186 9F       		.byte	0x9f
 5464 0187 00000000 		.4byte	0
 5465 018b 00000000 		.4byte	0
 5466              	.LLST9:
 5467 018f 00000000 		.4byte	.LVL23
 5468 0193 0B000000 		.4byte	.LVL27-1
 5469 0197 0100     		.2byte	0x1
 5470 0199 50       		.byte	0x50
 5471 019a 0B000000 		.4byte	.LVL27-1
 5472 019e 3C060000 		.4byte	.LFE3
 5473 01a2 0100     		.2byte	0x1
 5474 01a4 55       		.byte	0x55
 5475 01a5 00000000 		.4byte	0
 5476 01a9 00000000 		.4byte	0
 5477              	.LLST10:
 5478 01ad 04000000 		.4byte	.LVL24
 5479 01b1 06000000 		.4byte	.LVL25
 5480 01b5 0200     		.2byte	0x2
 5481 01b7 30       		.byte	0x30
 5482 01b8 9F       		.byte	0x9f
 5483 01b9 06000000 		.4byte	.LVL25
 5484 01bd 0B000000 		.4byte	.LVL27-1
 5485 01c1 0100     		.2byte	0x1
 5486 01c3 53       		.byte	0x53
 5487 01c4 00000000 		.4byte	0
 5488 01c8 00000000 		.4byte	0
 5489              	.LLST11:
 5490 01cc 04000000 		.4byte	.LVL24
 5491 01d0 08000000 		.4byte	.LVL26
 5492 01d4 0200     		.2byte	0x2
 5493 01d6 30       		.byte	0x30
 5494 01d7 9F       		.byte	0x9f
 5495 01d8 08000000 		.4byte	.LVL26
ARM GAS  C:\Users\Alex\AppData\Local\Temp\ccjqAdcx.s 			page 116


 5496 01dc 3C060000 		.4byte	.LFE3
 5497 01e0 0100     		.2byte	0x1
 5498 01e2 54       		.byte	0x54
 5499 01e3 00000000 		.4byte	0
 5500 01e7 00000000 		.4byte	0
 5501              	.LLST12:
 5502 01eb 04000000 		.4byte	.LVL24
 5503 01ef 1E060000 		.4byte	.LVL412
 5504 01f3 0200     		.2byte	0x2
 5505 01f5 32       		.byte	0x32
 5506 01f6 9F       		.byte	0x9f
 5507 01f7 1E060000 		.4byte	.LVL412
 5508 01fb 20060000 		.4byte	.LVL413
 5509 01ff 0100     		.2byte	0x1
 5510 0201 50       		.byte	0x50
 5511 0202 20060000 		.4byte	.LVL413
 5512 0206 3C060000 		.4byte	.LFE3
 5513 020a 0200     		.2byte	0x2
 5514 020c 32       		.byte	0x32
 5515 020d 9F       		.byte	0x9f
 5516 020e 00000000 		.4byte	0
 5517 0212 00000000 		.4byte	0
 5518              	.LLST13:
 5519 0216 04000000 		.4byte	.LVL24
 5520 021a 0C000000 		.4byte	.LVL27
 5521 021e 0200     		.2byte	0x2
 5522 0220 30       		.byte	0x30
 5523 0221 9F       		.byte	0x9f
 5524 0222 0C000000 		.4byte	.LVL27
 5525 0226 1E010000 		.4byte	.LVL28
 5526 022a 0100     		.2byte	0x1
 5527 022c 50       		.byte	0x50
 5528 022d 26010000 		.4byte	.LVL30
 5529 0231 28010000 		.4byte	.LVL31
 5530 0235 0100     		.2byte	0x1
 5531 0237 50       		.byte	0x50
 5532 0238 30010000 		.4byte	.LVL33
 5533 023c 32010000 		.4byte	.LVL34
 5534 0240 0100     		.2byte	0x1
 5535 0242 50       		.byte	0x50
 5536 0243 3A010000 		.4byte	.LVL36
 5537 0247 3C010000 		.4byte	.LVL37
 5538 024b 0100     		.2byte	0x1
 5539 024d 50       		.byte	0x50
 5540 024e 44010000 		.4byte	.LVL39
 5541 0252 46010000 		.4byte	.LVL40
 5542 0256 0100     		.2byte	0x1
 5543 0258 50       		.byte	0x50
 5544 0259 4E010000 		.4byte	.LVL42
 5545 025d 50010000 		.4byte	.LVL43
 5546 0261 0100     		.2byte	0x1
 5547 0263 50       		.byte	0x50
 5548 0264 58010000 		.4byte	.LVL45
 5549 0268 5A010000 		.4byte	.LVL46
 5550 026c 0100     		.2byte	0x1
 5551 026e 50       		.byte	0x50
 5552 026f 62010000 		.4byte	.LVL48
ARM GAS  C:\Users\Alex\AppData\Local\Temp\ccjqAdcx.s 			page 117


 5553 0273 64010000 		.4byte	.LVL49
 5554 0277 0100     		.2byte	0x1
 5555 0279 50       		.byte	0x50
 5556 027a 6C010000 		.4byte	.LVL51
 5557 027e 6E010000 		.4byte	.LVL52
 5558 0282 0100     		.2byte	0x1
 5559 0284 50       		.byte	0x50
 5560 0285 76010000 		.4byte	.LVL54
 5561 0289 78010000 		.4byte	.LVL55
 5562 028d 0100     		.2byte	0x1
 5563 028f 50       		.byte	0x50
 5564 0290 80010000 		.4byte	.LVL57
 5565 0294 82010000 		.4byte	.LVL58
 5566 0298 0100     		.2byte	0x1
 5567 029a 50       		.byte	0x50
 5568 029b 8A010000 		.4byte	.LVL60
 5569 029f 8C010000 		.4byte	.LVL61
 5570 02a3 0100     		.2byte	0x1
 5571 02a5 50       		.byte	0x50
 5572 02a6 94010000 		.4byte	.LVL63
 5573 02aa 96010000 		.4byte	.LVL64
 5574 02ae 0100     		.2byte	0x1
 5575 02b0 50       		.byte	0x50
 5576 02b1 9E010000 		.4byte	.LVL66
 5577 02b5 A0010000 		.4byte	.LVL67
 5578 02b9 0100     		.2byte	0x1
 5579 02bb 50       		.byte	0x50
 5580 02bc A8010000 		.4byte	.LVL69
 5581 02c0 AA010000 		.4byte	.LVL70
 5582 02c4 0100     		.2byte	0x1
 5583 02c6 50       		.byte	0x50
 5584 02c7 B2010000 		.4byte	.LVL72
 5585 02cb B4010000 		.4byte	.LVL73
 5586 02cf 0100     		.2byte	0x1
 5587 02d1 50       		.byte	0x50
 5588 02d2 BC010000 		.4byte	.LVL75
 5589 02d6 BE010000 		.4byte	.LVL76
 5590 02da 0100     		.2byte	0x1
 5591 02dc 50       		.byte	0x50
 5592 02dd C6010000 		.4byte	.LVL78
 5593 02e1 C8010000 		.4byte	.LVL79
 5594 02e5 0100     		.2byte	0x1
 5595 02e7 50       		.byte	0x50
 5596 02e8 D0010000 		.4byte	.LVL81
 5597 02ec D2010000 		.4byte	.LVL82
 5598 02f0 0100     		.2byte	0x1
 5599 02f2 50       		.byte	0x50
 5600 02f3 DA010000 		.4byte	.LVL84
 5601 02f7 DC010000 		.4byte	.LVL85
 5602 02fb 0100     		.2byte	0x1
 5603 02fd 50       		.byte	0x50
 5604 02fe E4010000 		.4byte	.LVL87
 5605 0302 E6010000 		.4byte	.LVL88
 5606 0306 0100     		.2byte	0x1
 5607 0308 50       		.byte	0x50
 5608 0309 EE010000 		.4byte	.LVL90
 5609 030d F0010000 		.4byte	.LVL91
ARM GAS  C:\Users\Alex\AppData\Local\Temp\ccjqAdcx.s 			page 118


 5610 0311 0100     		.2byte	0x1
 5611 0313 50       		.byte	0x50
 5612 0314 F8010000 		.4byte	.LVL93
 5613 0318 FA010000 		.4byte	.LVL94
 5614 031c 0100     		.2byte	0x1
 5615 031e 50       		.byte	0x50
 5616 031f 02020000 		.4byte	.LVL96
 5617 0323 04020000 		.4byte	.LVL97
 5618 0327 0100     		.2byte	0x1
 5619 0329 50       		.byte	0x50
 5620 032a 0C020000 		.4byte	.LVL99
 5621 032e 0E020000 		.4byte	.LVL100
 5622 0332 0100     		.2byte	0x1
 5623 0334 50       		.byte	0x50
 5624 0335 16020000 		.4byte	.LVL102
 5625 0339 18020000 		.4byte	.LVL103
 5626 033d 0100     		.2byte	0x1
 5627 033f 50       		.byte	0x50
 5628 0340 20020000 		.4byte	.LVL105
 5629 0344 22020000 		.4byte	.LVL106
 5630 0348 0100     		.2byte	0x1
 5631 034a 50       		.byte	0x50
 5632 034b 2A020000 		.4byte	.LVL108
 5633 034f 2C020000 		.4byte	.LVL109
 5634 0353 0100     		.2byte	0x1
 5635 0355 50       		.byte	0x50
 5636 0356 34020000 		.4byte	.LVL111
 5637 035a 36020000 		.4byte	.LVL112
 5638 035e 0100     		.2byte	0x1
 5639 0360 50       		.byte	0x50
 5640 0361 3E020000 		.4byte	.LVL114
 5641 0365 40020000 		.4byte	.LVL115
 5642 0369 0100     		.2byte	0x1
 5643 036b 50       		.byte	0x50
 5644 036c 48020000 		.4byte	.LVL117
 5645 0370 4A020000 		.4byte	.LVL118
 5646 0374 0100     		.2byte	0x1
 5647 0376 50       		.byte	0x50
 5648 0377 52020000 		.4byte	.LVL120
 5649 037b 54020000 		.4byte	.LVL121
 5650 037f 0100     		.2byte	0x1
 5651 0381 50       		.byte	0x50
 5652 0382 5C020000 		.4byte	.LVL123
 5653 0386 5E020000 		.4byte	.LVL124
 5654 038a 0100     		.2byte	0x1
 5655 038c 50       		.byte	0x50
 5656 038d 66020000 		.4byte	.LVL126
 5657 0391 68020000 		.4byte	.LVL127
 5658 0395 0100     		.2byte	0x1
 5659 0397 50       		.byte	0x50
 5660 0398 70020000 		.4byte	.LVL129
 5661 039c 72020000 		.4byte	.LVL130
 5662 03a0 0100     		.2byte	0x1
 5663 03a2 50       		.byte	0x50
 5664 03a3 7A020000 		.4byte	.LVL132
 5665 03a7 7C020000 		.4byte	.LVL133
 5666 03ab 0100     		.2byte	0x1
ARM GAS  C:\Users\Alex\AppData\Local\Temp\ccjqAdcx.s 			page 119


 5667 03ad 50       		.byte	0x50
 5668 03ae 84020000 		.4byte	.LVL135
 5669 03b2 86020000 		.4byte	.LVL136
 5670 03b6 0100     		.2byte	0x1
 5671 03b8 50       		.byte	0x50
 5672 03b9 8E020000 		.4byte	.LVL138
 5673 03bd 90020000 		.4byte	.LVL139
 5674 03c1 0100     		.2byte	0x1
 5675 03c3 50       		.byte	0x50
 5676 03c4 98020000 		.4byte	.LVL141
 5677 03c8 9A020000 		.4byte	.LVL142
 5678 03cc 0100     		.2byte	0x1
 5679 03ce 50       		.byte	0x50
 5680 03cf A2020000 		.4byte	.LVL144
 5681 03d3 A4020000 		.4byte	.LVL145
 5682 03d7 0100     		.2byte	0x1
 5683 03d9 50       		.byte	0x50
 5684 03da AC020000 		.4byte	.LVL147
 5685 03de AE020000 		.4byte	.LVL148
 5686 03e2 0100     		.2byte	0x1
 5687 03e4 50       		.byte	0x50
 5688 03e5 B6020000 		.4byte	.LVL150
 5689 03e9 B8020000 		.4byte	.LVL151
 5690 03ed 0100     		.2byte	0x1
 5691 03ef 50       		.byte	0x50
 5692 03f0 C0020000 		.4byte	.LVL153
 5693 03f4 C2020000 		.4byte	.LVL154
 5694 03f8 0100     		.2byte	0x1
 5695 03fa 50       		.byte	0x50
 5696 03fb CA020000 		.4byte	.LVL156
 5697 03ff CC020000 		.4byte	.LVL157
 5698 0403 0100     		.2byte	0x1
 5699 0405 50       		.byte	0x50
 5700 0406 D4020000 		.4byte	.LVL159
 5701 040a D6020000 		.4byte	.LVL160
 5702 040e 0100     		.2byte	0x1
 5703 0410 50       		.byte	0x50
 5704 0411 DE020000 		.4byte	.LVL162
 5705 0415 E0020000 		.4byte	.LVL163
 5706 0419 0100     		.2byte	0x1
 5707 041b 50       		.byte	0x50
 5708 041c E8020000 		.4byte	.LVL165
 5709 0420 EA020000 		.4byte	.LVL166
 5710 0424 0100     		.2byte	0x1
 5711 0426 50       		.byte	0x50
 5712 0427 F2020000 		.4byte	.LVL168
 5713 042b F4020000 		.4byte	.LVL169
 5714 042f 0100     		.2byte	0x1
 5715 0431 50       		.byte	0x50
 5716 0432 FC020000 		.4byte	.LVL171
 5717 0436 FE020000 		.4byte	.LVL172
 5718 043a 0100     		.2byte	0x1
 5719 043c 50       		.byte	0x50
 5720 043d 06030000 		.4byte	.LVL174
 5721 0441 08030000 		.4byte	.LVL175
 5722 0445 0100     		.2byte	0x1
 5723 0447 50       		.byte	0x50
ARM GAS  C:\Users\Alex\AppData\Local\Temp\ccjqAdcx.s 			page 120


 5724 0448 10030000 		.4byte	.LVL177
 5725 044c 12030000 		.4byte	.LVL178
 5726 0450 0100     		.2byte	0x1
 5727 0452 50       		.byte	0x50
 5728 0453 1A030000 		.4byte	.LVL180
 5729 0457 1C030000 		.4byte	.LVL181
 5730 045b 0100     		.2byte	0x1
 5731 045d 50       		.byte	0x50
 5732 045e 24030000 		.4byte	.LVL183
 5733 0462 26030000 		.4byte	.LVL184
 5734 0466 0100     		.2byte	0x1
 5735 0468 50       		.byte	0x50
 5736 0469 2E030000 		.4byte	.LVL186
 5737 046d 30030000 		.4byte	.LVL187
 5738 0471 0100     		.2byte	0x1
 5739 0473 50       		.byte	0x50
 5740 0474 38030000 		.4byte	.LVL189
 5741 0478 3A030000 		.4byte	.LVL190
 5742 047c 0100     		.2byte	0x1
 5743 047e 50       		.byte	0x50
 5744 047f 42030000 		.4byte	.LVL192
 5745 0483 44030000 		.4byte	.LVL193
 5746 0487 0100     		.2byte	0x1
 5747 0489 50       		.byte	0x50
 5748 048a 4C030000 		.4byte	.LVL195
 5749 048e 4E030000 		.4byte	.LVL196
 5750 0492 0100     		.2byte	0x1
 5751 0494 50       		.byte	0x50
 5752 0495 56030000 		.4byte	.LVL198
 5753 0499 58030000 		.4byte	.LVL199
 5754 049d 0100     		.2byte	0x1
 5755 049f 50       		.byte	0x50
 5756 04a0 60030000 		.4byte	.LVL201
 5757 04a4 62030000 		.4byte	.LVL202
 5758 04a8 0100     		.2byte	0x1
 5759 04aa 50       		.byte	0x50
 5760 04ab 6A030000 		.4byte	.LVL204
 5761 04af 6C030000 		.4byte	.LVL205
 5762 04b3 0100     		.2byte	0x1
 5763 04b5 50       		.byte	0x50
 5764 04b6 74030000 		.4byte	.LVL207
 5765 04ba 76030000 		.4byte	.LVL208
 5766 04be 0100     		.2byte	0x1
 5767 04c0 50       		.byte	0x50
 5768 04c1 7E030000 		.4byte	.LVL210
 5769 04c5 80030000 		.4byte	.LVL211
 5770 04c9 0100     		.2byte	0x1
 5771 04cb 50       		.byte	0x50
 5772 04cc 88030000 		.4byte	.LVL213
 5773 04d0 8A030000 		.4byte	.LVL214
 5774 04d4 0100     		.2byte	0x1
 5775 04d6 50       		.byte	0x50
 5776 04d7 92030000 		.4byte	.LVL216
 5777 04db 94030000 		.4byte	.LVL217
 5778 04df 0100     		.2byte	0x1
 5779 04e1 50       		.byte	0x50
 5780 04e2 9C030000 		.4byte	.LVL219
ARM GAS  C:\Users\Alex\AppData\Local\Temp\ccjqAdcx.s 			page 121


 5781 04e6 9E030000 		.4byte	.LVL220
 5782 04ea 0100     		.2byte	0x1
 5783 04ec 50       		.byte	0x50
 5784 04ed A6030000 		.4byte	.LVL222
 5785 04f1 A8030000 		.4byte	.LVL223
 5786 04f5 0100     		.2byte	0x1
 5787 04f7 50       		.byte	0x50
 5788 04f8 B0030000 		.4byte	.LVL225
 5789 04fc B2030000 		.4byte	.LVL226
 5790 0500 0100     		.2byte	0x1
 5791 0502 50       		.byte	0x50
 5792 0503 BA030000 		.4byte	.LVL228
 5793 0507 BC030000 		.4byte	.LVL229
 5794 050b 0100     		.2byte	0x1
 5795 050d 50       		.byte	0x50
 5796 050e C4030000 		.4byte	.LVL231
 5797 0512 C6030000 		.4byte	.LVL232
 5798 0516 0100     		.2byte	0x1
 5799 0518 50       		.byte	0x50
 5800 0519 CE030000 		.4byte	.LVL234
 5801 051d D0030000 		.4byte	.LVL235
 5802 0521 0100     		.2byte	0x1
 5803 0523 50       		.byte	0x50
 5804 0524 D8030000 		.4byte	.LVL237
 5805 0528 DA030000 		.4byte	.LVL238
 5806 052c 0100     		.2byte	0x1
 5807 052e 50       		.byte	0x50
 5808 052f E2030000 		.4byte	.LVL240
 5809 0533 E4030000 		.4byte	.LVL241
 5810 0537 0100     		.2byte	0x1
 5811 0539 50       		.byte	0x50
 5812 053a EC030000 		.4byte	.LVL243
 5813 053e EE030000 		.4byte	.LVL244
 5814 0542 0100     		.2byte	0x1
 5815 0544 50       		.byte	0x50
 5816 0545 F6030000 		.4byte	.LVL246
 5817 0549 F8030000 		.4byte	.LVL247
 5818 054d 0100     		.2byte	0x1
 5819 054f 50       		.byte	0x50
 5820 0550 00040000 		.4byte	.LVL249
 5821 0554 02040000 		.4byte	.LVL250
 5822 0558 0100     		.2byte	0x1
 5823 055a 50       		.byte	0x50
 5824 055b 0A040000 		.4byte	.LVL252
 5825 055f 0C040000 		.4byte	.LVL253
 5826 0563 0100     		.2byte	0x1
 5827 0565 50       		.byte	0x50
 5828 0566 14040000 		.4byte	.LVL255
 5829 056a 16040000 		.4byte	.LVL256
 5830 056e 0100     		.2byte	0x1
 5831 0570 50       		.byte	0x50
 5832 0571 1E040000 		.4byte	.LVL258
 5833 0575 20040000 		.4byte	.LVL259
 5834 0579 0100     		.2byte	0x1
 5835 057b 50       		.byte	0x50
 5836 057c 28040000 		.4byte	.LVL261
 5837 0580 2A040000 		.4byte	.LVL262
ARM GAS  C:\Users\Alex\AppData\Local\Temp\ccjqAdcx.s 			page 122


 5838 0584 0100     		.2byte	0x1
 5839 0586 50       		.byte	0x50
 5840 0587 32040000 		.4byte	.LVL264
 5841 058b 34040000 		.4byte	.LVL265
 5842 058f 0100     		.2byte	0x1
 5843 0591 50       		.byte	0x50
 5844 0592 3C040000 		.4byte	.LVL267
 5845 0596 3E040000 		.4byte	.LVL268
 5846 059a 0100     		.2byte	0x1
 5847 059c 50       		.byte	0x50
 5848 059d 46040000 		.4byte	.LVL270
 5849 05a1 48040000 		.4byte	.LVL271
 5850 05a5 0100     		.2byte	0x1
 5851 05a7 50       		.byte	0x50
 5852 05a8 50040000 		.4byte	.LVL273
 5853 05ac 52040000 		.4byte	.LVL274
 5854 05b0 0100     		.2byte	0x1
 5855 05b2 50       		.byte	0x50
 5856 05b3 5A040000 		.4byte	.LVL276
 5857 05b7 5C040000 		.4byte	.LVL277
 5858 05bb 0100     		.2byte	0x1
 5859 05bd 50       		.byte	0x50
 5860 05be 64040000 		.4byte	.LVL279
 5861 05c2 66040000 		.4byte	.LVL280
 5862 05c6 0100     		.2byte	0x1
 5863 05c8 50       		.byte	0x50
 5864 05c9 6E040000 		.4byte	.LVL282
 5865 05cd 70040000 		.4byte	.LVL283
 5866 05d1 0100     		.2byte	0x1
 5867 05d3 50       		.byte	0x50
 5868 05d4 78040000 		.4byte	.LVL285
 5869 05d8 7A040000 		.4byte	.LVL286
 5870 05dc 0100     		.2byte	0x1
 5871 05de 50       		.byte	0x50
 5872 05df 82040000 		.4byte	.LVL288
 5873 05e3 84040000 		.4byte	.LVL289
 5874 05e7 0100     		.2byte	0x1
 5875 05e9 50       		.byte	0x50
 5876 05ea 8C040000 		.4byte	.LVL291
 5877 05ee 8E040000 		.4byte	.LVL292
 5878 05f2 0100     		.2byte	0x1
 5879 05f4 50       		.byte	0x50
 5880 05f5 96040000 		.4byte	.LVL294
 5881 05f9 98040000 		.4byte	.LVL295
 5882 05fd 0100     		.2byte	0x1
 5883 05ff 50       		.byte	0x50
 5884 0600 A0040000 		.4byte	.LVL297
 5885 0604 A2040000 		.4byte	.LVL298
 5886 0608 0100     		.2byte	0x1
 5887 060a 50       		.byte	0x50
 5888 060b AA040000 		.4byte	.LVL300
 5889 060f AC040000 		.4byte	.LVL301
 5890 0613 0100     		.2byte	0x1
 5891 0615 50       		.byte	0x50
 5892 0616 B4040000 		.4byte	.LVL303
 5893 061a B6040000 		.4byte	.LVL304
 5894 061e 0100     		.2byte	0x1
ARM GAS  C:\Users\Alex\AppData\Local\Temp\ccjqAdcx.s 			page 123


 5895 0620 50       		.byte	0x50
 5896 0621 BE040000 		.4byte	.LVL306
 5897 0625 C0040000 		.4byte	.LVL307
 5898 0629 0100     		.2byte	0x1
 5899 062b 50       		.byte	0x50
 5900 062c C8040000 		.4byte	.LVL309
 5901 0630 CA040000 		.4byte	.LVL310
 5902 0634 0100     		.2byte	0x1
 5903 0636 50       		.byte	0x50
 5904 0637 D2040000 		.4byte	.LVL312
 5905 063b D4040000 		.4byte	.LVL313
 5906 063f 0100     		.2byte	0x1
 5907 0641 50       		.byte	0x50
 5908 0642 DC040000 		.4byte	.LVL315
 5909 0646 DE040000 		.4byte	.LVL316
 5910 064a 0100     		.2byte	0x1
 5911 064c 50       		.byte	0x50
 5912 064d E6040000 		.4byte	.LVL318
 5913 0651 E8040000 		.4byte	.LVL319
 5914 0655 0100     		.2byte	0x1
 5915 0657 50       		.byte	0x50
 5916 0658 F0040000 		.4byte	.LVL321
 5917 065c F2040000 		.4byte	.LVL322
 5918 0660 0100     		.2byte	0x1
 5919 0662 50       		.byte	0x50
 5920 0663 FA040000 		.4byte	.LVL324
 5921 0667 FC040000 		.4byte	.LVL325
 5922 066b 0100     		.2byte	0x1
 5923 066d 50       		.byte	0x50
 5924 066e 04050000 		.4byte	.LVL327
 5925 0672 06050000 		.4byte	.LVL328
 5926 0676 0100     		.2byte	0x1
 5927 0678 50       		.byte	0x50
 5928 0679 0E050000 		.4byte	.LVL330
 5929 067d 10050000 		.4byte	.LVL331
 5930 0681 0100     		.2byte	0x1
 5931 0683 50       		.byte	0x50
 5932 0684 18050000 		.4byte	.LVL333
 5933 0688 1A050000 		.4byte	.LVL334
 5934 068c 0100     		.2byte	0x1
 5935 068e 50       		.byte	0x50
 5936 068f 22050000 		.4byte	.LVL336
 5937 0693 24050000 		.4byte	.LVL337
 5938 0697 0100     		.2byte	0x1
 5939 0699 50       		.byte	0x50
 5940 069a 2C050000 		.4byte	.LVL339
 5941 069e 2E050000 		.4byte	.LVL340
 5942 06a2 0100     		.2byte	0x1
 5943 06a4 50       		.byte	0x50
 5944 06a5 36050000 		.4byte	.LVL342
 5945 06a9 38050000 		.4byte	.LVL343
 5946 06ad 0100     		.2byte	0x1
 5947 06af 50       		.byte	0x50
 5948 06b0 40050000 		.4byte	.LVL345
 5949 06b4 42050000 		.4byte	.LVL346
 5950 06b8 0100     		.2byte	0x1
 5951 06ba 50       		.byte	0x50
ARM GAS  C:\Users\Alex\AppData\Local\Temp\ccjqAdcx.s 			page 124


 5952 06bb 4A050000 		.4byte	.LVL348
 5953 06bf 4C050000 		.4byte	.LVL349
 5954 06c3 0100     		.2byte	0x1
 5955 06c5 50       		.byte	0x50
 5956 06c6 54050000 		.4byte	.LVL351
 5957 06ca 56050000 		.4byte	.LVL352
 5958 06ce 0100     		.2byte	0x1
 5959 06d0 50       		.byte	0x50
 5960 06d1 5E050000 		.4byte	.LVL354
 5961 06d5 60050000 		.4byte	.LVL355
 5962 06d9 0100     		.2byte	0x1
 5963 06db 50       		.byte	0x50
 5964 06dc 68050000 		.4byte	.LVL357
 5965 06e0 6A050000 		.4byte	.LVL358
 5966 06e4 0100     		.2byte	0x1
 5967 06e6 50       		.byte	0x50
 5968 06e7 72050000 		.4byte	.LVL360
 5969 06eb 74050000 		.4byte	.LVL361
 5970 06ef 0100     		.2byte	0x1
 5971 06f1 50       		.byte	0x50
 5972 06f2 7C050000 		.4byte	.LVL363
 5973 06f6 7E050000 		.4byte	.LVL364
 5974 06fa 0100     		.2byte	0x1
 5975 06fc 50       		.byte	0x50
 5976 06fd 86050000 		.4byte	.LVL366
 5977 0701 88050000 		.4byte	.LVL367
 5978 0705 0100     		.2byte	0x1
 5979 0707 50       		.byte	0x50
 5980 0708 90050000 		.4byte	.LVL369
 5981 070c 92050000 		.4byte	.LVL370
 5982 0710 0100     		.2byte	0x1
 5983 0712 50       		.byte	0x50
 5984 0713 9A050000 		.4byte	.LVL372
 5985 0717 9C050000 		.4byte	.LVL373
 5986 071b 0100     		.2byte	0x1
 5987 071d 50       		.byte	0x50
 5988 071e A4050000 		.4byte	.LVL375
 5989 0722 A6050000 		.4byte	.LVL376
 5990 0726 0100     		.2byte	0x1
 5991 0728 50       		.byte	0x50
 5992 0729 AE050000 		.4byte	.LVL378
 5993 072d B0050000 		.4byte	.LVL379
 5994 0731 0100     		.2byte	0x1
 5995 0733 50       		.byte	0x50
 5996 0734 B8050000 		.4byte	.LVL381
 5997 0738 BA050000 		.4byte	.LVL382
 5998 073c 0100     		.2byte	0x1
 5999 073e 50       		.byte	0x50
 6000 073f C2050000 		.4byte	.LVL384
 6001 0743 C4050000 		.4byte	.LVL385
 6002 0747 0100     		.2byte	0x1
 6003 0749 50       		.byte	0x50
 6004 074a CC050000 		.4byte	.LVL387
 6005 074e CE050000 		.4byte	.LVL388
 6006 0752 0100     		.2byte	0x1
 6007 0754 50       		.byte	0x50
 6008 0755 D6050000 		.4byte	.LVL390
ARM GAS  C:\Users\Alex\AppData\Local\Temp\ccjqAdcx.s 			page 125


 6009 0759 D8050000 		.4byte	.LVL391
 6010 075d 0100     		.2byte	0x1
 6011 075f 50       		.byte	0x50
 6012 0760 E0050000 		.4byte	.LVL393
 6013 0764 E2050000 		.4byte	.LVL394
 6014 0768 0100     		.2byte	0x1
 6015 076a 50       		.byte	0x50
 6016 076b EA050000 		.4byte	.LVL396
 6017 076f EC050000 		.4byte	.LVL397
 6018 0773 0100     		.2byte	0x1
 6019 0775 50       		.byte	0x50
 6020 0776 F4050000 		.4byte	.LVL399
 6021 077a F6050000 		.4byte	.LVL400
 6022 077e 0100     		.2byte	0x1
 6023 0780 50       		.byte	0x50
 6024 0781 FE050000 		.4byte	.LVL402
 6025 0785 00060000 		.4byte	.LVL403
 6026 0789 0100     		.2byte	0x1
 6027 078b 50       		.byte	0x50
 6028 078c 08060000 		.4byte	.LVL405
 6029 0790 0A060000 		.4byte	.LVL406
 6030 0794 0100     		.2byte	0x1
 6031 0796 50       		.byte	0x50
 6032 0797 12060000 		.4byte	.LVL408
 6033 079b 14060000 		.4byte	.LVL409
 6034 079f 0100     		.2byte	0x1
 6035 07a1 50       		.byte	0x50
 6036 07a2 1C060000 		.4byte	.LVL411
 6037 07a6 1E060000 		.4byte	.LVL412
 6038 07aa 0100     		.2byte	0x1
 6039 07ac 50       		.byte	0x50
 6040 07ad 20060000 		.4byte	.LVL413
 6041 07b1 2E060000 		.4byte	.LVL414
 6042 07b5 0100     		.2byte	0x1
 6043 07b7 50       		.byte	0x50
 6044 07b8 30060000 		.4byte	.LVL415
 6045 07bc 32060000 		.4byte	.LVL416
 6046 07c0 0100     		.2byte	0x1
 6047 07c2 50       		.byte	0x50
 6048 07c3 34060000 		.4byte	.LVL417
 6049 07c7 36060000 		.4byte	.LVL418
 6050 07cb 0100     		.2byte	0x1
 6051 07cd 50       		.byte	0x50
 6052 07ce 38060000 		.4byte	.LVL419
 6053 07d2 3A060000 		.4byte	.LVL420
 6054 07d6 0100     		.2byte	0x1
 6055 07d8 50       		.byte	0x50
 6056 07d9 00000000 		.4byte	0
 6057 07dd 00000000 		.4byte	0
 6058              		.section	.debug_aranges,"",%progbits
 6059 0000 3C000000 		.4byte	0x3c
 6060 0004 0200     		.2byte	0x2
 6061 0006 00000000 		.4byte	.Ldebug_info0
 6062 000a 04       		.byte	0x4
 6063 000b 00       		.byte	0
 6064 000c 0000     		.2byte	0
 6065 000e 0000     		.2byte	0
ARM GAS  C:\Users\Alex\AppData\Local\Temp\ccjqAdcx.s 			page 126


 6066 0010 00000000 		.4byte	.LFB5
 6067 0014 28000000 		.4byte	.LFE5-.LFB5
 6068 0018 00000000 		.4byte	.LFB0
 6069 001c 18000000 		.4byte	.LFE0-.LFB0
 6070 0020 00000000 		.4byte	.LFB1
 6071 0024 1C000000 		.4byte	.LFE1-.LFB1
 6072 0028 00000000 		.4byte	.LFB2
 6073 002c 10000000 		.4byte	.LFE2-.LFB2
 6074 0030 00000000 		.4byte	.LFB3
 6075 0034 3C060000 		.4byte	.LFE3-.LFB3
 6076 0038 00000000 		.4byte	0
 6077 003c 00000000 		.4byte	0
 6078              		.section	.debug_ranges,"",%progbits
 6079              	.Ldebug_ranges0:
 6080 0000 00000000 		.4byte	.LFB5
 6081 0004 28000000 		.4byte	.LFE5
 6082 0008 00000000 		.4byte	.LFB0
 6083 000c 18000000 		.4byte	.LFE0
 6084 0010 00000000 		.4byte	.LFB1
 6085 0014 1C000000 		.4byte	.LFE1
 6086 0018 00000000 		.4byte	.LFB2
 6087 001c 10000000 		.4byte	.LFE2
 6088 0020 00000000 		.4byte	.LFB3
 6089 0024 3C060000 		.4byte	.LFE3
 6090 0028 00000000 		.4byte	0
 6091 002c 00000000 		.4byte	0
 6092              		.section	.debug_line,"",%progbits
 6093              	.Ldebug_line0:
 6094 0000 8A060000 		.section	.debug_str,"MS",%progbits,1
 6094      0200A301 
 6094      00000201 
 6094      FB0E0D00 
 6094      01010101 
 6095              	.LASF55:
 6096 0000 666C6578 		.ascii	"flexsea_payload_10\000"
 6096      7365615F 
 6096      7061796C 
 6096      6F61645F 
 6096      313000
 6097              	.LASF56:
 6098 0013 666C6578 		.ascii	"flexsea_payload_11\000"
 6098      7365615F 
 6098      7061796C 
 6098      6F61645F 
 6098      313100
 6099              	.LASF57:
 6100 0026 666C6578 		.ascii	"flexsea_payload_12\000"
 6100      7365615F 
 6100      7061796C 
 6100      6F61645F 
 6100      313200
 6101              	.LASF58:
 6102 0039 666C6578 		.ascii	"flexsea_payload_13\000"
 6102      7365615F 
 6102      7061796C 
 6102      6F61645F 
 6102      313300
ARM GAS  C:\Users\Alex\AppData\Local\Temp\ccjqAdcx.s 			page 127


 6103              	.LASF59:
 6104 004c 666C6578 		.ascii	"flexsea_payload_14\000"
 6104      7365615F 
 6104      7061796C 
 6104      6F61645F 
 6104      313400
 6105              	.LASF60:
 6106 005f 666C6578 		.ascii	"flexsea_payload_15\000"
 6106      7365615F 
 6106      7061796C 
 6106      6F61645F 
 6106      313500
 6107              	.LASF61:
 6108 0072 666C6578 		.ascii	"flexsea_payload_16\000"
 6108      7365615F 
 6108      7061796C 
 6108      6F61645F 
 6108      313600
 6109              	.LASF62:
 6110 0085 666C6578 		.ascii	"flexsea_payload_17\000"
 6110      7365615F 
 6110      7061796C 
 6110      6F61645F 
 6110      313700
 6111              	.LASF63:
 6112 0098 666C6578 		.ascii	"flexsea_payload_18\000"
 6112      7365615F 
 6112      7061796C 
 6112      6F61645F 
 6112      313800
 6113              	.LASF64:
 6114 00ab 666C6578 		.ascii	"flexsea_payload_19\000"
 6114      7365615F 
 6114      7061796C 
 6114      6F61645F 
 6114      313900
 6115              	.LASF28:
 6116 00be 66726F6D 		.ascii	"from\000"
 6116      00
 6117              	.LASF36:
 6118 00c3 6F757470 		.ascii	"output\000"
 6118      757400
 6119              	.LASF19:
 6120 00ca 736C6176 		.ascii	"slave_comm_s\000"
 6120      655F636F 
 6120      6D6D5F73 
 6120      00
 6121              	.LASF65:
 6122 00d7 666C6578 		.ascii	"flexsea_payload_20\000"
 6122      7365615F 
 6122      7061796C 
 6122      6F61645F 
 6122      323000
 6123              	.LASF66:
 6124 00ea 666C6578 		.ascii	"flexsea_payload_21\000"
 6124      7365615F 
 6124      7061796C 
ARM GAS  C:\Users\Alex\AppData\Local\Temp\ccjqAdcx.s 			page 128


 6124      6F61645F 
 6124      323100
 6125              	.LASF67:
 6126 00fd 666C6578 		.ascii	"flexsea_payload_22\000"
 6126      7365615F 
 6126      7061796C 
 6126      6F61645F 
 6126      323200
 6127              	.LASF68:
 6128 0110 666C6578 		.ascii	"flexsea_payload_23\000"
 6128      7365615F 
 6128      7061796C 
 6128      6F61645F 
 6128      323300
 6129              	.LASF69:
 6130 0123 666C6578 		.ascii	"flexsea_payload_24\000"
 6130      7365615F 
 6130      7061796C 
 6130      6F61645F 
 6130      323400
 6131              	.LASF70:
 6132 0136 666C6578 		.ascii	"flexsea_payload_25\000"
 6132      7365615F 
 6132      7061796C 
 6132      6F61645F 
 6132      323500
 6133              	.LASF71:
 6134 0149 666C6578 		.ascii	"flexsea_payload_26\000"
 6134      7365615F 
 6134      7061796C 
 6134      6F61645F 
 6134      323600
 6135              	.LASF72:
 6136 015c 666C6578 		.ascii	"flexsea_payload_27\000"
 6136      7365615F 
 6136      7061796C 
 6136      6F61645F 
 6136      323700
 6137              	.LASF73:
 6138 016f 666C6578 		.ascii	"flexsea_payload_28\000"
 6138      7365615F 
 6138      7061796C 
 6138      6F61645F 
 6138      323800
 6139              	.LASF74:
 6140 0182 666C6578 		.ascii	"flexsea_payload_29\000"
 6140      7365615F 
 6140      7061796C 
 6140      6F61645F 
 6140      323900
 6141              	.LASF10:
 6142 0195 756E7369 		.ascii	"unsigned int\000"
 6142      676E6564 
 6142      20696E74 
 6142      00
 6143              	.LASF173:
 6144 01a2 2E2E5C2E 		.ascii	"..\\..\\flexsea-comm\\src\\flexsea_payload.c\000"
ARM GAS  C:\Users\Alex\AppData\Local\Temp\ccjqAdcx.s 			page 129


 6144      2E5C666C 
 6144      65787365 
 6144      612D636F 
 6144      6D6D5C73 
 6145              	.LASF35:
 6146 01cb 636D645F 		.ascii	"cmd_7bits\000"
 6146      37626974 
 6146      7300
 6147              	.LASF25:
 6148 01d5 6175746F 		.ascii	"autosample\000"
 6148      73616D70 
 6148      6C6500
 6149              	.LASF39:
 6150 01e0 626F6172 		.ascii	"board_up_id\000"
 6150      645F7570 
 6150      5F696400 
 6151              	.LASF75:
 6152 01ec 666C6578 		.ascii	"flexsea_payload_30\000"
 6152      7365615F 
 6152      7061796C 
 6152      6F61645F 
 6152      333000
 6153              	.LASF76:
 6154 01ff 666C6578 		.ascii	"flexsea_payload_31\000"
 6154      7365615F 
 6154      7061796C 
 6154      6F61645F 
 6154      333100
 6155              	.LASF77:
 6156 0212 666C6578 		.ascii	"flexsea_payload_32\000"
 6156      7365615F 
 6156      7061796C 
 6156      6F61645F 
 6156      333200
 6157              	.LASF78:
 6158 0225 666C6578 		.ascii	"flexsea_payload_33\000"
 6158      7365615F 
 6158      7061796C 
 6158      6F61645F 
 6158      333300
 6159              	.LASF79:
 6160 0238 666C6578 		.ascii	"flexsea_payload_34\000"
 6160      7365615F 
 6160      7061796C 
 6160      6F61645F 
 6160      333400
 6161              	.LASF80:
 6162 024b 666C6578 		.ascii	"flexsea_payload_35\000"
 6162      7365615F 
 6162      7061796C 
 6162      6F61645F 
 6162      333500
 6163              	.LASF81:
 6164 025e 666C6578 		.ascii	"flexsea_payload_36\000"
 6164      7365615F 
 6164      7061796C 
 6164      6F61645F 
ARM GAS  C:\Users\Alex\AppData\Local\Temp\ccjqAdcx.s 			page 130


 6164      333600
 6165              	.LASF82:
 6166 0271 666C6578 		.ascii	"flexsea_payload_37\000"
 6166      7365615F 
 6166      7061796C 
 6166      6F61645F 
 6166      333700
 6167              	.LASF83:
 6168 0284 666C6578 		.ascii	"flexsea_payload_38\000"
 6168      7365615F 
 6168      7061796C 
 6168      6F61645F 
 6168      333800
 6169              	.LASF20:
 6170 0297 6D6F6465 		.ascii	"mode\000"
 6170      00
 6171              	.LASF109:
 6172 029c 666C6578 		.ascii	"flexsea_payload_64\000"
 6172      7365615F 
 6172      7061796C 
 6172      6F61645F 
 6172      363400
 6173              	.LASF51:
 6174 02af 666C6578 		.ascii	"flexsea_payload_6\000"
 6174      7365615F 
 6174      7061796C 
 6174      6F61645F 
 6174      3600
 6175              	.LASF14:
 6176 02c1 75696E74 		.ascii	"uint32_t\000"
 6176      33325F74 
 6176      00
 6177              	.LASF85:
 6178 02ca 666C6578 		.ascii	"flexsea_payload_40\000"
 6178      7365615F 
 6178      7061796C 
 6178      6F61645F 
 6178      343000
 6179              	.LASF86:
 6180 02dd 666C6578 		.ascii	"flexsea_payload_41\000"
 6180      7365615F 
 6180      7061796C 
 6180      6F61645F 
 6180      343100
 6181              	.LASF87:
 6182 02f0 666C6578 		.ascii	"flexsea_payload_42\000"
 6182      7365615F 
 6182      7061796C 
 6182      6F61645F 
 6182      343200
 6183              	.LASF88:
 6184 0303 666C6578 		.ascii	"flexsea_payload_43\000"
 6184      7365615F 
 6184      7061796C 
 6184      6F61645F 
 6184      343300
 6185              	.LASF89:
ARM GAS  C:\Users\Alex\AppData\Local\Temp\ccjqAdcx.s 			page 131


 6186 0316 666C6578 		.ascii	"flexsea_payload_44\000"
 6186      7365615F 
 6186      7061796C 
 6186      6F61645F 
 6186      343400
 6187              	.LASF90:
 6188 0329 666C6578 		.ascii	"flexsea_payload_45\000"
 6188      7365615F 
 6188      7061796C 
 6188      6F61645F 
 6188      343500
 6189              	.LASF91:
 6190 033c 666C6578 		.ascii	"flexsea_payload_46\000"
 6190      7365615F 
 6190      7061796C 
 6190      6F61645F 
 6190      343600
 6191              	.LASF92:
 6192 034f 666C6578 		.ascii	"flexsea_payload_47\000"
 6192      7365615F 
 6192      7061796C 
 6192      6F61645F 
 6192      343700
 6193              	.LASF93:
 6194 0362 666C6578 		.ascii	"flexsea_payload_48\000"
 6194      7365615F 
 6194      7061796C 
 6194      6F61645F 
 6194      343800
 6195              	.LASF94:
 6196 0375 666C6578 		.ascii	"flexsea_payload_49\000"
 6196      7365615F 
 6196      7061796C 
 6196      6F61645F 
 6196      343900
 6197              	.LASF38:
 6198 0388 626F6172 		.ascii	"board_id\000"
 6198      645F6964 
 6198      00
 6199              	.LASF9:
 6200 0391 6C6F6E67 		.ascii	"long long unsigned int\000"
 6200      206C6F6E 
 6200      6720756E 
 6200      7369676E 
 6200      65642069 
 6201              	.LASF43:
 6202 03a8 7061796C 		.ascii	"payload_str\000"
 6202      6F61645F 
 6202      73747200 
 6203              	.LASF95:
 6204 03b4 666C6578 		.ascii	"flexsea_payload_50\000"
 6204      7365615F 
 6204      7061796C 
 6204      6F61645F 
 6204      353000
 6205              	.LASF96:
 6206 03c7 666C6578 		.ascii	"flexsea_payload_51\000"
ARM GAS  C:\Users\Alex\AppData\Local\Temp\ccjqAdcx.s 			page 132


 6206      7365615F 
 6206      7061796C 
 6206      6F61645F 
 6206      353100
 6207              	.LASF97:
 6208 03da 666C6578 		.ascii	"flexsea_payload_52\000"
 6208      7365615F 
 6208      7061796C 
 6208      6F61645F 
 6208      353200
 6209              	.LASF98:
 6210 03ed 666C6578 		.ascii	"flexsea_payload_53\000"
 6210      7365615F 
 6210      7061796C 
 6210      6F61645F 
 6210      353300
 6211              	.LASF99:
 6212 0400 666C6578 		.ascii	"flexsea_payload_54\000"
 6212      7365615F 
 6212      7061796C 
 6212      6F61645F 
 6212      353400
 6213              	.LASF100:
 6214 0413 666C6578 		.ascii	"flexsea_payload_55\000"
 6214      7365615F 
 6214      7061796C 
 6214      6F61645F 
 6214      353500
 6215              	.LASF101:
 6216 0426 666C6578 		.ascii	"flexsea_payload_56\000"
 6216      7365615F 
 6216      7061796C 
 6216      6F61645F 
 6216      353600
 6217              	.LASF102:
 6218 0439 666C6578 		.ascii	"flexsea_payload_57\000"
 6218      7365615F 
 6218      7061796C 
 6218      6F61645F 
 6218      353700
 6219              	.LASF103:
 6220 044c 666C6578 		.ascii	"flexsea_payload_58\000"
 6220      7365615F 
 6220      7061796C 
 6220      6F61645F 
 6220      353800
 6221              	.LASF104:
 6222 045f 666C6578 		.ascii	"flexsea_payload_59\000"
 6222      7365615F 
 6222      7061796C 
 6222      6F61645F 
 6222      353900
 6223              	.LASF32:
 6224 0472 73656E74 		.ascii	"sent_from_a_slave\000"
 6224      5F66726F 
 6224      6D5F615F 
 6224      736C6176 
ARM GAS  C:\Users\Alex\AppData\Local\Temp\ccjqAdcx.s 			page 133


 6224      6500
 6225              	.LASF29:
 6226 0484 7061796C 		.ascii	"payload\000"
 6226      6F616400 
 6227              	.LASF105:
 6228 048c 666C6578 		.ascii	"flexsea_payload_60\000"
 6228      7365615F 
 6228      7061796C 
 6228      6F61645F 
 6228      363000
 6229              	.LASF106:
 6230 049f 666C6578 		.ascii	"flexsea_payload_61\000"
 6230      7365615F 
 6230      7061796C 
 6230      6F61645F 
 6230      363100
 6231              	.LASF107:
 6232 04b2 666C6578 		.ascii	"flexsea_payload_62\000"
 6232      7365615F 
 6232      7061796C 
 6232      6F61645F 
 6232      363200
 6233              	.LASF108:
 6234 04c5 666C6578 		.ascii	"flexsea_payload_63\000"
 6234      7365615F 
 6234      7061796C 
 6234      6F61645F 
 6234      363300
 6235              	.LASF110:
 6236 04d8 666C6578 		.ascii	"flexsea_payload_65\000"
 6236      7365615F 
 6236      7061796C 
 6236      6F61645F 
 6236      363500
 6237              	.LASF111:
 6238 04eb 666C6578 		.ascii	"flexsea_payload_66\000"
 6238      7365615F 
 6238      7061796C 
 6238      6F61645F 
 6238      363600
 6239              	.LASF112:
 6240 04fe 666C6578 		.ascii	"flexsea_payload_67\000"
 6240      7365615F 
 6240      7061796C 
 6240      6F61645F 
 6240      363700
 6241              	.LASF113:
 6242 0511 666C6578 		.ascii	"flexsea_payload_68\000"
 6242      7365615F 
 6242      7061796C 
 6242      6F61645F 
 6242      363800
 6243              	.LASF114:
 6244 0524 666C6578 		.ascii	"flexsea_payload_69\000"
 6244      7365615F 
 6244      7061796C 
 6244      6F61645F 
ARM GAS  C:\Users\Alex\AppData\Local\Temp\ccjqAdcx.s 			page 134


 6244      363900
 6245              	.LASF45:
 6246 0537 666C6578 		.ascii	"flexsea_payload_0\000"
 6246      7365615F 
 6246      7061796C 
 6246      6F61645F 
 6246      3000
 6247              	.LASF47:
 6248 0549 666C6578 		.ascii	"flexsea_payload_2\000"
 6248      7365615F 
 6248      7061796C 
 6248      6F61645F 
 6248      3200
 6249              	.LASF48:
 6250 055b 666C6578 		.ascii	"flexsea_payload_3\000"
 6250      7365615F 
 6250      7061796C 
 6250      6F61645F 
 6250      3300
 6251              	.LASF49:
 6252 056d 666C6578 		.ascii	"flexsea_payload_4\000"
 6252      7365615F 
 6252      7061796C 
 6252      6F61645F 
 6252      3400
 6253              	.LASF50:
 6254 057f 666C6578 		.ascii	"flexsea_payload_5\000"
 6254      7365615F 
 6254      7061796C 
 6254      6F61645F 
 6254      3500
 6255              	.LASF174:
 6256 0591 433A5C46 		.ascii	"C:\\FlexSEA_alx87grd\\execute\\execute_1_0.cydsn\000"
 6256      6C657853 
 6256      45415F61 
 6256      6C783837 
 6256      6772645C 
 6257              	.LASF52:
 6258 05bf 666C6578 		.ascii	"flexsea_payload_7\000"
 6258      7365615F 
 6258      7061796C 
 6258      6F61645F 
 6258      3700
 6259              	.LASF53:
 6260 05d1 666C6578 		.ascii	"flexsea_payload_8\000"
 6260      7365615F 
 6260      7061796C 
 6260      6F61645F 
 6260      3800
 6261              	.LASF54:
 6262 05e3 666C6578 		.ascii	"flexsea_payload_9\000"
 6262      7365615F 
 6262      7061796C 
 6262      6F61645F 
 6262      3900
 6263              	.LASF17:
 6264 05f5 6C697374 		.ascii	"listen\000"
ARM GAS  C:\Users\Alex\AppData\Local\Temp\ccjqAdcx.s 			page 135


 6264      656E00
 6265              	.LASF18:
 6266 05fc 73635F64 		.ascii	"sc_data_s\000"
 6266      6174615F 
 6266      7300
 6267              	.LASF115:
 6268 0606 666C6578 		.ascii	"flexsea_payload_70\000"
 6268      7365615F 
 6268      7061796C 
 6268      6F61645F 
 6268      373000
 6269              	.LASF116:
 6270 0619 666C6578 		.ascii	"flexsea_payload_71\000"
 6270      7365615F 
 6270      7061796C 
 6270      6F61645F 
 6270      373100
 6271              	.LASF117:
 6272 062c 666C6578 		.ascii	"flexsea_payload_72\000"
 6272      7365615F 
 6272      7061796C 
 6272      6F61645F 
 6272      373200
 6273              	.LASF118:
 6274 063f 666C6578 		.ascii	"flexsea_payload_73\000"
 6274      7365615F 
 6274      7061796C 
 6274      6F61645F 
 6274      373300
 6275              	.LASF119:
 6276 0652 666C6578 		.ascii	"flexsea_payload_74\000"
 6276      7365615F 
 6276      7061796C 
 6276      6F61645F 
 6276      373400
 6277              	.LASF120:
 6278 0665 666C6578 		.ascii	"flexsea_payload_75\000"
 6278      7365615F 
 6278      7061796C 
 6278      6F61645F 
 6278      373500
 6279              	.LASF121:
 6280 0678 666C6578 		.ascii	"flexsea_payload_76\000"
 6280      7365615F 
 6280      7061796C 
 6280      6F61645F 
 6280      373600
 6281              	.LASF122:
 6282 068b 666C6578 		.ascii	"flexsea_payload_77\000"
 6282      7365615F 
 6282      7061796C 
 6282      6F61645F 
 6282      373700
 6283              	.LASF123:
 6284 069e 666C6578 		.ascii	"flexsea_payload_78\000"
 6284      7365615F 
 6284      7061796C 
ARM GAS  C:\Users\Alex\AppData\Local\Temp\ccjqAdcx.s 			page 136


 6284      6F61645F 
 6284      373800
 6285              	.LASF124:
 6286 06b1 666C6578 		.ascii	"flexsea_payload_79\000"
 6286      7365615F 
 6286      7061796C 
 6286      6F61645F 
 6286      373900
 6287              	.LASF33:
 6288 06c4 7061796C 		.ascii	"payload_parse_str\000"
 6288      6F61645F 
 6288      70617273 
 6288      655F7374 
 6288      7200
 6289              	.LASF44:
 6290 06d6 66696C6C 		.ascii	"fill_uint8_buf\000"
 6290      5F75696E 
 6290      74385F62 
 6290      756600
 6291              	.LASF12:
 6292 06e5 63686172 		.ascii	"char\000"
 6292      00
 6293              	.LASF26:
 6294 06ea 63705F72 		.ascii	"cp_rid\000"
 6294      696400
 6295              	.LASF176:
 6296 06f1 70726570 		.ascii	"prepare_empty_payload\000"
 6296      6172655F 
 6296      656D7074 
 6296      795F7061 
 6296      796C6F61 
 6297              	.LASF41:
 6298 0707 626F6172 		.ascii	"board_sub2_id\000"
 6298      645F7375 
 6298      62325F69 
 6298      6400
 6299              	.LASF13:
 6300 0715 75696E74 		.ascii	"uint8_t\000"
 6300      385F7400 
 6301              	.LASF125:
 6302 071d 666C6578 		.ascii	"flexsea_payload_80\000"
 6302      7365615F 
 6302      7061796C 
 6302      6F61645F 
 6302      383000
 6303              	.LASF126:
 6304 0730 666C6578 		.ascii	"flexsea_payload_81\000"
 6304      7365615F 
 6304      7061796C 
 6304      6F61645F 
 6304      383100
 6305              	.LASF127:
 6306 0743 666C6578 		.ascii	"flexsea_payload_82\000"
 6306      7365615F 
 6306      7061796C 
 6306      6F61645F 
 6306      383200
ARM GAS  C:\Users\Alex\AppData\Local\Temp\ccjqAdcx.s 			page 137


 6307              	.LASF128:
 6308 0756 666C6578 		.ascii	"flexsea_payload_83\000"
 6308      7365615F 
 6308      7061796C 
 6308      6F61645F 
 6308      383300
 6309              	.LASF129:
 6310 0769 666C6578 		.ascii	"flexsea_payload_84\000"
 6310      7365615F 
 6310      7061796C 
 6310      6F61645F 
 6310      383400
 6311              	.LASF130:
 6312 077c 666C6578 		.ascii	"flexsea_payload_85\000"
 6312      7365615F 
 6312      7061796C 
 6312      6F61645F 
 6312      383500
 6313              	.LASF131:
 6314 078f 666C6578 		.ascii	"flexsea_payload_86\000"
 6314      7365615F 
 6314      7061796C 
 6314      6F61645F 
 6314      383600
 6315              	.LASF132:
 6316 07a2 666C6578 		.ascii	"flexsea_payload_87\000"
 6316      7365615F 
 6316      7061796C 
 6316      6F61645F 
 6316      383700
 6317              	.LASF133:
 6318 07b5 666C6578 		.ascii	"flexsea_payload_88\000"
 6318      7365615F 
 6318      7061796C 
 6318      6F61645F 
 6318      383800
 6319              	.LASF134:
 6320 07c8 666C6578 		.ascii	"flexsea_payload_89\000"
 6320      7365615F 
 6320      7061796C 
 6320      6F61645F 
 6320      383900
 6321              	.LASF42:
 6322 07db 736C6176 		.ascii	"slaves_485_1\000"
 6322      65735F34 
 6322      38355F31 
 6322      00
 6323              	.LASF8:
 6324 07e8 6C6F6E67 		.ascii	"long long int\000"
 6324      206C6F6E 
 6324      6720696E 
 6324      7400
 6325              	.LASF135:
 6326 07f6 666C6578 		.ascii	"flexsea_payload_90\000"
 6326      7365615F 
 6326      7061796C 
 6326      6F61645F 
ARM GAS  C:\Users\Alex\AppData\Local\Temp\ccjqAdcx.s 			page 138


 6326      393000
 6327              	.LASF136:
 6328 0809 666C6578 		.ascii	"flexsea_payload_91\000"
 6328      7365615F 
 6328      7061796C 
 6328      6F61645F 
 6328      393100
 6329              	.LASF137:
 6330 081c 666C6578 		.ascii	"flexsea_payload_92\000"
 6330      7365615F 
 6330      7061796C 
 6330      6F61645F 
 6330      393200
 6331              	.LASF138:
 6332 082f 666C6578 		.ascii	"flexsea_payload_93\000"
 6332      7365615F 
 6332      7061796C 
 6332      6F61645F 
 6332      393300
 6333              	.LASF139:
 6334 0842 666C6578 		.ascii	"flexsea_payload_94\000"
 6334      7365615F 
 6334      7061796C 
 6334      6F61645F 
 6334      393400
 6335              	.LASF140:
 6336 0855 666C6578 		.ascii	"flexsea_payload_95\000"
 6336      7365615F 
 6336      7061796C 
 6336      6F61645F 
 6336      393500
 6337              	.LASF141:
 6338 0868 666C6578 		.ascii	"flexsea_payload_96\000"
 6338      7365615F 
 6338      7061796C 
 6338      6F61645F 
 6338      393600
 6339              	.LASF142:
 6340 087b 666C6578 		.ascii	"flexsea_payload_97\000"
 6340      7365615F 
 6340      7061796C 
 6340      6F61645F 
 6340      393700
 6341              	.LASF143:
 6342 088e 666C6578 		.ascii	"flexsea_payload_98\000"
 6342      7365615F 
 6342      7061796C 
 6342      6F61645F 
 6342      393800
 6343              	.LASF144:
 6344 08a1 666C6578 		.ascii	"flexsea_payload_99\000"
 6344      7365615F 
 6344      7061796C 
 6344      6F61645F 
 6344      393900
 6345              	.LASF34:
 6346 08b4 63705F73 		.ascii	"cp_str\000"
ARM GAS  C:\Users\Alex\AppData\Local\Temp\ccjqAdcx.s 			page 139


 6346      747200
 6347              	.LASF27:
 6348 08bb 706C6461 		.ascii	"pldata\000"
 6348      746100
 6349              	.LASF30:
 6350 08c2 6E65775F 		.ascii	"new_data\000"
 6350      64617461 
 6350      00
 6351              	.LASF46:
 6352 08cb 72785F63 		.ascii	"rx_cmd_test\000"
 6352      6D645F74 
 6352      65737400 
 6353              	.LASF175:
 6354 08d7 6765745F 		.ascii	"get_rid\000"
 6354      72696400 
 6355              	.LASF2:
 6356 08df 73686F72 		.ascii	"short int\000"
 6356      7420696E 
 6356      7400
 6357              	.LASF4:
 6358 08e9 6C6F6E67 		.ascii	"long int\000"
 6358      20696E74 
 6358      00
 6359              	.LASF37:
 6360 08f2 6E756D62 		.ascii	"numb\000"
 6360      00
 6361              	.LASF16:
 6362 08f7 6C656E67 		.ascii	"length\000"
 6362      746800
 6363              	.LASF145:
 6364 08fe 666C6578 		.ascii	"flexsea_payload_100\000"
 6364      7365615F 
 6364      7061796C 
 6364      6F61645F 
 6364      31303000 
 6365              	.LASF146:
 6366 0912 666C6578 		.ascii	"flexsea_payload_101\000"
 6366      7365615F 
 6366      7061796C 
 6366      6F61645F 
 6366      31303100 
 6367              	.LASF147:
 6368 0926 666C6578 		.ascii	"flexsea_payload_102\000"
 6368      7365615F 
 6368      7061796C 
 6368      6F61645F 
 6368      31303200 
 6369              	.LASF148:
 6370 093a 666C6578 		.ascii	"flexsea_payload_103\000"
 6370      7365615F 
 6370      7061796C 
 6370      6F61645F 
 6370      31303300 
 6371              	.LASF149:
 6372 094e 666C6578 		.ascii	"flexsea_payload_104\000"
 6372      7365615F 
 6372      7061796C 
ARM GAS  C:\Users\Alex\AppData\Local\Temp\ccjqAdcx.s 			page 140


 6372      6F61645F 
 6372      31303400 
 6373              	.LASF150:
 6374 0962 666C6578 		.ascii	"flexsea_payload_105\000"
 6374      7365615F 
 6374      7061796C 
 6374      6F61645F 
 6374      31303500 
 6375              	.LASF151:
 6376 0976 666C6578 		.ascii	"flexsea_payload_106\000"
 6376      7365615F 
 6376      7061796C 
 6376      6F61645F 
 6376      31303600 
 6377              	.LASF152:
 6378 098a 666C6578 		.ascii	"flexsea_payload_107\000"
 6378      7365615F 
 6378      7061796C 
 6378      6F61645F 
 6378      31303700 
 6379              	.LASF153:
 6380 099e 666C6578 		.ascii	"flexsea_payload_108\000"
 6380      7365615F 
 6380      7061796C 
 6380      6F61645F 
 6380      31303800 
 6381              	.LASF154:
 6382 09b2 666C6578 		.ascii	"flexsea_payload_109\000"
 6382      7365615F 
 6382      7061796C 
 6382      6F61645F 
 6382      31303900 
 6383              	.LASF15:
 6384 09c6 666C6167 		.ascii	"flag\000"
 6384      00
 6385              	.LASF5:
 6386 09cb 5F5F7569 		.ascii	"__uint8_t\000"
 6386      6E74385F 
 6386      7400
 6387              	.LASF155:
 6388 09d5 666C6578 		.ascii	"flexsea_payload_110\000"
 6388      7365615F 
 6388      7061796C 
 6388      6F61645F 
 6388      31313000 
 6389              	.LASF156:
 6390 09e9 666C6578 		.ascii	"flexsea_payload_111\000"
 6390      7365615F 
 6390      7061796C 
 6390      6F61645F 
 6390      31313100 
 6391              	.LASF157:
 6392 09fd 666C6578 		.ascii	"flexsea_payload_112\000"
 6392      7365615F 
 6392      7061796C 
 6392      6F61645F 
 6392      31313200 
ARM GAS  C:\Users\Alex\AppData\Local\Temp\ccjqAdcx.s 			page 141


 6393              	.LASF158:
 6394 0a11 666C6578 		.ascii	"flexsea_payload_113\000"
 6394      7365615F 
 6394      7061796C 
 6394      6F61645F 
 6394      31313300 
 6395              	.LASF159:
 6396 0a25 666C6578 		.ascii	"flexsea_payload_114\000"
 6396      7365615F 
 6396      7061796C 
 6396      6F61645F 
 6396      31313400 
 6397              	.LASF160:
 6398 0a39 666C6578 		.ascii	"flexsea_payload_115\000"
 6398      7365615F 
 6398      7061796C 
 6398      6F61645F 
 6398      31313500 
 6399              	.LASF161:
 6400 0a4d 666C6578 		.ascii	"flexsea_payload_116\000"
 6400      7365615F 
 6400      7061796C 
 6400      6F61645F 
 6400      31313600 
 6401              	.LASF162:
 6402 0a61 666C6578 		.ascii	"flexsea_payload_117\000"
 6402      7365615F 
 6402      7061796C 
 6402      6F61645F 
 6402      31313700 
 6403              	.LASF163:
 6404 0a75 666C6578 		.ascii	"flexsea_payload_118\000"
 6404      7365615F 
 6404      7061796C 
 6404      6F61645F 
 6404      31313800 
 6405              	.LASF164:
 6406 0a89 666C6578 		.ascii	"flexsea_payload_119\000"
 6406      7365615F 
 6406      7061796C 
 6406      6F61645F 
 6406      31313900 
 6407              	.LASF11:
 6408 0a9d 73697A65 		.ascii	"sizetype\000"
 6408      74797065 
 6408      00
 6409              	.LASF7:
 6410 0aa6 6C6F6E67 		.ascii	"long unsigned int\000"
 6410      20756E73 
 6410      69676E65 
 6410      6420696E 
 6410      7400
 6411              	.LASF84:
 6412 0ab8 666C6578 		.ascii	"flexsea_payload_39\000"
 6412      7365615F 
 6412      7061796C 
 6412      6F61645F 
ARM GAS  C:\Users\Alex\AppData\Local\Temp\ccjqAdcx.s 			page 142


 6412      333900
 6413              	.LASF21:
 6414 0acb 706F7274 		.ascii	"port\000"
 6414      00
 6415              	.LASF1:
 6416 0ad0 756E7369 		.ascii	"unsigned char\000"
 6416      676E6564 
 6416      20636861 
 6416      7200
 6417              	.LASF6:
 6418 0ade 5F5F7569 		.ascii	"__uint32_t\000"
 6418      6E743332 
 6418      5F7400
 6419              	.LASF172:
 6420 0ae9 474E5520 		.ascii	"GNU C 4.9.3 20150303 (release) [ARM/embedded-4_9-br"
 6420      4320342E 
 6420      392E3320 
 6420      32303135 
 6420      30333033 
 6421 0b1c 616E6368 		.ascii	"anch revision 221220] -mcpu=cortex-m3 -mthumb -g -O"
 6421      20726576 
 6421      6973696F 
 6421      6E203232 
 6421      31323230 
 6422 0b4f 67202D66 		.ascii	"g -ffunction-sections -ffat-lto-objects\000"
 6422      66756E63 
 6422      74696F6E 
 6422      2D736563 
 6422      74696F6E 
 6423              	.LASF165:
 6424 0b77 666C6578 		.ascii	"flexsea_payload_120\000"
 6424      7365615F 
 6424      7061796C 
 6424      6F61645F 
 6424      31323000 
 6425              	.LASF166:
 6426 0b8b 666C6578 		.ascii	"flexsea_payload_121\000"
 6426      7365615F 
 6426      7061796C 
 6426      6F61645F 
 6426      31323100 
 6427              	.LASF22:
 6428 0b9f 62797465 		.ascii	"bytes_ready\000"
 6428      735F7265 
 6428      61647900 
 6429              	.LASF168:
 6430 0bab 666C6578 		.ascii	"flexsea_payload_123\000"
 6430      7365615F 
 6430      7061796C 
 6430      6F61645F 
 6430      31323300 
 6431              	.LASF169:
 6432 0bbf 666C6578 		.ascii	"flexsea_payload_124\000"
 6432      7365615F 
 6432      7061796C 
 6432      6F61645F 
 6432      31323400 
ARM GAS  C:\Users\Alex\AppData\Local\Temp\ccjqAdcx.s 			page 143


 6433              	.LASF170:
 6434 0bd3 666C6578 		.ascii	"flexsea_payload_125\000"
 6434      7365615F 
 6434      7061796C 
 6434      6F61645F 
 6434      31323500 
 6435              	.LASF171:
 6436 0be7 666C6578 		.ascii	"flexsea_payload_126\000"
 6436      7365615F 
 6436      7061796C 
 6436      6F61645F 
 6436      31323600 
 6437              	.LASF177:
 6438 0bfb 666C6578 		.ascii	"flexsea_payload_127\000"
 6438      7365615F 
 6438      7061796C 
 6438      6F61645F 
 6438      31323700 
 6439              	.LASF40:
 6440 0c0f 626F6172 		.ascii	"board_sub1_id\000"
 6440      645F7375 
 6440      62315F69 
 6440      6400
 6441              	.LASF0:
 6442 0c1d 7369676E 		.ascii	"signed char\000"
 6442      65642063 
 6442      68617200 
 6443              	.LASF3:
 6444 0c29 73686F72 		.ascii	"short unsigned int\000"
 6444      7420756E 
 6444      7369676E 
 6444      65642069 
 6444      6E7400
 6445              	.LASF24:
 6446 0c3c 786D6974 		.ascii	"xmit\000"
 6446      00
 6447              	.LASF23:
 6448 0c41 636D645F 		.ascii	"cmd_ready\000"
 6448      72656164 
 6448      7900
 6449              	.LASF31:
 6450 0c4b 61707065 		.ascii	"append_to_payload\000"
 6450      6E645F74 
 6450      6F5F7061 
 6450      796C6F61 
 6450      6400
 6451              	.LASF167:
 6452 0c5d 666C6578 		.ascii	"flexsea_payload_122\000"
 6452      7365615F 
 6452      7061796C 
 6452      6F61645F 
 6452      31323200 
 6453              		.ident	"GCC: (GNU Tools for ARM Embedded Processors) 4.9.3 20150303 (release) [ARM/embedded-4_9-br
