ARM GAS  C:\Users\Alex\AppData\Local\Temp\ccjqAdcx.s 			page 1


   1              		.syntax unified
   2              		.cpu cortex-m3
   3              		.fpu softvfp
   4              		.eabi_attribute 20, 1
   5              		.eabi_attribute 21, 1
   6              		.eabi_attribute 23, 3
   7              		.eabi_attribute 24, 1
   8              		.eabi_attribute 25, 1
   9              		.eabi_attribute 26, 1
  10              		.eabi_attribute 30, 1
  11              		.eabi_attribute 34, 1
  12              		.eabi_attribute 18, 4
  13              		.thumb
  14              		.file	"flexsea_payload.c"
  15              		.text
  16              	.Ltext0:
  17              		.cfi_sections	.debug_frame
  18              		.section	.text.get_rid,"ax",%progbits
  19              		.align	2
  20              		.thumb
  21              		.thumb_func
  22              		.type	get_rid, %function
  23              	get_rid:
  24              	.LFB5:
  25              		.file 1 "..\\..\\flexsea-comm\\src\\flexsea_payload.c"
   1:..\..\flexsea-comm\src/flexsea_payload.c **** //****************************************************************************
   2:..\..\flexsea-comm\src/flexsea_payload.c **** // MIT Media Lab - Biomechatronics
   3:..\..\flexsea-comm\src/flexsea_payload.c **** // Jean-Francois (Jeff) Duval
   4:..\..\flexsea-comm\src/flexsea_payload.c **** // jfduval@media.mit.edu
   5:..\..\flexsea-comm\src/flexsea_payload.c **** // 03/2016
   6:..\..\flexsea-comm\src/flexsea_payload.c **** //****************************************************************************
   7:..\..\flexsea-comm\src/flexsea_payload.c **** // flexsea_payload: deals with the "intelligent" data packaged in a comm_str
   8:..\..\flexsea-comm\src/flexsea_payload.c **** //****************************************************************************
   9:..\..\flexsea-comm\src/flexsea_payload.c **** 
  10:..\..\flexsea-comm\src/flexsea_payload.c **** #ifdef __cplusplus
  11:..\..\flexsea-comm\src/flexsea_payload.c **** extern "C" {
  12:..\..\flexsea-comm\src/flexsea_payload.c **** #endif
  13:..\..\flexsea-comm\src/flexsea_payload.c **** 
  14:..\..\flexsea-comm\src/flexsea_payload.c **** //****************************************************************************
  15:..\..\flexsea-comm\src/flexsea_payload.c **** // Include(s)
  16:..\..\flexsea-comm\src/flexsea_payload.c **** //****************************************************************************
  17:..\..\flexsea-comm\src/flexsea_payload.c **** 
  18:..\..\flexsea-comm\src/flexsea_payload.c **** #include <stdio.h>
  19:..\..\flexsea-comm\src/flexsea_payload.c **** #include <stdlib.h>
  20:..\..\flexsea-comm\src/flexsea_payload.c **** #include "../inc/flexsea.h"
  21:..\..\flexsea-comm\src/flexsea_payload.c **** #include "../../flexsea-system/inc/flexsea_system.h"
  22:..\..\flexsea-comm\src/flexsea_payload.c **** #include "flexsea_board.h"
  23:..\..\flexsea-comm\src/flexsea_payload.c **** 
  24:..\..\flexsea-comm\src/flexsea_payload.c **** //****************************************************************************
  25:..\..\flexsea-comm\src/flexsea_payload.c **** // Variable(s)
  26:..\..\flexsea-comm\src/flexsea_payload.c **** //****************************************************************************
  27:..\..\flexsea-comm\src/flexsea_payload.c **** 
  28:..\..\flexsea-comm\src/flexsea_payload.c **** uint8_t payload_str[PAYLOAD_BUF_LEN];
  29:..\..\flexsea-comm\src/flexsea_payload.c **** 
  30:..\..\flexsea-comm\src/flexsea_payload.c **** //****************************************************************************
  31:..\..\flexsea-comm\src/flexsea_payload.c **** // Private Function Prototype(s):
  32:..\..\flexsea-comm\src/flexsea_payload.c **** //****************************************************************************
ARM GAS  C:\Users\Alex\AppData\Local\Temp\ccjqAdcx.s 			page 2


  33:..\..\flexsea-comm\src/flexsea_payload.c **** 
  34:..\..\flexsea-comm\src/flexsea_payload.c **** static uint8_t get_rid(uint8_t *pldata);
  35:..\..\flexsea-comm\src/flexsea_payload.c **** static void route_to_slave(uint8_t port, uint8_t *buf, uint32_t len);
  36:..\..\flexsea-comm\src/flexsea_payload.c **** 
  37:..\..\flexsea-comm\src/flexsea_payload.c **** //****************************************************************************
  38:..\..\flexsea-comm\src/flexsea_payload.c **** // Public Function(s):
  39:..\..\flexsea-comm\src/flexsea_payload.c **** //****************************************************************************
  40:..\..\flexsea-comm\src/flexsea_payload.c **** 
  41:..\..\flexsea-comm\src/flexsea_payload.c **** //Start a new payload string
  42:..\..\flexsea-comm\src/flexsea_payload.c **** void prepare_empty_payload(uint8_t from, uint8_t to, uint8_t *buf, uint32_t len)
  43:..\..\flexsea-comm\src/flexsea_payload.c **** {
  44:..\..\flexsea-comm\src/flexsea_payload.c **** 	//Start fresh:
  45:..\..\flexsea-comm\src/flexsea_payload.c **** 	fill_uint8_buf(buf, len, 0);
  46:..\..\flexsea-comm\src/flexsea_payload.c **** 
  47:..\..\flexsea-comm\src/flexsea_payload.c ****     //Addresses:
  48:..\..\flexsea-comm\src/flexsea_payload.c ****     buf[P_XID] = from;
  49:..\..\flexsea-comm\src/flexsea_payload.c ****     buf[P_RID] = to;
  50:..\..\flexsea-comm\src/flexsea_payload.c **** }
  51:..\..\flexsea-comm\src/flexsea_payload.c **** 
  52:..\..\flexsea-comm\src/flexsea_payload.c **** //Add a buffer at the end of a partially filled payload buffer
  53:..\..\flexsea-comm\src/flexsea_payload.c **** //Payload is the partially filled buffer, idx is the next position to use, new_data is.. well, the 
  54:..\..\flexsea-comm\src/flexsea_payload.c **** //and len is the number of bytes you want to add
  55:..\..\flexsea-comm\src/flexsea_payload.c **** uint32_t append_to_payload(uint8_t *payload, uint32_t idx, uint8_t *new_data, uint32_t len)
  56:..\..\flexsea-comm\src/flexsea_payload.c **** {
  57:..\..\flexsea-comm\src/flexsea_payload.c **** 	uint32_t i = 0, cnt = 0;
  58:..\..\flexsea-comm\src/flexsea_payload.c **** 
  59:..\..\flexsea-comm\src/flexsea_payload.c **** 	//Append the new data:
  60:..\..\flexsea-comm\src/flexsea_payload.c **** 	for(i = idx; i < (idx+len); i++)
  61:..\..\flexsea-comm\src/flexsea_payload.c **** 	{
  62:..\..\flexsea-comm\src/flexsea_payload.c **** 		payload[i] = new_data[cnt++];
  63:..\..\flexsea-comm\src/flexsea_payload.c **** 	}
  64:..\..\flexsea-comm\src/flexsea_payload.c **** 
  65:..\..\flexsea-comm\src/flexsea_payload.c **** 	//Index for the next call:
  66:..\..\flexsea-comm\src/flexsea_payload.c **** 	return i;
  67:..\..\flexsea-comm\src/flexsea_payload.c **** }
  68:..\..\flexsea-comm\src/flexsea_payload.c **** 
  69:..\..\flexsea-comm\src/flexsea_payload.c **** //Returns one if it was sent from a slave, 0 otherwise
  70:..\..\flexsea-comm\src/flexsea_payload.c **** uint8_t sent_from_a_slave(uint8_t *buf)
  71:..\..\flexsea-comm\src/flexsea_payload.c **** {
  72:..\..\flexsea-comm\src/flexsea_payload.c **** 	//Slaves have higher addresses than their master.
  73:..\..\flexsea-comm\src/flexsea_payload.c **** 	if(buf[P_XID] > buf[P_RID])
  74:..\..\flexsea-comm\src/flexsea_payload.c **** 	{
  75:..\..\flexsea-comm\src/flexsea_payload.c **** 		//Slave
  76:..\..\flexsea-comm\src/flexsea_payload.c **** 		return 1;
  77:..\..\flexsea-comm\src/flexsea_payload.c **** 	}
  78:..\..\flexsea-comm\src/flexsea_payload.c **** 	else
  79:..\..\flexsea-comm\src/flexsea_payload.c **** 	{
  80:..\..\flexsea-comm\src/flexsea_payload.c **** 		//Master
  81:..\..\flexsea-comm\src/flexsea_payload.c **** 		return 0;
  82:..\..\flexsea-comm\src/flexsea_payload.c **** 	}
  83:..\..\flexsea-comm\src/flexsea_payload.c **** 
  84:..\..\flexsea-comm\src/flexsea_payload.c **** 	//Should not happen
  85:..\..\flexsea-comm\src/flexsea_payload.c **** 	return 0;
  86:..\..\flexsea-comm\src/flexsea_payload.c **** }
  87:..\..\flexsea-comm\src/flexsea_payload.c **** 
  88:..\..\flexsea-comm\src/flexsea_payload.c **** //Decode/parse received string
  89:..\..\flexsea-comm\src/flexsea_payload.c **** //ToDo fix: for now, supports only one command per string
ARM GAS  C:\Users\Alex\AppData\Local\Temp\ccjqAdcx.s 			page 3


  90:..\..\flexsea-comm\src/flexsea_payload.c **** unsigned int payload_parse_str(unsigned char *cp_str)
  91:..\..\flexsea-comm\src/flexsea_payload.c **** {
  92:..\..\flexsea-comm\src/flexsea_payload.c ****     unsigned char cmd = 0, cmd_7bits = 0, output = PARSE_SUCCESSFUL, numb = 0;
  93:..\..\flexsea-comm\src/flexsea_payload.c ****     unsigned int id = 0;
  94:..\..\flexsea-comm\src/flexsea_payload.c **** 
  95:..\..\flexsea-comm\src/flexsea_payload.c ****     //Command
  96:..\..\flexsea-comm\src/flexsea_payload.c ****     cmd = cp_str[P_CMD1];		//CMD w/ R/W bit
  97:..\..\flexsea-comm\src/flexsea_payload.c ****     cmd_7bits = CMD_7BITS(cmd);	//CMD code, no R/W information
  98:..\..\flexsea-comm\src/flexsea_payload.c **** 
  99:..\..\flexsea-comm\src/flexsea_payload.c ****     //First, get RID code
 100:..\..\flexsea-comm\src/flexsea_payload.c ****     id = get_rid(cp_str);
 101:..\..\flexsea-comm\src/flexsea_payload.c ****     if(id == ID_MATCH)
 102:..\..\flexsea-comm\src/flexsea_payload.c ****     {
 103:..\..\flexsea-comm\src/flexsea_payload.c **** 		output = PARSE_SUCCESSFUL;
 104:..\..\flexsea-comm\src/flexsea_payload.c **** 
 105:..\..\flexsea-comm\src/flexsea_payload.c ****         //It's addressed to me. What should I do with it?
 106:..\..\flexsea-comm\src/flexsea_payload.c ****         switch(cmd_7bits)
 107:..\..\flexsea-comm\src/flexsea_payload.c ****         {
 108:..\..\flexsea-comm\src/flexsea_payload.c **** 			//0-9:
 109:..\..\flexsea-comm\src/flexsea_payload.c ****             case 0:
 110:..\..\flexsea-comm\src/flexsea_payload.c ****                 flexsea_payload_0(cp_str);
 111:..\..\flexsea-comm\src/flexsea_payload.c ****                 break;            
 112:..\..\flexsea-comm\src/flexsea_payload.c ****             case 1:		//FlexSEA Stack Test
 113:..\..\flexsea-comm\src/flexsea_payload.c ****             	rx_cmd_test(cp_str);
 114:..\..\flexsea-comm\src/flexsea_payload.c ****             	break;
 115:..\..\flexsea-comm\src/flexsea_payload.c ****             case 2:
 116:..\..\flexsea-comm\src/flexsea_payload.c ****                 flexsea_payload_2(cp_str);
 117:..\..\flexsea-comm\src/flexsea_payload.c ****                 break;
 118:..\..\flexsea-comm\src/flexsea_payload.c **** 			case 3:
 119:..\..\flexsea-comm\src/flexsea_payload.c ****                 flexsea_payload_3(cp_str);
 120:..\..\flexsea-comm\src/flexsea_payload.c ****                 break;
 121:..\..\flexsea-comm\src/flexsea_payload.c **** 			case 4:
 122:..\..\flexsea-comm\src/flexsea_payload.c ****                 flexsea_payload_4(cp_str);
 123:..\..\flexsea-comm\src/flexsea_payload.c ****                 break;
 124:..\..\flexsea-comm\src/flexsea_payload.c **** 			case 5:
 125:..\..\flexsea-comm\src/flexsea_payload.c ****                 flexsea_payload_5(cp_str);
 126:..\..\flexsea-comm\src/flexsea_payload.c ****                 break;
 127:..\..\flexsea-comm\src/flexsea_payload.c **** 			case 6:
 128:..\..\flexsea-comm\src/flexsea_payload.c ****                 flexsea_payload_6(cp_str);
 129:..\..\flexsea-comm\src/flexsea_payload.c ****                 break;
 130:..\..\flexsea-comm\src/flexsea_payload.c **** 			case 7:
 131:..\..\flexsea-comm\src/flexsea_payload.c ****                 flexsea_payload_7(cp_str);
 132:..\..\flexsea-comm\src/flexsea_payload.c ****                 break;
 133:..\..\flexsea-comm\src/flexsea_payload.c **** 			case 8:
 134:..\..\flexsea-comm\src/flexsea_payload.c ****                 flexsea_payload_8(cp_str);
 135:..\..\flexsea-comm\src/flexsea_payload.c ****                 break;
 136:..\..\flexsea-comm\src/flexsea_payload.c **** 			case 9:
 137:..\..\flexsea-comm\src/flexsea_payload.c ****                 flexsea_payload_9(cp_str);
 138:..\..\flexsea-comm\src/flexsea_payload.c ****                 break;
 139:..\..\flexsea-comm\src/flexsea_payload.c **** 
 140:..\..\flexsea-comm\src/flexsea_payload.c **** 			//10-19:
 141:..\..\flexsea-comm\src/flexsea_payload.c ****             case 10:
 142:..\..\flexsea-comm\src/flexsea_payload.c ****             	flexsea_payload_10(cp_str);
 143:..\..\flexsea-comm\src/flexsea_payload.c ****             	break;
 144:..\..\flexsea-comm\src/flexsea_payload.c ****             case 11:
 145:..\..\flexsea-comm\src/flexsea_payload.c ****             	flexsea_payload_11(cp_str);
 146:..\..\flexsea-comm\src/flexsea_payload.c ****             	break;
ARM GAS  C:\Users\Alex\AppData\Local\Temp\ccjqAdcx.s 			page 4


 147:..\..\flexsea-comm\src/flexsea_payload.c ****             case 12:
 148:..\..\flexsea-comm\src/flexsea_payload.c ****             	flexsea_payload_12(cp_str);
 149:..\..\flexsea-comm\src/flexsea_payload.c ****             	break;
 150:..\..\flexsea-comm\src/flexsea_payload.c ****             case 13:
 151:..\..\flexsea-comm\src/flexsea_payload.c ****             	flexsea_payload_13(cp_str);
 152:..\..\flexsea-comm\src/flexsea_payload.c ****             	break;
 153:..\..\flexsea-comm\src/flexsea_payload.c ****             case 14:
 154:..\..\flexsea-comm\src/flexsea_payload.c ****             	flexsea_payload_14(cp_str);
 155:..\..\flexsea-comm\src/flexsea_payload.c ****             	break;
 156:..\..\flexsea-comm\src/flexsea_payload.c ****             case 15:
 157:..\..\flexsea-comm\src/flexsea_payload.c ****             	flexsea_payload_15(cp_str);
 158:..\..\flexsea-comm\src/flexsea_payload.c ****             	break;
 159:..\..\flexsea-comm\src/flexsea_payload.c ****             case 16:
 160:..\..\flexsea-comm\src/flexsea_payload.c ****             	flexsea_payload_16(cp_str);
 161:..\..\flexsea-comm\src/flexsea_payload.c ****             	break;
 162:..\..\flexsea-comm\src/flexsea_payload.c ****             case 17:
 163:..\..\flexsea-comm\src/flexsea_payload.c ****             	flexsea_payload_17(cp_str);
 164:..\..\flexsea-comm\src/flexsea_payload.c ****             	break;
 165:..\..\flexsea-comm\src/flexsea_payload.c ****             case 18:
 166:..\..\flexsea-comm\src/flexsea_payload.c ****             	flexsea_payload_18(cp_str);
 167:..\..\flexsea-comm\src/flexsea_payload.c ****             	break;
 168:..\..\flexsea-comm\src/flexsea_payload.c ****             case 19:
 169:..\..\flexsea-comm\src/flexsea_payload.c ****             	flexsea_payload_19(cp_str);
 170:..\..\flexsea-comm\src/flexsea_payload.c ****             	break;
 171:..\..\flexsea-comm\src/flexsea_payload.c **** 				
 172:..\..\flexsea-comm\src/flexsea_payload.c **** 			//20-29:	
 173:..\..\flexsea-comm\src/flexsea_payload.c ****             case 20:
 174:..\..\flexsea-comm\src/flexsea_payload.c ****             	flexsea_payload_20(cp_str);
 175:..\..\flexsea-comm\src/flexsea_payload.c ****             	break;
 176:..\..\flexsea-comm\src/flexsea_payload.c ****             case 21:
 177:..\..\flexsea-comm\src/flexsea_payload.c ****             	flexsea_payload_21(cp_str);
 178:..\..\flexsea-comm\src/flexsea_payload.c ****             	break;
 179:..\..\flexsea-comm\src/flexsea_payload.c ****             case 22:
 180:..\..\flexsea-comm\src/flexsea_payload.c ****             	flexsea_payload_22(cp_str);
 181:..\..\flexsea-comm\src/flexsea_payload.c ****             	break;
 182:..\..\flexsea-comm\src/flexsea_payload.c ****             case 23:
 183:..\..\flexsea-comm\src/flexsea_payload.c ****             	flexsea_payload_23(cp_str);
 184:..\..\flexsea-comm\src/flexsea_payload.c ****             	break;
 185:..\..\flexsea-comm\src/flexsea_payload.c ****             case 24:
 186:..\..\flexsea-comm\src/flexsea_payload.c ****             	flexsea_payload_24(cp_str);
 187:..\..\flexsea-comm\src/flexsea_payload.c ****             	break;
 188:..\..\flexsea-comm\src/flexsea_payload.c ****             case 25:
 189:..\..\flexsea-comm\src/flexsea_payload.c ****             	flexsea_payload_25(cp_str);
 190:..\..\flexsea-comm\src/flexsea_payload.c ****             	break;
 191:..\..\flexsea-comm\src/flexsea_payload.c ****             case 26:
 192:..\..\flexsea-comm\src/flexsea_payload.c ****             	flexsea_payload_26(cp_str);
 193:..\..\flexsea-comm\src/flexsea_payload.c ****             	break;
 194:..\..\flexsea-comm\src/flexsea_payload.c ****             case 27:
 195:..\..\flexsea-comm\src/flexsea_payload.c ****             	flexsea_payload_27(cp_str);
 196:..\..\flexsea-comm\src/flexsea_payload.c ****             	break;
 197:..\..\flexsea-comm\src/flexsea_payload.c ****             case 28:
 198:..\..\flexsea-comm\src/flexsea_payload.c ****             	flexsea_payload_28(cp_str);
 199:..\..\flexsea-comm\src/flexsea_payload.c ****             	break;
 200:..\..\flexsea-comm\src/flexsea_payload.c ****             case 29:
 201:..\..\flexsea-comm\src/flexsea_payload.c ****             	flexsea_payload_29(cp_str);
 202:..\..\flexsea-comm\src/flexsea_payload.c ****             	break;
 203:..\..\flexsea-comm\src/flexsea_payload.c **** 				
ARM GAS  C:\Users\Alex\AppData\Local\Temp\ccjqAdcx.s 			page 5


 204:..\..\flexsea-comm\src/flexsea_payload.c **** 			//30-39:	
 205:..\..\flexsea-comm\src/flexsea_payload.c ****             case 30:
 206:..\..\flexsea-comm\src/flexsea_payload.c ****             	flexsea_payload_30(cp_str);
 207:..\..\flexsea-comm\src/flexsea_payload.c ****             	break;
 208:..\..\flexsea-comm\src/flexsea_payload.c ****             case 31:
 209:..\..\flexsea-comm\src/flexsea_payload.c ****             	flexsea_payload_31(cp_str);
 210:..\..\flexsea-comm\src/flexsea_payload.c ****             	break;
 211:..\..\flexsea-comm\src/flexsea_payload.c ****             case 32:
 212:..\..\flexsea-comm\src/flexsea_payload.c ****             	flexsea_payload_32(cp_str);
 213:..\..\flexsea-comm\src/flexsea_payload.c ****             	break;
 214:..\..\flexsea-comm\src/flexsea_payload.c ****             case 33:
 215:..\..\flexsea-comm\src/flexsea_payload.c ****             	flexsea_payload_33(cp_str);
 216:..\..\flexsea-comm\src/flexsea_payload.c ****             	break;
 217:..\..\flexsea-comm\src/flexsea_payload.c ****             case 34:
 218:..\..\flexsea-comm\src/flexsea_payload.c ****             	flexsea_payload_34(cp_str);
 219:..\..\flexsea-comm\src/flexsea_payload.c ****             	break;
 220:..\..\flexsea-comm\src/flexsea_payload.c ****             case 35:
 221:..\..\flexsea-comm\src/flexsea_payload.c ****             	flexsea_payload_35(cp_str);
 222:..\..\flexsea-comm\src/flexsea_payload.c ****             	break;
 223:..\..\flexsea-comm\src/flexsea_payload.c ****             case 36:
 224:..\..\flexsea-comm\src/flexsea_payload.c ****             	flexsea_payload_36(cp_str);
 225:..\..\flexsea-comm\src/flexsea_payload.c ****             	break;
 226:..\..\flexsea-comm\src/flexsea_payload.c ****             case 37:
 227:..\..\flexsea-comm\src/flexsea_payload.c ****             	flexsea_payload_37(cp_str);
 228:..\..\flexsea-comm\src/flexsea_payload.c ****             	break;
 229:..\..\flexsea-comm\src/flexsea_payload.c ****             case 38:
 230:..\..\flexsea-comm\src/flexsea_payload.c ****             	flexsea_payload_38(cp_str);
 231:..\..\flexsea-comm\src/flexsea_payload.c ****             	break;
 232:..\..\flexsea-comm\src/flexsea_payload.c ****             case 39:
 233:..\..\flexsea-comm\src/flexsea_payload.c ****             	flexsea_payload_39(cp_str);
 234:..\..\flexsea-comm\src/flexsea_payload.c ****             	break;
 235:..\..\flexsea-comm\src/flexsea_payload.c **** 				
 236:..\..\flexsea-comm\src/flexsea_payload.c **** 			//40-49:	
 237:..\..\flexsea-comm\src/flexsea_payload.c ****             case 40:
 238:..\..\flexsea-comm\src/flexsea_payload.c ****             	flexsea_payload_40(cp_str);
 239:..\..\flexsea-comm\src/flexsea_payload.c ****             	break;
 240:..\..\flexsea-comm\src/flexsea_payload.c ****             case 41:
 241:..\..\flexsea-comm\src/flexsea_payload.c ****             	flexsea_payload_41(cp_str);
 242:..\..\flexsea-comm\src/flexsea_payload.c ****             	break;
 243:..\..\flexsea-comm\src/flexsea_payload.c ****             case 42:
 244:..\..\flexsea-comm\src/flexsea_payload.c ****             	flexsea_payload_42(cp_str);
 245:..\..\flexsea-comm\src/flexsea_payload.c ****             	break;
 246:..\..\flexsea-comm\src/flexsea_payload.c ****             case 43:
 247:..\..\flexsea-comm\src/flexsea_payload.c ****             	flexsea_payload_43(cp_str);
 248:..\..\flexsea-comm\src/flexsea_payload.c ****             	break;
 249:..\..\flexsea-comm\src/flexsea_payload.c ****             case 44:
 250:..\..\flexsea-comm\src/flexsea_payload.c ****             	flexsea_payload_44(cp_str);
 251:..\..\flexsea-comm\src/flexsea_payload.c ****             	break;
 252:..\..\flexsea-comm\src/flexsea_payload.c ****             case 45:
 253:..\..\flexsea-comm\src/flexsea_payload.c ****             	flexsea_payload_45(cp_str);
 254:..\..\flexsea-comm\src/flexsea_payload.c ****             	break;
 255:..\..\flexsea-comm\src/flexsea_payload.c ****             case 46:
 256:..\..\flexsea-comm\src/flexsea_payload.c ****             	flexsea_payload_46(cp_str);
 257:..\..\flexsea-comm\src/flexsea_payload.c ****             	break;
 258:..\..\flexsea-comm\src/flexsea_payload.c ****             case 47:
 259:..\..\flexsea-comm\src/flexsea_payload.c ****             	flexsea_payload_47(cp_str);
 260:..\..\flexsea-comm\src/flexsea_payload.c ****             	break;
ARM GAS  C:\Users\Alex\AppData\Local\Temp\ccjqAdcx.s 			page 6


 261:..\..\flexsea-comm\src/flexsea_payload.c ****             case 48:
 262:..\..\flexsea-comm\src/flexsea_payload.c ****             	flexsea_payload_48(cp_str);
 263:..\..\flexsea-comm\src/flexsea_payload.c ****             	break;
 264:..\..\flexsea-comm\src/flexsea_payload.c ****             case 49:
 265:..\..\flexsea-comm\src/flexsea_payload.c ****             	flexsea_payload_49(cp_str);
 266:..\..\flexsea-comm\src/flexsea_payload.c ****             	break;
 267:..\..\flexsea-comm\src/flexsea_payload.c **** 				
 268:..\..\flexsea-comm\src/flexsea_payload.c **** 			//50-59:	
 269:..\..\flexsea-comm\src/flexsea_payload.c ****             case 50:
 270:..\..\flexsea-comm\src/flexsea_payload.c ****             	flexsea_payload_50(cp_str);
 271:..\..\flexsea-comm\src/flexsea_payload.c ****             	break;
 272:..\..\flexsea-comm\src/flexsea_payload.c ****             case 51:
 273:..\..\flexsea-comm\src/flexsea_payload.c ****             	flexsea_payload_51(cp_str);
 274:..\..\flexsea-comm\src/flexsea_payload.c ****             	break;
 275:..\..\flexsea-comm\src/flexsea_payload.c ****             case 52:
 276:..\..\flexsea-comm\src/flexsea_payload.c ****             	flexsea_payload_52(cp_str);
 277:..\..\flexsea-comm\src/flexsea_payload.c ****             	break;
 278:..\..\flexsea-comm\src/flexsea_payload.c ****             case 53:
 279:..\..\flexsea-comm\src/flexsea_payload.c ****             	flexsea_payload_53(cp_str);
 280:..\..\flexsea-comm\src/flexsea_payload.c ****             	break;
 281:..\..\flexsea-comm\src/flexsea_payload.c ****             case 54:
 282:..\..\flexsea-comm\src/flexsea_payload.c ****             	flexsea_payload_54(cp_str);
 283:..\..\flexsea-comm\src/flexsea_payload.c ****             	break;
 284:..\..\flexsea-comm\src/flexsea_payload.c ****             case 55:
 285:..\..\flexsea-comm\src/flexsea_payload.c ****             	flexsea_payload_55(cp_str);
 286:..\..\flexsea-comm\src/flexsea_payload.c ****             	break;
 287:..\..\flexsea-comm\src/flexsea_payload.c ****             case 56:
 288:..\..\flexsea-comm\src/flexsea_payload.c ****             	flexsea_payload_56(cp_str);
 289:..\..\flexsea-comm\src/flexsea_payload.c ****             	break;
 290:..\..\flexsea-comm\src/flexsea_payload.c ****             case 57:
 291:..\..\flexsea-comm\src/flexsea_payload.c ****             	flexsea_payload_57(cp_str);
 292:..\..\flexsea-comm\src/flexsea_payload.c ****             	break;
 293:..\..\flexsea-comm\src/flexsea_payload.c ****             case 58:
 294:..\..\flexsea-comm\src/flexsea_payload.c ****             	flexsea_payload_58(cp_str);
 295:..\..\flexsea-comm\src/flexsea_payload.c ****             	break;
 296:..\..\flexsea-comm\src/flexsea_payload.c ****             case 59:
 297:..\..\flexsea-comm\src/flexsea_payload.c ****             	flexsea_payload_59(cp_str);
 298:..\..\flexsea-comm\src/flexsea_payload.c ****             	break;
 299:..\..\flexsea-comm\src/flexsea_payload.c **** 				
 300:..\..\flexsea-comm\src/flexsea_payload.c **** 			//60-69:	
 301:..\..\flexsea-comm\src/flexsea_payload.c ****             case 60:
 302:..\..\flexsea-comm\src/flexsea_payload.c ****             	flexsea_payload_60(cp_str);
 303:..\..\flexsea-comm\src/flexsea_payload.c ****             	break;
 304:..\..\flexsea-comm\src/flexsea_payload.c ****             case 61:
 305:..\..\flexsea-comm\src/flexsea_payload.c ****             	flexsea_payload_61(cp_str);
 306:..\..\flexsea-comm\src/flexsea_payload.c ****             	break;
 307:..\..\flexsea-comm\src/flexsea_payload.c ****             case 62:
 308:..\..\flexsea-comm\src/flexsea_payload.c ****             	flexsea_payload_62(cp_str);
 309:..\..\flexsea-comm\src/flexsea_payload.c ****             	break;
 310:..\..\flexsea-comm\src/flexsea_payload.c ****             case 63:
 311:..\..\flexsea-comm\src/flexsea_payload.c ****             	flexsea_payload_63(cp_str);
 312:..\..\flexsea-comm\src/flexsea_payload.c ****             	break;
 313:..\..\flexsea-comm\src/flexsea_payload.c ****             case 64:
 314:..\..\flexsea-comm\src/flexsea_payload.c ****             	flexsea_payload_64(cp_str);
 315:..\..\flexsea-comm\src/flexsea_payload.c ****             	break;
 316:..\..\flexsea-comm\src/flexsea_payload.c ****             case 65:
 317:..\..\flexsea-comm\src/flexsea_payload.c ****             	flexsea_payload_65(cp_str);
ARM GAS  C:\Users\Alex\AppData\Local\Temp\ccjqAdcx.s 			page 7


 318:..\..\flexsea-comm\src/flexsea_payload.c ****             	break;
 319:..\..\flexsea-comm\src/flexsea_payload.c ****             case 66:
 320:..\..\flexsea-comm\src/flexsea_payload.c ****             	flexsea_payload_66(cp_str);
 321:..\..\flexsea-comm\src/flexsea_payload.c ****             	break;
 322:..\..\flexsea-comm\src/flexsea_payload.c ****             case 67:
 323:..\..\flexsea-comm\src/flexsea_payload.c ****             	flexsea_payload_67(cp_str);
 324:..\..\flexsea-comm\src/flexsea_payload.c ****             	break;
 325:..\..\flexsea-comm\src/flexsea_payload.c ****             case 68:
 326:..\..\flexsea-comm\src/flexsea_payload.c ****             	flexsea_payload_68(cp_str);
 327:..\..\flexsea-comm\src/flexsea_payload.c ****             	break;
 328:..\..\flexsea-comm\src/flexsea_payload.c ****             case 69:
 329:..\..\flexsea-comm\src/flexsea_payload.c ****             	flexsea_payload_69(cp_str);
 330:..\..\flexsea-comm\src/flexsea_payload.c ****             	break;
 331:..\..\flexsea-comm\src/flexsea_payload.c **** 				
 332:..\..\flexsea-comm\src/flexsea_payload.c **** 			//70-79:	
 333:..\..\flexsea-comm\src/flexsea_payload.c ****             case 70:
 334:..\..\flexsea-comm\src/flexsea_payload.c ****             	flexsea_payload_70(cp_str);
 335:..\..\flexsea-comm\src/flexsea_payload.c ****             	break;
 336:..\..\flexsea-comm\src/flexsea_payload.c ****             case 71:
 337:..\..\flexsea-comm\src/flexsea_payload.c ****             	flexsea_payload_71(cp_str);
 338:..\..\flexsea-comm\src/flexsea_payload.c ****             	break;
 339:..\..\flexsea-comm\src/flexsea_payload.c ****             case 72:
 340:..\..\flexsea-comm\src/flexsea_payload.c ****             	flexsea_payload_72(cp_str);
 341:..\..\flexsea-comm\src/flexsea_payload.c ****             	break;
 342:..\..\flexsea-comm\src/flexsea_payload.c ****             case 73:
 343:..\..\flexsea-comm\src/flexsea_payload.c ****             	flexsea_payload_73(cp_str);
 344:..\..\flexsea-comm\src/flexsea_payload.c ****             	break;
 345:..\..\flexsea-comm\src/flexsea_payload.c ****             case 74:
 346:..\..\flexsea-comm\src/flexsea_payload.c ****             	flexsea_payload_74(cp_str);
 347:..\..\flexsea-comm\src/flexsea_payload.c ****             	break;
 348:..\..\flexsea-comm\src/flexsea_payload.c ****             case 75:
 349:..\..\flexsea-comm\src/flexsea_payload.c ****             	flexsea_payload_75(cp_str);
 350:..\..\flexsea-comm\src/flexsea_payload.c ****             	break;
 351:..\..\flexsea-comm\src/flexsea_payload.c ****             case 76:
 352:..\..\flexsea-comm\src/flexsea_payload.c ****             	flexsea_payload_76(cp_str);
 353:..\..\flexsea-comm\src/flexsea_payload.c ****             	break;
 354:..\..\flexsea-comm\src/flexsea_payload.c ****             case 77:
 355:..\..\flexsea-comm\src/flexsea_payload.c ****             	flexsea_payload_77(cp_str);
 356:..\..\flexsea-comm\src/flexsea_payload.c ****             	break;
 357:..\..\flexsea-comm\src/flexsea_payload.c ****             case 78:
 358:..\..\flexsea-comm\src/flexsea_payload.c ****             	flexsea_payload_78(cp_str);
 359:..\..\flexsea-comm\src/flexsea_payload.c ****             	break;
 360:..\..\flexsea-comm\src/flexsea_payload.c ****             case 79:
 361:..\..\flexsea-comm\src/flexsea_payload.c ****             	flexsea_payload_79(cp_str);
 362:..\..\flexsea-comm\src/flexsea_payload.c ****             	break;
 363:..\..\flexsea-comm\src/flexsea_payload.c **** 				
 364:..\..\flexsea-comm\src/flexsea_payload.c **** 			//80-89:	
 365:..\..\flexsea-comm\src/flexsea_payload.c ****             case 80:
 366:..\..\flexsea-comm\src/flexsea_payload.c ****             	flexsea_payload_80(cp_str);
 367:..\..\flexsea-comm\src/flexsea_payload.c ****             	break;
 368:..\..\flexsea-comm\src/flexsea_payload.c ****             case 81:
 369:..\..\flexsea-comm\src/flexsea_payload.c ****             	flexsea_payload_81(cp_str);
 370:..\..\flexsea-comm\src/flexsea_payload.c ****             	break;
 371:..\..\flexsea-comm\src/flexsea_payload.c ****             case 82:
 372:..\..\flexsea-comm\src/flexsea_payload.c ****             	flexsea_payload_82(cp_str);
 373:..\..\flexsea-comm\src/flexsea_payload.c ****             	break;
 374:..\..\flexsea-comm\src/flexsea_payload.c ****             case 83:
ARM GAS  C:\Users\Alex\AppData\Local\Temp\ccjqAdcx.s 			page 8


 375:..\..\flexsea-comm\src/flexsea_payload.c ****             	flexsea_payload_83(cp_str);
 376:..\..\flexsea-comm\src/flexsea_payload.c ****             	break;
 377:..\..\flexsea-comm\src/flexsea_payload.c ****             case 84:
 378:..\..\flexsea-comm\src/flexsea_payload.c ****             	flexsea_payload_84(cp_str);
 379:..\..\flexsea-comm\src/flexsea_payload.c ****             	break;
 380:..\..\flexsea-comm\src/flexsea_payload.c ****             case 85:
 381:..\..\flexsea-comm\src/flexsea_payload.c ****             	flexsea_payload_85(cp_str);
 382:..\..\flexsea-comm\src/flexsea_payload.c ****             	break;
 383:..\..\flexsea-comm\src/flexsea_payload.c ****             case 86:
 384:..\..\flexsea-comm\src/flexsea_payload.c ****             	flexsea_payload_86(cp_str);
 385:..\..\flexsea-comm\src/flexsea_payload.c ****             	break;
 386:..\..\flexsea-comm\src/flexsea_payload.c ****             case 87:
 387:..\..\flexsea-comm\src/flexsea_payload.c ****             	flexsea_payload_87(cp_str);
 388:..\..\flexsea-comm\src/flexsea_payload.c ****             	break;
 389:..\..\flexsea-comm\src/flexsea_payload.c ****             case 88:
 390:..\..\flexsea-comm\src/flexsea_payload.c ****             	flexsea_payload_88(cp_str);
 391:..\..\flexsea-comm\src/flexsea_payload.c ****             	break;
 392:..\..\flexsea-comm\src/flexsea_payload.c ****             case 89:
 393:..\..\flexsea-comm\src/flexsea_payload.c ****             	flexsea_payload_89(cp_str);
 394:..\..\flexsea-comm\src/flexsea_payload.c ****             	break;				
 395:..\..\flexsea-comm\src/flexsea_payload.c **** 
 396:..\..\flexsea-comm\src/flexsea_payload.c **** 			//90-99:	
 397:..\..\flexsea-comm\src/flexsea_payload.c ****             case 90:
 398:..\..\flexsea-comm\src/flexsea_payload.c ****             	flexsea_payload_90(cp_str);
 399:..\..\flexsea-comm\src/flexsea_payload.c ****             	break;
 400:..\..\flexsea-comm\src/flexsea_payload.c ****             case 91:
 401:..\..\flexsea-comm\src/flexsea_payload.c ****             	flexsea_payload_91(cp_str);
 402:..\..\flexsea-comm\src/flexsea_payload.c ****             	break;
 403:..\..\flexsea-comm\src/flexsea_payload.c ****             case 92:
 404:..\..\flexsea-comm\src/flexsea_payload.c ****             	flexsea_payload_92(cp_str);
 405:..\..\flexsea-comm\src/flexsea_payload.c ****             	break;
 406:..\..\flexsea-comm\src/flexsea_payload.c ****             case 93:
 407:..\..\flexsea-comm\src/flexsea_payload.c ****             	flexsea_payload_93(cp_str);
 408:..\..\flexsea-comm\src/flexsea_payload.c ****             	break;
 409:..\..\flexsea-comm\src/flexsea_payload.c ****             case 94:
 410:..\..\flexsea-comm\src/flexsea_payload.c ****             	flexsea_payload_94(cp_str);
 411:..\..\flexsea-comm\src/flexsea_payload.c ****             	break;
 412:..\..\flexsea-comm\src/flexsea_payload.c ****             case 95:
 413:..\..\flexsea-comm\src/flexsea_payload.c ****             	flexsea_payload_95(cp_str);
 414:..\..\flexsea-comm\src/flexsea_payload.c ****             	break;
 415:..\..\flexsea-comm\src/flexsea_payload.c ****             case 96:
 416:..\..\flexsea-comm\src/flexsea_payload.c ****             	flexsea_payload_96(cp_str);
 417:..\..\flexsea-comm\src/flexsea_payload.c ****             	break;
 418:..\..\flexsea-comm\src/flexsea_payload.c ****             case 97:
 419:..\..\flexsea-comm\src/flexsea_payload.c ****             	flexsea_payload_97(cp_str);
 420:..\..\flexsea-comm\src/flexsea_payload.c ****             	break;
 421:..\..\flexsea-comm\src/flexsea_payload.c ****             case 98:
 422:..\..\flexsea-comm\src/flexsea_payload.c ****             	flexsea_payload_98(cp_str);
 423:..\..\flexsea-comm\src/flexsea_payload.c ****             	break;
 424:..\..\flexsea-comm\src/flexsea_payload.c ****             case 99:
 425:..\..\flexsea-comm\src/flexsea_payload.c ****             	flexsea_payload_99(cp_str);
 426:..\..\flexsea-comm\src/flexsea_payload.c ****             	break;
 427:..\..\flexsea-comm\src/flexsea_payload.c **** 				
 428:..\..\flexsea-comm\src/flexsea_payload.c **** 			//100-109:	
 429:..\..\flexsea-comm\src/flexsea_payload.c ****             case 100:
 430:..\..\flexsea-comm\src/flexsea_payload.c ****             	flexsea_payload_100(cp_str);
 431:..\..\flexsea-comm\src/flexsea_payload.c ****             	break;
ARM GAS  C:\Users\Alex\AppData\Local\Temp\ccjqAdcx.s 			page 9


 432:..\..\flexsea-comm\src/flexsea_payload.c ****             case 101:
 433:..\..\flexsea-comm\src/flexsea_payload.c ****             	flexsea_payload_101(cp_str);
 434:..\..\flexsea-comm\src/flexsea_payload.c ****             	break;
 435:..\..\flexsea-comm\src/flexsea_payload.c ****             case 102:
 436:..\..\flexsea-comm\src/flexsea_payload.c ****             	flexsea_payload_102(cp_str);
 437:..\..\flexsea-comm\src/flexsea_payload.c ****             	break;
 438:..\..\flexsea-comm\src/flexsea_payload.c ****             case 103:
 439:..\..\flexsea-comm\src/flexsea_payload.c ****             	flexsea_payload_103(cp_str);
 440:..\..\flexsea-comm\src/flexsea_payload.c ****             	break;
 441:..\..\flexsea-comm\src/flexsea_payload.c ****             case 104:
 442:..\..\flexsea-comm\src/flexsea_payload.c ****             	flexsea_payload_104(cp_str);
 443:..\..\flexsea-comm\src/flexsea_payload.c ****             	break;
 444:..\..\flexsea-comm\src/flexsea_payload.c ****             case 105:
 445:..\..\flexsea-comm\src/flexsea_payload.c ****             	flexsea_payload_105(cp_str);
 446:..\..\flexsea-comm\src/flexsea_payload.c ****             	break;
 447:..\..\flexsea-comm\src/flexsea_payload.c ****             case 106:
 448:..\..\flexsea-comm\src/flexsea_payload.c ****             	flexsea_payload_106(cp_str);
 449:..\..\flexsea-comm\src/flexsea_payload.c ****             	break;
 450:..\..\flexsea-comm\src/flexsea_payload.c ****             case 107:
 451:..\..\flexsea-comm\src/flexsea_payload.c ****             	flexsea_payload_107(cp_str);
 452:..\..\flexsea-comm\src/flexsea_payload.c ****             	break;
 453:..\..\flexsea-comm\src/flexsea_payload.c ****             case 108:
 454:..\..\flexsea-comm\src/flexsea_payload.c ****             	flexsea_payload_108(cp_str);
 455:..\..\flexsea-comm\src/flexsea_payload.c ****             	break;
 456:..\..\flexsea-comm\src/flexsea_payload.c ****             case 109:
 457:..\..\flexsea-comm\src/flexsea_payload.c ****             	flexsea_payload_109(cp_str);
 458:..\..\flexsea-comm\src/flexsea_payload.c ****             	break;
 459:..\..\flexsea-comm\src/flexsea_payload.c **** 				
 460:..\..\flexsea-comm\src/flexsea_payload.c **** 			//110-119:	
 461:..\..\flexsea-comm\src/flexsea_payload.c ****             case 110:
 462:..\..\flexsea-comm\src/flexsea_payload.c ****             	flexsea_payload_110(cp_str);
 463:..\..\flexsea-comm\src/flexsea_payload.c ****             	break;
 464:..\..\flexsea-comm\src/flexsea_payload.c ****             case 111:
 465:..\..\flexsea-comm\src/flexsea_payload.c ****             	flexsea_payload_111(cp_str);
 466:..\..\flexsea-comm\src/flexsea_payload.c ****             	break;
 467:..\..\flexsea-comm\src/flexsea_payload.c ****             case 112:
 468:..\..\flexsea-comm\src/flexsea_payload.c ****             	flexsea_payload_112(cp_str);
 469:..\..\flexsea-comm\src/flexsea_payload.c ****             	break;
 470:..\..\flexsea-comm\src/flexsea_payload.c ****             case 113:
 471:..\..\flexsea-comm\src/flexsea_payload.c ****             	flexsea_payload_113(cp_str);
 472:..\..\flexsea-comm\src/flexsea_payload.c ****             	break;
 473:..\..\flexsea-comm\src/flexsea_payload.c ****             case 114:
 474:..\..\flexsea-comm\src/flexsea_payload.c ****             	flexsea_payload_114(cp_str);
 475:..\..\flexsea-comm\src/flexsea_payload.c ****             	break;
 476:..\..\flexsea-comm\src/flexsea_payload.c ****             case 115:
 477:..\..\flexsea-comm\src/flexsea_payload.c ****             	flexsea_payload_115(cp_str);
 478:..\..\flexsea-comm\src/flexsea_payload.c ****             	break;
 479:..\..\flexsea-comm\src/flexsea_payload.c ****             case 116:
 480:..\..\flexsea-comm\src/flexsea_payload.c ****             	flexsea_payload_116(cp_str);
 481:..\..\flexsea-comm\src/flexsea_payload.c ****             	break;
 482:..\..\flexsea-comm\src/flexsea_payload.c ****             case 117:
 483:..\..\flexsea-comm\src/flexsea_payload.c ****             	flexsea_payload_117(cp_str);
 484:..\..\flexsea-comm\src/flexsea_payload.c ****             	break;
 485:..\..\flexsea-comm\src/flexsea_payload.c ****             case 118:
 486:..\..\flexsea-comm\src/flexsea_payload.c ****             	flexsea_payload_118(cp_str);
 487:..\..\flexsea-comm\src/flexsea_payload.c ****             	break;
 488:..\..\flexsea-comm\src/flexsea_payload.c ****             case 119:
ARM GAS  C:\Users\Alex\AppData\Local\Temp\ccjqAdcx.s 			page 10


 489:..\..\flexsea-comm\src/flexsea_payload.c ****             	flexsea_payload_119(cp_str);
 490:..\..\flexsea-comm\src/flexsea_payload.c ****             	break;
 491:..\..\flexsea-comm\src/flexsea_payload.c **** 				
 492:..\..\flexsea-comm\src/flexsea_payload.c **** 			//120-127:	
 493:..\..\flexsea-comm\src/flexsea_payload.c ****             case 120:
 494:..\..\flexsea-comm\src/flexsea_payload.c ****             	flexsea_payload_120(cp_str);
 495:..\..\flexsea-comm\src/flexsea_payload.c ****             	break;
 496:..\..\flexsea-comm\src/flexsea_payload.c ****             case 121:
 497:..\..\flexsea-comm\src/flexsea_payload.c ****             	flexsea_payload_121(cp_str);
 498:..\..\flexsea-comm\src/flexsea_payload.c ****             	break;
 499:..\..\flexsea-comm\src/flexsea_payload.c ****             case 122:
 500:..\..\flexsea-comm\src/flexsea_payload.c ****             	flexsea_payload_122(cp_str);
 501:..\..\flexsea-comm\src/flexsea_payload.c ****             	break;
 502:..\..\flexsea-comm\src/flexsea_payload.c ****             case 123:
 503:..\..\flexsea-comm\src/flexsea_payload.c ****             	flexsea_payload_123(cp_str);
 504:..\..\flexsea-comm\src/flexsea_payload.c ****             	break;
 505:..\..\flexsea-comm\src/flexsea_payload.c ****             case 124:
 506:..\..\flexsea-comm\src/flexsea_payload.c ****             	flexsea_payload_124(cp_str);
 507:..\..\flexsea-comm\src/flexsea_payload.c ****             	break;
 508:..\..\flexsea-comm\src/flexsea_payload.c ****             case 125:
 509:..\..\flexsea-comm\src/flexsea_payload.c ****             	flexsea_payload_125(cp_str);
 510:..\..\flexsea-comm\src/flexsea_payload.c ****             	break;
 511:..\..\flexsea-comm\src/flexsea_payload.c ****             case 126:
 512:..\..\flexsea-comm\src/flexsea_payload.c ****             	flexsea_payload_126(cp_str);
 513:..\..\flexsea-comm\src/flexsea_payload.c ****             	break;
 514:..\..\flexsea-comm\src/flexsea_payload.c ****             case 127:
 515:..\..\flexsea-comm\src/flexsea_payload.c ****             	flexsea_payload_127(cp_str);
 516:..\..\flexsea-comm\src/flexsea_payload.c ****             	break;
 517:..\..\flexsea-comm\src/flexsea_payload.c **** 			
 518:..\..\flexsea-comm\src/flexsea_payload.c **** 			//Unknown command:
 519:..\..\flexsea-comm\src/flexsea_payload.c ****             default:
 520:..\..\flexsea-comm\src/flexsea_payload.c ****                 output = PARSE_UNKNOWN_CMD;
 521:..\..\flexsea-comm\src/flexsea_payload.c ****                 break;
 522:..\..\flexsea-comm\src/flexsea_payload.c ****         }
 523:..\..\flexsea-comm\src/flexsea_payload.c **** 
 524:..\..\flexsea-comm\src/flexsea_payload.c ****         return output;
 525:..\..\flexsea-comm\src/flexsea_payload.c ****     }
 526:..\..\flexsea-comm\src/flexsea_payload.c ****     else if(id == ID_SUB1_MATCH)
 527:..\..\flexsea-comm\src/flexsea_payload.c ****     {
 528:..\..\flexsea-comm\src/flexsea_payload.c ****         //For a slave on bus #1:
 529:..\..\flexsea-comm\src/flexsea_payload.c **** 
 530:..\..\flexsea-comm\src/flexsea_payload.c ****     	route_to_slave(PORT_SUB1, cp_str, PAYLOAD_BUF_LEN);
 531:..\..\flexsea-comm\src/flexsea_payload.c ****     	//ToDo compute length rather then sending the max
 532:..\..\flexsea-comm\src/flexsea_payload.c ****     }
 533:..\..\flexsea-comm\src/flexsea_payload.c ****     else if(id == ID_SUB2_MATCH)
 534:..\..\flexsea-comm\src/flexsea_payload.c ****     {
 535:..\..\flexsea-comm\src/flexsea_payload.c ****     	//For a slave on bus #2:
 536:..\..\flexsea-comm\src/flexsea_payload.c **** 
 537:..\..\flexsea-comm\src/flexsea_payload.c ****     	route_to_slave(PORT_SUB2, cp_str, PAYLOAD_BUF_LEN);
 538:..\..\flexsea-comm\src/flexsea_payload.c ****     	//ToDo compute length rather then sending the max
 539:..\..\flexsea-comm\src/flexsea_payload.c ****     }
 540:..\..\flexsea-comm\src/flexsea_payload.c ****     else if(id == ID_UP_MATCH)
 541:..\..\flexsea-comm\src/flexsea_payload.c ****     {
 542:..\..\flexsea-comm\src/flexsea_payload.c ****         //For my master:
 543:..\..\flexsea-comm\src/flexsea_payload.c **** 		
 544:..\..\flexsea-comm\src/flexsea_payload.c **** 		#ifdef BOARD_TYPE_FLEXSEA_MANAGE
 545:..\..\flexsea-comm\src/flexsea_payload.c **** 
ARM GAS  C:\Users\Alex\AppData\Local\Temp\ccjqAdcx.s 			page 11


 546:..\..\flexsea-comm\src/flexsea_payload.c ****     	//Manage is the only board that can receive a package destined to his master
 547:..\..\flexsea-comm\src/flexsea_payload.c **** 
 548:..\..\flexsea-comm\src/flexsea_payload.c ****         //Repackages the payload. ToDo: would be more efficient to just resend the comm_str
 549:..\..\flexsea-comm\src/flexsea_payload.c ****         numb = comm_gen_str(cp_str, comm_str_usb, PAYLOAD_BUF_LEN);		//ToDo: shouldn't be fixed at 
 550:..\..\flexsea-comm\src/flexsea_payload.c ****         numb = COMM_STR_BUF_LEN;    //Fixed length for now
 551:..\..\flexsea-comm\src/flexsea_payload.c ****         flexsea_send_serial_master(PORT_USB, comm_str_usb, numb);	//Same comment here - ToDo fix
 552:..\..\flexsea-comm\src/flexsea_payload.c ****         //(the SPI driver will grab comm_str_spi directly)
 553:..\..\flexsea-comm\src/flexsea_payload.c **** 
 554:..\..\flexsea-comm\src/flexsea_payload.c **** 		#endif	//BOARD_TYPE_FLEXSEA_MANAGE
 555:..\..\flexsea-comm\src/flexsea_payload.c ****     }
 556:..\..\flexsea-comm\src/flexsea_payload.c ****     else
 557:..\..\flexsea-comm\src/flexsea_payload.c ****     {
 558:..\..\flexsea-comm\src/flexsea_payload.c ****         return PARSE_ID_NO_MATCH;
 559:..\..\flexsea-comm\src/flexsea_payload.c ****     }
 560:..\..\flexsea-comm\src/flexsea_payload.c **** 
 561:..\..\flexsea-comm\src/flexsea_payload.c ****     //Shouldn't get here...
 562:..\..\flexsea-comm\src/flexsea_payload.c ****     return PARSE_DEFAULT;
 563:..\..\flexsea-comm\src/flexsea_payload.c **** }
 564:..\..\flexsea-comm\src/flexsea_payload.c **** 
 565:..\..\flexsea-comm\src/flexsea_payload.c **** //****************************************************************************
 566:..\..\flexsea-comm\src/flexsea_payload.c **** // Private Function(s):
 567:..\..\flexsea-comm\src/flexsea_payload.c **** //****************************************************************************
 568:..\..\flexsea-comm\src/flexsea_payload.c **** 
 569:..\..\flexsea-comm\src/flexsea_payload.c **** //ToDo not the greatest function...
 570:..\..\flexsea-comm\src/flexsea_payload.c **** static void route_to_slave(uint8_t port, uint8_t *buf, uint32_t len)
 571:..\..\flexsea-comm\src/flexsea_payload.c **** {
 572:..\..\flexsea-comm\src/flexsea_payload.c **** 	uint32_t numb = 0, i = 0;
 573:..\..\flexsea-comm\src/flexsea_payload.c **** 	uint8_t *comm_str_ptr = slaves_485_1.xmit.str;
 574:..\..\flexsea-comm\src/flexsea_payload.c **** 	
 575:..\..\flexsea-comm\src/flexsea_payload.c **** 	#ifdef BOARD_TYPE_FLEXSEA_MANAGE
 576:..\..\flexsea-comm\src/flexsea_payload.c **** 
 577:..\..\flexsea-comm\src/flexsea_payload.c ****     //Repackages the payload. ToDo: would be more efficient to just resend the comm_str
 578:..\..\flexsea-comm\src/flexsea_payload.c ****     numb = comm_gen_str(buf, comm_str_tmp, len);
 579:..\..\flexsea-comm\src/flexsea_payload.c ****     //numb = COMM_STR_BUF_LEN;    //Fixed length for now
 580:..\..\flexsea-comm\src/flexsea_payload.c **** 
 581:..\..\flexsea-comm\src/flexsea_payload.c ****     //Port specific flags and buffer:
 582:..\..\flexsea-comm\src/flexsea_payload.c ****     if(port == PORT_RS485_1)
 583:..\..\flexsea-comm\src/flexsea_payload.c ****     {
 584:..\..\flexsea-comm\src/flexsea_payload.c ****     	comm_str_ptr = slaves_485_1.xmit.str;
 585:..\..\flexsea-comm\src/flexsea_payload.c ****     	slaves_485_1.xmit.cmd = buf[P_CMD1];
 586:..\..\flexsea-comm\src/flexsea_payload.c ****     	slaves_485_1.xmit.flag = 1;
 587:..\..\flexsea-comm\src/flexsea_payload.c ****     }
 588:..\..\flexsea-comm\src/flexsea_payload.c ****     else if(port == PORT_RS485_2)
 589:..\..\flexsea-comm\src/flexsea_payload.c ****     {
 590:..\..\flexsea-comm\src/flexsea_payload.c ****     	comm_str_ptr = slaves_485_2.xmit.str;
 591:..\..\flexsea-comm\src/flexsea_payload.c ****     	slaves_485_2.xmit.cmd = buf[P_CMD1];
 592:..\..\flexsea-comm\src/flexsea_payload.c ****     	slaves_485_2.xmit.flag = 1;
 593:..\..\flexsea-comm\src/flexsea_payload.c ****     }
 594:..\..\flexsea-comm\src/flexsea_payload.c **** 
 595:..\..\flexsea-comm\src/flexsea_payload.c ****     //Copy string:
 596:..\..\flexsea-comm\src/flexsea_payload.c ****     for(i = 0; i < numb+1; i++)
 597:..\..\flexsea-comm\src/flexsea_payload.c ****     {
 598:..\..\flexsea-comm\src/flexsea_payload.c ****     	comm_str_ptr[i] = comm_str_tmp[i];
 599:..\..\flexsea-comm\src/flexsea_payload.c ****     }
 600:..\..\flexsea-comm\src/flexsea_payload.c **** 	
 601:..\..\flexsea-comm\src/flexsea_payload.c **** 	#endif 	//BOARD_TYPE_FLEXSEA_MANAGE
 602:..\..\flexsea-comm\src/flexsea_payload.c **** }
ARM GAS  C:\Users\Alex\AppData\Local\Temp\ccjqAdcx.s 			page 12


 603:..\..\flexsea-comm\src/flexsea_payload.c **** 
 604:..\..\flexsea-comm\src/flexsea_payload.c **** //Is it addressed to me? To a board "below" me? Or to my Master?
 605:..\..\flexsea-comm\src/flexsea_payload.c **** static uint8_t get_rid(uint8_t *pldata)
 606:..\..\flexsea-comm\src/flexsea_payload.c **** {
  26              		.loc 1 606 0
  27              		.cfi_startproc
  28              		@ args = 0, pretend = 0, frame = 0
  29              		@ frame_needed = 0, uses_anonymous_args = 0
  30              		@ link register save eliminated.
  31              	.LVL0:
 607:..\..\flexsea-comm\src/flexsea_payload.c **** 	uint8_t cp_rid = pldata[P_RID];
  32              		.loc 1 607 0
  33 0000 4378     		ldrb	r3, [r0, #1]	@ zero_extendqisi2
  34              	.LVL1:
 608:..\..\flexsea-comm\src/flexsea_payload.c **** 	uint8_t i = 0;
 609:..\..\flexsea-comm\src/flexsea_payload.c **** 
 610:..\..\flexsea-comm\src/flexsea_payload.c **** 	if(cp_rid == board_id)				//This board?
  35              		.loc 1 610 0
  36 0002 074A     		ldr	r2, .L5
  37 0004 1278     		ldrb	r2, [r2]	@ zero_extendqisi2
  38 0006 9342     		cmp	r3, r2
  39 0008 05D0     		beq	.L3
 611:..\..\flexsea-comm\src/flexsea_payload.c **** 	{
 612:..\..\flexsea-comm\src/flexsea_payload.c **** 		return ID_MATCH;
 613:..\..\flexsea-comm\src/flexsea_payload.c **** 	}
 614:..\..\flexsea-comm\src/flexsea_payload.c **** 	else if(cp_rid == board_up_id)		//Master?
  40              		.loc 1 614 0
  41 000a 064A     		ldr	r2, .L5+4
  42 000c 1278     		ldrb	r2, [r2]	@ zero_extendqisi2
  43 000e 9342     		cmp	r3, r2
  44 0010 03D1     		bne	.L4
 615:..\..\flexsea-comm\src/flexsea_payload.c **** 	{
 616:..\..\flexsea-comm\src/flexsea_payload.c **** 		return ID_UP_MATCH;
  45              		.loc 1 616 0
  46 0012 0420     		movs	r0, #4
  47              	.LVL2:
  48 0014 7047     		bx	lr
  49              	.LVL3:
  50              	.L3:
 612:..\..\flexsea-comm\src/flexsea_payload.c **** 	}
  51              		.loc 1 612 0
  52 0016 0120     		movs	r0, #1
  53              	.LVL4:
  54 0018 7047     		bx	lr
  55              	.LVL5:
  56              	.L4:
 617:..\..\flexsea-comm\src/flexsea_payload.c **** 	}
 618:..\..\flexsea-comm\src/flexsea_payload.c **** 	else
 619:..\..\flexsea-comm\src/flexsea_payload.c **** 	{
 620:..\..\flexsea-comm\src/flexsea_payload.c **** 		//Can be on a slave bus, or can be invalid.
 621:..\..\flexsea-comm\src/flexsea_payload.c **** 
 622:..\..\flexsea-comm\src/flexsea_payload.c **** 		//Search on slave bus #1:
 623:..\..\flexsea-comm\src/flexsea_payload.c **** 		for(i = 0; i < SLAVE_BUS_1_CNT; i++)
 624:..\..\flexsea-comm\src/flexsea_payload.c **** 		{
 625:..\..\flexsea-comm\src/flexsea_payload.c **** 			if(cp_rid == board_sub1_id[i])
 626:..\..\flexsea-comm\src/flexsea_payload.c **** 			{
 627:..\..\flexsea-comm\src/flexsea_payload.c **** 				return ID_SUB1_MATCH;
ARM GAS  C:\Users\Alex\AppData\Local\Temp\ccjqAdcx.s 			page 13


 628:..\..\flexsea-comm\src/flexsea_payload.c **** 			}
 629:..\..\flexsea-comm\src/flexsea_payload.c **** 		}
 630:..\..\flexsea-comm\src/flexsea_payload.c **** 
 631:..\..\flexsea-comm\src/flexsea_payload.c **** 		//Then on bus #2:
 632:..\..\flexsea-comm\src/flexsea_payload.c **** 		for(i = 0; i < SLAVE_BUS_1_CNT; i++)
 633:..\..\flexsea-comm\src/flexsea_payload.c **** 		{
 634:..\..\flexsea-comm\src/flexsea_payload.c **** 			if(cp_rid == board_sub2_id[i])
 635:..\..\flexsea-comm\src/flexsea_payload.c **** 			{
 636:..\..\flexsea-comm\src/flexsea_payload.c **** 				return ID_SUB2_MATCH;
 637:..\..\flexsea-comm\src/flexsea_payload.c **** 			}
 638:..\..\flexsea-comm\src/flexsea_payload.c **** 		}
 639:..\..\flexsea-comm\src/flexsea_payload.c **** 	}
 640:..\..\flexsea-comm\src/flexsea_payload.c **** 
 641:..\..\flexsea-comm\src/flexsea_payload.c **** 	//If we end up here it's because we didn't get a match:
 642:..\..\flexsea-comm\src/flexsea_payload.c **** 	return ID_NO_MATCH;
  57              		.loc 1 642 0
  58 001a 0020     		movs	r0, #0
  59              	.LVL6:
 643:..\..\flexsea-comm\src/flexsea_payload.c **** }
  60              		.loc 1 643 0
  61 001c 7047     		bx	lr
  62              	.L6:
  63 001e 00BF     		.align	2
  64              	.L5:
  65 0020 00000000 		.word	board_id
  66 0024 00000000 		.word	board_up_id
  67              		.cfi_endproc
  68              	.LFE5:
  69              		.size	get_rid, .-get_rid
  70              		.section	.text.prepare_empty_payload,"ax",%progbits
  71              		.align	2
  72              		.global	prepare_empty_payload
  73              		.thumb
  74              		.thumb_func
  75              		.type	prepare_empty_payload, %function
  76              	prepare_empty_payload:
  77              	.LFB0:
  43:..\..\flexsea-comm\src/flexsea_payload.c **** 	//Start fresh:
  78              		.loc 1 43 0
  79              		.cfi_startproc
  80              		@ args = 0, pretend = 0, frame = 0
  81              		@ frame_needed = 0, uses_anonymous_args = 0
  82              	.LVL7:
  83 0000 70B5     		push	{r4, r5, r6, lr}
  84              		.cfi_def_cfa_offset 16
  85              		.cfi_offset 4, -16
  86              		.cfi_offset 5, -12
  87              		.cfi_offset 6, -8
  88              		.cfi_offset 14, -4
  89 0002 0646     		mov	r6, r0
  90 0004 0D46     		mov	r5, r1
  91 0006 1446     		mov	r4, r2
  45:..\..\flexsea-comm\src/flexsea_payload.c **** 
  92              		.loc 1 45 0
  93 0008 1046     		mov	r0, r2
  94              	.LVL8:
  95 000a 1946     		mov	r1, r3
ARM GAS  C:\Users\Alex\AppData\Local\Temp\ccjqAdcx.s 			page 14


  96              	.LVL9:
  97 000c 0022     		movs	r2, #0
  98              	.LVL10:
  99 000e FFF7FEFF 		bl	fill_uint8_buf
 100              	.LVL11:
  48:..\..\flexsea-comm\src/flexsea_payload.c ****     buf[P_RID] = to;
 101              		.loc 1 48 0
 102 0012 2670     		strb	r6, [r4]
  49:..\..\flexsea-comm\src/flexsea_payload.c **** }
 103              		.loc 1 49 0
 104 0014 6570     		strb	r5, [r4, #1]
 105 0016 70BD     		pop	{r4, r5, r6, pc}
 106              		.cfi_endproc
 107              	.LFE0:
 108              		.size	prepare_empty_payload, .-prepare_empty_payload
 109              		.section	.text.append_to_payload,"ax",%progbits
 110              		.align	2
 111              		.global	append_to_payload
 112              		.thumb
 113              		.thumb_func
 114              		.type	append_to_payload, %function
 115              	append_to_payload:
 116              	.LFB1:
  56:..\..\flexsea-comm\src/flexsea_payload.c **** 	uint32_t i = 0, cnt = 0;
 117              		.loc 1 56 0
 118              		.cfi_startproc
 119              		@ args = 0, pretend = 0, frame = 0
 120              		@ frame_needed = 0, uses_anonymous_args = 0
 121              		@ link register save eliminated.
 122              	.LVL12:
 123 0000 70B4     		push	{r4, r5, r6}
 124              		.cfi_def_cfa_offset 12
 125              		.cfi_offset 4, -12
 126              		.cfi_offset 5, -8
 127              		.cfi_offset 6, -4
 128 0002 0646     		mov	r6, r0
 129              	.LVL13:
  60:..\..\flexsea-comm\src/flexsea_payload.c **** 	{
 130              		.loc 1 60 0
 131 0004 0846     		mov	r0, r1
 132              	.LVL14:
  57:..\..\flexsea-comm\src/flexsea_payload.c **** 
 133              		.loc 1 57 0
 134 0006 0024     		movs	r4, #0
  60:..\..\flexsea-comm\src/flexsea_payload.c **** 	{
 135              		.loc 1 60 0
 136 0008 03E0     		b	.L10
 137              	.LVL15:
 138              	.L11:
  62:..\..\flexsea-comm\src/flexsea_payload.c **** 	}
 139              		.loc 1 62 0 discriminator 3
 140 000a 155D     		ldrb	r5, [r2, r4]	@ zero_extendqisi2
 141 000c 3554     		strb	r5, [r6, r0]
  60:..\..\flexsea-comm\src/flexsea_payload.c **** 	{
 142              		.loc 1 60 0 discriminator 3
 143 000e 0130     		adds	r0, r0, #1
 144              	.LVL16:
ARM GAS  C:\Users\Alex\AppData\Local\Temp\ccjqAdcx.s 			page 15


  62:..\..\flexsea-comm\src/flexsea_payload.c **** 	}
 145              		.loc 1 62 0 discriminator 3
 146 0010 0134     		adds	r4, r4, #1
 147              	.LVL17:
 148              	.L10:
  60:..\..\flexsea-comm\src/flexsea_payload.c **** 	{
 149              		.loc 1 60 0 discriminator 1
 150 0012 CD18     		adds	r5, r1, r3
 151 0014 8542     		cmp	r5, r0
 152 0016 F8D8     		bhi	.L11
  67:..\..\flexsea-comm\src/flexsea_payload.c **** 
 153              		.loc 1 67 0
 154 0018 70BC     		pop	{r4, r5, r6}
 155              		.cfi_restore 6
 156              		.cfi_restore 5
 157              		.cfi_restore 4
 158              		.cfi_def_cfa_offset 0
 159              	.LVL18:
 160 001a 7047     		bx	lr
 161              		.cfi_endproc
 162              	.LFE1:
 163              		.size	append_to_payload, .-append_to_payload
 164              		.section	.text.sent_from_a_slave,"ax",%progbits
 165              		.align	2
 166              		.global	sent_from_a_slave
 167              		.thumb
 168              		.thumb_func
 169              		.type	sent_from_a_slave, %function
 170              	sent_from_a_slave:
 171              	.LFB2:
  71:..\..\flexsea-comm\src/flexsea_payload.c **** 	//Slaves have higher addresses than their master.
 172              		.loc 1 71 0
 173              		.cfi_startproc
 174              		@ args = 0, pretend = 0, frame = 0
 175              		@ frame_needed = 0, uses_anonymous_args = 0
 176              		@ link register save eliminated.
 177              	.LVL19:
  73:..\..\flexsea-comm\src/flexsea_payload.c **** 	{
 178              		.loc 1 73 0
 179 0000 0278     		ldrb	r2, [r0]	@ zero_extendqisi2
 180 0002 4378     		ldrb	r3, [r0, #1]	@ zero_extendqisi2
 181 0004 9A42     		cmp	r2, r3
 182 0006 01D9     		bls	.L15
  76:..\..\flexsea-comm\src/flexsea_payload.c **** 	}
 183              		.loc 1 76 0
 184 0008 0120     		movs	r0, #1
 185              	.LVL20:
 186 000a 7047     		bx	lr
 187              	.LVL21:
 188              	.L15:
  81:..\..\flexsea-comm\src/flexsea_payload.c **** 	}
 189              		.loc 1 81 0
 190 000c 0020     		movs	r0, #0
 191              	.LVL22:
  86:..\..\flexsea-comm\src/flexsea_payload.c **** 
 192              		.loc 1 86 0
 193 000e 7047     		bx	lr
ARM GAS  C:\Users\Alex\AppData\Local\Temp\ccjqAdcx.s 			page 16


 194              		.cfi_endproc
 195              	.LFE2:
 196              		.size	sent_from_a_slave, .-sent_from_a_slave
 197              		.section	.text.payload_parse_str,"ax",%progbits
 198              		.align	2
 199              		.global	payload_parse_str
 200              		.thumb
 201              		.thumb_func
 202              		.type	payload_parse_str, %function
 203              	payload_parse_str:
 204              	.LFB3:
  91:..\..\flexsea-comm\src/flexsea_payload.c ****     unsigned char cmd = 0, cmd_7bits = 0, output = PARSE_SUCCESSFUL, numb = 0;
 205              		.loc 1 91 0
 206              		.cfi_startproc
 207              		@ args = 0, pretend = 0, frame = 0
 208              		@ frame_needed = 0, uses_anonymous_args = 0
 209              	.LVL23:
 210 0000 38B5     		push	{r3, r4, r5, lr}
 211              		.cfi_def_cfa_offset 16
 212              		.cfi_offset 3, -16
 213              		.cfi_offset 4, -12
 214              		.cfi_offset 5, -8
 215              		.cfi_offset 14, -4
 216 0002 0546     		mov	r5, r0
 217              	.LVL24:
  96:..\..\flexsea-comm\src/flexsea_payload.c ****     cmd_7bits = CMD_7BITS(cmd);	//CMD code, no R/W information
 218              		.loc 1 96 0
 219 0004 C378     		ldrb	r3, [r0, #3]	@ zero_extendqisi2
 220              	.LVL25:
  97:..\..\flexsea-comm\src/flexsea_payload.c **** 
 221              		.loc 1 97 0
 222 0006 5C08     		lsrs	r4, r3, #1
 223              	.LVL26:
 100:..\..\flexsea-comm\src/flexsea_payload.c ****     if(id == ID_MATCH)
 224              		.loc 1 100 0
 225 0008 FFF7FEFF 		bl	get_rid
 226              	.LVL27:
 101:..\..\flexsea-comm\src/flexsea_payload.c ****     {
 227              		.loc 1 101 0
 228 000c 0128     		cmp	r0, #1
 229 000e 40F00783 		bne	.L17
 106:..\..\flexsea-comm\src/flexsea_payload.c ****         {
 230              		.loc 1 106 0
 231 0012 7F2C     		cmp	r4, #127
 232 0014 00F20283 		bhi	.L149
 233 0018 DFE814F0 		tbh	[pc, r4, lsl #1]
 234              	.L20:
 235 001c 8000     		.2byte	(.L19-.L20)/2
 236 001e 8500     		.2byte	(.L21-.L20)/2
 237 0020 8A00     		.2byte	(.L22-.L20)/2
 238 0022 8F00     		.2byte	(.L23-.L20)/2
 239 0024 9400     		.2byte	(.L24-.L20)/2
 240 0026 9900     		.2byte	(.L25-.L20)/2
 241 0028 9E00     		.2byte	(.L26-.L20)/2
 242 002a A300     		.2byte	(.L27-.L20)/2
 243 002c A800     		.2byte	(.L28-.L20)/2
 244 002e AD00     		.2byte	(.L29-.L20)/2
ARM GAS  C:\Users\Alex\AppData\Local\Temp\ccjqAdcx.s 			page 17


 245 0030 B200     		.2byte	(.L30-.L20)/2
 246 0032 B700     		.2byte	(.L31-.L20)/2
 247 0034 BC00     		.2byte	(.L32-.L20)/2
 248 0036 C100     		.2byte	(.L33-.L20)/2
 249 0038 C600     		.2byte	(.L34-.L20)/2
 250 003a CB00     		.2byte	(.L35-.L20)/2
 251 003c D000     		.2byte	(.L36-.L20)/2
 252 003e D500     		.2byte	(.L37-.L20)/2
 253 0040 DA00     		.2byte	(.L38-.L20)/2
 254 0042 DF00     		.2byte	(.L39-.L20)/2
 255 0044 E400     		.2byte	(.L40-.L20)/2
 256 0046 E900     		.2byte	(.L41-.L20)/2
 257 0048 EE00     		.2byte	(.L42-.L20)/2
 258 004a F300     		.2byte	(.L43-.L20)/2
 259 004c F800     		.2byte	(.L44-.L20)/2
 260 004e FD00     		.2byte	(.L45-.L20)/2
 261 0050 0201     		.2byte	(.L46-.L20)/2
 262 0052 0701     		.2byte	(.L47-.L20)/2
 263 0054 0C01     		.2byte	(.L48-.L20)/2
 264 0056 1101     		.2byte	(.L49-.L20)/2
 265 0058 1601     		.2byte	(.L50-.L20)/2
 266 005a 1B01     		.2byte	(.L51-.L20)/2
 267 005c 2001     		.2byte	(.L52-.L20)/2
 268 005e 2501     		.2byte	(.L53-.L20)/2
 269 0060 2A01     		.2byte	(.L54-.L20)/2
 270 0062 2F01     		.2byte	(.L55-.L20)/2
 271 0064 3401     		.2byte	(.L56-.L20)/2
 272 0066 3901     		.2byte	(.L57-.L20)/2
 273 0068 3E01     		.2byte	(.L58-.L20)/2
 274 006a 4301     		.2byte	(.L59-.L20)/2
 275 006c 4801     		.2byte	(.L60-.L20)/2
 276 006e 4D01     		.2byte	(.L61-.L20)/2
 277 0070 5201     		.2byte	(.L62-.L20)/2
 278 0072 5701     		.2byte	(.L63-.L20)/2
 279 0074 5C01     		.2byte	(.L64-.L20)/2
 280 0076 6101     		.2byte	(.L65-.L20)/2
 281 0078 6601     		.2byte	(.L66-.L20)/2
 282 007a 6B01     		.2byte	(.L67-.L20)/2
 283 007c 7001     		.2byte	(.L68-.L20)/2
 284 007e 7501     		.2byte	(.L69-.L20)/2
 285 0080 7A01     		.2byte	(.L70-.L20)/2
 286 0082 7F01     		.2byte	(.L71-.L20)/2
 287 0084 8401     		.2byte	(.L72-.L20)/2
 288 0086 8901     		.2byte	(.L73-.L20)/2
 289 0088 8E01     		.2byte	(.L74-.L20)/2
 290 008a 9301     		.2byte	(.L75-.L20)/2
 291 008c 9801     		.2byte	(.L76-.L20)/2
 292 008e 9D01     		.2byte	(.L77-.L20)/2
 293 0090 A201     		.2byte	(.L78-.L20)/2
 294 0092 A701     		.2byte	(.L79-.L20)/2
 295 0094 AC01     		.2byte	(.L80-.L20)/2
 296 0096 B101     		.2byte	(.L81-.L20)/2
 297 0098 B601     		.2byte	(.L82-.L20)/2
 298 009a BB01     		.2byte	(.L83-.L20)/2
 299 009c C001     		.2byte	(.L84-.L20)/2
 300 009e C501     		.2byte	(.L85-.L20)/2
 301 00a0 CA01     		.2byte	(.L86-.L20)/2
ARM GAS  C:\Users\Alex\AppData\Local\Temp\ccjqAdcx.s 			page 18


 302 00a2 CF01     		.2byte	(.L87-.L20)/2
 303 00a4 D401     		.2byte	(.L88-.L20)/2
 304 00a6 D901     		.2byte	(.L89-.L20)/2
 305 00a8 DE01     		.2byte	(.L90-.L20)/2
 306 00aa E301     		.2byte	(.L91-.L20)/2
 307 00ac E801     		.2byte	(.L92-.L20)/2
 308 00ae ED01     		.2byte	(.L93-.L20)/2
 309 00b0 F201     		.2byte	(.L94-.L20)/2
 310 00b2 F701     		.2byte	(.L95-.L20)/2
 311 00b4 FC01     		.2byte	(.L96-.L20)/2
 312 00b6 0102     		.2byte	(.L97-.L20)/2
 313 00b8 0602     		.2byte	(.L98-.L20)/2
 314 00ba 0B02     		.2byte	(.L99-.L20)/2
 315 00bc 1002     		.2byte	(.L100-.L20)/2
 316 00be 1502     		.2byte	(.L101-.L20)/2
 317 00c0 1A02     		.2byte	(.L102-.L20)/2
 318 00c2 1F02     		.2byte	(.L103-.L20)/2
 319 00c4 2402     		.2byte	(.L104-.L20)/2
 320 00c6 2902     		.2byte	(.L105-.L20)/2
 321 00c8 2E02     		.2byte	(.L106-.L20)/2
 322 00ca 3302     		.2byte	(.L107-.L20)/2
 323 00cc 3802     		.2byte	(.L108-.L20)/2
 324 00ce 3D02     		.2byte	(.L109-.L20)/2
 325 00d0 4202     		.2byte	(.L110-.L20)/2
 326 00d2 4702     		.2byte	(.L111-.L20)/2
 327 00d4 4C02     		.2byte	(.L112-.L20)/2
 328 00d6 5102     		.2byte	(.L113-.L20)/2
 329 00d8 5602     		.2byte	(.L114-.L20)/2
 330 00da 5B02     		.2byte	(.L115-.L20)/2
 331 00dc 6002     		.2byte	(.L116-.L20)/2
 332 00de 6502     		.2byte	(.L117-.L20)/2
 333 00e0 6A02     		.2byte	(.L118-.L20)/2
 334 00e2 6F02     		.2byte	(.L119-.L20)/2
 335 00e4 7402     		.2byte	(.L120-.L20)/2
 336 00e6 7902     		.2byte	(.L121-.L20)/2
 337 00e8 7E02     		.2byte	(.L122-.L20)/2
 338 00ea 8302     		.2byte	(.L123-.L20)/2
 339 00ec 8802     		.2byte	(.L124-.L20)/2
 340 00ee 8D02     		.2byte	(.L125-.L20)/2
 341 00f0 9202     		.2byte	(.L126-.L20)/2
 342 00f2 9702     		.2byte	(.L127-.L20)/2
 343 00f4 9C02     		.2byte	(.L128-.L20)/2
 344 00f6 A102     		.2byte	(.L129-.L20)/2
 345 00f8 A602     		.2byte	(.L130-.L20)/2
 346 00fa AB02     		.2byte	(.L131-.L20)/2
 347 00fc B002     		.2byte	(.L132-.L20)/2
 348 00fe B502     		.2byte	(.L133-.L20)/2
 349 0100 BA02     		.2byte	(.L134-.L20)/2
 350 0102 BF02     		.2byte	(.L135-.L20)/2
 351 0104 C402     		.2byte	(.L136-.L20)/2
 352 0106 C902     		.2byte	(.L137-.L20)/2
 353 0108 CE02     		.2byte	(.L138-.L20)/2
 354 010a D302     		.2byte	(.L139-.L20)/2
 355 010c D802     		.2byte	(.L140-.L20)/2
 356 010e DD02     		.2byte	(.L141-.L20)/2
 357 0110 E202     		.2byte	(.L142-.L20)/2
 358 0112 E702     		.2byte	(.L143-.L20)/2
ARM GAS  C:\Users\Alex\AppData\Local\Temp\ccjqAdcx.s 			page 19


 359 0114 EC02     		.2byte	(.L144-.L20)/2
 360 0116 F102     		.2byte	(.L145-.L20)/2
 361 0118 F602     		.2byte	(.L146-.L20)/2
 362 011a FB02     		.2byte	(.L147-.L20)/2
 363              		.p2align 1
 364              	.L19:
 110:..\..\flexsea-comm\src/flexsea_payload.c ****                 break;            
 365              		.loc 1 110 0
 366 011c 2846     		mov	r0, r5
 367              	.LVL28:
 368 011e FFF7FEFF 		bl	flexsea_payload_0
 369              	.LVL29:
 103:..\..\flexsea-comm\src/flexsea_payload.c **** 
 370              		.loc 1 103 0
 371 0122 0220     		movs	r0, #2
 111:..\..\flexsea-comm\src/flexsea_payload.c ****             case 1:		//FlexSEA Stack Test
 372              		.loc 1 111 0
 373 0124 38BD     		pop	{r3, r4, r5, pc}
 374              	.LVL30:
 375              	.L21:
 113:..\..\flexsea-comm\src/flexsea_payload.c ****             	break;
 376              		.loc 1 113 0
 377 0126 2846     		mov	r0, r5
 378              	.LVL31:
 379 0128 FFF7FEFF 		bl	rx_cmd_test
 380              	.LVL32:
 103:..\..\flexsea-comm\src/flexsea_payload.c **** 
 381              		.loc 1 103 0
 382 012c 0220     		movs	r0, #2
 114:..\..\flexsea-comm\src/flexsea_payload.c ****             case 2:
 383              		.loc 1 114 0
 384 012e 38BD     		pop	{r3, r4, r5, pc}
 385              	.LVL33:
 386              	.L22:
 116:..\..\flexsea-comm\src/flexsea_payload.c ****                 break;
 387              		.loc 1 116 0
 388 0130 2846     		mov	r0, r5
 389              	.LVL34:
 390 0132 FFF7FEFF 		bl	flexsea_payload_2
 391              	.LVL35:
 103:..\..\flexsea-comm\src/flexsea_payload.c **** 
 392              		.loc 1 103 0
 393 0136 0220     		movs	r0, #2
 117:..\..\flexsea-comm\src/flexsea_payload.c **** 			case 3:
 394              		.loc 1 117 0
 395 0138 38BD     		pop	{r3, r4, r5, pc}
 396              	.LVL36:
 397              	.L23:
 119:..\..\flexsea-comm\src/flexsea_payload.c ****                 break;
 398              		.loc 1 119 0
 399 013a 2846     		mov	r0, r5
 400              	.LVL37:
 401 013c FFF7FEFF 		bl	flexsea_payload_3
 402              	.LVL38:
 103:..\..\flexsea-comm\src/flexsea_payload.c **** 
 403              		.loc 1 103 0
 404 0140 0220     		movs	r0, #2
ARM GAS  C:\Users\Alex\AppData\Local\Temp\ccjqAdcx.s 			page 20


 120:..\..\flexsea-comm\src/flexsea_payload.c **** 			case 4:
 405              		.loc 1 120 0
 406 0142 38BD     		pop	{r3, r4, r5, pc}
 407              	.LVL39:
 408              	.L24:
 122:..\..\flexsea-comm\src/flexsea_payload.c ****                 break;
 409              		.loc 1 122 0
 410 0144 2846     		mov	r0, r5
 411              	.LVL40:
 412 0146 FFF7FEFF 		bl	flexsea_payload_4
 413              	.LVL41:
 103:..\..\flexsea-comm\src/flexsea_payload.c **** 
 414              		.loc 1 103 0
 415 014a 0220     		movs	r0, #2
 123:..\..\flexsea-comm\src/flexsea_payload.c **** 			case 5:
 416              		.loc 1 123 0
 417 014c 38BD     		pop	{r3, r4, r5, pc}
 418              	.LVL42:
 419              	.L25:
 125:..\..\flexsea-comm\src/flexsea_payload.c ****                 break;
 420              		.loc 1 125 0
 421 014e 2846     		mov	r0, r5
 422              	.LVL43:
 423 0150 FFF7FEFF 		bl	flexsea_payload_5
 424              	.LVL44:
 103:..\..\flexsea-comm\src/flexsea_payload.c **** 
 425              		.loc 1 103 0
 426 0154 0220     		movs	r0, #2
 126:..\..\flexsea-comm\src/flexsea_payload.c **** 			case 6:
 427              		.loc 1 126 0
 428 0156 38BD     		pop	{r3, r4, r5, pc}
 429              	.LVL45:
 430              	.L26:
 128:..\..\flexsea-comm\src/flexsea_payload.c ****                 break;
 431              		.loc 1 128 0
 432 0158 2846     		mov	r0, r5
 433              	.LVL46:
 434 015a FFF7FEFF 		bl	flexsea_payload_6
 435              	.LVL47:
 103:..\..\flexsea-comm\src/flexsea_payload.c **** 
 436              		.loc 1 103 0
 437 015e 0220     		movs	r0, #2
 129:..\..\flexsea-comm\src/flexsea_payload.c **** 			case 7:
 438              		.loc 1 129 0
 439 0160 38BD     		pop	{r3, r4, r5, pc}
 440              	.LVL48:
 441              	.L27:
 131:..\..\flexsea-comm\src/flexsea_payload.c ****                 break;
 442              		.loc 1 131 0
 443 0162 2846     		mov	r0, r5
 444              	.LVL49:
 445 0164 FFF7FEFF 		bl	flexsea_payload_7
 446              	.LVL50:
 103:..\..\flexsea-comm\src/flexsea_payload.c **** 
 447              		.loc 1 103 0
 448 0168 0220     		movs	r0, #2
 132:..\..\flexsea-comm\src/flexsea_payload.c **** 			case 8:
ARM GAS  C:\Users\Alex\AppData\Local\Temp\ccjqAdcx.s 			page 21


 449              		.loc 1 132 0
 450 016a 38BD     		pop	{r3, r4, r5, pc}
 451              	.LVL51:
 452              	.L28:
 134:..\..\flexsea-comm\src/flexsea_payload.c ****                 break;
 453              		.loc 1 134 0
 454 016c 2846     		mov	r0, r5
 455              	.LVL52:
 456 016e FFF7FEFF 		bl	flexsea_payload_8
 457              	.LVL53:
 103:..\..\flexsea-comm\src/flexsea_payload.c **** 
 458              		.loc 1 103 0
 459 0172 0220     		movs	r0, #2
 135:..\..\flexsea-comm\src/flexsea_payload.c **** 			case 9:
 460              		.loc 1 135 0
 461 0174 38BD     		pop	{r3, r4, r5, pc}
 462              	.LVL54:
 463              	.L29:
 137:..\..\flexsea-comm\src/flexsea_payload.c ****                 break;
 464              		.loc 1 137 0
 465 0176 2846     		mov	r0, r5
 466              	.LVL55:
 467 0178 FFF7FEFF 		bl	flexsea_payload_9
 468              	.LVL56:
 103:..\..\flexsea-comm\src/flexsea_payload.c **** 
 469              		.loc 1 103 0
 470 017c 0220     		movs	r0, #2
 138:..\..\flexsea-comm\src/flexsea_payload.c **** 
 471              		.loc 1 138 0
 472 017e 38BD     		pop	{r3, r4, r5, pc}
 473              	.LVL57:
 474              	.L30:
 142:..\..\flexsea-comm\src/flexsea_payload.c ****             	break;
 475              		.loc 1 142 0
 476 0180 2846     		mov	r0, r5
 477              	.LVL58:
 478 0182 FFF7FEFF 		bl	flexsea_payload_10
 479              	.LVL59:
 103:..\..\flexsea-comm\src/flexsea_payload.c **** 
 480              		.loc 1 103 0
 481 0186 0220     		movs	r0, #2
 143:..\..\flexsea-comm\src/flexsea_payload.c ****             case 11:
 482              		.loc 1 143 0
 483 0188 38BD     		pop	{r3, r4, r5, pc}
 484              	.LVL60:
 485              	.L31:
 145:..\..\flexsea-comm\src/flexsea_payload.c ****             	break;
 486              		.loc 1 145 0
 487 018a 2846     		mov	r0, r5
 488              	.LVL61:
 489 018c FFF7FEFF 		bl	flexsea_payload_11
 490              	.LVL62:
 103:..\..\flexsea-comm\src/flexsea_payload.c **** 
 491              		.loc 1 103 0
 492 0190 0220     		movs	r0, #2
 146:..\..\flexsea-comm\src/flexsea_payload.c ****             case 12:
 493              		.loc 1 146 0
ARM GAS  C:\Users\Alex\AppData\Local\Temp\ccjqAdcx.s 			page 22


 494 0192 38BD     		pop	{r3, r4, r5, pc}
 495              	.LVL63:
 496              	.L32:
 148:..\..\flexsea-comm\src/flexsea_payload.c ****             	break;
 497              		.loc 1 148 0
 498 0194 2846     		mov	r0, r5
 499              	.LVL64:
 500 0196 FFF7FEFF 		bl	flexsea_payload_12
 501              	.LVL65:
 103:..\..\flexsea-comm\src/flexsea_payload.c **** 
 502              		.loc 1 103 0
 503 019a 0220     		movs	r0, #2
 149:..\..\flexsea-comm\src/flexsea_payload.c ****             case 13:
 504              		.loc 1 149 0
 505 019c 38BD     		pop	{r3, r4, r5, pc}
 506              	.LVL66:
 507              	.L33:
 151:..\..\flexsea-comm\src/flexsea_payload.c ****             	break;
 508              		.loc 1 151 0
 509 019e 2846     		mov	r0, r5
 510              	.LVL67:
 511 01a0 FFF7FEFF 		bl	flexsea_payload_13
 512              	.LVL68:
 103:..\..\flexsea-comm\src/flexsea_payload.c **** 
 513              		.loc 1 103 0
 514 01a4 0220     		movs	r0, #2
 152:..\..\flexsea-comm\src/flexsea_payload.c ****             case 14:
 515              		.loc 1 152 0
 516 01a6 38BD     		pop	{r3, r4, r5, pc}
 517              	.LVL69:
 518              	.L34:
 154:..\..\flexsea-comm\src/flexsea_payload.c ****             	break;
 519              		.loc 1 154 0
 520 01a8 2846     		mov	r0, r5
 521              	.LVL70:
 522 01aa FFF7FEFF 		bl	flexsea_payload_14
 523              	.LVL71:
 103:..\..\flexsea-comm\src/flexsea_payload.c **** 
 524              		.loc 1 103 0
 525 01ae 0220     		movs	r0, #2
 155:..\..\flexsea-comm\src/flexsea_payload.c ****             case 15:
 526              		.loc 1 155 0
 527 01b0 38BD     		pop	{r3, r4, r5, pc}
 528              	.LVL72:
 529              	.L35:
 157:..\..\flexsea-comm\src/flexsea_payload.c ****             	break;
 530              		.loc 1 157 0
 531 01b2 2846     		mov	r0, r5
 532              	.LVL73:
 533 01b4 FFF7FEFF 		bl	flexsea_payload_15
 534              	.LVL74:
 103:..\..\flexsea-comm\src/flexsea_payload.c **** 
 535              		.loc 1 103 0
 536 01b8 0220     		movs	r0, #2
 158:..\..\flexsea-comm\src/flexsea_payload.c ****             case 16:
 537              		.loc 1 158 0
 538 01ba 38BD     		pop	{r3, r4, r5, pc}
ARM GAS  C:\Users\Alex\AppData\Local\Temp\ccjqAdcx.s 			page 23


 539              	.LVL75:
 540              	.L36:
 160:..\..\flexsea-comm\src/flexsea_payload.c ****             	break;
 541              		.loc 1 160 0
 542 01bc 2846     		mov	r0, r5
 543              	.LVL76:
 544 01be FFF7FEFF 		bl	flexsea_payload_16
 545              	.LVL77:
 103:..\..\flexsea-comm\src/flexsea_payload.c **** 
 546              		.loc 1 103 0
 547 01c2 0220     		movs	r0, #2
 161:..\..\flexsea-comm\src/flexsea_payload.c ****             case 17:
 548              		.loc 1 161 0
 549 01c4 38BD     		pop	{r3, r4, r5, pc}
 550              	.LVL78:
 551              	.L37:
 163:..\..\flexsea-comm\src/flexsea_payload.c ****             	break;
 552              		.loc 1 163 0
 553 01c6 2846     		mov	r0, r5
 554              	.LVL79:
 555 01c8 FFF7FEFF 		bl	flexsea_payload_17
 556              	.LVL80:
 103:..\..\flexsea-comm\src/flexsea_payload.c **** 
 557              		.loc 1 103 0
 558 01cc 0220     		movs	r0, #2
 164:..\..\flexsea-comm\src/flexsea_payload.c ****             case 18:
 559              		.loc 1 164 0
 560 01ce 38BD     		pop	{r3, r4, r5, pc}
 561              	.LVL81:
 562              	.L38:
 166:..\..\flexsea-comm\src/flexsea_payload.c ****             	break;
 563              		.loc 1 166 0
 564 01d0 2846     		mov	r0, r5
 565              	.LVL82:
 566 01d2 FFF7FEFF 		bl	flexsea_payload_18
 567              	.LVL83:
 103:..\..\flexsea-comm\src/flexsea_payload.c **** 
 568              		.loc 1 103 0
 569 01d6 0220     		movs	r0, #2
 167:..\..\flexsea-comm\src/flexsea_payload.c ****             case 19:
 570              		.loc 1 167 0
 571 01d8 38BD     		pop	{r3, r4, r5, pc}
 572              	.LVL84:
 573              	.L39:
 169:..\..\flexsea-comm\src/flexsea_payload.c ****             	break;
 574              		.loc 1 169 0
 575 01da 2846     		mov	r0, r5
 576              	.LVL85:
 577 01dc FFF7FEFF 		bl	flexsea_payload_19
 578              	.LVL86:
 103:..\..\flexsea-comm\src/flexsea_payload.c **** 
 579              		.loc 1 103 0
 580 01e0 0220     		movs	r0, #2
 170:..\..\flexsea-comm\src/flexsea_payload.c **** 				
 581              		.loc 1 170 0
 582 01e2 38BD     		pop	{r3, r4, r5, pc}
 583              	.LVL87:
ARM GAS  C:\Users\Alex\AppData\Local\Temp\ccjqAdcx.s 			page 24


 584              	.L40:
 174:..\..\flexsea-comm\src/flexsea_payload.c ****             	break;
 585              		.loc 1 174 0
 586 01e4 2846     		mov	r0, r5
 587              	.LVL88:
 588 01e6 FFF7FEFF 		bl	flexsea_payload_20
 589              	.LVL89:
 103:..\..\flexsea-comm\src/flexsea_payload.c **** 
 590              		.loc 1 103 0
 591 01ea 0220     		movs	r0, #2
 175:..\..\flexsea-comm\src/flexsea_payload.c ****             case 21:
 592              		.loc 1 175 0
 593 01ec 38BD     		pop	{r3, r4, r5, pc}
 594              	.LVL90:
 595              	.L41:
 177:..\..\flexsea-comm\src/flexsea_payload.c ****             	break;
 596              		.loc 1 177 0
 597 01ee 2846     		mov	r0, r5
 598              	.LVL91:
 599 01f0 FFF7FEFF 		bl	flexsea_payload_21
 600              	.LVL92:
 103:..\..\flexsea-comm\src/flexsea_payload.c **** 
 601              		.loc 1 103 0
 602 01f4 0220     		movs	r0, #2
 178:..\..\flexsea-comm\src/flexsea_payload.c ****             case 22:
 603              		.loc 1 178 0
 604 01f6 38BD     		pop	{r3, r4, r5, pc}
 605              	.LVL93:
 606              	.L42:
 180:..\..\flexsea-comm\src/flexsea_payload.c ****             	break;
 607              		.loc 1 180 0
 608 01f8 2846     		mov	r0, r5
 609              	.LVL94:
 610 01fa FFF7FEFF 		bl	flexsea_payload_22
 611              	.LVL95:
 103:..\..\flexsea-comm\src/flexsea_payload.c **** 
 612              		.loc 1 103 0
 613 01fe 0220     		movs	r0, #2
 181:..\..\flexsea-comm\src/flexsea_payload.c ****             case 23:
 614              		.loc 1 181 0
 615 0200 38BD     		pop	{r3, r4, r5, pc}
 616              	.LVL96:
 617              	.L43:
 183:..\..\flexsea-comm\src/flexsea_payload.c ****             	break;
 618              		.loc 1 183 0
 619 0202 2846     		mov	r0, r5
 620              	.LVL97:
 621 0204 FFF7FEFF 		bl	flexsea_payload_23
 622              	.LVL98:
 103:..\..\flexsea-comm\src/flexsea_payload.c **** 
 623              		.loc 1 103 0
 624 0208 0220     		movs	r0, #2
 184:..\..\flexsea-comm\src/flexsea_payload.c ****             case 24:
 625              		.loc 1 184 0
 626 020a 38BD     		pop	{r3, r4, r5, pc}
 627              	.LVL99:
 628              	.L44:
ARM GAS  C:\Users\Alex\AppData\Local\Temp\ccjqAdcx.s 			page 25


 186:..\..\flexsea-comm\src/flexsea_payload.c ****             	break;
 629              		.loc 1 186 0
 630 020c 2846     		mov	r0, r5
 631              	.LVL100:
 632 020e FFF7FEFF 		bl	flexsea_payload_24
 633              	.LVL101:
 103:..\..\flexsea-comm\src/flexsea_payload.c **** 
 634              		.loc 1 103 0
 635 0212 0220     		movs	r0, #2
 187:..\..\flexsea-comm\src/flexsea_payload.c ****             case 25:
 636              		.loc 1 187 0
 637 0214 38BD     		pop	{r3, r4, r5, pc}
 638              	.LVL102:
 639              	.L45:
 189:..\..\flexsea-comm\src/flexsea_payload.c ****             	break;
 640              		.loc 1 189 0
 641 0216 2846     		mov	r0, r5
 642              	.LVL103:
 643 0218 FFF7FEFF 		bl	flexsea_payload_25
 644              	.LVL104:
 103:..\..\flexsea-comm\src/flexsea_payload.c **** 
 645              		.loc 1 103 0
 646 021c 0220     		movs	r0, #2
 190:..\..\flexsea-comm\src/flexsea_payload.c ****             case 26:
 647              		.loc 1 190 0
 648 021e 38BD     		pop	{r3, r4, r5, pc}
 649              	.LVL105:
 650              	.L46:
 192:..\..\flexsea-comm\src/flexsea_payload.c ****             	break;
 651              		.loc 1 192 0
 652 0220 2846     		mov	r0, r5
 653              	.LVL106:
 654 0222 FFF7FEFF 		bl	flexsea_payload_26
 655              	.LVL107:
 103:..\..\flexsea-comm\src/flexsea_payload.c **** 
 656              		.loc 1 103 0
 657 0226 0220     		movs	r0, #2
 193:..\..\flexsea-comm\src/flexsea_payload.c ****             case 27:
 658              		.loc 1 193 0
 659 0228 38BD     		pop	{r3, r4, r5, pc}
 660              	.LVL108:
 661              	.L47:
 195:..\..\flexsea-comm\src/flexsea_payload.c ****             	break;
 662              		.loc 1 195 0
 663 022a 2846     		mov	r0, r5
 664              	.LVL109:
 665 022c FFF7FEFF 		bl	flexsea_payload_27
 666              	.LVL110:
 103:..\..\flexsea-comm\src/flexsea_payload.c **** 
 667              		.loc 1 103 0
 668 0230 0220     		movs	r0, #2
 196:..\..\flexsea-comm\src/flexsea_payload.c ****             case 28:
 669              		.loc 1 196 0
 670 0232 38BD     		pop	{r3, r4, r5, pc}
 671              	.LVL111:
 672              	.L48:
 198:..\..\flexsea-comm\src/flexsea_payload.c ****             	break;
ARM GAS  C:\Users\Alex\AppData\Local\Temp\ccjqAdcx.s 			page 26


 673              		.loc 1 198 0
 674 0234 2846     		mov	r0, r5
 675              	.LVL112:
 676 0236 FFF7FEFF 		bl	flexsea_payload_28
 677              	.LVL113:
 103:..\..\flexsea-comm\src/flexsea_payload.c **** 
 678              		.loc 1 103 0
 679 023a 0220     		movs	r0, #2
 199:..\..\flexsea-comm\src/flexsea_payload.c ****             case 29:
 680              		.loc 1 199 0
 681 023c 38BD     		pop	{r3, r4, r5, pc}
 682              	.LVL114:
 683              	.L49:
 201:..\..\flexsea-comm\src/flexsea_payload.c ****             	break;
 684              		.loc 1 201 0
 685 023e 2846     		mov	r0, r5
 686              	.LVL115:
 687 0240 FFF7FEFF 		bl	flexsea_payload_29
 688              	.LVL116:
 103:..\..\flexsea-comm\src/flexsea_payload.c **** 
 689              		.loc 1 103 0
 690 0244 0220     		movs	r0, #2
 202:..\..\flexsea-comm\src/flexsea_payload.c **** 				
 691              		.loc 1 202 0
 692 0246 38BD     		pop	{r3, r4, r5, pc}
 693              	.LVL117:
 694              	.L50:
 206:..\..\flexsea-comm\src/flexsea_payload.c ****             	break;
 695              		.loc 1 206 0
 696 0248 2846     		mov	r0, r5
 697              	.LVL118:
 698 024a FFF7FEFF 		bl	flexsea_payload_30
 699              	.LVL119:
 103:..\..\flexsea-comm\src/flexsea_payload.c **** 
 700              		.loc 1 103 0
 701 024e 0220     		movs	r0, #2
 207:..\..\flexsea-comm\src/flexsea_payload.c ****             case 31:
 702              		.loc 1 207 0
 703 0250 38BD     		pop	{r3, r4, r5, pc}
 704              	.LVL120:
 705              	.L51:
 209:..\..\flexsea-comm\src/flexsea_payload.c ****             	break;
 706              		.loc 1 209 0
 707 0252 2846     		mov	r0, r5
 708              	.LVL121:
 709 0254 FFF7FEFF 		bl	flexsea_payload_31
 710              	.LVL122:
 103:..\..\flexsea-comm\src/flexsea_payload.c **** 
 711              		.loc 1 103 0
 712 0258 0220     		movs	r0, #2
 210:..\..\flexsea-comm\src/flexsea_payload.c ****             case 32:
 713              		.loc 1 210 0
 714 025a 38BD     		pop	{r3, r4, r5, pc}
 715              	.LVL123:
 716              	.L52:
 212:..\..\flexsea-comm\src/flexsea_payload.c ****             	break;
 717              		.loc 1 212 0
ARM GAS  C:\Users\Alex\AppData\Local\Temp\ccjqAdcx.s 			page 27


 718 025c 2846     		mov	r0, r5
 719              	.LVL124:
 720 025e FFF7FEFF 		bl	flexsea_payload_32
 721              	.LVL125:
 103:..\..\flexsea-comm\src/flexsea_payload.c **** 
 722              		.loc 1 103 0
 723 0262 0220     		movs	r0, #2
 213:..\..\flexsea-comm\src/flexsea_payload.c ****             case 33:
 724              		.loc 1 213 0
 725 0264 38BD     		pop	{r3, r4, r5, pc}
 726              	.LVL126:
 727              	.L53:
 215:..\..\flexsea-comm\src/flexsea_payload.c ****             	break;
 728              		.loc 1 215 0
 729 0266 2846     		mov	r0, r5
 730              	.LVL127:
 731 0268 FFF7FEFF 		bl	flexsea_payload_33
 732              	.LVL128:
 103:..\..\flexsea-comm\src/flexsea_payload.c **** 
 733              		.loc 1 103 0
 734 026c 0220     		movs	r0, #2
 216:..\..\flexsea-comm\src/flexsea_payload.c ****             case 34:
 735              		.loc 1 216 0
 736 026e 38BD     		pop	{r3, r4, r5, pc}
 737              	.LVL129:
 738              	.L54:
 218:..\..\flexsea-comm\src/flexsea_payload.c ****             	break;
 739              		.loc 1 218 0
 740 0270 2846     		mov	r0, r5
 741              	.LVL130:
 742 0272 FFF7FEFF 		bl	flexsea_payload_34
 743              	.LVL131:
 103:..\..\flexsea-comm\src/flexsea_payload.c **** 
 744              		.loc 1 103 0
 745 0276 0220     		movs	r0, #2
 219:..\..\flexsea-comm\src/flexsea_payload.c ****             case 35:
 746              		.loc 1 219 0
 747 0278 38BD     		pop	{r3, r4, r5, pc}
 748              	.LVL132:
 749              	.L55:
 221:..\..\flexsea-comm\src/flexsea_payload.c ****             	break;
 750              		.loc 1 221 0
 751 027a 2846     		mov	r0, r5
 752              	.LVL133:
 753 027c FFF7FEFF 		bl	flexsea_payload_35
 754              	.LVL134:
 103:..\..\flexsea-comm\src/flexsea_payload.c **** 
 755              		.loc 1 103 0
 756 0280 0220     		movs	r0, #2
 222:..\..\flexsea-comm\src/flexsea_payload.c ****             case 36:
 757              		.loc 1 222 0
 758 0282 38BD     		pop	{r3, r4, r5, pc}
 759              	.LVL135:
 760              	.L56:
 224:..\..\flexsea-comm\src/flexsea_payload.c ****             	break;
 761              		.loc 1 224 0
 762 0284 2846     		mov	r0, r5
ARM GAS  C:\Users\Alex\AppData\Local\Temp\ccjqAdcx.s 			page 28


 763              	.LVL136:
 764 0286 FFF7FEFF 		bl	flexsea_payload_36
 765              	.LVL137:
 103:..\..\flexsea-comm\src/flexsea_payload.c **** 
 766              		.loc 1 103 0
 767 028a 0220     		movs	r0, #2
 225:..\..\flexsea-comm\src/flexsea_payload.c ****             case 37:
 768              		.loc 1 225 0
 769 028c 38BD     		pop	{r3, r4, r5, pc}
 770              	.LVL138:
 771              	.L57:
 227:..\..\flexsea-comm\src/flexsea_payload.c ****             	break;
 772              		.loc 1 227 0
 773 028e 2846     		mov	r0, r5
 774              	.LVL139:
 775 0290 FFF7FEFF 		bl	flexsea_payload_37
 776              	.LVL140:
 103:..\..\flexsea-comm\src/flexsea_payload.c **** 
 777              		.loc 1 103 0
 778 0294 0220     		movs	r0, #2
 228:..\..\flexsea-comm\src/flexsea_payload.c ****             case 38:
 779              		.loc 1 228 0
 780 0296 38BD     		pop	{r3, r4, r5, pc}
 781              	.LVL141:
 782              	.L58:
 230:..\..\flexsea-comm\src/flexsea_payload.c ****             	break;
 783              		.loc 1 230 0
 784 0298 2846     		mov	r0, r5
 785              	.LVL142:
 786 029a FFF7FEFF 		bl	flexsea_payload_38
 787              	.LVL143:
 103:..\..\flexsea-comm\src/flexsea_payload.c **** 
 788              		.loc 1 103 0
 789 029e 0220     		movs	r0, #2
 231:..\..\flexsea-comm\src/flexsea_payload.c ****             case 39:
 790              		.loc 1 231 0
 791 02a0 38BD     		pop	{r3, r4, r5, pc}
 792              	.LVL144:
 793              	.L59:
 233:..\..\flexsea-comm\src/flexsea_payload.c ****             	break;
 794              		.loc 1 233 0
 795 02a2 2846     		mov	r0, r5
 796              	.LVL145:
 797 02a4 FFF7FEFF 		bl	flexsea_payload_39
 798              	.LVL146:
 103:..\..\flexsea-comm\src/flexsea_payload.c **** 
 799              		.loc 1 103 0
 800 02a8 0220     		movs	r0, #2
 234:..\..\flexsea-comm\src/flexsea_payload.c **** 				
 801              		.loc 1 234 0
 802 02aa 38BD     		pop	{r3, r4, r5, pc}
 803              	.LVL147:
 804              	.L60:
 238:..\..\flexsea-comm\src/flexsea_payload.c ****             	break;
 805              		.loc 1 238 0
 806 02ac 2846     		mov	r0, r5
 807              	.LVL148:
ARM GAS  C:\Users\Alex\AppData\Local\Temp\ccjqAdcx.s 			page 29


 808 02ae FFF7FEFF 		bl	flexsea_payload_40
 809              	.LVL149:
 103:..\..\flexsea-comm\src/flexsea_payload.c **** 
 810              		.loc 1 103 0
 811 02b2 0220     		movs	r0, #2
 239:..\..\flexsea-comm\src/flexsea_payload.c ****             case 41:
 812              		.loc 1 239 0
 813 02b4 38BD     		pop	{r3, r4, r5, pc}
 814              	.LVL150:
 815              	.L61:
 241:..\..\flexsea-comm\src/flexsea_payload.c ****             	break;
 816              		.loc 1 241 0
 817 02b6 2846     		mov	r0, r5
 818              	.LVL151:
 819 02b8 FFF7FEFF 		bl	flexsea_payload_41
 820              	.LVL152:
 103:..\..\flexsea-comm\src/flexsea_payload.c **** 
 821              		.loc 1 103 0
 822 02bc 0220     		movs	r0, #2
 242:..\..\flexsea-comm\src/flexsea_payload.c ****             case 42:
 823              		.loc 1 242 0
 824 02be 38BD     		pop	{r3, r4, r5, pc}
 825              	.LVL153:
 826              	.L62:
 244:..\..\flexsea-comm\src/flexsea_payload.c ****             	break;
 827              		.loc 1 244 0
 828 02c0 2846     		mov	r0, r5
 829              	.LVL154:
 830 02c2 FFF7FEFF 		bl	flexsea_payload_42
 831              	.LVL155:
 103:..\..\flexsea-comm\src/flexsea_payload.c **** 
 832              		.loc 1 103 0
 833 02c6 0220     		movs	r0, #2
 245:..\..\flexsea-comm\src/flexsea_payload.c ****             case 43:
 834              		.loc 1 245 0
 835 02c8 38BD     		pop	{r3, r4, r5, pc}
 836              	.LVL156:
 837              	.L63:
 247:..\..\flexsea-comm\src/flexsea_payload.c ****             	break;
 838              		.loc 1 247 0
 839 02ca 2846     		mov	r0, r5
 840              	.LVL157:
 841 02cc FFF7FEFF 		bl	flexsea_payload_43
 842              	.LVL158:
 103:..\..\flexsea-comm\src/flexsea_payload.c **** 
 843              		.loc 1 103 0
 844 02d0 0220     		movs	r0, #2
 248:..\..\flexsea-comm\src/flexsea_payload.c ****             case 44:
 845              		.loc 1 248 0
 846 02d2 38BD     		pop	{r3, r4, r5, pc}
 847              	.LVL159:
 848              	.L64:
 250:..\..\flexsea-comm\src/flexsea_payload.c ****             	break;
 849              		.loc 1 250 0
 850 02d4 2846     		mov	r0, r5
 851              	.LVL160:
 852 02d6 FFF7FEFF 		bl	flexsea_payload_44
ARM GAS  C:\Users\Alex\AppData\Local\Temp\ccjqAdcx.s 			page 30


 853              	.LVL161:
 103:..\..\flexsea-comm\src/flexsea_payload.c **** 
 854              		.loc 1 103 0
 855 02da 0220     		movs	r0, #2
 251:..\..\flexsea-comm\src/flexsea_payload.c ****             case 45:
 856              		.loc 1 251 0
 857 02dc 38BD     		pop	{r3, r4, r5, pc}
 858              	.LVL162:
 859              	.L65:
 253:..\..\flexsea-comm\src/flexsea_payload.c ****             	break;
 860              		.loc 1 253 0
 861 02de 2846     		mov	r0, r5
 862              	.LVL163:
 863 02e0 FFF7FEFF 		bl	flexsea_payload_45
 864              	.LVL164:
 103:..\..\flexsea-comm\src/flexsea_payload.c **** 
 865              		.loc 1 103 0
 866 02e4 0220     		movs	r0, #2
 254:..\..\flexsea-comm\src/flexsea_payload.c ****             case 46:
 867              		.loc 1 254 0
 868 02e6 38BD     		pop	{r3, r4, r5, pc}
 869              	.LVL165:
 870              	.L66:
 256:..\..\flexsea-comm\src/flexsea_payload.c ****             	break;
 871              		.loc 1 256 0
 872 02e8 2846     		mov	r0, r5
 873              	.LVL166:
 874 02ea FFF7FEFF 		bl	flexsea_payload_46
 875              	.LVL167:
 103:..\..\flexsea-comm\src/flexsea_payload.c **** 
 876              		.loc 1 103 0
 877 02ee 0220     		movs	r0, #2
 257:..\..\flexsea-comm\src/flexsea_payload.c ****             case 47:
 878              		.loc 1 257 0
 879 02f0 38BD     		pop	{r3, r4, r5, pc}
 880              	.LVL168:
 881              	.L67:
 259:..\..\flexsea-comm\src/flexsea_payload.c ****             	break;
 882              		.loc 1 259 0
 883 02f2 2846     		mov	r0, r5
 884              	.LVL169:
 885 02f4 FFF7FEFF 		bl	flexsea_payload_47
 886              	.LVL170:
 103:..\..\flexsea-comm\src/flexsea_payload.c **** 
 887              		.loc 1 103 0
 888 02f8 0220     		movs	r0, #2
 260:..\..\flexsea-comm\src/flexsea_payload.c ****             case 48:
 889              		.loc 1 260 0
 890 02fa 38BD     		pop	{r3, r4, r5, pc}
 891              	.LVL171:
 892              	.L68:
 262:..\..\flexsea-comm\src/flexsea_payload.c ****             	break;
 893              		.loc 1 262 0
 894 02fc 2846     		mov	r0, r5
 895              	.LVL172:
 896 02fe FFF7FEFF 		bl	flexsea_payload_48
 897              	.LVL173:
ARM GAS  C:\Users\Alex\AppData\Local\Temp\ccjqAdcx.s 			page 31


 103:..\..\flexsea-comm\src/flexsea_payload.c **** 
 898              		.loc 1 103 0
 899 0302 0220     		movs	r0, #2
 263:..\..\flexsea-comm\src/flexsea_payload.c ****             case 49:
 900              		.loc 1 263 0
 901 0304 38BD     		pop	{r3, r4, r5, pc}
 902              	.LVL174:
 903              	.L69:
 265:..\..\flexsea-comm\src/flexsea_payload.c ****             	break;
 904              		.loc 1 265 0
 905 0306 2846     		mov	r0, r5
 906              	.LVL175:
 907 0308 FFF7FEFF 		bl	flexsea_payload_49
 908              	.LVL176:
 103:..\..\flexsea-comm\src/flexsea_payload.c **** 
 909              		.loc 1 103 0
 910 030c 0220     		movs	r0, #2
 266:..\..\flexsea-comm\src/flexsea_payload.c **** 				
 911              		.loc 1 266 0
 912 030e 38BD     		pop	{r3, r4, r5, pc}
 913              	.LVL177:
 914              	.L70:
 270:..\..\flexsea-comm\src/flexsea_payload.c ****             	break;
 915              		.loc 1 270 0
 916 0310 2846     		mov	r0, r5
 917              	.LVL178:
 918 0312 FFF7FEFF 		bl	flexsea_payload_50
 919              	.LVL179:
 103:..\..\flexsea-comm\src/flexsea_payload.c **** 
 920              		.loc 1 103 0
 921 0316 0220     		movs	r0, #2
 271:..\..\flexsea-comm\src/flexsea_payload.c ****             case 51:
 922              		.loc 1 271 0
 923 0318 38BD     		pop	{r3, r4, r5, pc}
 924              	.LVL180:
 925              	.L71:
 273:..\..\flexsea-comm\src/flexsea_payload.c ****             	break;
 926              		.loc 1 273 0
 927 031a 2846     		mov	r0, r5
 928              	.LVL181:
 929 031c FFF7FEFF 		bl	flexsea_payload_51
 930              	.LVL182:
 103:..\..\flexsea-comm\src/flexsea_payload.c **** 
 931              		.loc 1 103 0
 932 0320 0220     		movs	r0, #2
 274:..\..\flexsea-comm\src/flexsea_payload.c ****             case 52:
 933              		.loc 1 274 0
 934 0322 38BD     		pop	{r3, r4, r5, pc}
 935              	.LVL183:
 936              	.L72:
 276:..\..\flexsea-comm\src/flexsea_payload.c ****             	break;
 937              		.loc 1 276 0
 938 0324 2846     		mov	r0, r5
 939              	.LVL184:
 940 0326 FFF7FEFF 		bl	flexsea_payload_52
 941              	.LVL185:
 103:..\..\flexsea-comm\src/flexsea_payload.c **** 
ARM GAS  C:\Users\Alex\AppData\Local\Temp\ccjqAdcx.s 			page 32


 942              		.loc 1 103 0
 943 032a 0220     		movs	r0, #2
 277:..\..\flexsea-comm\src/flexsea_payload.c ****             case 53:
 944              		.loc 1 277 0
 945 032c 38BD     		pop	{r3, r4, r5, pc}
 946              	.LVL186:
 947              	.L73:
 279:..\..\flexsea-comm\src/flexsea_payload.c ****             	break;
 948              		.loc 1 279 0
 949 032e 2846     		mov	r0, r5
 950              	.LVL187:
 951 0330 FFF7FEFF 		bl	flexsea_payload_53
 952              	.LVL188:
 103:..\..\flexsea-comm\src/flexsea_payload.c **** 
 953              		.loc 1 103 0
 954 0334 0220     		movs	r0, #2
 280:..\..\flexsea-comm\src/flexsea_payload.c ****             case 54:
 955              		.loc 1 280 0
 956 0336 38BD     		pop	{r3, r4, r5, pc}
 957              	.LVL189:
 958              	.L74:
 282:..\..\flexsea-comm\src/flexsea_payload.c ****             	break;
 959              		.loc 1 282 0
 960 0338 2846     		mov	r0, r5
 961              	.LVL190:
 962 033a FFF7FEFF 		bl	flexsea_payload_54
 963              	.LVL191:
 103:..\..\flexsea-comm\src/flexsea_payload.c **** 
 964              		.loc 1 103 0
 965 033e 0220     		movs	r0, #2
 283:..\..\flexsea-comm\src/flexsea_payload.c ****             case 55:
 966              		.loc 1 283 0
 967 0340 38BD     		pop	{r3, r4, r5, pc}
 968              	.LVL192:
 969              	.L75:
 285:..\..\flexsea-comm\src/flexsea_payload.c ****             	break;
 970              		.loc 1 285 0
 971 0342 2846     		mov	r0, r5
 972              	.LVL193:
 973 0344 FFF7FEFF 		bl	flexsea_payload_55
 974              	.LVL194:
 103:..\..\flexsea-comm\src/flexsea_payload.c **** 
 975              		.loc 1 103 0
 976 0348 0220     		movs	r0, #2
 286:..\..\flexsea-comm\src/flexsea_payload.c ****             case 56:
 977              		.loc 1 286 0
 978 034a 38BD     		pop	{r3, r4, r5, pc}
 979              	.LVL195:
 980              	.L76:
 288:..\..\flexsea-comm\src/flexsea_payload.c ****             	break;
 981              		.loc 1 288 0
 982 034c 2846     		mov	r0, r5
 983              	.LVL196:
 984 034e FFF7FEFF 		bl	flexsea_payload_56
 985              	.LVL197:
 103:..\..\flexsea-comm\src/flexsea_payload.c **** 
 986              		.loc 1 103 0
ARM GAS  C:\Users\Alex\AppData\Local\Temp\ccjqAdcx.s 			page 33


 987 0352 0220     		movs	r0, #2
 289:..\..\flexsea-comm\src/flexsea_payload.c ****             case 57:
 988              		.loc 1 289 0
 989 0354 38BD     		pop	{r3, r4, r5, pc}
 990              	.LVL198:
 991              	.L77:
 291:..\..\flexsea-comm\src/flexsea_payload.c ****             	break;
 992              		.loc 1 291 0
 993 0356 2846     		mov	r0, r5
 994              	.LVL199:
 995 0358 FFF7FEFF 		bl	flexsea_payload_57
 996              	.LVL200:
 103:..\..\flexsea-comm\src/flexsea_payload.c **** 
 997              		.loc 1 103 0
 998 035c 0220     		movs	r0, #2
 292:..\..\flexsea-comm\src/flexsea_payload.c ****             case 58:
 999              		.loc 1 292 0
 1000 035e 38BD     		pop	{r3, r4, r5, pc}
 1001              	.LVL201:
 1002              	.L78:
 294:..\..\flexsea-comm\src/flexsea_payload.c ****             	break;
 1003              		.loc 1 294 0
 1004 0360 2846     		mov	r0, r5
 1005              	.LVL202:
 1006 0362 FFF7FEFF 		bl	flexsea_payload_58
 1007              	.LVL203:
 103:..\..\flexsea-comm\src/flexsea_payload.c **** 
 1008              		.loc 1 103 0
 1009 0366 0220     		movs	r0, #2
 295:..\..\flexsea-comm\src/flexsea_payload.c ****             case 59:
 1010              		.loc 1 295 0
 1011 0368 38BD     		pop	{r3, r4, r5, pc}
 1012              	.LVL204:
 1013              	.L79:
 297:..\..\flexsea-comm\src/flexsea_payload.c ****             	break;
 1014              		.loc 1 297 0
 1015 036a 2846     		mov	r0, r5
 1016              	.LVL205:
 1017 036c FFF7FEFF 		bl	flexsea_payload_59
 1018              	.LVL206:
 103:..\..\flexsea-comm\src/flexsea_payload.c **** 
 1019              		.loc 1 103 0
 1020 0370 0220     		movs	r0, #2
 298:..\..\flexsea-comm\src/flexsea_payload.c **** 				
 1021              		.loc 1 298 0
 1022 0372 38BD     		pop	{r3, r4, r5, pc}
 1023              	.LVL207:
 1024              	.L80:
 302:..\..\flexsea-comm\src/flexsea_payload.c ****             	break;
 1025              		.loc 1 302 0
 1026 0374 2846     		mov	r0, r5
 1027              	.LVL208:
 1028 0376 FFF7FEFF 		bl	flexsea_payload_60
 1029              	.LVL209:
 103:..\..\flexsea-comm\src/flexsea_payload.c **** 
 1030              		.loc 1 103 0
 1031 037a 0220     		movs	r0, #2
ARM GAS  C:\Users\Alex\AppData\Local\Temp\ccjqAdcx.s 			page 34


 303:..\..\flexsea-comm\src/flexsea_payload.c ****             case 61:
 1032              		.loc 1 303 0
 1033 037c 38BD     		pop	{r3, r4, r5, pc}
 1034              	.LVL210:
 1035              	.L81:
 305:..\..\flexsea-comm\src/flexsea_payload.c ****             	break;
 1036              		.loc 1 305 0
 1037 037e 2846     		mov	r0, r5
 1038              	.LVL211:
 1039 0380 FFF7FEFF 		bl	flexsea_payload_61
 1040              	.LVL212:
 103:..\..\flexsea-comm\src/flexsea_payload.c **** 
 1041              		.loc 1 103 0
 1042 0384 0220     		movs	r0, #2
 306:..\..\flexsea-comm\src/flexsea_payload.c ****             case 62:
 1043              		.loc 1 306 0
 1044 0386 38BD     		pop	{r3, r4, r5, pc}
 1045              	.LVL213:
 1046              	.L82:
 308:..\..\flexsea-comm\src/flexsea_payload.c ****             	break;
 1047              		.loc 1 308 0
 1048 0388 2846     		mov	r0, r5
 1049              	.LVL214:
 1050 038a FFF7FEFF 		bl	flexsea_payload_62
 1051              	.LVL215:
 103:..\..\flexsea-comm\src/flexsea_payload.c **** 
 1052              		.loc 1 103 0
 1053 038e 0220     		movs	r0, #2
 309:..\..\flexsea-comm\src/flexsea_payload.c ****             case 63:
 1054              		.loc 1 309 0
 1055 0390 38BD     		pop	{r3, r4, r5, pc}
 1056              	.LVL216:
 1057              	.L83:
 311:..\..\flexsea-comm\src/flexsea_payload.c ****             	break;
 1058              		.loc 1 311 0
 1059 0392 2846     		mov	r0, r5
 1060              	.LVL217:
 1061 0394 FFF7FEFF 		bl	flexsea_payload_63
 1062              	.LVL218:
 103:..\..\flexsea-comm\src/flexsea_payload.c **** 
 1063              		.loc 1 103 0
 1064 0398 0220     		movs	r0, #2
 312:..\..\flexsea-comm\src/flexsea_payload.c ****             case 64:
 1065              		.loc 1 312 0
 1066 039a 38BD     		pop	{r3, r4, r5, pc}
 1067              	.LVL219:
 1068              	.L84:
 314:..\..\flexsea-comm\src/flexsea_payload.c ****             	break;
 1069              		.loc 1 314 0
 1070 039c 2846     		mov	r0, r5
 1071              	.LVL220:
 1072 039e FFF7FEFF 		bl	flexsea_payload_64
 1073              	.LVL221:
 103:..\..\flexsea-comm\src/flexsea_payload.c **** 
 1074              		.loc 1 103 0
 1075 03a2 0220     		movs	r0, #2
 315:..\..\flexsea-comm\src/flexsea_payload.c ****             case 65:
ARM GAS  C:\Users\Alex\AppData\Local\Temp\ccjqAdcx.s 			page 35


 1076              		.loc 1 315 0
 1077 03a4 38BD     		pop	{r3, r4, r5, pc}
 1078              	.LVL222:
 1079              	.L85:
 317:..\..\flexsea-comm\src/flexsea_payload.c ****             	break;
 1080              		.loc 1 317 0
 1081 03a6 2846     		mov	r0, r5
 1082              	.LVL223:
 1083 03a8 FFF7FEFF 		bl	flexsea_payload_65
 1084              	.LVL224:
 103:..\..\flexsea-comm\src/flexsea_payload.c **** 
 1085              		.loc 1 103 0
 1086 03ac 0220     		movs	r0, #2
 318:..\..\flexsea-comm\src/flexsea_payload.c ****             case 66:
 1087              		.loc 1 318 0
 1088 03ae 38BD     		pop	{r3, r4, r5, pc}
 1089              	.LVL225:
 1090              	.L86:
 320:..\..\flexsea-comm\src/flexsea_payload.c ****             	break;
 1091              		.loc 1 320 0
 1092 03b0 2846     		mov	r0, r5
 1093              	.LVL226:
 1094 03b2 FFF7FEFF 		bl	flexsea_payload_66
 1095              	.LVL227:
 103:..\..\flexsea-comm\src/flexsea_payload.c **** 
 1096              		.loc 1 103 0
 1097 03b6 0220     		movs	r0, #2
 321:..\..\flexsea-comm\src/flexsea_payload.c ****             case 67:
 1098              		.loc 1 321 0
 1099 03b8 38BD     		pop	{r3, r4, r5, pc}
 1100              	.LVL228:
 1101              	.L87:
 323:..\..\flexsea-comm\src/flexsea_payload.c ****             	break;
 1102              		.loc 1 323 0
 1103 03ba 2846     		mov	r0, r5
 1104              	.LVL229:
 1105 03bc FFF7FEFF 		bl	flexsea_payload_67
 1106              	.LVL230:
 103:..\..\flexsea-comm\src/flexsea_payload.c **** 
 1107              		.loc 1 103 0
 1108 03c0 0220     		movs	r0, #2
 324:..\..\flexsea-comm\src/flexsea_payload.c ****             case 68:
 1109              		.loc 1 324 0
 1110 03c2 38BD     		pop	{r3, r4, r5, pc}
 1111              	.LVL231:
 1112              	.L88:
 326:..\..\flexsea-comm\src/flexsea_payload.c ****             	break;
 1113              		.loc 1 326 0
 1114 03c4 2846     		mov	r0, r5
 1115              	.LVL232:
 1116 03c6 FFF7FEFF 		bl	flexsea_payload_68
 1117              	.LVL233:
 103:..\..\flexsea-comm\src/flexsea_payload.c **** 
 1118              		.loc 1 103 0
 1119 03ca 0220     		movs	r0, #2
 327:..\..\flexsea-comm\src/flexsea_payload.c ****             case 69:
 1120              		.loc 1 327 0
ARM GAS  C:\Users\Alex\AppData\Local\Temp\ccjqAdcx.s 			page 36


 1121 03cc 38BD     		pop	{r3, r4, r5, pc}
 1122              	.LVL234:
 1123              	.L89:
 329:..\..\flexsea-comm\src/flexsea_payload.c ****             	break;
 1124              		.loc 1 329 0
 1125 03ce 2846     		mov	r0, r5
 1126              	.LVL235:
 1127 03d0 FFF7FEFF 		bl	flexsea_payload_69
 1128              	.LVL236:
 103:..\..\flexsea-comm\src/flexsea_payload.c **** 
 1129              		.loc 1 103 0
 1130 03d4 0220     		movs	r0, #2
 330:..\..\flexsea-comm\src/flexsea_payload.c **** 				
 1131              		.loc 1 330 0
 1132 03d6 38BD     		pop	{r3, r4, r5, pc}
 1133              	.LVL237:
 1134              	.L90:
 334:..\..\flexsea-comm\src/flexsea_payload.c ****             	break;
 1135              		.loc 1 334 0
 1136 03d8 2846     		mov	r0, r5
 1137              	.LVL238:
 1138 03da FFF7FEFF 		bl	flexsea_payload_70
 1139              	.LVL239:
 103:..\..\flexsea-comm\src/flexsea_payload.c **** 
 1140              		.loc 1 103 0
 1141 03de 0220     		movs	r0, #2
 335:..\..\flexsea-comm\src/flexsea_payload.c ****             case 71:
 1142              		.loc 1 335 0
 1143 03e0 38BD     		pop	{r3, r4, r5, pc}
 1144              	.LVL240:
 1145              	.L91:
 337:..\..\flexsea-comm\src/flexsea_payload.c ****             	break;
 1146              		.loc 1 337 0
 1147 03e2 2846     		mov	r0, r5
 1148              	.LVL241:
 1149 03e4 FFF7FEFF 		bl	flexsea_payload_71
 1150              	.LVL242:
 103:..\..\flexsea-comm\src/flexsea_payload.c **** 
 1151              		.loc 1 103 0
 1152 03e8 0220     		movs	r0, #2
 338:..\..\flexsea-comm\src/flexsea_payload.c ****             case 72:
 1153              		.loc 1 338 0
 1154 03ea 38BD     		pop	{r3, r4, r5, pc}
 1155              	.LVL243:
 1156              	.L92:
 340:..\..\flexsea-comm\src/flexsea_payload.c ****             	break;
 1157              		.loc 1 340 0
 1158 03ec 2846     		mov	r0, r5
 1159              	.LVL244:
 1160 03ee FFF7FEFF 		bl	flexsea_payload_72
 1161              	.LVL245:
 103:..\..\flexsea-comm\src/flexsea_payload.c **** 
 1162              		.loc 1 103 0
 1163 03f2 0220     		movs	r0, #2
 341:..\..\flexsea-comm\src/flexsea_payload.c ****             case 73:
 1164              		.loc 1 341 0
 1165 03f4 38BD     		pop	{r3, r4, r5, pc}
ARM GAS  C:\Users\Alex\AppData\Local\Temp\ccjqAdcx.s 			page 37


 1166              	.LVL246:
 1167              	.L93:
 343:..\..\flexsea-comm\src/flexsea_payload.c ****             	break;
 1168              		.loc 1 343 0
 1169 03f6 2846     		mov	r0, r5
 1170              	.LVL247:
 1171 03f8 FFF7FEFF 		bl	flexsea_payload_73
 1172              	.LVL248:
 103:..\..\flexsea-comm\src/flexsea_payload.c **** 
 1173              		.loc 1 103 0
 1174 03fc 0220     		movs	r0, #2
 344:..\..\flexsea-comm\src/flexsea_payload.c ****             case 74:
 1175              		.loc 1 344 0
 1176 03fe 38BD     		pop	{r3, r4, r5, pc}
 1177              	.LVL249:
 1178              	.L94:
 346:..\..\flexsea-comm\src/flexsea_payload.c ****             	break;
 1179              		.loc 1 346 0
 1180 0400 2846     		mov	r0, r5
 1181              	.LVL250:
 1182 0402 FFF7FEFF 		bl	flexsea_payload_74
 1183              	.LVL251:
 103:..\..\flexsea-comm\src/flexsea_payload.c **** 
 1184              		.loc 1 103 0
 1185 0406 0220     		movs	r0, #2
 347:..\..\flexsea-comm\src/flexsea_payload.c ****             case 75:
 1186              		.loc 1 347 0
 1187 0408 38BD     		pop	{r3, r4, r5, pc}
 1188              	.LVL252:
 1189              	.L95:
 349:..\..\flexsea-comm\src/flexsea_payload.c ****             	break;
 1190              		.loc 1 349 0
 1191 040a 2846     		mov	r0, r5
 1192              	.LVL253:
 1193 040c FFF7FEFF 		bl	flexsea_payload_75
 1194              	.LVL254:
 103:..\..\flexsea-comm\src/flexsea_payload.c **** 
 1195              		.loc 1 103 0
 1196 0410 0220     		movs	r0, #2
 350:..\..\flexsea-comm\src/flexsea_payload.c ****             case 76:
 1197              		.loc 1 350 0
 1198 0412 38BD     		pop	{r3, r4, r5, pc}
 1199              	.LVL255:
 1200              	.L96:
 352:..\..\flexsea-comm\src/flexsea_payload.c ****             	break;
 1201              		.loc 1 352 0
 1202 0414 2846     		mov	r0, r5
 1203              	.LVL256:
 1204 0416 FFF7FEFF 		bl	flexsea_payload_76
 1205              	.LVL257:
 103:..\..\flexsea-comm\src/flexsea_payload.c **** 
 1206              		.loc 1 103 0
 1207 041a 0220     		movs	r0, #2
 353:..\..\flexsea-comm\src/flexsea_payload.c ****             case 77:
 1208              		.loc 1 353 0
 1209 041c 38BD     		pop	{r3, r4, r5, pc}
 1210              	.LVL258:
ARM GAS  C:\Users\Alex\AppData\Local\Temp\ccjqAdcx.s 			page 38


 1211              	.L97:
 355:..\..\flexsea-comm\src/flexsea_payload.c ****             	break;
 1212              		.loc 1 355 0
 1213 041e 2846     		mov	r0, r5
 1214              	.LVL259:
 1215 0420 FFF7FEFF 		bl	flexsea_payload_77
 1216              	.LVL260:
 103:..\..\flexsea-comm\src/flexsea_payload.c **** 
 1217              		.loc 1 103 0
 1218 0424 0220     		movs	r0, #2
 356:..\..\flexsea-comm\src/flexsea_payload.c ****             case 78:
 1219              		.loc 1 356 0
 1220 0426 38BD     		pop	{r3, r4, r5, pc}
 1221              	.LVL261:
 1222              	.L98:
 358:..\..\flexsea-comm\src/flexsea_payload.c ****             	break;
 1223              		.loc 1 358 0
 1224 0428 2846     		mov	r0, r5
 1225              	.LVL262:
 1226 042a FFF7FEFF 		bl	flexsea_payload_78
 1227              	.LVL263:
 103:..\..\flexsea-comm\src/flexsea_payload.c **** 
 1228              		.loc 1 103 0
 1229 042e 0220     		movs	r0, #2
 359:..\..\flexsea-comm\src/flexsea_payload.c ****             case 79:
 1230              		.loc 1 359 0
 1231 0430 38BD     		pop	{r3, r4, r5, pc}
 1232              	.LVL264:
 1233              	.L99:
 361:..\..\flexsea-comm\src/flexsea_payload.c ****             	break;
 1234              		.loc 1 361 0
 1235 0432 2846     		mov	r0, r5
 1236              	.LVL265:
 1237 0434 FFF7FEFF 		bl	flexsea_payload_79
 1238              	.LVL266:
 103:..\..\flexsea-comm\src/flexsea_payload.c **** 
 1239              		.loc 1 103 0
 1240 0438 0220     		movs	r0, #2
 362:..\..\flexsea-comm\src/flexsea_payload.c **** 				
 1241              		.loc 1 362 0
 1242 043a 38BD     		pop	{r3, r4, r5, pc}
 1243              	.LVL267:
 1244              	.L100:
 366:..\..\flexsea-comm\src/flexsea_payload.c ****             	break;
 1245              		.loc 1 366 0
 1246 043c 2846     		mov	r0, r5
 1247              	.LVL268:
 1248 043e FFF7FEFF 		bl	flexsea_payload_80
 1249              	.LVL269:
 103:..\..\flexsea-comm\src/flexsea_payload.c **** 
 1250              		.loc 1 103 0
 1251 0442 0220     		movs	r0, #2
 367:..\..\flexsea-comm\src/flexsea_payload.c ****             case 81:
 1252              		.loc 1 367 0
 1253 0444 38BD     		pop	{r3, r4, r5, pc}
 1254              	.LVL270:
 1255              	.L101:
ARM GAS  C:\Users\Alex\AppData\Local\Temp\ccjqAdcx.s 			page 39


 369:..\..\flexsea-comm\src/flexsea_payload.c ****             	break;
 1256              		.loc 1 369 0
 1257 0446 2846     		mov	r0, r5
 1258              	.LVL271:
 1259 0448 FFF7FEFF 		bl	flexsea_payload_81
 1260              	.LVL272:
 103:..\..\flexsea-comm\src/flexsea_payload.c **** 
 1261              		.loc 1 103 0
 1262 044c 0220     		movs	r0, #2
 370:..\..\flexsea-comm\src/flexsea_payload.c ****             case 82:
 1263              		.loc 1 370 0
 1264 044e 38BD     		pop	{r3, r4, r5, pc}
 1265              	.LVL273:
 1266              	.L102:
 372:..\..\flexsea-comm\src/flexsea_payload.c ****             	break;
 1267              		.loc 1 372 0
 1268 0450 2846     		mov	r0, r5
 1269              	.LVL274:
 1270 0452 FFF7FEFF 		bl	flexsea_payload_82
 1271              	.LVL275:
 103:..\..\flexsea-comm\src/flexsea_payload.c **** 
 1272              		.loc 1 103 0
 1273 0456 0220     		movs	r0, #2
 373:..\..\flexsea-comm\src/flexsea_payload.c ****             case 83:
 1274              		.loc 1 373 0
 1275 0458 38BD     		pop	{r3, r4, r5, pc}
 1276              	.LVL276:
 1277              	.L103:
 375:..\..\flexsea-comm\src/flexsea_payload.c ****             	break;
 1278              		.loc 1 375 0
 1279 045a 2846     		mov	r0, r5
 1280              	.LVL277:
 1281 045c FFF7FEFF 		bl	flexsea_payload_83
 1282              	.LVL278:
 103:..\..\flexsea-comm\src/flexsea_payload.c **** 
 1283              		.loc 1 103 0
 1284 0460 0220     		movs	r0, #2
 376:..\..\flexsea-comm\src/flexsea_payload.c ****             case 84:
 1285              		.loc 1 376 0
 1286 0462 38BD     		pop	{r3, r4, r5, pc}
 1287              	.LVL279:
 1288              	.L104:
 378:..\..\flexsea-comm\src/flexsea_payload.c ****             	break;
 1289              		.loc 1 378 0
 1290 0464 2846     		mov	r0, r5
 1291              	.LVL280:
 1292 0466 FFF7FEFF 		bl	flexsea_payload_84
 1293              	.LVL281:
 103:..\..\flexsea-comm\src/flexsea_payload.c **** 
 1294              		.loc 1 103 0
 1295 046a 0220     		movs	r0, #2
 379:..\..\flexsea-comm\src/flexsea_payload.c ****             case 85:
 1296              		.loc 1 379 0
 1297 046c 38BD     		pop	{r3, r4, r5, pc}
 1298              	.LVL282:
 1299              	.L105:
 381:..\..\flexsea-comm\src/flexsea_payload.c ****             	break;
ARM GAS  C:\Users\Alex\AppData\Local\Temp\ccjqAdcx.s 			page 40


 1300              		.loc 1 381 0
 1301 046e 2846     		mov	r0, r5
 1302              	.LVL283:
 1303 0470 FFF7FEFF 		bl	flexsea_payload_85
 1304              	.LVL284:
 103:..\..\flexsea-comm\src/flexsea_payload.c **** 
 1305              		.loc 1 103 0
 1306 0474 0220     		movs	r0, #2
 382:..\..\flexsea-comm\src/flexsea_payload.c ****             case 86:
 1307              		.loc 1 382 0
 1308 0476 38BD     		pop	{r3, r4, r5, pc}
 1309              	.LVL285:
 1310              	.L106:
 384:..\..\flexsea-comm\src/flexsea_payload.c ****             	break;
 1311              		.loc 1 384 0
 1312 0478 2846     		mov	r0, r5
 1313              	.LVL286:
 1314 047a FFF7FEFF 		bl	flexsea_payload_86
 1315              	.LVL287:
 103:..\..\flexsea-comm\src/flexsea_payload.c **** 
 1316              		.loc 1 103 0
 1317 047e 0220     		movs	r0, #2
 385:..\..\flexsea-comm\src/flexsea_payload.c ****             case 87:
 1318              		.loc 1 385 0
 1319 0480 38BD     		pop	{r3, r4, r5, pc}
 1320              	.LVL288:
 1321              	.L107:
 387:..\..\flexsea-comm\src/flexsea_payload.c ****             	break;
 1322              		.loc 1 387 0
 1323 0482 2846     		mov	r0, r5
 1324              	.LVL289:
 1325 0484 FFF7FEFF 		bl	flexsea_payload_87
 1326              	.LVL290:
 103:..\..\flexsea-comm\src/flexsea_payload.c **** 
 1327              		.loc 1 103 0
 1328 0488 0220     		movs	r0, #2
 388:..\..\flexsea-comm\src/flexsea_payload.c ****             case 88:
 1329              		.loc 1 388 0
 1330 048a 38BD     		pop	{r3, r4, r5, pc}
 1331              	.LVL291:
 1332              	.L108:
 390:..\..\flexsea-comm\src/flexsea_payload.c ****             	break;
 1333              		.loc 1 390 0
 1334 048c 2846     		mov	r0, r5
 1335              	.LVL292:
 1336 048e FFF7FEFF 		bl	flexsea_payload_88
 1337              	.LVL293:
 103:..\..\flexsea-comm\src/flexsea_payload.c **** 
 1338              		.loc 1 103 0
 1339 0492 0220     		movs	r0, #2
 391:..\..\flexsea-comm\src/flexsea_payload.c ****             case 89:
 1340              		.loc 1 391 0
 1341 0494 38BD     		pop	{r3, r4, r5, pc}
 1342              	.LVL294:
 1343              	.L109:
 393:..\..\flexsea-comm\src/flexsea_payload.c ****             	break;				
 1344              		.loc 1 393 0
ARM GAS  C:\Users\Alex\AppData\Local\Temp\ccjqAdcx.s 			page 41


 1345 0496 2846     		mov	r0, r5
 1346              	.LVL295:
 1347 0498 FFF7FEFF 		bl	flexsea_payload_89
 1348              	.LVL296:
 103:..\..\flexsea-comm\src/flexsea_payload.c **** 
 1349              		.loc 1 103 0
 1350 049c 0220     		movs	r0, #2
 394:..\..\flexsea-comm\src/flexsea_payload.c **** 
 1351              		.loc 1 394 0
 1352 049e 38BD     		pop	{r3, r4, r5, pc}
 1353              	.LVL297:
 1354              	.L110:
 398:..\..\flexsea-comm\src/flexsea_payload.c ****             	break;
 1355              		.loc 1 398 0
 1356 04a0 2846     		mov	r0, r5
 1357              	.LVL298:
 1358 04a2 FFF7FEFF 		bl	flexsea_payload_90
 1359              	.LVL299:
 103:..\..\flexsea-comm\src/flexsea_payload.c **** 
 1360              		.loc 1 103 0
 1361 04a6 0220     		movs	r0, #2
 399:..\..\flexsea-comm\src/flexsea_payload.c ****             case 91:
 1362              		.loc 1 399 0
 1363 04a8 38BD     		pop	{r3, r4, r5, pc}
 1364              	.LVL300:
 1365              	.L111:
 401:..\..\flexsea-comm\src/flexsea_payload.c ****             	break;
 1366              		.loc 1 401 0
 1367 04aa 2846     		mov	r0, r5
 1368              	.LVL301:
 1369 04ac FFF7FEFF 		bl	flexsea_payload_91
 1370              	.LVL302:
 103:..\..\flexsea-comm\src/flexsea_payload.c **** 
 1371              		.loc 1 103 0
 1372 04b0 0220     		movs	r0, #2
 402:..\..\flexsea-comm\src/flexsea_payload.c ****             case 92:
 1373              		.loc 1 402 0
 1374 04b2 38BD     		pop	{r3, r4, r5, pc}
 1375              	.LVL303:
 1376              	.L112:
 404:..\..\flexsea-comm\src/flexsea_payload.c ****             	break;
 1377              		.loc 1 404 0
 1378 04b4 2846     		mov	r0, r5
 1379              	.LVL304:
 1380 04b6 FFF7FEFF 		bl	flexsea_payload_92
 1381              	.LVL305:
 103:..\..\flexsea-comm\src/flexsea_payload.c **** 
 1382              		.loc 1 103 0
 1383 04ba 0220     		movs	r0, #2
 405:..\..\flexsea-comm\src/flexsea_payload.c ****             case 93:
 1384              		.loc 1 405 0
 1385 04bc 38BD     		pop	{r3, r4, r5, pc}
 1386              	.LVL306:
 1387              	.L113:
 407:..\..\flexsea-comm\src/flexsea_payload.c ****             	break;
 1388              		.loc 1 407 0
 1389 04be 2846     		mov	r0, r5
ARM GAS  C:\Users\Alex\AppData\Local\Temp\ccjqAdcx.s 			page 42


 1390              	.LVL307:
 1391 04c0 FFF7FEFF 		bl	flexsea_payload_93
 1392              	.LVL308:
 103:..\..\flexsea-comm\src/flexsea_payload.c **** 
 1393              		.loc 1 103 0
 1394 04c4 0220     		movs	r0, #2
 408:..\..\flexsea-comm\src/flexsea_payload.c ****             case 94:
 1395              		.loc 1 408 0
 1396 04c6 38BD     		pop	{r3, r4, r5, pc}
 1397              	.LVL309:
 1398              	.L114:
 410:..\..\flexsea-comm\src/flexsea_payload.c ****             	break;
 1399              		.loc 1 410 0
 1400 04c8 2846     		mov	r0, r5
 1401              	.LVL310:
 1402 04ca FFF7FEFF 		bl	flexsea_payload_94
 1403              	.LVL311:
 103:..\..\flexsea-comm\src/flexsea_payload.c **** 
 1404              		.loc 1 103 0
 1405 04ce 0220     		movs	r0, #2
 411:..\..\flexsea-comm\src/flexsea_payload.c ****             case 95:
 1406              		.loc 1 411 0
 1407 04d0 38BD     		pop	{r3, r4, r5, pc}
 1408              	.LVL312:
 1409              	.L115:
 413:..\..\flexsea-comm\src/flexsea_payload.c ****             	break;
 1410              		.loc 1 413 0
 1411 04d2 2846     		mov	r0, r5
 1412              	.LVL313:
 1413 04d4 FFF7FEFF 		bl	flexsea_payload_95
 1414              	.LVL314:
 103:..\..\flexsea-comm\src/flexsea_payload.c **** 
 1415              		.loc 1 103 0
 1416 04d8 0220     		movs	r0, #2
 414:..\..\flexsea-comm\src/flexsea_payload.c ****             case 96:
 1417              		.loc 1 414 0
 1418 04da 38BD     		pop	{r3, r4, r5, pc}
 1419              	.LVL315:
 1420              	.L116:
 416:..\..\flexsea-comm\src/flexsea_payload.c ****             	break;
 1421              		.loc 1 416 0
 1422 04dc 2846     		mov	r0, r5
 1423              	.LVL316:
 1424 04de FFF7FEFF 		bl	flexsea_payload_96
 1425              	.LVL317:
 103:..\..\flexsea-comm\src/flexsea_payload.c **** 
 1426              		.loc 1 103 0
 1427 04e2 0220     		movs	r0, #2
 417:..\..\flexsea-comm\src/flexsea_payload.c ****             case 97:
 1428              		.loc 1 417 0
 1429 04e4 38BD     		pop	{r3, r4, r5, pc}
 1430              	.LVL318:
 1431              	.L117:
 419:..\..\flexsea-comm\src/flexsea_payload.c ****             	break;
 1432              		.loc 1 419 0
 1433 04e6 2846     		mov	r0, r5
 1434              	.LVL319:
ARM GAS  C:\Users\Alex\AppData\Local\Temp\ccjqAdcx.s 			page 43


 1435 04e8 FFF7FEFF 		bl	flexsea_payload_97
 1436              	.LVL320:
 103:..\..\flexsea-comm\src/flexsea_payload.c **** 
 1437              		.loc 1 103 0
 1438 04ec 0220     		movs	r0, #2
 420:..\..\flexsea-comm\src/flexsea_payload.c ****             case 98:
 1439              		.loc 1 420 0
 1440 04ee 38BD     		pop	{r3, r4, r5, pc}
 1441              	.LVL321:
 1442              	.L118:
 422:..\..\flexsea-comm\src/flexsea_payload.c ****             	break;
 1443              		.loc 1 422 0
 1444 04f0 2846     		mov	r0, r5
 1445              	.LVL322:
 1446 04f2 FFF7FEFF 		bl	flexsea_payload_98
 1447              	.LVL323:
 103:..\..\flexsea-comm\src/flexsea_payload.c **** 
 1448              		.loc 1 103 0
 1449 04f6 0220     		movs	r0, #2
 423:..\..\flexsea-comm\src/flexsea_payload.c ****             case 99:
 1450              		.loc 1 423 0
 1451 04f8 38BD     		pop	{r3, r4, r5, pc}
 1452              	.LVL324:
 1453              	.L119:
 425:..\..\flexsea-comm\src/flexsea_payload.c ****             	break;
 1454              		.loc 1 425 0
 1455 04fa 2846     		mov	r0, r5
 1456              	.LVL325:
 1457 04fc FFF7FEFF 		bl	flexsea_payload_99
 1458              	.LVL326:
 103:..\..\flexsea-comm\src/flexsea_payload.c **** 
 1459              		.loc 1 103 0
 1460 0500 0220     		movs	r0, #2
 426:..\..\flexsea-comm\src/flexsea_payload.c **** 				
 1461              		.loc 1 426 0
 1462 0502 38BD     		pop	{r3, r4, r5, pc}
 1463              	.LVL327:
 1464              	.L120:
 430:..\..\flexsea-comm\src/flexsea_payload.c ****             	break;
 1465              		.loc 1 430 0
 1466 0504 2846     		mov	r0, r5
 1467              	.LVL328:
 1468 0506 FFF7FEFF 		bl	flexsea_payload_100
 1469              	.LVL329:
 103:..\..\flexsea-comm\src/flexsea_payload.c **** 
 1470              		.loc 1 103 0
 1471 050a 0220     		movs	r0, #2
 431:..\..\flexsea-comm\src/flexsea_payload.c ****             case 101:
 1472              		.loc 1 431 0
 1473 050c 38BD     		pop	{r3, r4, r5, pc}
 1474              	.LVL330:
 1475              	.L121:
 433:..\..\flexsea-comm\src/flexsea_payload.c ****             	break;
 1476              		.loc 1 433 0
 1477 050e 2846     		mov	r0, r5
 1478              	.LVL331:
 1479 0510 FFF7FEFF 		bl	flexsea_payload_101
ARM GAS  C:\Users\Alex\AppData\Local\Temp\ccjqAdcx.s 			page 44


 1480              	.LVL332:
 103:..\..\flexsea-comm\src/flexsea_payload.c **** 
 1481              		.loc 1 103 0
 1482 0514 0220     		movs	r0, #2
 434:..\..\flexsea-comm\src/flexsea_payload.c ****             case 102:
 1483              		.loc 1 434 0
 1484 0516 38BD     		pop	{r3, r4, r5, pc}
 1485              	.LVL333:
 1486              	.L122:
 436:..\..\flexsea-comm\src/flexsea_payload.c ****             	break;
 1487              		.loc 1 436 0
 1488 0518 2846     		mov	r0, r5
 1489              	.LVL334:
 1490 051a FFF7FEFF 		bl	flexsea_payload_102
 1491              	.LVL335:
 103:..\..\flexsea-comm\src/flexsea_payload.c **** 
 1492              		.loc 1 103 0
 1493 051e 0220     		movs	r0, #2
 437:..\..\flexsea-comm\src/flexsea_payload.c ****             case 103:
 1494              		.loc 1 437 0
 1495 0520 38BD     		pop	{r3, r4, r5, pc}
 1496              	.LVL336:
 1497              	.L123:
 439:..\..\flexsea-comm\src/flexsea_payload.c ****             	break;
 1498              		.loc 1 439 0
 1499 0522 2846     		mov	r0, r5
 1500              	.LVL337:
 1501 0524 FFF7FEFF 		bl	flexsea_payload_103
 1502              	.LVL338:
 103:..\..\flexsea-comm\src/flexsea_payload.c **** 
 1503              		.loc 1 103 0
 1504 0528 0220     		movs	r0, #2
 440:..\..\flexsea-comm\src/flexsea_payload.c ****             case 104:
 1505              		.loc 1 440 0
 1506 052a 38BD     		pop	{r3, r4, r5, pc}
 1507              	.LVL339:
 1508              	.L124:
 442:..\..\flexsea-comm\src/flexsea_payload.c ****             	break;
 1509              		.loc 1 442 0
 1510 052c 2846     		mov	r0, r5
 1511              	.LVL340:
 1512 052e FFF7FEFF 		bl	flexsea_payload_104
 1513              	.LVL341:
 103:..\..\flexsea-comm\src/flexsea_payload.c **** 
 1514              		.loc 1 103 0
 1515 0532 0220     		movs	r0, #2
 443:..\..\flexsea-comm\src/flexsea_payload.c ****             case 105:
 1516              		.loc 1 443 0
 1517 0534 38BD     		pop	{r3, r4, r5, pc}
 1518              	.LVL342:
 1519              	.L125:
 445:..\..\flexsea-comm\src/flexsea_payload.c ****             	break;
 1520              		.loc 1 445 0
 1521 0536 2846     		mov	r0, r5
 1522              	.LVL343:
 1523 0538 FFF7FEFF 		bl	flexsea_payload_105
 1524              	.LVL344:
ARM GAS  C:\Users\Alex\AppData\Local\Temp\ccjqAdcx.s 			page 45


 103:..\..\flexsea-comm\src/flexsea_payload.c **** 
 1525              		.loc 1 103 0
 1526 053c 0220     		movs	r0, #2
 446:..\..\flexsea-comm\src/flexsea_payload.c ****             case 106:
 1527              		.loc 1 446 0
 1528 053e 38BD     		pop	{r3, r4, r5, pc}
 1529              	.LVL345:
 1530              	.L126:
 448:..\..\flexsea-comm\src/flexsea_payload.c ****             	break;
 1531              		.loc 1 448 0
 1532 0540 2846     		mov	r0, r5
 1533              	.LVL346:
 1534 0542 FFF7FEFF 		bl	flexsea_payload_106
 1535              	.LVL347:
 103:..\..\flexsea-comm\src/flexsea_payload.c **** 
 1536              		.loc 1 103 0
 1537 0546 0220     		movs	r0, #2
 449:..\..\flexsea-comm\src/flexsea_payload.c ****             case 107:
 1538              		.loc 1 449 0
 1539 0548 38BD     		pop	{r3, r4, r5, pc}
 1540              	.LVL348:
 1541              	.L127:
 451:..\..\flexsea-comm\src/flexsea_payload.c ****             	break;
 1542              		.loc 1 451 0
 1543 054a 2846     		mov	r0, r5
 1544              	.LVL349:
 1545 054c FFF7FEFF 		bl	flexsea_payload_107
 1546              	.LVL350:
 103:..\..\flexsea-comm\src/flexsea_payload.c **** 
 1547              		.loc 1 103 0
 1548 0550 0220     		movs	r0, #2
 452:..\..\flexsea-comm\src/flexsea_payload.c ****             case 108:
 1549              		.loc 1 452 0
 1550 0552 38BD     		pop	{r3, r4, r5, pc}
 1551              	.LVL351:
 1552              	.L128:
 454:..\..\flexsea-comm\src/flexsea_payload.c ****             	break;
 1553              		.loc 1 454 0
 1554 0554 2846     		mov	r0, r5
 1555              	.LVL352:
 1556 0556 FFF7FEFF 		bl	flexsea_payload_108
 1557              	.LVL353:
 103:..\..\flexsea-comm\src/flexsea_payload.c **** 
 1558              		.loc 1 103 0
 1559 055a 0220     		movs	r0, #2
 455:..\..\flexsea-comm\src/flexsea_payload.c ****             case 109:
 1560              		.loc 1 455 0
 1561 055c 38BD     		pop	{r3, r4, r5, pc}
 1562              	.LVL354:
 1563              	.L129:
 457:..\..\flexsea-comm\src/flexsea_payload.c ****             	break;
 1564              		.loc 1 457 0
 1565 055e 2846     		mov	r0, r5
 1566              	.LVL355:
 1567 0560 FFF7FEFF 		bl	flexsea_payload_109
 1568              	.LVL356:
 103:..\..\flexsea-comm\src/flexsea_payload.c **** 
ARM GAS  C:\Users\Alex\AppData\Local\Temp\ccjqAdcx.s 			page 46


 1569              		.loc 1 103 0
 1570 0564 0220     		movs	r0, #2
 458:..\..\flexsea-comm\src/flexsea_payload.c **** 				
 1571              		.loc 1 458 0
 1572 0566 38BD     		pop	{r3, r4, r5, pc}
 1573              	.LVL357:
 1574              	.L130:
 462:..\..\flexsea-comm\src/flexsea_payload.c ****             	break;
 1575              		.loc 1 462 0
 1576 0568 2846     		mov	r0, r5
 1577              	.LVL358:
 1578 056a FFF7FEFF 		bl	flexsea_payload_110
 1579              	.LVL359:
 103:..\..\flexsea-comm\src/flexsea_payload.c **** 
 1580              		.loc 1 103 0
 1581 056e 0220     		movs	r0, #2
 463:..\..\flexsea-comm\src/flexsea_payload.c ****             case 111:
 1582              		.loc 1 463 0
 1583 0570 38BD     		pop	{r3, r4, r5, pc}
 1584              	.LVL360:
 1585              	.L131:
 465:..\..\flexsea-comm\src/flexsea_payload.c ****             	break;
 1586              		.loc 1 465 0
 1587 0572 2846     		mov	r0, r5
 1588              	.LVL361:
 1589 0574 FFF7FEFF 		bl	flexsea_payload_111
 1590              	.LVL362:
 103:..\..\flexsea-comm\src/flexsea_payload.c **** 
 1591              		.loc 1 103 0
 1592 0578 0220     		movs	r0, #2
 466:..\..\flexsea-comm\src/flexsea_payload.c ****             case 112:
 1593              		.loc 1 466 0
 1594 057a 38BD     		pop	{r3, r4, r5, pc}
 1595              	.LVL363:
 1596              	.L132:
 468:..\..\flexsea-comm\src/flexsea_payload.c ****             	break;
 1597              		.loc 1 468 0
 1598 057c 2846     		mov	r0, r5
 1599              	.LVL364:
 1600 057e FFF7FEFF 		bl	flexsea_payload_112
 1601              	.LVL365:
 103:..\..\flexsea-comm\src/flexsea_payload.c **** 
 1602              		.loc 1 103 0
 1603 0582 0220     		movs	r0, #2
 469:..\..\flexsea-comm\src/flexsea_payload.c ****             case 113:
 1604              		.loc 1 469 0
 1605 0584 38BD     		pop	{r3, r4, r5, pc}
 1606              	.LVL366:
 1607              	.L133:
 471:..\..\flexsea-comm\src/flexsea_payload.c ****             	break;
 1608              		.loc 1 471 0
 1609 0586 2846     		mov	r0, r5
 1610              	.LVL367:
 1611 0588 FFF7FEFF 		bl	flexsea_payload_113
 1612              	.LVL368:
 103:..\..\flexsea-comm\src/flexsea_payload.c **** 
 1613              		.loc 1 103 0
ARM GAS  C:\Users\Alex\AppData\Local\Temp\ccjqAdcx.s 			page 47


 1614 058c 0220     		movs	r0, #2
 472:..\..\flexsea-comm\src/flexsea_payload.c ****             case 114:
 1615              		.loc 1 472 0
 1616 058e 38BD     		pop	{r3, r4, r5, pc}
 1617              	.LVL369:
 1618              	.L134:
 474:..\..\flexsea-comm\src/flexsea_payload.c ****             	break;
 1619              		.loc 1 474 0
 1620 0590 2846     		mov	r0, r5
 1621              	.LVL370:
 1622 0592 FFF7FEFF 		bl	flexsea_payload_114
 1623              	.LVL371:
 103:..\..\flexsea-comm\src/flexsea_payload.c **** 
 1624              		.loc 1 103 0
 1625 0596 0220     		movs	r0, #2
 475:..\..\flexsea-comm\src/flexsea_payload.c ****             case 115:
 1626              		.loc 1 475 0
 1627 0598 38BD     		pop	{r3, r4, r5, pc}
 1628              	.LVL372:
 1629              	.L135:
 477:..\..\flexsea-comm\src/flexsea_payload.c ****             	break;
 1630              		.loc 1 477 0
 1631 059a 2846     		mov	r0, r5
 1632              	.LVL373:
 1633 059c FFF7FEFF 		bl	flexsea_payload_115
 1634              	.LVL374:
 103:..\..\flexsea-comm\src/flexsea_payload.c **** 
 1635              		.loc 1 103 0
 1636 05a0 0220     		movs	r0, #2
 478:..\..\flexsea-comm\src/flexsea_payload.c ****             case 116:
 1637              		.loc 1 478 0
 1638 05a2 38BD     		pop	{r3, r4, r5, pc}
 1639              	.LVL375:
 1640              	.L136:
 480:..\..\flexsea-comm\src/flexsea_payload.c ****             	break;
 1641              		.loc 1 480 0
 1642 05a4 2846     		mov	r0, r5
 1643              	.LVL376:
 1644 05a6 FFF7FEFF 		bl	flexsea_payload_116
 1645              	.LVL377:
 103:..\..\flexsea-comm\src/flexsea_payload.c **** 
 1646              		.loc 1 103 0
 1647 05aa 0220     		movs	r0, #2
 481:..\..\flexsea-comm\src/flexsea_payload.c ****             case 117:
 1648              		.loc 1 481 0
 1649 05ac 38BD     		pop	{r3, r4, r5, pc}
 1650              	.LVL378:
 1651              	.L137:
 483:..\..\flexsea-comm\src/flexsea_payload.c ****             	break;
 1652              		.loc 1 483 0
 1653 05ae 2846     		mov	r0, r5
 1654              	.LVL379:
 1655 05b0 FFF7FEFF 		bl	flexsea_payload_117
 1656              	.LVL380:
 103:..\..\flexsea-comm\src/flexsea_payload.c **** 
 1657              		.loc 1 103 0
 1658 05b4 0220     		movs	r0, #2
ARM GAS  C:\Users\Alex\AppData\Local\Temp\ccjqAdcx.s 			page 48


 484:..\..\flexsea-comm\src/flexsea_payload.c ****             case 118:
 1659              		.loc 1 484 0
 1660 05b6 38BD     		pop	{r3, r4, r5, pc}
 1661              	.LVL381:
 1662              	.L138:
 486:..\..\flexsea-comm\src/flexsea_payload.c ****             	break;
 1663              		.loc 1 486 0
 1664 05b8 2846     		mov	r0, r5
 1665              	.LVL382:
 1666 05ba FFF7FEFF 		bl	flexsea_payload_118
 1667              	.LVL383:
 103:..\..\flexsea-comm\src/flexsea_payload.c **** 
 1668              		.loc 1 103 0
 1669 05be 0220     		movs	r0, #2
 487:..\..\flexsea-comm\src/flexsea_payload.c ****             case 119:
 1670              		.loc 1 487 0
 1671 05c0 38BD     		pop	{r3, r4, r5, pc}
 1672              	.LVL384:
 1673              	.L139:
 489:..\..\flexsea-comm\src/flexsea_payload.c ****             	break;
 1674              		.loc 1 489 0
 1675 05c2 2846     		mov	r0, r5
 1676              	.LVL385:
 1677 05c4 FFF7FEFF 		bl	flexsea_payload_119
 1678              	.LVL386:
 103:..\..\flexsea-comm\src/flexsea_payload.c **** 
 1679              		.loc 1 103 0
 1680 05c8 0220     		movs	r0, #2
 490:..\..\flexsea-comm\src/flexsea_payload.c **** 				
 1681              		.loc 1 490 0
 1682 05ca 38BD     		pop	{r3, r4, r5, pc}
 1683              	.LVL387:
 1684              	.L140:
 494:..\..\flexsea-comm\src/flexsea_payload.c ****             	break;
 1685              		.loc 1 494 0
 1686 05cc 2846     		mov	r0, r5
 1687              	.LVL388:
 1688 05ce FFF7FEFF 		bl	flexsea_payload_120
 1689              	.LVL389:
 103:..\..\flexsea-comm\src/flexsea_payload.c **** 
 1690              		.loc 1 103 0
 1691 05d2 0220     		movs	r0, #2
 495:..\..\flexsea-comm\src/flexsea_payload.c ****             case 121:
 1692              		.loc 1 495 0
 1693 05d4 38BD     		pop	{r3, r4, r5, pc}
 1694              	.LVL390:
 1695              	.L141:
 497:..\..\flexsea-comm\src/flexsea_payload.c ****             	break;
 1696              		.loc 1 497 0
 1697 05d6 2846     		mov	r0, r5
 1698              	.LVL391:
 1699 05d8 FFF7FEFF 		bl	flexsea_payload_121
 1700              	.LVL392:
 103:..\..\flexsea-comm\src/flexsea_payload.c **** 
 1701              		.loc 1 103 0
 1702 05dc 0220     		movs	r0, #2
 498:..\..\flexsea-comm\src/flexsea_payload.c ****             case 122:
ARM GAS  C:\Users\Alex\AppData\Local\Temp\ccjqAdcx.s 			page 49


 1703              		.loc 1 498 0
 1704 05de 38BD     		pop	{r3, r4, r5, pc}
 1705              	.LVL393:
 1706              	.L142:
 500:..\..\flexsea-comm\src/flexsea_payload.c ****             	break;
 1707              		.loc 1 500 0
 1708 05e0 2846     		mov	r0, r5
 1709              	.LVL394:
 1710 05e2 FFF7FEFF 		bl	flexsea_payload_122
 1711              	.LVL395:
 103:..\..\flexsea-comm\src/flexsea_payload.c **** 
 1712              		.loc 1 103 0
 1713 05e6 0220     		movs	r0, #2
 501:..\..\flexsea-comm\src/flexsea_payload.c ****             case 123:
 1714              		.loc 1 501 0
 1715 05e8 38BD     		pop	{r3, r4, r5, pc}
 1716              	.LVL396:
 1717              	.L143:
 503:..\..\flexsea-comm\src/flexsea_payload.c ****             	break;
 1718              		.loc 1 503 0
 1719 05ea 2846     		mov	r0, r5
 1720              	.LVL397:
 1721 05ec FFF7FEFF 		bl	flexsea_payload_123
 1722              	.LVL398:
 103:..\..\flexsea-comm\src/flexsea_payload.c **** 
 1723              		.loc 1 103 0
 1724 05f0 0220     		movs	r0, #2
 504:..\..\flexsea-comm\src/flexsea_payload.c ****             case 124:
 1725              		.loc 1 504 0
 1726 05f2 38BD     		pop	{r3, r4, r5, pc}
 1727              	.LVL399:
 1728              	.L144:
 506:..\..\flexsea-comm\src/flexsea_payload.c ****             	break;
 1729              		.loc 1 506 0
 1730 05f4 2846     		mov	r0, r5
 1731              	.LVL400:
 1732 05f6 FFF7FEFF 		bl	flexsea_payload_124
 1733              	.LVL401:
 103:..\..\flexsea-comm\src/flexsea_payload.c **** 
 1734              		.loc 1 103 0
 1735 05fa 0220     		movs	r0, #2
 507:..\..\flexsea-comm\src/flexsea_payload.c ****             case 125:
 1736              		.loc 1 507 0
 1737 05fc 38BD     		pop	{r3, r4, r5, pc}
 1738              	.LVL402:
 1739              	.L145:
 509:..\..\flexsea-comm\src/flexsea_payload.c ****             	break;
 1740              		.loc 1 509 0
 1741 05fe 2846     		mov	r0, r5
 1742              	.LVL403:
 1743 0600 FFF7FEFF 		bl	flexsea_payload_125
 1744              	.LVL404:
 103:..\..\flexsea-comm\src/flexsea_payload.c **** 
 1745              		.loc 1 103 0
 1746 0604 0220     		movs	r0, #2
 510:..\..\flexsea-comm\src/flexsea_payload.c ****             case 126:
 1747              		.loc 1 510 0
ARM GAS  C:\Users\Alex\AppData\Local\Temp\ccjqAdcx.s 			page 50


 1748 0606 38BD     		pop	{r3, r4, r5, pc}
 1749              	.LVL405:
 1750              	.L146:
 512:..\..\flexsea-comm\src/flexsea_payload.c ****             	break;
 1751              		.loc 1 512 0
 1752 0608 2846     		mov	r0, r5
 1753              	.LVL406:
 1754 060a FFF7FEFF 		bl	flexsea_payload_126
 1755              	.LVL407:
 103:..\..\flexsea-comm\src/flexsea_payload.c **** 
 1756              		.loc 1 103 0
 1757 060e 0220     		movs	r0, #2
 513:..\..\flexsea-comm\src/flexsea_payload.c ****             case 127:
 1758              		.loc 1 513 0
 1759 0610 38BD     		pop	{r3, r4, r5, pc}
 1760              	.LVL408:
 1761              	.L147:
 515:..\..\flexsea-comm\src/flexsea_payload.c ****             	break;
 1762              		.loc 1 515 0
 1763 0612 2846     		mov	r0, r5
 1764              	.LVL409:
 1765 0614 FFF7FEFF 		bl	flexsea_payload_127
 1766              	.LVL410:
 103:..\..\flexsea-comm\src/flexsea_payload.c **** 
 1767              		.loc 1 103 0
 1768 0618 0220     		movs	r0, #2
 516:..\..\flexsea-comm\src/flexsea_payload.c **** 			
 1769              		.loc 1 516 0
 1770 061a 38BD     		pop	{r3, r4, r5, pc}
 1771              	.LVL411:
 1772              	.L149:
 520:..\..\flexsea-comm\src/flexsea_payload.c ****                 break;
 1773              		.loc 1 520 0
 1774 061c 0320     		movs	r0, #3
 1775              	.LVL412:
 524:..\..\flexsea-comm\src/flexsea_payload.c ****     }
 1776              		.loc 1 524 0
 1777 061e 38BD     		pop	{r3, r4, r5, pc}
 1778              	.LVL413:
 1779              	.L17:
 526:..\..\flexsea-comm\src/flexsea_payload.c ****     {
 1780              		.loc 1 526 0
 1781 0620 0228     		cmp	r0, #2
 1782 0622 05D0     		beq	.L150
 533:..\..\flexsea-comm\src/flexsea_payload.c ****     {
 1783              		.loc 1 533 0
 1784 0624 0328     		cmp	r0, #3
 1785 0626 05D0     		beq	.L151
 540:..\..\flexsea-comm\src/flexsea_payload.c ****     {
 1786              		.loc 1 540 0
 1787 0628 0428     		cmp	r0, #4
 1788 062a 05D0     		beq	.L152
 558:..\..\flexsea-comm\src/flexsea_payload.c ****     }
 1789              		.loc 1 558 0
 1790 062c 0120     		movs	r0, #1
 1791              	.LVL414:
 1792 062e 38BD     		pop	{r3, r4, r5, pc}
ARM GAS  C:\Users\Alex\AppData\Local\Temp\ccjqAdcx.s 			page 51


 1793              	.LVL415:
 1794              	.L150:
 562:..\..\flexsea-comm\src/flexsea_payload.c **** }
 1795              		.loc 1 562 0
 1796 0630 0020     		movs	r0, #0
 1797              	.LVL416:
 1798 0632 38BD     		pop	{r3, r4, r5, pc}
 1799              	.LVL417:
 1800              	.L151:
 1801 0634 0020     		movs	r0, #0
 1802              	.LVL418:
 1803 0636 38BD     		pop	{r3, r4, r5, pc}
 1804              	.LVL419:
 1805              	.L152:
 1806 0638 0020     		movs	r0, #0
 1807              	.LVL420:
 563:..\..\flexsea-comm\src/flexsea_payload.c **** 
 1808              		.loc 1 563 0
 1809 063a 38BD     		pop	{r3, r4, r5, pc}
 1810              		.cfi_endproc
 1811              	.LFE3:
 1812              		.size	payload_parse_str, .-payload_parse_str
 1813              		.comm	payload_str,36,4
 1814              		.weak	flexsea_payload_127
 1815              		.weak	flexsea_payload_126
 1816              		.weak	flexsea_payload_125
 1817              		.weak	flexsea_payload_124
 1818              		.weak	flexsea_payload_123
 1819              		.weak	flexsea_payload_122
 1820              		.weak	flexsea_payload_121
 1821              		.weak	flexsea_payload_120
 1822              		.weak	flexsea_payload_119
 1823              		.weak	flexsea_payload_118
 1824              		.weak	flexsea_payload_117
 1825              		.weak	flexsea_payload_116
 1826              		.weak	flexsea_payload_115
 1827              		.weak	flexsea_payload_114
 1828              		.weak	flexsea_payload_113
 1829              		.weak	flexsea_payload_112
 1830              		.weak	flexsea_payload_111
 1831              		.weak	flexsea_payload_110
 1832              		.weak	flexsea_payload_109
 1833              		.weak	flexsea_payload_108
 1834              		.weak	flexsea_payload_107
 1835              		.weak	flexsea_payload_106
 1836              		.weak	flexsea_payload_105
 1837              		.weak	flexsea_payload_104
 1838              		.weak	flexsea_payload_103
 1839              		.weak	flexsea_payload_102
 1840              		.weak	flexsea_payload_101
 1841              		.weak	flexsea_payload_100
 1842              		.weak	flexsea_payload_99
 1843              		.weak	flexsea_payload_98
 1844              		.weak	flexsea_payload_97
 1845              		.weak	flexsea_payload_96
 1846              		.weak	flexsea_payload_95
 1847              		.weak	flexsea_payload_94
ARM GAS  C:\Users\Alex\AppData\Local\Temp\ccjqAdcx.s 			page 52


 1848              		.weak	flexsea_payload_93
 1849              		.weak	flexsea_payload_92
 1850              		.weak	flexsea_payload_91
 1851              		.weak	flexsea_payload_90
 1852              		.weak	flexsea_payload_89
 1853              		.weak	flexsea_payload_88
 1854              		.weak	flexsea_payload_87
 1855              		.weak	flexsea_payload_86
 1856              		.weak	flexsea_payload_85
 1857              		.weak	flexsea_payload_84
 1858              		.weak	flexsea_payload_83
 1859              		.weak	flexsea_payload_82
 1860              		.weak	flexsea_payload_81
 1861              		.weak	flexsea_payload_80
 1862              		.weak	flexsea_payload_79
 1863              		.weak	flexsea_payload_78
 1864              		.weak	flexsea_payload_77
 1865              		.weak	flexsea_payload_76
 1866              		.weak	flexsea_payload_75
 1867              		.weak	flexsea_payload_74
 1868              		.weak	flexsea_payload_73
 1869              		.weak	flexsea_payload_72
 1870              		.weak	flexsea_payload_71
 1871              		.weak	flexsea_payload_70
 1872              		.weak	flexsea_payload_69
 1873              		.weak	flexsea_payload_68
 1874              		.weak	flexsea_payload_67
 1875              		.weak	flexsea_payload_66
 1876              		.weak	flexsea_payload_65
 1877              		.weak	flexsea_payload_64
 1878              		.weak	flexsea_payload_63
 1879              		.weak	flexsea_payload_62
 1880              		.weak	flexsea_payload_61
 1881              		.weak	flexsea_payload_60
 1882              		.weak	flexsea_payload_59
 1883              		.weak	flexsea_payload_58
 1884              		.weak	flexsea_payload_57
 1885              		.weak	flexsea_payload_56
 1886              		.weak	flexsea_payload_55
 1887              		.weak	flexsea_payload_54
 1888              		.weak	flexsea_payload_53
 1889              		.weak	flexsea_payload_52
 1890              		.weak	flexsea_payload_51
 1891              		.weak	flexsea_payload_50
 1892              		.weak	flexsea_payload_49
 1893              		.weak	flexsea_payload_48
 1894              		.weak	flexsea_payload_47
 1895              		.weak	flexsea_payload_46
 1896              		.weak	flexsea_payload_45
 1897              		.weak	flexsea_payload_44
 1898              		.weak	flexsea_payload_43
 1899              		.weak	flexsea_payload_42
 1900              		.weak	flexsea_payload_41
 1901              		.weak	flexsea_payload_40
 1902              		.weak	flexsea_payload_39
 1903              		.weak	flexsea_payload_38
 1904              		.weak	flexsea_payload_37
ARM GAS  C:\Users\Alex\AppData\Local\Temp\ccjqAdcx.s 			page 53


 1905              		.weak	flexsea_payload_36
 1906              		.weak	flexsea_payload_35
 1907              		.weak	flexsea_payload_34
 1908              		.weak	flexsea_payload_33
 1909              		.weak	flexsea_payload_32
 1910              		.weak	flexsea_payload_31
 1911              		.weak	flexsea_payload_30
 1912              		.weak	flexsea_payload_29
 1913              		.weak	flexsea_payload_28
 1914              		.weak	flexsea_payload_27
 1915              		.weak	flexsea_payload_26
 1916              		.weak	flexsea_payload_25
 1917              		.weak	flexsea_payload_24
 1918              		.weak	flexsea_payload_23
 1919              		.weak	flexsea_payload_22
 1920              		.weak	flexsea_payload_21
 1921              		.weak	flexsea_payload_20
 1922              		.weak	flexsea_payload_19
 1923              		.weak	flexsea_payload_18
 1924              		.weak	flexsea_payload_17
 1925              		.weak	flexsea_payload_16
 1926              		.weak	flexsea_payload_15
 1927              		.weak	flexsea_payload_14
 1928              		.weak	flexsea_payload_13
 1929              		.weak	flexsea_payload_12
 1930              		.weak	flexsea_payload_11
 1931              		.weak	flexsea_payload_10
 1932              		.weak	flexsea_payload_9
 1933              		.weak	flexsea_payload_8
 1934              		.weak	flexsea_payload_7
 1935              		.weak	flexsea_payload_6
 1936              		.weak	flexsea_payload_5
 1937              		.weak	flexsea_payload_4
 1938              		.weak	flexsea_payload_3
 1939              		.weak	flexsea_payload_2
 1940              		.weak	flexsea_payload_0
 1941              		.text
 1942              	.Letext0:
 1943              		.file 2 "c:\\program files (x86)\\cypress\\psoc creator\\3.3\\psoc creator\\import\\gnu\\arm\\4.9.
 1944              		.file 3 "c:\\program files (x86)\\cypress\\psoc creator\\3.3\\psoc creator\\import\\gnu\\arm\\4.9.
 1945              		.file 4 "..\\..\\flexsea-comm\\src\\../inc/flexsea_comm.h"
 1946              		.file 5 "..\\inc/flexsea_board.h"
 1947              		.file 6 "..\\..\\flexsea-comm\\src\\../inc/flexsea.h"
 1948              		.file 7 "..\\..\\flexsea-comm\\src\\../inc/flexsea_payload.h"