ARM GAS  C:\Users\Alex\AppData\Local\Temp\ccHQLaYf.s 			page 1


   1              		.syntax unified
   2              		.cpu cortex-m3
   3              		.fpu softvfp
   4              		.eabi_attribute 20, 1
   5              		.eabi_attribute 21, 1
   6              		.eabi_attribute 23, 3
   7              		.eabi_attribute 24, 1
   8              		.eabi_attribute 25, 1
   9              		.eabi_attribute 26, 1
  10              		.eabi_attribute 30, 1
  11              		.eabi_attribute 34, 1
  12              		.eabi_attribute 18, 4
  13              		.thumb
  14              		.file	"flexsea_buffers.c"
  15              		.text
  16              	.Ltext0:
  17              		.cfi_sections	.debug_frame
  18              		.section	.text.update_rx_buf_byte,"ax",%progbits
  19              		.align	2
  20              		.thumb
  21              		.thumb_func
  22              		.type	update_rx_buf_byte, %function
  23              	update_rx_buf_byte:
  24              	.LFB1:
  25              		.file 1 "..\\..\\flexsea-comm\\src\\flexsea_buffers.c"
   1:..\..\flexsea-comm\src/flexsea_buffers.c **** //****************************************************************************
   2:..\..\flexsea-comm\src/flexsea_buffers.c **** // MIT Media Lab - Biomechatronics
   3:..\..\flexsea-comm\src/flexsea_buffers.c **** // Jean-Francois (Jeff) Duval
   4:..\..\flexsea-comm\src/flexsea_buffers.c **** // jfduval@mit.edu
   5:..\..\flexsea-comm\src/flexsea_buffers.c **** // 02/2015
   6:..\..\flexsea-comm\src/flexsea_buffers.c **** //****************************************************************************
   7:..\..\flexsea-comm\src/flexsea_buffers.c **** // Adapted for MorphLab - 02/2016
   8:..\..\flexsea-comm\src/flexsea_buffers.c **** //****************************************************************************
   9:..\..\flexsea-comm\src/flexsea_buffers.c **** // flexsea_buffers: everything related to the reception buffers
  10:..\..\flexsea-comm\src/flexsea_buffers.c **** //****************************************************************************
  11:..\..\flexsea-comm\src/flexsea_buffers.c **** 
  12:..\..\flexsea-comm\src/flexsea_buffers.c **** //This code currently supports 4 buffers, with generic names. Enable the buffers
  13:..\..\flexsea-comm\src/flexsea_buffers.c **** //you need in flexsea_board, and overload function names with preprocessor
  14:..\..\flexsea-comm\src/flexsea_buffers.c **** //statements.
  15:..\..\flexsea-comm\src/flexsea_buffers.c **** 
  16:..\..\flexsea-comm\src/flexsea_buffers.c **** //All those #ifdef make it dense, but they are required to minimize memory
  17:..\..\flexsea-comm\src/flexsea_buffers.c **** //on smaller microcontrollers.
  18:..\..\flexsea-comm\src/flexsea_buffers.c **** 
  19:..\..\flexsea-comm\src/flexsea_buffers.c **** #ifdef __cplusplus
  20:..\..\flexsea-comm\src/flexsea_buffers.c **** extern "C" {
  21:..\..\flexsea-comm\src/flexsea_buffers.c **** #endif
  22:..\..\flexsea-comm\src/flexsea_buffers.c **** 
  23:..\..\flexsea-comm\src/flexsea_buffers.c **** //****************************************************************************
  24:..\..\flexsea-comm\src/flexsea_buffers.c **** // Include(s)
  25:..\..\flexsea-comm\src/flexsea_buffers.c **** //****************************************************************************
  26:..\..\flexsea-comm\src/flexsea_buffers.c **** 
  27:..\..\flexsea-comm\src/flexsea_buffers.c **** #include "../inc/flexsea.h"
  28:..\..\flexsea-comm\src/flexsea_buffers.c **** #include "flexsea_system.h"
  29:..\..\flexsea-comm\src/flexsea_buffers.c **** #include "flexsea_board.h"
  30:..\..\flexsea-comm\src/flexsea_buffers.c **** 
  31:..\..\flexsea-comm\src/flexsea_buffers.c **** //****************************************************************************
  32:..\..\flexsea-comm\src/flexsea_buffers.c **** // Variable(s)
ARM GAS  C:\Users\Alex\AppData\Local\Temp\ccHQLaYf.s 			page 2


  33:..\..\flexsea-comm\src/flexsea_buffers.c **** //****************************************************************************
  34:..\..\flexsea-comm\src/flexsea_buffers.c **** 
  35:..\..\flexsea-comm\src/flexsea_buffers.c **** //Reception buffers - generic names:
  36:..\..\flexsea-comm\src/flexsea_buffers.c **** 
  37:..\..\flexsea-comm\src/flexsea_buffers.c **** #ifdef ENABLE_FLEXSEA_BUF_1
  38:..\..\flexsea-comm\src/flexsea_buffers.c **** uint8_t rx_buf_1[RX_BUF_LEN];
  39:..\..\flexsea-comm\src/flexsea_buffers.c **** #endif	//ENABLE_FLEXSEA_BUF_1
  40:..\..\flexsea-comm\src/flexsea_buffers.c **** #ifdef ENABLE_FLEXSEA_BUF_2
  41:..\..\flexsea-comm\src/flexsea_buffers.c **** uint8_t rx_buf_2[RX_BUF_LEN];
  42:..\..\flexsea-comm\src/flexsea_buffers.c **** #endif	//ENABLE_FLEXSEA_BUF_2
  43:..\..\flexsea-comm\src/flexsea_buffers.c **** #ifdef ENABLE_FLEXSEA_BUF_3
  44:..\..\flexsea-comm\src/flexsea_buffers.c **** uint8_t rx_buf_3[RX_BUF_LEN];
  45:..\..\flexsea-comm\src/flexsea_buffers.c **** #endif	//ENABLE_FLEXSEA_BUF_3
  46:..\..\flexsea-comm\src/flexsea_buffers.c **** #ifdef ENABLE_FLEXSEA_BUF_4
  47:..\..\flexsea-comm\src/flexsea_buffers.c **** uint8_t rx_buf_4[RX_BUF_LEN];
  48:..\..\flexsea-comm\src/flexsea_buffers.c **** #endif	//ENABLE_FLEXSEA_BUF_4
  49:..\..\flexsea-comm\src/flexsea_buffers.c **** 
  50:..\..\flexsea-comm\src/flexsea_buffers.c **** //****************************************************************************
  51:..\..\flexsea-comm\src/flexsea_buffers.c **** // Private Function Prototype(s):
  52:..\..\flexsea-comm\src/flexsea_buffers.c **** //****************************************************************************
  53:..\..\flexsea-comm\src/flexsea_buffers.c **** 
  54:..\..\flexsea-comm\src/flexsea_buffers.c **** //For all the buffers:
  55:..\..\flexsea-comm\src/flexsea_buffers.c **** static void update_rx_buf_byte(uint8_t *buf, uint32_t *idx, uint8_t new_byte);
  56:..\..\flexsea-comm\src/flexsea_buffers.c **** static void update_rx_buf_array(uint8_t *buf, uint32_t *idx, uint8_t *new_data, uint32_t len);
  57:..\..\flexsea-comm\src/flexsea_buffers.c **** 
  58:..\..\flexsea-comm\src/flexsea_buffers.c **** //Specific:
  59:..\..\flexsea-comm\src/flexsea_buffers.c **** #ifdef ENABLE_FLEXSEA_BUF_1
  60:..\..\flexsea-comm\src/flexsea_buffers.c **** static void update_rx_buf_1(uint8_t byte_array, uint8_t new_byte, uint8_t *new_array, uint32_t len)
  61:..\..\flexsea-comm\src/flexsea_buffers.c **** #endif	//ENABLE_FLEXSEA_BUF_1
  62:..\..\flexsea-comm\src/flexsea_buffers.c **** #ifdef ENABLE_FLEXSEA_BUF_2
  63:..\..\flexsea-comm\src/flexsea_buffers.c **** static void update_rx_buf_2(uint8_t byte_array, uint8_t new_byte, uint8_t *new_array, uint32_t len)
  64:..\..\flexsea-comm\src/flexsea_buffers.c **** #endif	//ENABLE_FLEXSEA_BUF_2
  65:..\..\flexsea-comm\src/flexsea_buffers.c **** #ifdef ENABLE_FLEXSEA_BUF_3
  66:..\..\flexsea-comm\src/flexsea_buffers.c **** static void update_rx_buf_3(uint8_t byte_array, uint8_t new_byte, uint8_t *new_array, uint32_t len)
  67:..\..\flexsea-comm\src/flexsea_buffers.c **** #endif	//ENABLE_FLEXSEA_BUF_3
  68:..\..\flexsea-comm\src/flexsea_buffers.c **** #ifdef ENABLE_FLEXSEA_BUF_4
  69:..\..\flexsea-comm\src/flexsea_buffers.c **** static void update_rx_buf_4(uint8_t byte_array, uint8_t new_byte, uint8_t *new_array, uint32_t len)
  70:..\..\flexsea-comm\src/flexsea_buffers.c **** #endif	//ENABLE_FLEXSEA_BUF_4
  71:..\..\flexsea-comm\src/flexsea_buffers.c **** 
  72:..\..\flexsea-comm\src/flexsea_buffers.c **** //****************************************************************************
  73:..\..\flexsea-comm\src/flexsea_buffers.c **** // Private function(s)
  74:..\..\flexsea-comm\src/flexsea_buffers.c **** //****************************************************************************
  75:..\..\flexsea-comm\src/flexsea_buffers.c **** 
  76:..\..\flexsea-comm\src/flexsea_buffers.c **** void test_upd(void)
  77:..\..\flexsea-comm\src/flexsea_buffers.c **** {
  78:..\..\flexsea-comm\src/flexsea_buffers.c **** 	uint8_t byte = 1;
  79:..\..\flexsea-comm\src/flexsea_buffers.c **** 	uint8_t array[RX_BUF_LEN];
  80:..\..\flexsea-comm\src/flexsea_buffers.c **** 	uint32_t idx = 0;
  81:..\..\flexsea-comm\src/flexsea_buffers.c **** 	
  82:..\..\flexsea-comm\src/flexsea_buffers.c **** 	while(1)
  83:..\..\flexsea-comm\src/flexsea_buffers.c **** 	{
  84:..\..\flexsea-comm\src/flexsea_buffers.c **** 		update_rx_buf_byte(array, &idx, byte);
  85:..\..\flexsea-comm\src/flexsea_buffers.c ****         update_rx_buf_1(UPDATE_BYTE, byte, array, 1);
  86:..\..\flexsea-comm\src/flexsea_buffers.c **** 		byte++;
  87:..\..\flexsea-comm\src/flexsea_buffers.c **** 	}
  88:..\..\flexsea-comm\src/flexsea_buffers.c **** }
  89:..\..\flexsea-comm\src/flexsea_buffers.c **** 
ARM GAS  C:\Users\Alex\AppData\Local\Temp\ccHQLaYf.s 			page 3


  90:..\..\flexsea-comm\src/flexsea_buffers.c **** //Add one byte to the FIFO buffer
  91:..\..\flexsea-comm\src/flexsea_buffers.c **** //Do not call that function directly, call update_rx_buf_byte_n() where n is your communication por
  92:..\..\flexsea-comm\src/flexsea_buffers.c **** static void update_rx_buf_byte(uint8_t *buf, uint32_t *idx, uint8_t new_byte)
  93:..\..\flexsea-comm\src/flexsea_buffers.c **** {
  26              		.loc 1 93 0
  27              		.cfi_startproc
  28              		@ args = 0, pretend = 0, frame = 0
  29              		@ frame_needed = 0, uses_anonymous_args = 0
  30              		@ link register save eliminated.
  31              	.LVL0:
  94:..\..\flexsea-comm\src/flexsea_buffers.c **** 	uint32_t i = 0;
  95:..\..\flexsea-comm\src/flexsea_buffers.c **** 
  96:..\..\flexsea-comm\src/flexsea_buffers.c **** 	if((*idx) < RX_BUF_LEN)
  32              		.loc 1 96 0
  33 0000 0B68     		ldr	r3, [r1]
  34 0002 632B     		cmp	r3, #99
  35 0004 09D8     		bhi	.L5
  97:..\..\flexsea-comm\src/flexsea_buffers.c **** 	{
  98:..\..\flexsea-comm\src/flexsea_buffers.c **** 		//Buffer isn't full yet, no need to discard "old" bytes
  99:..\..\flexsea-comm\src/flexsea_buffers.c **** 		buf[(*idx)] = new_byte;
  36              		.loc 1 99 0
  37 0006 C254     		strb	r2, [r0, r3]
 100:..\..\flexsea-comm\src/flexsea_buffers.c **** 		(*idx)++;
  38              		.loc 1 100 0
  39 0008 0B68     		ldr	r3, [r1]
  40 000a 0133     		adds	r3, r3, #1
  41 000c 0B60     		str	r3, [r1]
  42 000e 7047     		bx	lr
  43              	.LVL1:
  44              	.L4:
  45              		.cfi_def_cfa_offset 4
  46              		.cfi_offset 4, -4
 101:..\..\flexsea-comm\src/flexsea_buffers.c **** 	}
 102:..\..\flexsea-comm\src/flexsea_buffers.c **** 	else
 103:..\..\flexsea-comm\src/flexsea_buffers.c **** 	{
 104:..\..\flexsea-comm\src/flexsea_buffers.c **** 		//Shift buffer to clear one spot
 105:..\..\flexsea-comm\src/flexsea_buffers.c **** 		for(i = 1; i < RX_BUF_LEN; i++)
 106:..\..\flexsea-comm\src/flexsea_buffers.c **** 		{
 107:..\..\flexsea-comm\src/flexsea_buffers.c **** 			buf[i-1] = buf[i];
  47              		.loc 1 107 0 discriminator 3
  48 0010 591E     		subs	r1, r3, #1
  49 0012 C45C     		ldrb	r4, [r0, r3]	@ zero_extendqisi2
  50 0014 4454     		strb	r4, [r0, r1]
 105:..\..\flexsea-comm\src/flexsea_buffers.c **** 		{
  51              		.loc 1 105 0 discriminator 3
  52 0016 0133     		adds	r3, r3, #1
  53              	.LVL2:
  54 0018 01E0     		b	.L2
  55              	.LVL3:
  56              	.L5:
  57              		.cfi_def_cfa_offset 0
  58              		.cfi_restore 4
  93:..\..\flexsea-comm\src/flexsea_buffers.c **** 	uint32_t i = 0;
  59              		.loc 1 93 0
  60 001a 10B4     		push	{r4}
  61              		.cfi_def_cfa_offset 4
  62              		.cfi_offset 4, -4
ARM GAS  C:\Users\Alex\AppData\Local\Temp\ccHQLaYf.s 			page 4


  63 001c 0123     		movs	r3, #1
  64              	.LVL4:
  65              	.L2:
 105:..\..\flexsea-comm\src/flexsea_buffers.c **** 		{
  66              		.loc 1 105 0 discriminator 1
  67 001e 632B     		cmp	r3, #99
  68 0020 F6D9     		bls	.L4
 108:..\..\flexsea-comm\src/flexsea_buffers.c **** 		}
 109:..\..\flexsea-comm\src/flexsea_buffers.c **** 		//Add last byte to the buffer
 110:..\..\flexsea-comm\src/flexsea_buffers.c **** 		buf[RX_BUF_LEN-1] = new_byte;
  69              		.loc 1 110 0
  70 0022 80F86320 		strb	r2, [r0, #99]
 111:..\..\flexsea-comm\src/flexsea_buffers.c **** 	}
 112:..\..\flexsea-comm\src/flexsea_buffers.c **** 
 113:..\..\flexsea-comm\src/flexsea_buffers.c **** 	//buf[] is now up to date
 114:..\..\flexsea-comm\src/flexsea_buffers.c **** }
  71              		.loc 1 114 0
  72 0026 5DF8044B 		ldr	r4, [sp], #4
  73              		.cfi_restore 4
  74              		.cfi_def_cfa_offset 0
  75 002a 7047     		bx	lr
  76              		.cfi_endproc
  77              	.LFE1:
  78              		.size	update_rx_buf_byte, .-update_rx_buf_byte
  79              		.section	.text.update_rx_buf_array,"ax",%progbits
  80              		.align	2
  81              		.thumb
  82              		.thumb_func
  83              		.type	update_rx_buf_array, %function
  84              	update_rx_buf_array:
  85              	.LFB2:
 115:..\..\flexsea-comm\src/flexsea_buffers.c **** 
 116:..\..\flexsea-comm\src/flexsea_buffers.c **** //Add 'len' bytes from the 'new_data' array to the FIFO buffer
 117:..\..\flexsea-comm\src/flexsea_buffers.c **** //Do not call that function directly, call update_rx_buf_array_n() where n is your communication po
 118:..\..\flexsea-comm\src/flexsea_buffers.c **** static void update_rx_buf_array(uint8_t *buf, uint32_t *idx, uint8_t *new_data, uint32_t len)
 119:..\..\flexsea-comm\src/flexsea_buffers.c **** {
  86              		.loc 1 119 0
  87              		.cfi_startproc
  88              		@ args = 0, pretend = 0, frame = 0
  89              		@ frame_needed = 0, uses_anonymous_args = 0
  90              		@ link register save eliminated.
  91              	.LVL5:
  92 0000 70B4     		push	{r4, r5, r6}
  93              		.cfi_def_cfa_offset 12
  94              		.cfi_offset 4, -12
  95              		.cfi_offset 5, -8
  96              		.cfi_offset 6, -4
  97              	.LVL6:
 120:..\..\flexsea-comm\src/flexsea_buffers.c **** 	uint32_t i = 0, cnt = 0, remaining = 0;
 121:..\..\flexsea-comm\src/flexsea_buffers.c **** 
 122:..\..\flexsea-comm\src/flexsea_buffers.c **** 	if((*idx) < RX_BUF_LEN)
  98              		.loc 1 122 0
  99 0002 0C68     		ldr	r4, [r1]
 100 0004 632C     		cmp	r4, #99
 101 0006 08D9     		bls	.L16
 120:..\..\flexsea-comm\src/flexsea_buffers.c **** 	uint32_t i = 0, cnt = 0, remaining = 0;
 102              		.loc 1 120 0
ARM GAS  C:\Users\Alex\AppData\Local\Temp\ccHQLaYf.s 			page 5


 103 0008 0024     		movs	r4, #0
 104 000a 10E0     		b	.L9
 105              	.LVL7:
 106              	.L10:
 123:..\..\flexsea-comm\src/flexsea_buffers.c **** 	{
 124:..\..\flexsea-comm\src/flexsea_buffers.c **** 		//Buffer isn't full yet, no need to discard "old" bytes yet
 125:..\..\flexsea-comm\src/flexsea_buffers.c **** 
 126:..\..\flexsea-comm\src/flexsea_buffers.c **** 		while(((*idx) + len) < RX_BUF_LEN)
 127:..\..\flexsea-comm\src/flexsea_buffers.c **** 		{
 128:..\..\flexsea-comm\src/flexsea_buffers.c **** 			//As long as we did not over fill it we keep adding bytes and increasing the index
 129:..\..\flexsea-comm\src/flexsea_buffers.c **** 			buf[(*idx)] = new_data[cnt];
 107              		.loc 1 129 0
 108 000c 165D     		ldrb	r6, [r2, r4]	@ zero_extendqisi2
 109 000e 4655     		strb	r6, [r0, r5]
 130:..\..\flexsea-comm\src/flexsea_buffers.c **** 			(*idx)++;
 110              		.loc 1 130 0
 111 0010 0D68     		ldr	r5, [r1]
 112 0012 0135     		adds	r5, r5, #1
 113 0014 0D60     		str	r5, [r1]
 131:..\..\flexsea-comm\src/flexsea_buffers.c **** 			cnt++;	//Number of bytes we could add before shifting old data
 114              		.loc 1 131 0
 115 0016 0134     		adds	r4, r4, #1
 116              	.LVL8:
 117 0018 00E0     		b	.L8
 118              	.LVL9:
 119              	.L16:
 120 001a 0024     		movs	r4, #0
 121              	.LVL10:
 122              	.L8:
 126:..\..\flexsea-comm\src/flexsea_buffers.c **** 		{
 123              		.loc 1 126 0
 124 001c 0D68     		ldr	r5, [r1]
 125 001e EE18     		adds	r6, r5, r3
 126 0020 632E     		cmp	r6, #99
 127 0022 F3D9     		bls	.L10
 132:..\..\flexsea-comm\src/flexsea_buffers.c **** 		}
 133:..\..\flexsea-comm\src/flexsea_buffers.c **** 
 134:..\..\flexsea-comm\src/flexsea_buffers.c **** 		if((cnt + 1) == len)
 128              		.loc 1 134 0
 129 0024 611C     		adds	r1, r4, #1
 130              	.LVL11:
 131 0026 9942     		cmp	r1, r3
 132 0028 14D0     		beq	.L7
 135:..\..\flexsea-comm\src/flexsea_buffers.c **** 		{
 136:..\..\flexsea-comm\src/flexsea_buffers.c **** 			//All the bytes were added without requiring shifting, exit
 137:..\..\flexsea-comm\src/flexsea_buffers.c **** 			return;
 138:..\..\flexsea-comm\src/flexsea_buffers.c **** 		}
 139:..\..\flexsea-comm\src/flexsea_buffers.c **** 		else
 140:..\..\flexsea-comm\src/flexsea_buffers.c **** 		{
 141:..\..\flexsea-comm\src/flexsea_buffers.c **** 			//We need to shift and add 'remaining' bytes:
 142:..\..\flexsea-comm\src/flexsea_buffers.c **** 			remaining = len - (cnt + 1);
 133              		.loc 1 142 0
 134 002a 1B1B     		subs	r3, r3, r4
 135              	.LVL12:
 136 002c 013B     		subs	r3, r3, #1
 137              	.LVL13:
 138              	.L9:
ARM GAS  C:\Users\Alex\AppData\Local\Temp\ccHQLaYf.s 			page 6


 143:..\..\flexsea-comm\src/flexsea_buffers.c **** 		}
 144:..\..\flexsea-comm\src/flexsea_buffers.c **** 	}
 145:..\..\flexsea-comm\src/flexsea_buffers.c **** 	else
 146:..\..\flexsea-comm\src/flexsea_buffers.c **** 	{
 147:..\..\flexsea-comm\src/flexsea_buffers.c **** 		//Buffer was already full when we started
 148:..\..\flexsea-comm\src/flexsea_buffers.c **** 		remaining = len;
 149:..\..\flexsea-comm\src/flexsea_buffers.c **** 	}
 150:..\..\flexsea-comm\src/flexsea_buffers.c **** 
 151:..\..\flexsea-comm\src/flexsea_buffers.c **** 	if(remaining != 0)
 139              		.loc 1 151 0
 140 002e 2BB9     		cbnz	r3, .L17
 141 0030 10E0     		b	.L7
 142              	.LVL14:
 143              	.L13:
 152:..\..\flexsea-comm\src/flexsea_buffers.c **** 	{
 153:..\..\flexsea-comm\src/flexsea_buffers.c **** 		//Shift buffer to clear 'remaining' spots
 154:..\..\flexsea-comm\src/flexsea_buffers.c **** 		for(i = remaining; i < (RX_BUF_LEN) ; i++)
 155:..\..\flexsea-comm\src/flexsea_buffers.c **** 		{
 156:..\..\flexsea-comm\src/flexsea_buffers.c **** 			buf[i-remaining] = buf[i];
 144              		.loc 1 156 0 discriminator 3
 145 0032 CD1A     		subs	r5, r1, r3
 146 0034 465C     		ldrb	r6, [r0, r1]	@ zero_extendqisi2
 147 0036 4655     		strb	r6, [r0, r5]
 154:..\..\flexsea-comm\src/flexsea_buffers.c **** 		{
 148              		.loc 1 154 0 discriminator 3
 149 0038 0131     		adds	r1, r1, #1
 150              	.LVL15:
 151 003a 00E0     		b	.L12
 152              	.LVL16:
 153              	.L17:
 154 003c 1946     		mov	r1, r3
 155              	.LVL17:
 156              	.L12:
 154:..\..\flexsea-comm\src/flexsea_buffers.c **** 		{
 157              		.loc 1 154 0 is_stmt 0 discriminator 1
 158 003e 6329     		cmp	r1, #99
 159 0040 F7D9     		bls	.L13
 157:..\..\flexsea-comm\src/flexsea_buffers.c **** 		}
 158:..\..\flexsea-comm\src/flexsea_buffers.c **** 
 159:..\..\flexsea-comm\src/flexsea_buffers.c **** 		//Then add the new data bytes at the end of the buffer:
 160:..\..\flexsea-comm\src/flexsea_buffers.c **** 		for(i = (RX_BUF_LEN - remaining); i < RX_BUF_LEN; i++)
 160              		.loc 1 160 0 is_stmt 1
 161 0042 C3F16403 		rsb	r3, r3, #100
 162              	.LVL18:
 163 0046 03E0     		b	.L14
 164              	.L15:
 161:..\..\flexsea-comm\src/flexsea_buffers.c **** 		{
 162:..\..\flexsea-comm\src/flexsea_buffers.c **** 			buf[i] = new_data[cnt];
 165              		.loc 1 162 0 discriminator 3
 166 0048 115D     		ldrb	r1, [r2, r4]	@ zero_extendqisi2
 167 004a C154     		strb	r1, [r0, r3]
 163:..\..\flexsea-comm\src/flexsea_buffers.c **** 			cnt++;
 168              		.loc 1 163 0 discriminator 3
 169 004c 0134     		adds	r4, r4, #1
 170              	.LVL19:
 160:..\..\flexsea-comm\src/flexsea_buffers.c **** 		{
 171              		.loc 1 160 0 discriminator 3
ARM GAS  C:\Users\Alex\AppData\Local\Temp\ccHQLaYf.s 			page 7


 172 004e 0133     		adds	r3, r3, #1
 173              	.LVL20:
 174              	.L14:
 160:..\..\flexsea-comm\src/flexsea_buffers.c **** 		{
 175              		.loc 1 160 0 is_stmt 0 discriminator 1
 176 0050 632B     		cmp	r3, #99
 177 0052 F9D9     		bls	.L15
 178              	.LVL21:
 179              	.L7:
 164:..\..\flexsea-comm\src/flexsea_buffers.c **** 		}
 165:..\..\flexsea-comm\src/flexsea_buffers.c **** 	}
 166:..\..\flexsea-comm\src/flexsea_buffers.c **** }
 180              		.loc 1 166 0 is_stmt 1
 181 0054 70BC     		pop	{r4, r5, r6}
 182              		.cfi_restore 6
 183              		.cfi_restore 5
 184              		.cfi_restore 4
 185              		.cfi_def_cfa_offset 0
 186              	.LVL22:
 187 0056 7047     		bx	lr
 188              		.cfi_endproc
 189              	.LFE2:
 190              		.size	update_rx_buf_array, .-update_rx_buf_array
 191              		.section	.text.update_rx_buf_1,"ax",%progbits
 192              		.align	2
 193              		.thumb
 194              		.thumb_func
 195              		.type	update_rx_buf_1, %function
 196              	update_rx_buf_1:
 197              	.LFB4:
 167:..\..\flexsea-comm\src/flexsea_buffers.c **** 
 168:..\..\flexsea-comm\src/flexsea_buffers.c **** //If the Header isn't in [0] we 'unwrap' the array and save it in 'new_array'
 169:..\..\flexsea-comm\src/flexsea_buffers.c **** uint8_t unwrap_buffer(uint8_t *array, uint8_t *new_array, uint32_t len)
 170:..\..\flexsea-comm\src/flexsea_buffers.c **** {
 171:..\..\flexsea-comm\src/flexsea_buffers.c **** 	uint8_t i = 0, j = 0, retval = 0, idx = 0;
 172:..\..\flexsea-comm\src/flexsea_buffers.c **** 	
 173:..\..\flexsea-comm\src/flexsea_buffers.c **** 	if(array[0] != HEADER)	//Quick check
 174:..\..\flexsea-comm\src/flexsea_buffers.c **** 	{
 175:..\..\flexsea-comm\src/flexsea_buffers.c **** 		for(i = 1; i < len; i++)
 176:..\..\flexsea-comm\src/flexsea_buffers.c **** 		{
 177:..\..\flexsea-comm\src/flexsea_buffers.c **** 			if(array[i] == HEADER)
 178:..\..\flexsea-comm\src/flexsea_buffers.c **** 			{
 179:..\..\flexsea-comm\src/flexsea_buffers.c **** 				//We found the header
 180:..\..\flexsea-comm\src/flexsea_buffers.c **** 				idx = i;
 181:..\..\flexsea-comm\src/flexsea_buffers.c **** 				for(j = 0; j < len; j++)
 182:..\..\flexsea-comm\src/flexsea_buffers.c **** 				{
 183:..\..\flexsea-comm\src/flexsea_buffers.c **** 					new_array[j] = array[idx];
 184:..\..\flexsea-comm\src/flexsea_buffers.c **** 					idx++;
 185:..\..\flexsea-comm\src/flexsea_buffers.c **** 					idx %= len;
 186:..\..\flexsea-comm\src/flexsea_buffers.c **** 				}
 187:..\..\flexsea-comm\src/flexsea_buffers.c **** 				
 188:..\..\flexsea-comm\src/flexsea_buffers.c **** 				retval = i;
 189:..\..\flexsea-comm\src/flexsea_buffers.c **** 				break;
 190:..\..\flexsea-comm\src/flexsea_buffers.c **** 			}
 191:..\..\flexsea-comm\src/flexsea_buffers.c **** 		}
 192:..\..\flexsea-comm\src/flexsea_buffers.c **** 	}
 193:..\..\flexsea-comm\src/flexsea_buffers.c **** 	else
ARM GAS  C:\Users\Alex\AppData\Local\Temp\ccHQLaYf.s 			page 8


 194:..\..\flexsea-comm\src/flexsea_buffers.c **** 	{
 195:..\..\flexsea-comm\src/flexsea_buffers.c **** 		//No need to unwrap, copy & exit
 196:..\..\flexsea-comm\src/flexsea_buffers.c **** 		for(i = 0; i < len; i++)
 197:..\..\flexsea-comm\src/flexsea_buffers.c **** 		{
 198:..\..\flexsea-comm\src/flexsea_buffers.c **** 			//new_array = array
 199:..\..\flexsea-comm\src/flexsea_buffers.c **** 			new_array[i] = array[i];
 200:..\..\flexsea-comm\src/flexsea_buffers.c **** 		}
 201:..\..\flexsea-comm\src/flexsea_buffers.c **** 		retval = 0;
 202:..\..\flexsea-comm\src/flexsea_buffers.c **** 	}
 203:..\..\flexsea-comm\src/flexsea_buffers.c **** 	
 204:..\..\flexsea-comm\src/flexsea_buffers.c **** 	return retval;
 205:..\..\flexsea-comm\src/flexsea_buffers.c **** }
 206:..\..\flexsea-comm\src/flexsea_buffers.c **** 
 207:..\..\flexsea-comm\src/flexsea_buffers.c **** #ifdef ENABLE_FLEXSEA_BUF_1
 208:..\..\flexsea-comm\src/flexsea_buffers.c **** 
 209:..\..\flexsea-comm\src/flexsea_buffers.c **** //Wraps update_rx_buf_byte()/update_rx_buf_array() for buffer #1. Keeps track of the index.
 210:..\..\flexsea-comm\src/flexsea_buffers.c **** //Do not use directly, call update_rx_buf_byte_1() or update_rx_buf_array_1()
 211:..\..\flexsea-comm\src/flexsea_buffers.c **** static void update_rx_buf_1(uint8_t byte_array, uint8_t new_byte, uint8_t *new_array, uint32_t len)
 212:..\..\flexsea-comm\src/flexsea_buffers.c **** {
 198              		.loc 1 212 0
 199              		.cfi_startproc
 200              		@ args = 0, pretend = 0, frame = 0
 201              		@ frame_needed = 0, uses_anonymous_args = 0
 202              	.LVL23:
 203 0000 10B5     		push	{r4, lr}
 204              		.cfi_def_cfa_offset 8
 205              		.cfi_offset 4, -8
 206              		.cfi_offset 14, -4
 213:..\..\flexsea-comm\src/flexsea_buffers.c **** 	static uint32_t idx_1 = 0;
 214:..\..\flexsea-comm\src/flexsea_buffers.c **** 
 215:..\..\flexsea-comm\src/flexsea_buffers.c **** 	if(byte_array == UPDATE_BYTE)
 207              		.loc 1 215 0
 208 0002 30B9     		cbnz	r0, .L20
 209 0004 0C46     		mov	r4, r1
 216:..\..\flexsea-comm\src/flexsea_buffers.c **** 	{
 217:..\..\flexsea-comm\src/flexsea_buffers.c **** 		//Updating buffer with one byte
 218:..\..\flexsea-comm\src/flexsea_buffers.c **** 		update_rx_buf_byte(rx_buf_1, &idx_1, new_byte);
 210              		.loc 1 218 0
 211 0006 0648     		ldr	r0, .L23
 212              	.LVL24:
 213 0008 0649     		ldr	r1, .L23+4
 214              	.LVL25:
 215 000a 2246     		mov	r2, r4
 216              	.LVL26:
 217 000c FFF7FEFF 		bl	update_rx_buf_byte
 218              	.LVL27:
 219 0010 10BD     		pop	{r4, pc}
 220              	.LVL28:
 221              	.L20:
 219:..\..\flexsea-comm\src/flexsea_buffers.c **** 	}
 220:..\..\flexsea-comm\src/flexsea_buffers.c **** 	else if(byte_array == UPDATE_ARRAY)
 222              		.loc 1 220 0
 223 0012 0128     		cmp	r0, #1
 224 0014 03D1     		bne	.L19
 221:..\..\flexsea-comm\src/flexsea_buffers.c **** 	{
 222:..\..\flexsea-comm\src/flexsea_buffers.c **** 		//Updating buffer with an array
 223:..\..\flexsea-comm\src/flexsea_buffers.c **** 		update_rx_buf_array(rx_buf_1, &idx_1, new_array, len);
ARM GAS  C:\Users\Alex\AppData\Local\Temp\ccHQLaYf.s 			page 9


 225              		.loc 1 223 0
 226 0016 0248     		ldr	r0, .L23
 227              	.LVL29:
 228 0018 0249     		ldr	r1, .L23+4
 229              	.LVL30:
 230 001a FFF7FEFF 		bl	update_rx_buf_array
 231              	.LVL31:
 232              	.L19:
 233 001e 10BD     		pop	{r4, pc}
 234              	.L24:
 235              		.align	2
 236              	.L23:
 237 0020 00000000 		.word	rx_buf_1
 238 0024 00000000 		.word	.LANCHOR0
 239              		.cfi_endproc
 240              	.LFE4:
 241              		.size	update_rx_buf_1, .-update_rx_buf_1
 242              		.section	.text.update_rx_buf_2,"ax",%progbits
 243              		.align	2
 244              		.thumb
 245              		.thumb_func
 246              		.type	update_rx_buf_2, %function
 247              	update_rx_buf_2:
 248              	.LFB5:
 224:..\..\flexsea-comm\src/flexsea_buffers.c **** 	}
 225:..\..\flexsea-comm\src/flexsea_buffers.c **** 	else
 226:..\..\flexsea-comm\src/flexsea_buffers.c **** 	{
 227:..\..\flexsea-comm\src/flexsea_buffers.c **** 		//Error
 228:..\..\flexsea-comm\src/flexsea_buffers.c **** 		//flexsea_error(0);	ToDo
 229:..\..\flexsea-comm\src/flexsea_buffers.c **** 	}
 230:..\..\flexsea-comm\src/flexsea_buffers.c **** }
 231:..\..\flexsea-comm\src/flexsea_buffers.c **** 
 232:..\..\flexsea-comm\src/flexsea_buffers.c **** #endif	//ENABLE_FLEXSEA_BUF_1
 233:..\..\flexsea-comm\src/flexsea_buffers.c **** 
 234:..\..\flexsea-comm\src/flexsea_buffers.c **** #ifdef ENABLE_FLEXSEA_BUF_2
 235:..\..\flexsea-comm\src/flexsea_buffers.c **** 
 236:..\..\flexsea-comm\src/flexsea_buffers.c **** //Wraps update_rx_buf_byte()/update_rx_buf_array() for buffer #2. Keeps track of the index.
 237:..\..\flexsea-comm\src/flexsea_buffers.c **** //Do not use directly, call update_rx_buf_byte_2() or update_rx_buf_array_2()
 238:..\..\flexsea-comm\src/flexsea_buffers.c **** static void update_rx_buf_2(uint8_t byte_array, uint8_t new_byte, uint8_t *new_array, uint32_t len)
 239:..\..\flexsea-comm\src/flexsea_buffers.c **** {
 249              		.loc 1 239 0
 250              		.cfi_startproc
 251              		@ args = 0, pretend = 0, frame = 0
 252              		@ frame_needed = 0, uses_anonymous_args = 0
 253              	.LVL32:
 254 0000 10B5     		push	{r4, lr}
 255              		.cfi_def_cfa_offset 8
 256              		.cfi_offset 4, -8
 257              		.cfi_offset 14, -4
 240:..\..\flexsea-comm\src/flexsea_buffers.c **** 	static uint32_t idx_2 = 0;
 241:..\..\flexsea-comm\src/flexsea_buffers.c **** 
 242:..\..\flexsea-comm\src/flexsea_buffers.c **** 	if(byte_array == UPDATE_BYTE)
 258              		.loc 1 242 0
 259 0002 30B9     		cbnz	r0, .L26
 260 0004 0C46     		mov	r4, r1
 243:..\..\flexsea-comm\src/flexsea_buffers.c **** 	{
 244:..\..\flexsea-comm\src/flexsea_buffers.c **** 		//Updating buffer with one byte
ARM GAS  C:\Users\Alex\AppData\Local\Temp\ccHQLaYf.s 			page 10


 245:..\..\flexsea-comm\src/flexsea_buffers.c **** 		update_rx_buf_byte(rx_buf_2, &idx_2, new_byte);
 261              		.loc 1 245 0
 262 0006 0648     		ldr	r0, .L29
 263              	.LVL33:
 264 0008 0649     		ldr	r1, .L29+4
 265              	.LVL34:
 266 000a 2246     		mov	r2, r4
 267              	.LVL35:
 268 000c FFF7FEFF 		bl	update_rx_buf_byte
 269              	.LVL36:
 270 0010 10BD     		pop	{r4, pc}
 271              	.LVL37:
 272              	.L26:
 246:..\..\flexsea-comm\src/flexsea_buffers.c **** 	}
 247:..\..\flexsea-comm\src/flexsea_buffers.c **** 	else if(byte_array == UPDATE_ARRAY)
 273              		.loc 1 247 0
 274 0012 0128     		cmp	r0, #1
 275 0014 03D1     		bne	.L25
 248:..\..\flexsea-comm\src/flexsea_buffers.c **** 	{
 249:..\..\flexsea-comm\src/flexsea_buffers.c **** 		//Updating buffer with an array
 250:..\..\flexsea-comm\src/flexsea_buffers.c **** 		update_rx_buf_array(rx_buf_2, &idx_2, new_array, len);
 276              		.loc 1 250 0
 277 0016 0248     		ldr	r0, .L29
 278              	.LVL38:
 279 0018 0249     		ldr	r1, .L29+4
 280              	.LVL39:
 281 001a FFF7FEFF 		bl	update_rx_buf_array
 282              	.LVL40:
 283              	.L25:
 284 001e 10BD     		pop	{r4, pc}
 285              	.L30:
 286              		.align	2
 287              	.L29:
 288 0020 00000000 		.word	rx_buf_2
 289 0024 04000000 		.word	.LANCHOR0+4
 290              		.cfi_endproc
 291              	.LFE5:
 292              		.size	update_rx_buf_2, .-update_rx_buf_2
 293              		.section	.text.test_upd,"ax",%progbits
 294              		.align	2
 295              		.global	test_upd
 296              		.thumb
 297              		.thumb_func
 298              		.type	test_upd, %function
 299              	test_upd:
 300              	.LFB0:
  77:..\..\flexsea-comm\src/flexsea_buffers.c **** 	uint8_t byte = 1;
 301              		.loc 1 77 0
 302              		.cfi_startproc
 303              		@ args = 0, pretend = 0, frame = 104
 304              		@ frame_needed = 0, uses_anonymous_args = 0
 305 0000 10B5     		push	{r4, lr}
 306              		.cfi_def_cfa_offset 8
 307              		.cfi_offset 4, -8
 308              		.cfi_offset 14, -4
 309 0002 9AB0     		sub	sp, sp, #104
 310              		.cfi_def_cfa_offset 112
ARM GAS  C:\Users\Alex\AppData\Local\Temp\ccHQLaYf.s 			page 11


 311              	.LVL41:
  80:..\..\flexsea-comm\src/flexsea_buffers.c **** 	
 312              		.loc 1 80 0
 313 0004 0023     		movs	r3, #0
 314 0006 0093     		str	r3, [sp]
  78:..\..\flexsea-comm\src/flexsea_buffers.c **** 	uint8_t array[RX_BUF_LEN];
 315              		.loc 1 78 0
 316 0008 0124     		movs	r4, #1
 317              	.LVL42:
 318              	.L32:
  84:..\..\flexsea-comm\src/flexsea_buffers.c ****         update_rx_buf_1(UPDATE_BYTE, byte, array, 1);
 319              		.loc 1 84 0 discriminator 1
 320 000a 01A8     		add	r0, sp, #4
 321 000c 6946     		mov	r1, sp
 322 000e 2246     		mov	r2, r4
 323 0010 FFF7FEFF 		bl	update_rx_buf_byte
 324              	.LVL43:
  85:..\..\flexsea-comm\src/flexsea_buffers.c **** 		byte++;
 325              		.loc 1 85 0 discriminator 1
 326 0014 0020     		movs	r0, #0
 327 0016 2146     		mov	r1, r4
 328 0018 01AA     		add	r2, sp, #4
 329 001a 0123     		movs	r3, #1
 330 001c FFF7FEFF 		bl	update_rx_buf_1
 331              	.LVL44:
  86:..\..\flexsea-comm\src/flexsea_buffers.c **** 	}
 332              		.loc 1 86 0 discriminator 1
 333 0020 0134     		adds	r4, r4, #1
 334              	.LVL45:
 335 0022 E4B2     		uxtb	r4, r4
 336              	.LVL46:
  87:..\..\flexsea-comm\src/flexsea_buffers.c **** }
 337              		.loc 1 87 0 discriminator 1
 338 0024 F1E7     		b	.L32
 339              		.cfi_endproc
 340              	.LFE0:
 341              		.size	test_upd, .-test_upd
 342 0026 00BF     		.section	.text.unwrap_buffer,"ax",%progbits
 343              		.align	2
 344              		.global	unwrap_buffer
 345              		.thumb
 346              		.thumb_func
 347              		.type	unwrap_buffer, %function
 348              	unwrap_buffer:
 349              	.LFB3:
 170:..\..\flexsea-comm\src/flexsea_buffers.c **** 	uint8_t i = 0, j = 0, retval = 0, idx = 0;
 350              		.loc 1 170 0
 351              		.cfi_startproc
 352              		@ args = 0, pretend = 0, frame = 0
 353              		@ frame_needed = 0, uses_anonymous_args = 0
 354              		@ link register save eliminated.
 355              	.LVL47:
 356 0000 70B4     		push	{r4, r5, r6}
 357              		.cfi_def_cfa_offset 12
 358              		.cfi_offset 4, -12
 359              		.cfi_offset 5, -8
 360              		.cfi_offset 6, -4
ARM GAS  C:\Users\Alex\AppData\Local\Temp\ccHQLaYf.s 			page 12


 361 0002 0546     		mov	r5, r0
 362              	.LVL48:
 173:..\..\flexsea-comm\src/flexsea_buffers.c **** 	{
 363              		.loc 1 173 0
 364 0004 0378     		ldrb	r3, [r0]	@ zero_extendqisi2
 365 0006 ED2B     		cmp	r3, #237
 366 0008 18D1     		bne	.L43
 367 000a 0023     		movs	r3, #0
 368 000c 1FE0     		b	.L36
 369              	.LVL49:
 370              	.L41:
 177:..\..\flexsea-comm\src/flexsea_buffers.c **** 			{
 371              		.loc 1 177 0
 372 000e 2B5C     		ldrb	r3, [r5, r0]	@ zero_extendqisi2
 373 0010 ED2B     		cmp	r3, #237
 374 0012 10D1     		bne	.L37
 375              	.LVL50:
 180:..\..\flexsea-comm\src/flexsea_buffers.c **** 				for(j = 0; j < len; j++)
 376              		.loc 1 180 0
 377 0014 0346     		mov	r3, r0
 181:..\..\flexsea-comm\src/flexsea_buffers.c **** 				{
 378              		.loc 1 181 0
 379 0016 0024     		movs	r4, #0
 380 0018 0AE0     		b	.L38
 381              	.LVL51:
 382              	.L39:
 183:..\..\flexsea-comm\src/flexsea_buffers.c **** 					idx++;
 383              		.loc 1 183 0 discriminator 3
 384 001a EE5C     		ldrb	r6, [r5, r3]	@ zero_extendqisi2
 385 001c 0E55     		strb	r6, [r1, r4]
 184:..\..\flexsea-comm\src/flexsea_buffers.c **** 					idx %= len;
 386              		.loc 1 184 0 discriminator 3
 387 001e 0133     		adds	r3, r3, #1
 388              	.LVL52:
 389 0020 DBB2     		uxtb	r3, r3
 390              	.LVL53:
 185:..\..\flexsea-comm\src/flexsea_buffers.c **** 				}
 391              		.loc 1 185 0 discriminator 3
 392 0022 B3FBF2F6 		udiv	r6, r3, r2
 393 0026 02FB1633 		mls	r3, r2, r6, r3
 394              	.LVL54:
 395 002a DBB2     		uxtb	r3, r3
 396              	.LVL55:
 181:..\..\flexsea-comm\src/flexsea_buffers.c **** 				{
 397              		.loc 1 181 0 discriminator 3
 398 002c 0134     		adds	r4, r4, #1
 399              	.LVL56:
 400 002e E4B2     		uxtb	r4, r4
 401              	.LVL57:
 402              	.L38:
 181:..\..\flexsea-comm\src/flexsea_buffers.c **** 				{
 403              		.loc 1 181 0 is_stmt 0 discriminator 1
 404 0030 9442     		cmp	r4, r2
 405 0032 F2D3     		bcc	.L39
 406 0034 0EE0     		b	.L40
 407              	.LVL58:
 408              	.L37:
ARM GAS  C:\Users\Alex\AppData\Local\Temp\ccHQLaYf.s 			page 13


 175:..\..\flexsea-comm\src/flexsea_buffers.c **** 		{
 409              		.loc 1 175 0 is_stmt 1 discriminator 2
 410 0036 0130     		adds	r0, r0, #1
 411              	.LVL59:
 412 0038 C0B2     		uxtb	r0, r0
 413              	.LVL60:
 414 003a 00E0     		b	.L35
 415              	.LVL61:
 416              	.L43:
 417 003c 0120     		movs	r0, #1
 418              	.LVL62:
 419              	.L35:
 175:..\..\flexsea-comm\src/flexsea_buffers.c **** 		{
 420              		.loc 1 175 0 is_stmt 0 discriminator 1
 421 003e 9042     		cmp	r0, r2
 422 0040 E5D3     		bcc	.L41
 171:..\..\flexsea-comm\src/flexsea_buffers.c **** 	
 423              		.loc 1 171 0 is_stmt 1
 424 0042 0020     		movs	r0, #0
 425              	.LVL63:
 426 0044 06E0     		b	.L40
 427              	.LVL64:
 428              	.L42:
 199:..\..\flexsea-comm\src/flexsea_buffers.c **** 		}
 429              		.loc 1 199 0 discriminator 3
 430 0046 E85C     		ldrb	r0, [r5, r3]	@ zero_extendqisi2
 431 0048 C854     		strb	r0, [r1, r3]
 196:..\..\flexsea-comm\src/flexsea_buffers.c **** 		{
 432              		.loc 1 196 0 discriminator 3
 433 004a 0133     		adds	r3, r3, #1
 434              	.LVL65:
 435 004c DBB2     		uxtb	r3, r3
 436              	.LVL66:
 437              	.L36:
 196:..\..\flexsea-comm\src/flexsea_buffers.c **** 		{
 438              		.loc 1 196 0 is_stmt 0 discriminator 1
 439 004e 9342     		cmp	r3, r2
 440 0050 F9D3     		bcc	.L42
 201:..\..\flexsea-comm\src/flexsea_buffers.c **** 	}
 441              		.loc 1 201 0 is_stmt 1
 442 0052 0020     		movs	r0, #0
 443              	.LVL67:
 444              	.L40:
 205:..\..\flexsea-comm\src/flexsea_buffers.c **** 
 445              		.loc 1 205 0
 446 0054 70BC     		pop	{r4, r5, r6}
 447              		.cfi_restore 6
 448              		.cfi_restore 5
 449              		.cfi_restore 4
 450              		.cfi_def_cfa_offset 0
 451              	.LVL68:
 452 0056 7047     		bx	lr
 453              		.cfi_endproc
 454              	.LFE3:
 455              		.size	unwrap_buffer, .-unwrap_buffer
 456              		.section	.text.update_rx_buf_byte_1,"ax",%progbits
 457              		.align	2
ARM GAS  C:\Users\Alex\AppData\Local\Temp\ccHQLaYf.s 			page 14


 458              		.global	update_rx_buf_byte_1
 459              		.thumb
 460              		.thumb_func
 461              		.type	update_rx_buf_byte_1, %function
 462              	update_rx_buf_byte_1:
 463              	.LFB6:
 251:..\..\flexsea-comm\src/flexsea_buffers.c **** 	}
 252:..\..\flexsea-comm\src/flexsea_buffers.c **** 	else
 253:..\..\flexsea-comm\src/flexsea_buffers.c **** 	{
 254:..\..\flexsea-comm\src/flexsea_buffers.c **** 		//Error
 255:..\..\flexsea-comm\src/flexsea_buffers.c **** 		//flexsea_error(0);	ToDo
 256:..\..\flexsea-comm\src/flexsea_buffers.c **** 	}
 257:..\..\flexsea-comm\src/flexsea_buffers.c **** }
 258:..\..\flexsea-comm\src/flexsea_buffers.c **** 
 259:..\..\flexsea-comm\src/flexsea_buffers.c **** #endif	//ENABLE_FLEXSEA_BUF_2
 260:..\..\flexsea-comm\src/flexsea_buffers.c **** 
 261:..\..\flexsea-comm\src/flexsea_buffers.c **** #ifdef ENABLE_FLEXSEA_BUF_3
 262:..\..\flexsea-comm\src/flexsea_buffers.c **** 
 263:..\..\flexsea-comm\src/flexsea_buffers.c **** //Wraps update_rx_buf_byte()/update_rx_buf_array() for buffer #3. Keeps track of the index.
 264:..\..\flexsea-comm\src/flexsea_buffers.c **** //Do not use directly, call update_rx_buf_byte_3() or update_rx_buf_array_3()
 265:..\..\flexsea-comm\src/flexsea_buffers.c **** static void update_rx_buf_3(uint8_t byte_array, uint8_t new_byte, uint8_t *new_array, uint32_t len)
 266:..\..\flexsea-comm\src/flexsea_buffers.c **** {
 267:..\..\flexsea-comm\src/flexsea_buffers.c **** 	static uint32_t idx_3 = 0;
 268:..\..\flexsea-comm\src/flexsea_buffers.c **** 
 269:..\..\flexsea-comm\src/flexsea_buffers.c **** 	if(byte_array == UPDATE_BYTE)
 270:..\..\flexsea-comm\src/flexsea_buffers.c **** 	{
 271:..\..\flexsea-comm\src/flexsea_buffers.c **** 		//Updating buffer with one byte
 272:..\..\flexsea-comm\src/flexsea_buffers.c **** 		update_rx_buf_byte(rx_buf_3, &idx_3, new_byte);
 273:..\..\flexsea-comm\src/flexsea_buffers.c **** 	}
 274:..\..\flexsea-comm\src/flexsea_buffers.c **** 	else if(byte_array == UPDATE_ARRAY)
 275:..\..\flexsea-comm\src/flexsea_buffers.c **** 	{
 276:..\..\flexsea-comm\src/flexsea_buffers.c **** 		//Updating buffer with an array
 277:..\..\flexsea-comm\src/flexsea_buffers.c **** 		update_rx_buf_array(rx_buf_3, &idx_3, new_array, len);
 278:..\..\flexsea-comm\src/flexsea_buffers.c **** 	}
 279:..\..\flexsea-comm\src/flexsea_buffers.c **** 	else
 280:..\..\flexsea-comm\src/flexsea_buffers.c **** 	{
 281:..\..\flexsea-comm\src/flexsea_buffers.c **** 		//Error
 282:..\..\flexsea-comm\src/flexsea_buffers.c **** 		//flexsea_error(0);	ToDo
 283:..\..\flexsea-comm\src/flexsea_buffers.c **** 	}
 284:..\..\flexsea-comm\src/flexsea_buffers.c **** }
 285:..\..\flexsea-comm\src/flexsea_buffers.c **** 
 286:..\..\flexsea-comm\src/flexsea_buffers.c **** #endif	//ENABLE_FLEXSEA_BUF_3
 287:..\..\flexsea-comm\src/flexsea_buffers.c **** 
 288:..\..\flexsea-comm\src/flexsea_buffers.c **** #ifdef ENABLE_FLEXSEA_BUF_4
 289:..\..\flexsea-comm\src/flexsea_buffers.c **** 
 290:..\..\flexsea-comm\src/flexsea_buffers.c **** //Wraps update_rx_buf_byte()/update_rx_buf_array() for buffer #4. Keeps track of the index.
 291:..\..\flexsea-comm\src/flexsea_buffers.c **** //Do not use directly, call update_rx_buf_byte_4() or update_rx_buf_array_4()
 292:..\..\flexsea-comm\src/flexsea_buffers.c **** static void update_rx_buf_4(uint8_t byte_array, uint8_t new_byte, uint8_t *new_array, uint32_t len)
 293:..\..\flexsea-comm\src/flexsea_buffers.c **** {
 294:..\..\flexsea-comm\src/flexsea_buffers.c **** 	static uint32_t idx_4 = 0;
 295:..\..\flexsea-comm\src/flexsea_buffers.c **** 
 296:..\..\flexsea-comm\src/flexsea_buffers.c **** 	if(byte_array == UPDATE_BYTE)
 297:..\..\flexsea-comm\src/flexsea_buffers.c **** 	{
 298:..\..\flexsea-comm\src/flexsea_buffers.c **** 		//Updating buffer with one byte
 299:..\..\flexsea-comm\src/flexsea_buffers.c **** 		update_rx_buf_byte(rx_buf_4, &idx_4, new_byte);
 300:..\..\flexsea-comm\src/flexsea_buffers.c **** 	}
 301:..\..\flexsea-comm\src/flexsea_buffers.c **** 	else if(byte_array == UPDATE_ARRAY)
ARM GAS  C:\Users\Alex\AppData\Local\Temp\ccHQLaYf.s 			page 15


 302:..\..\flexsea-comm\src/flexsea_buffers.c **** 	{
 303:..\..\flexsea-comm\src/flexsea_buffers.c **** 		//Updating buffer with an array
 304:..\..\flexsea-comm\src/flexsea_buffers.c **** 		update_rx_buf_array(rx_buf_4, &idx_4, new_array, len);
 305:..\..\flexsea-comm\src/flexsea_buffers.c **** 	}
 306:..\..\flexsea-comm\src/flexsea_buffers.c **** 	else
 307:..\..\flexsea-comm\src/flexsea_buffers.c **** 	{
 308:..\..\flexsea-comm\src/flexsea_buffers.c **** 		//Error
 309:..\..\flexsea-comm\src/flexsea_buffers.c **** 		//flexsea_error(0);	ToDo
 310:..\..\flexsea-comm\src/flexsea_buffers.c **** 	}
 311:..\..\flexsea-comm\src/flexsea_buffers.c **** }
 312:..\..\flexsea-comm\src/flexsea_buffers.c **** 
 313:..\..\flexsea-comm\src/flexsea_buffers.c **** #endif	//ENABLE_FLEXSEA_BUF_4
 314:..\..\flexsea-comm\src/flexsea_buffers.c **** 
 315:..\..\flexsea-comm\src/flexsea_buffers.c **** //****************************************************************************
 316:..\..\flexsea-comm\src/flexsea_buffers.c **** // Public Function(s)
 317:..\..\flexsea-comm\src/flexsea_buffers.c **** //****************************************************************************
 318:..\..\flexsea-comm\src/flexsea_buffers.c **** 
 319:..\..\flexsea-comm\src/flexsea_buffers.c **** #ifdef ENABLE_FLEXSEA_BUF_1
 320:..\..\flexsea-comm\src/flexsea_buffers.c **** 
 321:..\..\flexsea-comm\src/flexsea_buffers.c **** //Add one byte to buffer #1
 322:..\..\flexsea-comm\src/flexsea_buffers.c **** void update_rx_buf_byte_1(uint8_t new_byte)
 323:..\..\flexsea-comm\src/flexsea_buffers.c **** {
 464              		.loc 1 323 0
 465              		.cfi_startproc
 466              		@ args = 0, pretend = 0, frame = 8
 467              		@ frame_needed = 0, uses_anonymous_args = 0
 468              	.LVL69:
 469 0000 00B5     		push	{lr}
 470              		.cfi_def_cfa_offset 4
 471              		.cfi_offset 14, -4
 472 0002 83B0     		sub	sp, sp, #12
 473              		.cfi_def_cfa_offset 16
 474 0004 0146     		mov	r1, r0
 324:..\..\flexsea-comm\src/flexsea_buffers.c **** 	uint8_t empty_array[1] = {0};
 475              		.loc 1 324 0
 476 0006 0023     		movs	r3, #0
 477 0008 02AA     		add	r2, sp, #8
 478 000a 02F8043D 		strb	r3, [r2, #-4]!
 325:..\..\flexsea-comm\src/flexsea_buffers.c **** 	update_rx_buf_1(UPDATE_BYTE, new_byte, empty_array, 0);
 479              		.loc 1 325 0
 480 000e 1846     		mov	r0, r3
 481              	.LVL70:
 482 0010 FFF7FEFF 		bl	update_rx_buf_1
 483              	.LVL71:
 326:..\..\flexsea-comm\src/flexsea_buffers.c **** }
 484              		.loc 1 326 0
 485 0014 03B0     		add	sp, sp, #12
 486              		.cfi_def_cfa_offset 4
 487              		@ sp needed
 488 0016 5DF804FB 		ldr	pc, [sp], #4
 489              		.cfi_endproc
 490              	.LFE6:
 491              		.size	update_rx_buf_byte_1, .-update_rx_buf_byte_1
 492 001a 00BF     		.section	.text.update_rx_buf_array_1,"ax",%progbits
 493              		.align	2
 494              		.global	update_rx_buf_array_1
 495              		.thumb
ARM GAS  C:\Users\Alex\AppData\Local\Temp\ccHQLaYf.s 			page 16


 496              		.thumb_func
 497              		.type	update_rx_buf_array_1, %function
 498              	update_rx_buf_array_1:
 499              	.LFB7:
 327:..\..\flexsea-comm\src/flexsea_buffers.c **** 
 328:..\..\flexsea-comm\src/flexsea_buffers.c **** //Add an array of bytes to buffer #1
 329:..\..\flexsea-comm\src/flexsea_buffers.c **** void update_rx_buf_array_1(uint8_t *new_array, uint32_t len)
 330:..\..\flexsea-comm\src/flexsea_buffers.c **** {
 500              		.loc 1 330 0
 501              		.cfi_startproc
 502              		@ args = 0, pretend = 0, frame = 0
 503              		@ frame_needed = 0, uses_anonymous_args = 0
 504              	.LVL72:
 505 0000 08B5     		push	{r3, lr}
 506              		.cfi_def_cfa_offset 8
 507              		.cfi_offset 3, -8
 508              		.cfi_offset 14, -4
 509 0002 0246     		mov	r2, r0
 510 0004 0B46     		mov	r3, r1
 331:..\..\flexsea-comm\src/flexsea_buffers.c **** 	update_rx_buf_1(UPDATE_ARRAY, 0, new_array, len);
 511              		.loc 1 331 0
 512 0006 0120     		movs	r0, #1
 513              	.LVL73:
 514 0008 0021     		movs	r1, #0
 515              	.LVL74:
 516 000a FFF7FEFF 		bl	update_rx_buf_1
 517              	.LVL75:
 518 000e 08BD     		pop	{r3, pc}
 519              		.cfi_endproc
 520              	.LFE7:
 521              		.size	update_rx_buf_array_1, .-update_rx_buf_array_1
 522              		.section	.text.update_rx_buf_byte_2,"ax",%progbits
 523              		.align	2
 524              		.global	update_rx_buf_byte_2
 525              		.thumb
 526              		.thumb_func
 527              		.type	update_rx_buf_byte_2, %function
 528              	update_rx_buf_byte_2:
 529              	.LFB8:
 332:..\..\flexsea-comm\src/flexsea_buffers.c **** }
 333:..\..\flexsea-comm\src/flexsea_buffers.c **** 	
 334:..\..\flexsea-comm\src/flexsea_buffers.c **** #endif	//ENABLE_FLEXSEA_BUF_1
 335:..\..\flexsea-comm\src/flexsea_buffers.c **** 
 336:..\..\flexsea-comm\src/flexsea_buffers.c **** #ifdef ENABLE_FLEXSEA_BUF_2
 337:..\..\flexsea-comm\src/flexsea_buffers.c **** 
 338:..\..\flexsea-comm\src/flexsea_buffers.c **** //Add one byte to buffer #2
 339:..\..\flexsea-comm\src/flexsea_buffers.c **** void update_rx_buf_byte_2(uint8_t new_byte)
 340:..\..\flexsea-comm\src/flexsea_buffers.c **** {
 530              		.loc 1 340 0
 531              		.cfi_startproc
 532              		@ args = 0, pretend = 0, frame = 8
 533              		@ frame_needed = 0, uses_anonymous_args = 0
 534              	.LVL76:
 535 0000 00B5     		push	{lr}
 536              		.cfi_def_cfa_offset 4
 537              		.cfi_offset 14, -4
 538 0002 83B0     		sub	sp, sp, #12
ARM GAS  C:\Users\Alex\AppData\Local\Temp\ccHQLaYf.s 			page 17


 539              		.cfi_def_cfa_offset 16
 540 0004 0146     		mov	r1, r0
 341:..\..\flexsea-comm\src/flexsea_buffers.c **** 	uint8_t empty_array[1] = {0};
 541              		.loc 1 341 0
 542 0006 0023     		movs	r3, #0
 543 0008 02AA     		add	r2, sp, #8
 544 000a 02F8043D 		strb	r3, [r2, #-4]!
 342:..\..\flexsea-comm\src/flexsea_buffers.c **** 	update_rx_buf_2(UPDATE_BYTE, new_byte, empty_array, 0);
 545              		.loc 1 342 0
 546 000e 1846     		mov	r0, r3
 547              	.LVL77:
 548 0010 FFF7FEFF 		bl	update_rx_buf_2
 549              	.LVL78:
 343:..\..\flexsea-comm\src/flexsea_buffers.c **** }
 550              		.loc 1 343 0
 551 0014 03B0     		add	sp, sp, #12
 552              		.cfi_def_cfa_offset 4
 553              		@ sp needed
 554 0016 5DF804FB 		ldr	pc, [sp], #4
 555              		.cfi_endproc
 556              	.LFE8:
 557              		.size	update_rx_buf_byte_2, .-update_rx_buf_byte_2
 558 001a 00BF     		.section	.text.update_rx_buf_array_2,"ax",%progbits
 559              		.align	2
 560              		.global	update_rx_buf_array_2
 561              		.thumb
 562              		.thumb_func
 563              		.type	update_rx_buf_array_2, %function
 564              	update_rx_buf_array_2:
 565              	.LFB9:
 344:..\..\flexsea-comm\src/flexsea_buffers.c **** 
 345:..\..\flexsea-comm\src/flexsea_buffers.c **** //Add an array of bytes to buffer #2
 346:..\..\flexsea-comm\src/flexsea_buffers.c **** void update_rx_buf_array_2(uint8_t *new_array, uint32_t len)
 347:..\..\flexsea-comm\src/flexsea_buffers.c **** {
 566              		.loc 1 347 0
 567              		.cfi_startproc
 568              		@ args = 0, pretend = 0, frame = 0
 569              		@ frame_needed = 0, uses_anonymous_args = 0
 570              	.LVL79:
 571 0000 08B5     		push	{r3, lr}
 572              		.cfi_def_cfa_offset 8
 573              		.cfi_offset 3, -8
 574              		.cfi_offset 14, -4
 575 0002 0246     		mov	r2, r0
 576 0004 0B46     		mov	r3, r1
 348:..\..\flexsea-comm\src/flexsea_buffers.c **** 	update_rx_buf_2(UPDATE_ARRAY, 0, new_array, len);
 577              		.loc 1 348 0
 578 0006 0120     		movs	r0, #1
 579              	.LVL80:
 580 0008 0021     		movs	r1, #0
 581              	.LVL81:
 582 000a FFF7FEFF 		bl	update_rx_buf_2
 583              	.LVL82:
 584 000e 08BD     		pop	{r3, pc}
 585              		.cfi_endproc
 586              	.LFE9:
 587              		.size	update_rx_buf_array_2, .-update_rx_buf_array_2
ARM GAS  C:\Users\Alex\AppData\Local\Temp\ccHQLaYf.s 			page 18


 588              		.comm	rx_buf_2,100,4
 589              		.comm	rx_buf_1,100,4
 590              		.bss
 591              		.align	2
 592              		.set	.LANCHOR0,. + 0
 593              		.type	idx_1.5073, %object
 594              		.size	idx_1.5073, 4
 595              	idx_1.5073:
 596 0000 00000000 		.space	4
 597              		.type	idx_2.5080, %object
 598              		.size	idx_2.5080, 4
 599              	idx_2.5080:
 600 0004 00000000 		.space	4
 601              		.text
 602              	.Letext0:
 603              		.file 2 "c:\\program files (x86)\\cypress\\psoc creator\\3.3\\psoc creator\\import\\gnu\\arm\\4.9.
 604              		.file 3 "c:\\program files (x86)\\cypress\\psoc creator\\3.3\\psoc creator\\import\\gnu\\arm\\4.9.