ARM GAS  C:\Users\Alex\AppData\Local\Temp\ccr6sH3p.s 			page 1


   1              		.syntax unified
   2              		.cpu cortex-m3
   3              		.fpu softvfp
   4              		.eabi_attribute 20, 1
   5              		.eabi_attribute 21, 1
   6              		.eabi_attribute 23, 3
   7              		.eabi_attribute 24, 1
   8              		.eabi_attribute 25, 1
   9              		.eabi_attribute 26, 1
  10              		.eabi_attribute 30, 1
  11              		.eabi_attribute 34, 1
  12              		.eabi_attribute 18, 4
  13              		.thumb
  14              		.file	"flexsea_comm.c"
  15              		.text
  16              	.Ltext0:
  17              		.cfi_sections	.debug_frame
  18              		.section	.text.unpack_payload,"ax",%progbits
  19              		.align	2
  20              		.thumb
  21              		.thumb_func
  22              		.type	unpack_payload, %function
  23              	unpack_payload:
  24              	.LFB3:
  25              		.file 1 "..\\..\\flexsea-comm\\src\\flexsea_comm.c"
   1:..\..\flexsea-comm\src/flexsea_comm.c **** //****************************************************************************
   2:..\..\flexsea-comm\src/flexsea_comm.c **** // MIT Media Lab - Biomechatronics
   3:..\..\flexsea-comm\src/flexsea_comm.c **** // Jean-Francois (Jeff) Duval
   4:..\..\flexsea-comm\src/flexsea_comm.c **** // jfduval@media.mit.edu
   5:..\..\flexsea-comm\src/flexsea_comm.c **** // 03/2016
   6:..\..\flexsea-comm\src/flexsea_comm.c **** //****************************************************************************
   7:..\..\flexsea-comm\src/flexsea_comm.c **** // flexsea_comm: Data-Link layer of the FlexSEA protocol
   8:..\..\flexsea-comm\src/flexsea_comm.c **** //****************************************************************************
   9:..\..\flexsea-comm\src/flexsea_comm.c **** 
  10:..\..\flexsea-comm\src/flexsea_comm.c **** #ifdef __cplusplus
  11:..\..\flexsea-comm\src/flexsea_comm.c **** extern "C" {
  12:..\..\flexsea-comm\src/flexsea_comm.c **** #endif
  13:..\..\flexsea-comm\src/flexsea_comm.c **** 
  14:..\..\flexsea-comm\src/flexsea_comm.c **** //FlexSEA comm. prototype:
  15:..\..\flexsea-comm\src/flexsea_comm.c **** //=======================
  16:..\..\flexsea-comm\src/flexsea_comm.c **** //[HEADER][# of BYTES][DATA...][CHECKSUM][FOOTER]
  17:..\..\flexsea-comm\src/flexsea_comm.c **** //=> Number of bytes includes the ESCAPE bytes
  18:..\..\flexsea-comm\src/flexsea_comm.c **** //=> Checksum is done on the payload (data + ESCAPEs) and on the BYTES byte.
  19:..\..\flexsea-comm\src/flexsea_comm.c **** 
  20:..\..\flexsea-comm\src/flexsea_comm.c **** //To transmit a message:
  21:..\..\flexsea-comm\src/flexsea_comm.c **** //======================
  22:..\..\flexsea-comm\src/flexsea_comm.c **** // 1) Place the payload in an array (no header, no footer: pure data)
  23:..\..\flexsea-comm\src/flexsea_comm.c **** // 2) Call comm_gen_str(your_data_array, number_of_bytes)
  24:..\..\flexsea-comm\src/flexsea_comm.c **** // 2b) It will return the index of the last byte of the message (add 1 for the length)
  25:..\..\flexsea-comm\src/flexsea_comm.c **** // 2c) The message is in comm_str[]
  26:..\..\flexsea-comm\src/flexsea_comm.c **** // 3) Send comm_str[] (x_puts(comm_str, msg_length));
  27:..\..\flexsea-comm\src/flexsea_comm.c **** 
  28:..\..\flexsea-comm\src/flexsea_comm.c **** //To receive a message:
  29:..\..\flexsea-comm\src/flexsea_comm.c **** //=====================
  30:..\..\flexsea-comm\src/flexsea_comm.c **** // 1) Assuming that you have dealt with all the previous messages, call comm_str_payload();
  31:..\..\flexsea-comm\src/flexsea_comm.c **** //    to fill the buffer with zeros
  32:..\..\flexsea-comm\src/flexsea_comm.c **** // 2) Every time you receive a byte update the buffer: comm_update_rx_buffer(your_new_byte);
ARM GAS  C:\Users\Alex\AppData\Local\Temp\ccr6sH3p.s 			page 2


  33:..\..\flexsea-comm\src/flexsea_comm.c **** // 3) Call payload_str_available_in_buffer = comm_decode_str(). If you get >= 1, read the
  34:..\..\flexsea-comm\src/flexsea_comm.c **** //    comm_str_payload buffer and do something with the data!
  35:..\..\flexsea-comm\src/flexsea_comm.c **** // 4) At this point you might want to flush the read payload from rx_buf
  36:..\..\flexsea-comm\src/flexsea_comm.c **** 
  37:..\..\flexsea-comm\src/flexsea_comm.c **** //****************************************************************************
  38:..\..\flexsea-comm\src/flexsea_comm.c **** // Include(s)
  39:..\..\flexsea-comm\src/flexsea_comm.c **** //****************************************************************************
  40:..\..\flexsea-comm\src/flexsea_comm.c **** 
  41:..\..\flexsea-comm\src/flexsea_comm.c **** #include "../inc/flexsea.h"
  42:..\..\flexsea-comm\src/flexsea_comm.c **** #include "flexsea_board.h"
  43:..\..\flexsea-comm\src/flexsea_comm.c **** #include "flexsea_system.h"
  44:..\..\flexsea-comm\src/flexsea_comm.c **** 
  45:..\..\flexsea-comm\src/flexsea_comm.c **** //****************************************************************************
  46:..\..\flexsea-comm\src/flexsea_comm.c **** // Variable(s)
  47:..\..\flexsea-comm\src/flexsea_comm.c **** //****************************************************************************
  48:..\..\flexsea-comm\src/flexsea_comm.c **** 
  49:..\..\flexsea-comm\src/flexsea_comm.c **** uint8_t comm_str_tmp[COMM_STR_BUF_LEN];
  50:..\..\flexsea-comm\src/flexsea_comm.c **** #ifdef ENABLE_FLEXSEA_BUF_1
  51:..\..\flexsea-comm\src/flexsea_comm.c **** uint8_t comm_str_1[COMM_STR_BUF_LEN];
  52:..\..\flexsea-comm\src/flexsea_comm.c **** uint8_t rx_command_1[PAYLOAD_BUFFERS][PACKAGED_PAYLOAD_LEN];
  53:..\..\flexsea-comm\src/flexsea_comm.c **** #endif	//ENABLE_FLEXSEA_BUF_1
  54:..\..\flexsea-comm\src/flexsea_comm.c **** #ifdef ENABLE_FLEXSEA_BUF_2
  55:..\..\flexsea-comm\src/flexsea_comm.c **** uint8_t comm_str_2[COMM_STR_BUF_LEN];
  56:..\..\flexsea-comm\src/flexsea_comm.c **** uint8_t rx_command_2[PAYLOAD_BUFFERS][PACKAGED_PAYLOAD_LEN];
  57:..\..\flexsea-comm\src/flexsea_comm.c **** #endif	//ENABLE_FLEXSEA_BUF_2
  58:..\..\flexsea-comm\src/flexsea_comm.c **** #ifdef ENABLE_FLEXSEA_BUF_3
  59:..\..\flexsea-comm\src/flexsea_comm.c **** uint8_t comm_str_3[COMM_STR_BUF_LEN];
  60:..\..\flexsea-comm\src/flexsea_comm.c **** uint8_t rx_command_3[PAYLOAD_BUFFERS][PACKAGED_PAYLOAD_LEN];
  61:..\..\flexsea-comm\src/flexsea_comm.c **** #endif	//ENABLE_FLEXSEA_BUF_3
  62:..\..\flexsea-comm\src/flexsea_comm.c **** #ifdef ENABLE_FLEXSEA_BUF_4
  63:..\..\flexsea-comm\src/flexsea_comm.c **** uint8_t comm_str_4[COMM_STR_BUF_LEN];
  64:..\..\flexsea-comm\src/flexsea_comm.c **** uint8_t rx_command_4[PAYLOAD_BUFFERS][PACKAGED_PAYLOAD_LEN];
  65:..\..\flexsea-comm\src/flexsea_comm.c **** #endif	//ENABLE_FLEXSEA_BUF_4
  66:..\..\flexsea-comm\src/flexsea_comm.c **** 
  67:..\..\flexsea-comm\src/flexsea_comm.c **** uint32_t cmd_valid = 0;
  68:..\..\flexsea-comm\src/flexsea_comm.c **** uint32_t cmd_bad_checksum = 0;
  69:..\..\flexsea-comm\src/flexsea_comm.c **** 
  70:..\..\flexsea-comm\src/flexsea_comm.c **** //ToDo: this is project specific! Eliminate or use generic names!
  71:..\..\flexsea-comm\src/flexsea_comm.c **** struct slave_comm_s slaves_485_1, slaves_485_2;
  72:..\..\flexsea-comm\src/flexsea_comm.c **** 
  73:..\..\flexsea-comm\src/flexsea_comm.c **** //****************************************************************************
  74:..\..\flexsea-comm\src/flexsea_comm.c **** // Private Function Prototype(s):
  75:..\..\flexsea-comm\src/flexsea_comm.c **** //****************************************************************************
  76:..\..\flexsea-comm\src/flexsea_comm.c **** 
  77:..\..\flexsea-comm\src/flexsea_comm.c **** static uint8_t unpack_payload(uint8_t *buf, uint8_t rx_cmd[][PACKAGED_PAYLOAD_LEN]);
  78:..\..\flexsea-comm\src/flexsea_comm.c **** 
  79:..\..\flexsea-comm\src/flexsea_comm.c **** //****************************************************************************
  80:..\..\flexsea-comm\src/flexsea_comm.c **** // Public Function(s)
  81:..\..\flexsea-comm\src/flexsea_comm.c **** //****************************************************************************
  82:..\..\flexsea-comm\src/flexsea_comm.c **** 
  83:..\..\flexsea-comm\src/flexsea_comm.c **** //Takes payload, adds ESCAPES, checksum, header, ...
  84:..\..\flexsea-comm\src/flexsea_comm.c **** uint8_t comm_gen_str(uint8_t payload[], uint8_t *cstr, uint8_t bytes)
  85:..\..\flexsea-comm\src/flexsea_comm.c **** {
  86:..\..\flexsea-comm\src/flexsea_comm.c ****     unsigned int i = 0, escapes = 0, idx = 0, total_bytes = 0;
  87:..\..\flexsea-comm\src/flexsea_comm.c ****     unsigned char checksum = 0;
  88:..\..\flexsea-comm\src/flexsea_comm.c **** 
  89:..\..\flexsea-comm\src/flexsea_comm.c ****     //Fill comm_str with zeros
ARM GAS  C:\Users\Alex\AppData\Local\Temp\ccr6sH3p.s 			page 3


  90:..\..\flexsea-comm\src/flexsea_comm.c ****     for(i = 0; i < COMM_STR_BUF_LEN; i++)
  91:..\..\flexsea-comm\src/flexsea_comm.c ****     {
  92:..\..\flexsea-comm\src/flexsea_comm.c ****     	cstr[i] = 0xAA; //'0';
  93:..\..\flexsea-comm\src/flexsea_comm.c ****     }
  94:..\..\flexsea-comm\src/flexsea_comm.c ****     DEBUG_COMM_PRINTF("comm_str: %s\n", cstr);
  95:..\..\flexsea-comm\src/flexsea_comm.c **** 
  96:..\..\flexsea-comm\src/flexsea_comm.c ****     //Fill comm_str with payload and add ESCAPE characters
  97:..\..\flexsea-comm\src/flexsea_comm.c ****     escapes = 0;
  98:..\..\flexsea-comm\src/flexsea_comm.c ****     idx = 2;
  99:..\..\flexsea-comm\src/flexsea_comm.c ****     for(i = 0; i < bytes; i++)
 100:..\..\flexsea-comm\src/flexsea_comm.c ****     {
 101:..\..\flexsea-comm\src/flexsea_comm.c ****         if ((payload[i] == HEADER) || (payload[i] == FOOTER) || (payload[i] == ESCAPE))
 102:..\..\flexsea-comm\src/flexsea_comm.c ****         {
 103:..\..\flexsea-comm\src/flexsea_comm.c ****             escapes = escapes + 1;
 104:..\..\flexsea-comm\src/flexsea_comm.c ****             cstr[idx] = ESCAPE;
 105:..\..\flexsea-comm\src/flexsea_comm.c ****             cstr[idx+1] = payload[i];
 106:..\..\flexsea-comm\src/flexsea_comm.c ****             idx = idx + 1;
 107:..\..\flexsea-comm\src/flexsea_comm.c ****         }
 108:..\..\flexsea-comm\src/flexsea_comm.c ****         else
 109:..\..\flexsea-comm\src/flexsea_comm.c ****         {
 110:..\..\flexsea-comm\src/flexsea_comm.c ****         	cstr[idx] = payload[i];
 111:..\..\flexsea-comm\src/flexsea_comm.c ****         }
 112:..\..\flexsea-comm\src/flexsea_comm.c ****         idx++;
 113:..\..\flexsea-comm\src/flexsea_comm.c ****     }
 114:..\..\flexsea-comm\src/flexsea_comm.c ****     DEBUG_COMM_PRINTF("comm_str: %s\n", cstr);
 115:..\..\flexsea-comm\src/flexsea_comm.c **** 
 116:..\..\flexsea-comm\src/flexsea_comm.c ****     total_bytes = bytes + escapes;
 117:..\..\flexsea-comm\src/flexsea_comm.c **** 
 118:..\..\flexsea-comm\src/flexsea_comm.c ****     DEBUG_COMM_PRINTF("total_bytes: %i\n", total_bytes);
 119:..\..\flexsea-comm\src/flexsea_comm.c **** 
 120:..\..\flexsea-comm\src/flexsea_comm.c ****     //Checksum:
 121:..\..\flexsea-comm\src/flexsea_comm.c ****     checksum = 0;
 122:..\..\flexsea-comm\src/flexsea_comm.c ****     for (i = 0; i < total_bytes; i++)
 123:..\..\flexsea-comm\src/flexsea_comm.c ****     {
 124:..\..\flexsea-comm\src/flexsea_comm.c ****     	//DEBUG_COMM_PRINTF("cs b[%i] = %c\n", i, cstr[2+i]);
 125:..\..\flexsea-comm\src/flexsea_comm.c **** 
 126:..\..\flexsea-comm\src/flexsea_comm.c ****         checksum = checksum + cstr[2+i];
 127:..\..\flexsea-comm\src/flexsea_comm.c ****     }
 128:..\..\flexsea-comm\src/flexsea_comm.c **** 
 129:..\..\flexsea-comm\src/flexsea_comm.c ****     DEBUG_COMM_PRINTF("checksum: %i\n", checksum);
 130:..\..\flexsea-comm\src/flexsea_comm.c **** 
 131:..\..\flexsea-comm\src/flexsea_comm.c **** 
 132:..\..\flexsea-comm\src/flexsea_comm.c ****     //Build comm_str:
 133:..\..\flexsea-comm\src/flexsea_comm.c ****     cstr[0] = HEADER;
 134:..\..\flexsea-comm\src/flexsea_comm.c ****     cstr[1] = total_bytes;
 135:..\..\flexsea-comm\src/flexsea_comm.c ****     cstr[2 + total_bytes] = checksum;
 136:..\..\flexsea-comm\src/flexsea_comm.c ****     cstr[3 + total_bytes] = FOOTER;
 137:..\..\flexsea-comm\src/flexsea_comm.c **** 
 138:..\..\flexsea-comm\src/flexsea_comm.c ****     //Return the length of the valid data
 139:..\..\flexsea-comm\src/flexsea_comm.c ****     return (3 + total_bytes);
 140:..\..\flexsea-comm\src/flexsea_comm.c **** }
 141:..\..\flexsea-comm\src/flexsea_comm.c **** 
 142:..\..\flexsea-comm\src/flexsea_comm.c **** //To avoid sharing buffers in multiple files we use specific functions:
 143:..\..\flexsea-comm\src/flexsea_comm.c **** 
 144:..\..\flexsea-comm\src/flexsea_comm.c **** #ifdef ENABLE_FLEXSEA_BUF_1
 145:..\..\flexsea-comm\src/flexsea_comm.c **** uint8_t unpack_payload_1(void)
 146:..\..\flexsea-comm\src/flexsea_comm.c **** {
ARM GAS  C:\Users\Alex\AppData\Local\Temp\ccr6sH3p.s 			page 4


 147:..\..\flexsea-comm\src/flexsea_comm.c **** 	return unpack_payload(rx_buf_1, rx_command_1);
 148:..\..\flexsea-comm\src/flexsea_comm.c **** }
 149:..\..\flexsea-comm\src/flexsea_comm.c **** #endif	//ENABLE_FLEXSEA_BUF_1
 150:..\..\flexsea-comm\src/flexsea_comm.c **** 
 151:..\..\flexsea-comm\src/flexsea_comm.c **** #ifdef ENABLE_FLEXSEA_BUF_2
 152:..\..\flexsea-comm\src/flexsea_comm.c **** uint8_t unpack_payload_2(void)
 153:..\..\flexsea-comm\src/flexsea_comm.c **** {
 154:..\..\flexsea-comm\src/flexsea_comm.c **** 	return unpack_payload(rx_buf_2, rx_command_2);
 155:..\..\flexsea-comm\src/flexsea_comm.c **** }
 156:..\..\flexsea-comm\src/flexsea_comm.c **** #endif	//ENABLE_FLEXSEA_BUF_2
 157:..\..\flexsea-comm\src/flexsea_comm.c **** 
 158:..\..\flexsea-comm\src/flexsea_comm.c **** #ifdef ENABLE_FLEXSEA_BUF_3
 159:..\..\flexsea-comm\src/flexsea_comm.c **** uint8_t unpack_payload_3(void)
 160:..\..\flexsea-comm\src/flexsea_comm.c **** {
 161:..\..\flexsea-comm\src/flexsea_comm.c **** 	return unpack_payload(rx_buf_3, rx_command_3);
 162:..\..\flexsea-comm\src/flexsea_comm.c **** }
 163:..\..\flexsea-comm\src/flexsea_comm.c **** #endif	//ENABLE_FLEXSEA_BUF_3
 164:..\..\flexsea-comm\src/flexsea_comm.c **** 
 165:..\..\flexsea-comm\src/flexsea_comm.c **** #ifdef ENABLE_FLEXSEA_BUF_4
 166:..\..\flexsea-comm\src/flexsea_comm.c **** uint8_t unpack_payload_4(void)
 167:..\..\flexsea-comm\src/flexsea_comm.c **** {
 168:..\..\flexsea-comm\src/flexsea_comm.c **** 	return unpack_payload(rx_buf_4, rx_command_4);
 169:..\..\flexsea-comm\src/flexsea_comm.c **** }
 170:..\..\flexsea-comm\src/flexsea_comm.c **** #endif	//ENABLE_FLEXSEA_BUF_4
 171:..\..\flexsea-comm\src/flexsea_comm.c **** 
 172:..\..\flexsea-comm\src/flexsea_comm.c **** //****************************************************************************
 173:..\..\flexsea-comm\src/flexsea_comm.c **** // Private Function(s)
 174:..\..\flexsea-comm\src/flexsea_comm.c **** //****************************************************************************
 175:..\..\flexsea-comm\src/flexsea_comm.c **** 
 176:..\..\flexsea-comm\src/flexsea_comm.c **** //New version of comm_decode_str
 177:..\..\flexsea-comm\src/flexsea_comm.c **** //Take a buffer as an argument, returns the number of decoded payload packets
 178:..\..\flexsea-comm\src/flexsea_comm.c **** static uint8_t unpack_payload(uint8_t *buf, uint8_t rx_cmd[][PACKAGED_PAYLOAD_LEN])
 179:..\..\flexsea-comm\src/flexsea_comm.c **** {
  26              		.loc 1 179 0
  27              		.cfi_startproc
  28              		@ args = 0, pretend = 0, frame = 104
  29              		@ frame_needed = 0, uses_anonymous_args = 0
  30              	.LVL0:
  31 0000 2DE9F041 		push	{r4, r5, r6, r7, r8, lr}
  32              		.cfi_def_cfa_offset 24
  33              		.cfi_offset 4, -24
  34              		.cfi_offset 5, -20
  35              		.cfi_offset 6, -16
  36              		.cfi_offset 7, -12
  37              		.cfi_offset 8, -8
  38              		.cfi_offset 14, -4
  39 0004 9AB0     		sub	sp, sp, #104
  40              		.cfi_def_cfa_offset 128
  41 0006 0646     		mov	r6, r0
  42              	.LVL1:
 180:..\..\flexsea-comm\src/flexsea_comm.c ****     uint32_t i = 0, j = 0, k = 0, idx = 0, h = 0;
 181:..\..\flexsea-comm\src/flexsea_comm.c ****     uint32_t bytes = 0, possible_footer = 0, possible_footer_pos = 0;
 182:..\..\flexsea-comm\src/flexsea_comm.c ****     uint8_t checksum = 0, skip = 0, payload_strings = 0;
  43              		.loc 1 182 0
  44 0008 0020     		movs	r0, #0
  45              	.LVL2:
 183:..\..\flexsea-comm\src/flexsea_comm.c ****     uint8_t rx_buf_tmp[RX_BUF_LEN];
ARM GAS  C:\Users\Alex\AppData\Local\Temp\ccr6sH3p.s 			page 5


 184:..\..\flexsea-comm\src/flexsea_comm.c **** 
 185:..\..\flexsea-comm\src/flexsea_comm.c ****     for(i = 0; i < (RX_BUF_LEN - 2); i++)
  46              		.loc 1 185 0
  47 000a 8446     		mov	ip, r0
  48 000c 6DE0     		b	.L2
  49              	.LVL3:
  50              	.L17:
 186:..\..\flexsea-comm\src/flexsea_comm.c ****     {
 187:..\..\flexsea-comm\src/flexsea_comm.c ****         if(buf[i] == HEADER)
  51              		.loc 1 187 0
  52 000e 16F80C30 		ldrb	r3, [r6, ip]	@ zero_extendqisi2
  53 0012 ED2B     		cmp	r3, #237
  54 0014 67D1     		bne	.L3
 188:..\..\flexsea-comm\src/flexsea_comm.c ****         {
 189:..\..\flexsea-comm\src/flexsea_comm.c ****             //We found a header
 190:..\..\flexsea-comm\src/flexsea_comm.c ****         	DEBUG_PRINTF("===\nFound header\n");
 191:..\..\flexsea-comm\src/flexsea_comm.c **** 
 192:..\..\flexsea-comm\src/flexsea_comm.c ****             bytes = buf[i+1];
  55              		.loc 1 192 0
  56 0016 06EB0C03 		add	r3, r6, ip
  57 001a 5F78     		ldrb	r7, [r3, #1]	@ zero_extendqisi2
  58              	.LVL4:
 193:..\..\flexsea-comm\src/flexsea_comm.c ****             DEBUG_PRINTF("bytes = %i\n", bytes);
 194:..\..\flexsea-comm\src/flexsea_comm.c **** 
 195:..\..\flexsea-comm\src/flexsea_comm.c ****             possible_footer_pos = i+3+bytes;
  59              		.loc 1 195 0
  60 001c 0CEB070E 		add	lr, ip, r7
  61 0020 0EF1030E 		add	lr, lr, #3
  62              	.LVL5:
 196:..\..\flexsea-comm\src/flexsea_comm.c **** 
 197:..\..\flexsea-comm\src/flexsea_comm.c ****             DEBUG_PRINTF("pos foot pos: %i\n", possible_footer_pos);
 198:..\..\flexsea-comm\src/flexsea_comm.c **** 
 199:..\..\flexsea-comm\src/flexsea_comm.c ****             if(possible_footer_pos <= RX_BUF_LEN)
  63              		.loc 1 199 0
  64 0024 BEF1640F 		cmp	lr, #100
  65 0028 5DD8     		bhi	.L3
 200:..\..\flexsea-comm\src/flexsea_comm.c ****             {
 201:..\..\flexsea-comm\src/flexsea_comm.c ****                 //We have enough bytes for a full string
 202:..\..\flexsea-comm\src/flexsea_comm.c ****             	DEBUG_PRINTF("Enough data\n");
 203:..\..\flexsea-comm\src/flexsea_comm.c ****                 possible_footer = buf[possible_footer_pos];
  66              		.loc 1 203 0
  67 002a 16F80E30 		ldrb	r3, [r6, lr]	@ zero_extendqisi2
  68              	.LVL6:
 204:..\..\flexsea-comm\src/flexsea_comm.c ****                 if(possible_footer == FOOTER)
  69              		.loc 1 204 0
  70 002e EE2B     		cmp	r3, #238
  71 0030 59D1     		bne	.L3
  72 0032 07E0     		b	.L18
  73              	.LVL7:
  74              	.L5:
 205:..\..\flexsea-comm\src/flexsea_comm.c ****                 {
 206:..\..\flexsea-comm\src/flexsea_comm.c ****                     //Correctly framed string
 207:..\..\flexsea-comm\src/flexsea_comm.c ****                 	DEBUG_PRINTF("Correctly framed\n");
 208:..\..\flexsea-comm\src/flexsea_comm.c **** 
 209:..\..\flexsea-comm\src/flexsea_comm.c ****                     k = 0;
 210:..\..\flexsea-comm\src/flexsea_comm.c ****                     for(j = i; j <= possible_footer_pos; j++)
 211:..\..\flexsea-comm\src/flexsea_comm.c ****                     {
ARM GAS  C:\Users\Alex\AppData\Local\Temp\ccr6sH3p.s 			page 6


 212:..\..\flexsea-comm\src/flexsea_comm.c ****                         //Copy string in temp buffer
 213:..\..\flexsea-comm\src/flexsea_comm.c ****                         rx_buf_tmp[k] = buf[j];
  75              		.loc 1 213 0 discriminator 3
  76 0034 F55C     		ldrb	r5, [r6, r3]	@ zero_extendqisi2
  77 0036 1AAC     		add	r4, sp, #104
  78 0038 1444     		add	r4, r4, r2
  79 003a 04F8645C 		strb	r5, [r4, #-100]
 214:..\..\flexsea-comm\src/flexsea_comm.c ****                         k++;
  80              		.loc 1 214 0 discriminator 3
  81 003e 0132     		adds	r2, r2, #1
  82              	.LVL8:
 210:..\..\flexsea-comm\src/flexsea_comm.c ****                     {
  83              		.loc 1 210 0 discriminator 3
  84 0040 0133     		adds	r3, r3, #1
  85              	.LVL9:
  86 0042 01E0     		b	.L4
  87              	.LVL10:
  88              	.L18:
  89 0044 6346     		mov	r3, ip
  90              	.LVL11:
  91 0046 0022     		movs	r2, #0
  92              	.L4:
  93              	.LVL12:
 210:..\..\flexsea-comm\src/flexsea_comm.c ****                     {
  94              		.loc 1 210 0 is_stmt 0 discriminator 1
  95 0048 7345     		cmp	r3, lr
  96 004a F3D9     		bls	.L5
  97 004c 0023     		movs	r3, #0
  98              	.LVL13:
  99 004e 1A46     		mov	r2, r3
 100              	.LVL14:
 101 0050 06E0     		b	.L6
 102              	.LVL15:
 103              	.L7:
 215:..\..\flexsea-comm\src/flexsea_comm.c ****                     }
 216:..\..\flexsea-comm\src/flexsea_comm.c **** 
 217:..\..\flexsea-comm\src/flexsea_comm.c ****                     DEBUG_PRINTF("rx_buf_tmp: %s\n",rx_buf_tmp);
 218:..\..\flexsea-comm\src/flexsea_comm.c **** 
 219:..\..\flexsea-comm\src/flexsea_comm.c ****                     //Is the checksum OK?
 220:..\..\flexsea-comm\src/flexsea_comm.c ****                     checksum = 0;
 221:..\..\flexsea-comm\src/flexsea_comm.c ****                     for (k = 0; k < bytes; k++)
 222:..\..\flexsea-comm\src/flexsea_comm.c ****                     {
 223:..\..\flexsea-comm\src/flexsea_comm.c ****                     	//DEBUG_PRINTF("cs b[%i] = %c\n", k, rx_buf_tmp[2+k]);
 224:..\..\flexsea-comm\src/flexsea_comm.c **** 
 225:..\..\flexsea-comm\src/flexsea_comm.c ****                         checksum = checksum + rx_buf_tmp[2+k];
 104              		.loc 1 225 0 is_stmt 1 discriminator 3
 105 0052 1AAC     		add	r4, sp, #104
 106 0054 1444     		add	r4, r4, r2
 107 0056 14F8624C 		ldrb	r4, [r4, #-98]	@ zero_extendqisi2
 108 005a 2344     		add	r3, r3, r4
 109              	.LVL16:
 110 005c DBB2     		uxtb	r3, r3
 111              	.LVL17:
 221:..\..\flexsea-comm\src/flexsea_comm.c ****                     {
 112              		.loc 1 221 0 discriminator 3
 113 005e 0132     		adds	r2, r2, #1
 114              	.LVL18:
ARM GAS  C:\Users\Alex\AppData\Local\Temp\ccr6sH3p.s 			page 7


 115              	.L6:
 221:..\..\flexsea-comm\src/flexsea_comm.c ****                     {
 116              		.loc 1 221 0 is_stmt 0 discriminator 1
 117 0060 BA42     		cmp	r2, r7
 118 0062 F6D3     		bcc	.L7
 226:..\..\flexsea-comm\src/flexsea_comm.c ****                     }
 227:..\..\flexsea-comm\src/flexsea_comm.c **** 
 228:..\..\flexsea-comm\src/flexsea_comm.c ****                     DEBUG_PRINTF("Computed checksum: %i\n", checksum);
 229:..\..\flexsea-comm\src/flexsea_comm.c ****                     DEBUG_PRINTF("Compared to: %i\n", rx_buf_tmp[2+bytes]);
 230:..\..\flexsea-comm\src/flexsea_comm.c **** 
 231:..\..\flexsea-comm\src/flexsea_comm.c ****                     if(checksum == rx_buf_tmp[2+bytes])
 119              		.loc 1 231 0 is_stmt 1
 120 0064 0237     		adds	r7, r7, #2
 121              	.LVL19:
 122 0066 1AAA     		add	r2, sp, #104
 123              	.LVL20:
 124 0068 3A44     		add	r2, r2, r7
 125 006a 12F8642C 		ldrb	r2, [r2, #-100]	@ zero_extendqisi2
 126 006e 9A42     		cmp	r2, r3
 127 0070 1CD0     		beq	.L19
 128 0072 6346     		mov	r3, ip
 129              	.LVL21:
 130 0074 31E0     		b	.L9
 131              	.LVL22:
 132              	.L13:
 232:..\..\flexsea-comm\src/flexsea_comm.c ****                     {
 233:..\..\flexsea-comm\src/flexsea_comm.c ****                     	DEBUG_PRINTF("Checksum matches\n");
 234:..\..\flexsea-comm\src/flexsea_comm.c **** 
 235:..\..\flexsea-comm\src/flexsea_comm.c ****                         //Now we de-escap and de-frame to get the payload
 236:..\..\flexsea-comm\src/flexsea_comm.c ****                         idx = 0;
 237:..\..\flexsea-comm\src/flexsea_comm.c ****                         skip = 0;
 238:..\..\flexsea-comm\src/flexsea_comm.c ****                         for(k = 2; k < (unsigned int)(2+bytes); k++)
 239:..\..\flexsea-comm\src/flexsea_comm.c ****                         {
 240:..\..\flexsea-comm\src/flexsea_comm.c ****                             if(((rx_buf_tmp[k] == HEADER) || (rx_buf_tmp[k] == FOOTER) || (rx_buf_t
 133              		.loc 1 240 0
 134 0076 1AAB     		add	r3, sp, #104
 135 0078 1344     		add	r3, r3, r2
 136 007a 13F8644C 		ldrb	r4, [r3, #-100]	@ zero_extendqisi2
 137 007e 04F11303 		add	r3, r4, #19
 138 0082 DBB2     		uxtb	r3, r3
 139 0084 012B     		cmp	r3, #1
 140 0086 01D9     		bls	.L10
 141              		.loc 1 240 0 is_stmt 0 discriminator 2
 142 0088 E92C     		cmp	r4, #233
 143 008a 02D1     		bne	.L11
 144              	.L10:
 145              		.loc 1 240 0 discriminator 3
 146 008c B8F1000F 		cmp	r8, #0
 147 0090 08D0     		beq	.L20
 148              	.L11:
 149              	.LVL23:
 241:..\..\flexsea-comm\src/flexsea_comm.c ****                             {
 242:..\..\flexsea-comm\src/flexsea_comm.c ****                             	DEBUG_PRINTF("Skipped 1 ESC\n");
 243:..\..\flexsea-comm\src/flexsea_comm.c **** 
 244:..\..\flexsea-comm\src/flexsea_comm.c ****                                 skip = 1;
 245:..\..\flexsea-comm\src/flexsea_comm.c ****                             }
 246:..\..\flexsea-comm\src/flexsea_comm.c ****                             else
ARM GAS  C:\Users\Alex\AppData\Local\Temp\ccr6sH3p.s 			page 8


 247:..\..\flexsea-comm\src/flexsea_comm.c ****                             {
 248:..\..\flexsea-comm\src/flexsea_comm.c ****                                 skip = 0;
 249:..\..\flexsea-comm\src/flexsea_comm.c ****                                 rx_cmd[payload_strings][idx] = rx_buf_tmp[k];
 150              		.loc 1 249 0 is_stmt 1
 151 0092 00EB4003 		add	r3, r0, r0, lsl #1
 152 0096 1B01     		lsls	r3, r3, #4
 153 0098 0B44     		add	r3, r3, r1
 154 009a 5C55     		strb	r4, [r3, r5]
 250:..\..\flexsea-comm\src/flexsea_comm.c ****                                 idx++;
 155              		.loc 1 250 0
 156 009c 0135     		adds	r5, r5, #1
 157              	.LVL24:
 248:..\..\flexsea-comm\src/flexsea_comm.c ****                                 rx_cmd[payload_strings][idx] = rx_buf_tmp[k];
 158              		.loc 1 248 0
 159 009e 4FF00008 		mov	r8, #0
 160 00a2 01E0     		b	.L12
 161              	.LVL25:
 162              	.L20:
 244:..\..\flexsea-comm\src/flexsea_comm.c ****                             }
 163              		.loc 1 244 0
 164 00a4 4FF00108 		mov	r8, #1
 165              	.LVL26:
 166              	.L12:
 238:..\..\flexsea-comm\src/flexsea_comm.c ****                         {
 167              		.loc 1 238 0 discriminator 2
 168 00a8 0132     		adds	r2, r2, #1
 169              	.LVL27:
 170 00aa 03E0     		b	.L8
 171              	.LVL28:
 172              	.L19:
 173 00ac 4FF00008 		mov	r8, #0
 174 00b0 4546     		mov	r5, r8
 175 00b2 0222     		movs	r2, #2
 176              	.LVL29:
 177              	.L8:
 238:..\..\flexsea-comm\src/flexsea_comm.c ****                         {
 178              		.loc 1 238 0 is_stmt 0 discriminator 1
 179 00b4 BA42     		cmp	r2, r7
 180 00b6 DED3     		bcc	.L13
 251:..\..\flexsea-comm\src/flexsea_comm.c ****                             }
 252:..\..\flexsea-comm\src/flexsea_comm.c ****                         }
 253:..\..\flexsea-comm\src/flexsea_comm.c **** 
 254:..\..\flexsea-comm\src/flexsea_comm.c ****                         //At this point we have extracted a valid string
 255:..\..\flexsea-comm\src/flexsea_comm.c ****                         payload_strings++;
 181              		.loc 1 255 0 is_stmt 1
 182 00b8 0130     		adds	r0, r0, #1
 183              	.LVL30:
 184 00ba C0B2     		uxtb	r0, r0
 185              	.LVL31:
 256:..\..\flexsea-comm\src/flexsea_comm.c **** 						cmd_valid++;
 186              		.loc 1 256 0
 187 00bc 0E4A     		ldr	r2, .L22
 188              	.LVL32:
 189 00be 1368     		ldr	r3, [r2]
 190 00c0 0133     		adds	r3, r3, #1
 191 00c2 1360     		str	r3, [r2]
 192              	.LVL33:
ARM GAS  C:\Users\Alex\AppData\Local\Temp\ccr6sH3p.s 			page 9


 257:..\..\flexsea-comm\src/flexsea_comm.c **** 
 258:..\..\flexsea-comm\src/flexsea_comm.c ****                         //Remove the string to avoid double detection
 259:..\..\flexsea-comm\src/flexsea_comm.c ****                         for(h = i; h <= possible_footer_pos; h++)
 193              		.loc 1 259 0
 194 00c4 6346     		mov	r3, ip
 195 00c6 02E0     		b	.L14
 196              	.LVL34:
 197              	.L15:
 260:..\..\flexsea-comm\src/flexsea_comm.c ****                         {
 261:..\..\flexsea-comm\src/flexsea_comm.c ****                             buf[h] = 0;
 198              		.loc 1 261 0 discriminator 3
 199 00c8 0022     		movs	r2, #0
 200 00ca F254     		strb	r2, [r6, r3]
 259:..\..\flexsea-comm\src/flexsea_comm.c ****                         {
 201              		.loc 1 259 0 discriminator 3
 202 00cc 0133     		adds	r3, r3, #1
 203              	.LVL35:
 204              	.L14:
 259:..\..\flexsea-comm\src/flexsea_comm.c ****                         {
 205              		.loc 1 259 0 is_stmt 0 discriminator 1
 206 00ce 7345     		cmp	r3, lr
 207 00d0 FAD9     		bls	.L15
 208 00d2 08E0     		b	.L3
 209              	.LVL36:
 210              	.L16:
 262:..\..\flexsea-comm\src/flexsea_comm.c ****                         }
 263:..\..\flexsea-comm\src/flexsea_comm.c **** 
 264:..\..\flexsea-comm\src/flexsea_comm.c ****                         DEBUG_PRINTF("payload: %s\n",rx_cmd[payload_strings-1]);
 265:..\..\flexsea-comm\src/flexsea_comm.c ****                     }
 266:..\..\flexsea-comm\src/flexsea_comm.c ****                     else
 267:..\..\flexsea-comm\src/flexsea_comm.c ****                     {
 268:..\..\flexsea-comm\src/flexsea_comm.c ****                     	DEBUG_PRINTF("Wrong checksum\n");
 269:..\..\flexsea-comm\src/flexsea_comm.c **** 
 270:..\..\flexsea-comm\src/flexsea_comm.c **** 						//Remove the string to avoid double detection
 271:..\..\flexsea-comm\src/flexsea_comm.c ****                         for(h = i; h <= possible_footer_pos; h++)
 272:..\..\flexsea-comm\src/flexsea_comm.c ****                         {
 273:..\..\flexsea-comm\src/flexsea_comm.c ****                             buf[h] = 0;
 211              		.loc 1 273 0 is_stmt 1 discriminator 3
 212 00d4 0022     		movs	r2, #0
 213 00d6 F254     		strb	r2, [r6, r3]
 271:..\..\flexsea-comm\src/flexsea_comm.c ****                         {
 214              		.loc 1 271 0 discriminator 3
 215 00d8 0133     		adds	r3, r3, #1
 216              	.LVL37:
 217              	.L9:
 271:..\..\flexsea-comm\src/flexsea_comm.c ****                         {
 218              		.loc 1 271 0 is_stmt 0 discriminator 1
 219 00da 7345     		cmp	r3, lr
 220 00dc FAD9     		bls	.L16
 274:..\..\flexsea-comm\src/flexsea_comm.c ****                         }
 275:..\..\flexsea-comm\src/flexsea_comm.c **** 
 276:..\..\flexsea-comm\src/flexsea_comm.c **** 						cmd_bad_checksum++;
 221              		.loc 1 276 0 is_stmt 1
 222 00de 064A     		ldr	r2, .L22
 223 00e0 5368     		ldr	r3, [r2, #4]
 224              	.LVL38:
 225 00e2 0133     		adds	r3, r3, #1
ARM GAS  C:\Users\Alex\AppData\Local\Temp\ccr6sH3p.s 			page 10


 226 00e4 5360     		str	r3, [r2, #4]
 227              	.LVL39:
 228              	.L3:
 185:..\..\flexsea-comm\src/flexsea_comm.c ****     {
 229              		.loc 1 185 0 discriminator 2
 230 00e6 0CF1010C 		add	ip, ip, #1
 231              	.LVL40:
 232              	.L2:
 185:..\..\flexsea-comm\src/flexsea_comm.c ****     {
 233              		.loc 1 185 0 is_stmt 0 discriminator 1
 234 00ea BCF1610F 		cmp	ip, #97
 235 00ee 8ED9     		bls	.L17
 277:..\..\flexsea-comm\src/flexsea_comm.c ****                     }
 278:..\..\flexsea-comm\src/flexsea_comm.c ****                 }
 279:..\..\flexsea-comm\src/flexsea_comm.c ****                 else
 280:..\..\flexsea-comm\src/flexsea_comm.c ****                 {
 281:..\..\flexsea-comm\src/flexsea_comm.c ****                 	DEBUG_PRINTF("Scrap\n");
 282:..\..\flexsea-comm\src/flexsea_comm.c ****                 }
 283:..\..\flexsea-comm\src/flexsea_comm.c ****             }
 284:..\..\flexsea-comm\src/flexsea_comm.c ****             else
 285:..\..\flexsea-comm\src/flexsea_comm.c ****             {
 286:..\..\flexsea-comm\src/flexsea_comm.c ****             	DEBUG_PRINTF("Not enough data (too short)\n");
 287:..\..\flexsea-comm\src/flexsea_comm.c ****             }
 288:..\..\flexsea-comm\src/flexsea_comm.c ****         }
 289:..\..\flexsea-comm\src/flexsea_comm.c ****     }
 290:..\..\flexsea-comm\src/flexsea_comm.c **** 
 291:..\..\flexsea-comm\src/flexsea_comm.c ****     //Returns the number of decoded strings
 292:..\..\flexsea-comm\src/flexsea_comm.c ****     return payload_strings;
 293:..\..\flexsea-comm\src/flexsea_comm.c **** }
 236              		.loc 1 293 0 is_stmt 1
 237 00f0 1AB0     		add	sp, sp, #104
 238              		.cfi_def_cfa_offset 24
 239              		@ sp needed
 240 00f2 BDE8F081 		pop	{r4, r5, r6, r7, r8, pc}
 241              	.LVL41:
 242              	.L23:
 243 00f6 00BF     		.align	2
 244              	.L22:
 245 00f8 00000000 		.word	.LANCHOR0
 246              		.cfi_endproc
 247              	.LFE3:
 248              		.size	unpack_payload, .-unpack_payload
 249              		.section	.text.comm_gen_str,"ax",%progbits
 250              		.align	2
 251              		.global	comm_gen_str
 252              		.thumb
 253              		.thumb_func
 254              		.type	comm_gen_str, %function
 255              	comm_gen_str:
 256              	.LFB0:
  85:..\..\flexsea-comm\src/flexsea_comm.c ****     unsigned int i = 0, escapes = 0, idx = 0, total_bytes = 0;
 257              		.loc 1 85 0
 258              		.cfi_startproc
 259              		@ args = 0, pretend = 0, frame = 0
 260              		@ frame_needed = 0, uses_anonymous_args = 0
 261              	.LVL42:
 262 0000 F0B5     		push	{r4, r5, r6, r7, lr}
ARM GAS  C:\Users\Alex\AppData\Local\Temp\ccr6sH3p.s 			page 11


 263              		.cfi_def_cfa_offset 20
 264              		.cfi_offset 4, -20
 265              		.cfi_offset 5, -16
 266              		.cfi_offset 6, -12
 267              		.cfi_offset 7, -8
 268              		.cfi_offset 14, -4
 269              	.LVL43:
  90:..\..\flexsea-comm\src/flexsea_comm.c ****     {
 270              		.loc 1 90 0
 271 0002 0023     		movs	r3, #0
 272 0004 02E0     		b	.L25
 273              	.LVL44:
 274              	.L26:
  92:..\..\flexsea-comm\src/flexsea_comm.c ****     }
 275              		.loc 1 92 0 discriminator 3
 276 0006 AA24     		movs	r4, #170
 277 0008 CC54     		strb	r4, [r1, r3]
  90:..\..\flexsea-comm\src/flexsea_comm.c ****     {
 278              		.loc 1 90 0 discriminator 3
 279 000a 0133     		adds	r3, r3, #1
 280              	.LVL45:
 281              	.L25:
  90:..\..\flexsea-comm\src/flexsea_comm.c ****     {
 282              		.loc 1 90 0 is_stmt 0 discriminator 1
 283 000c 2F2B     		cmp	r3, #47
 284 000e FAD9     		bls	.L26
 285 0010 0224     		movs	r4, #2
 286 0012 0027     		movs	r7, #0
 287 0014 3B46     		mov	r3, r7
 288              	.LVL46:
 289 0016 14E0     		b	.L27
 290              	.LVL47:
 291              	.L31:
 101:..\..\flexsea-comm\src/flexsea_comm.c ****         {
 292              		.loc 1 101 0 is_stmt 1
 293 0018 00EB030E 		add	lr, r0, r3
 294 001c C65C     		ldrb	r6, [r0, r3]	@ zero_extendqisi2
 295 001e 06F11305 		add	r5, r6, #19
 296 0022 EDB2     		uxtb	r5, r5
 297 0024 012D     		cmp	r5, #1
 298 0026 01D9     		bls	.L28
 101:..\..\flexsea-comm\src/flexsea_comm.c ****         {
 299              		.loc 1 101 0 is_stmt 0 discriminator 1
 300 0028 E92E     		cmp	r6, #233
 301 002a 07D1     		bne	.L29
 302              	.L28:
 103:..\..\flexsea-comm\src/flexsea_comm.c ****             cstr[idx] = ESCAPE;
 303              		.loc 1 103 0 is_stmt 1
 304 002c 0137     		adds	r7, r7, #1
 305              	.LVL48:
 104:..\..\flexsea-comm\src/flexsea_comm.c ****             cstr[idx+1] = payload[i];
 306              		.loc 1 104 0
 307 002e E925     		movs	r5, #233
 308 0030 0D55     		strb	r5, [r1, r4]
 105:..\..\flexsea-comm\src/flexsea_comm.c ****             idx = idx + 1;
 309              		.loc 1 105 0
 310 0032 0134     		adds	r4, r4, #1
ARM GAS  C:\Users\Alex\AppData\Local\Temp\ccr6sH3p.s 			page 12


 311              	.LVL49:
 312 0034 9EF80050 		ldrb	r5, [lr]	@ zero_extendqisi2
 313 0038 0D55     		strb	r5, [r1, r4]
 314              	.LVL50:
 106:..\..\flexsea-comm\src/flexsea_comm.c ****         }
 315              		.loc 1 106 0
 316 003a 00E0     		b	.L30
 317              	.L29:
 110:..\..\flexsea-comm\src/flexsea_comm.c ****         }
 318              		.loc 1 110 0
 319 003c 0E55     		strb	r6, [r1, r4]
 320              	.L30:
 112:..\..\flexsea-comm\src/flexsea_comm.c ****     }
 321              		.loc 1 112 0 discriminator 2
 322 003e 0134     		adds	r4, r4, #1
 323              	.LVL51:
  99:..\..\flexsea-comm\src/flexsea_comm.c ****     {
 324              		.loc 1 99 0 discriminator 2
 325 0040 0133     		adds	r3, r3, #1
 326              	.LVL52:
 327              	.L27:
  99:..\..\flexsea-comm\src/flexsea_comm.c ****     {
 328              		.loc 1 99 0 is_stmt 0 discriminator 1
 329 0042 9A42     		cmp	r2, r3
 330 0044 E8D8     		bhi	.L31
 116:..\..\flexsea-comm\src/flexsea_comm.c **** 
 331              		.loc 1 116 0 is_stmt 1
 332 0046 D419     		adds	r4, r2, r7
 333              	.LVL53:
 121:..\..\flexsea-comm\src/flexsea_comm.c ****     for (i = 0; i < total_bytes; i++)
 334              		.loc 1 121 0
 335 0048 0023     		movs	r3, #0
 122:..\..\flexsea-comm\src/flexsea_comm.c ****     {
 336              		.loc 1 122 0
 337 004a 1A46     		mov	r2, r3
 338              	.LVL54:
 339 004c 04E0     		b	.L32
 340              	.LVL55:
 341              	.L33:
 126:..\..\flexsea-comm\src/flexsea_comm.c ****     }
 342              		.loc 1 126 0 discriminator 3
 343 004e 8818     		adds	r0, r1, r2
 344 0050 8078     		ldrb	r0, [r0, #2]	@ zero_extendqisi2
 345 0052 0344     		add	r3, r3, r0
 346              	.LVL56:
 347 0054 DBB2     		uxtb	r3, r3
 348              	.LVL57:
 122:..\..\flexsea-comm\src/flexsea_comm.c ****     {
 349              		.loc 1 122 0 discriminator 3
 350 0056 0132     		adds	r2, r2, #1
 351              	.LVL58:
 352              	.L32:
 122:..\..\flexsea-comm\src/flexsea_comm.c ****     {
 353              		.loc 1 122 0 is_stmt 0 discriminator 1
 354 0058 A242     		cmp	r2, r4
 355 005a F8D3     		bcc	.L33
 133:..\..\flexsea-comm\src/flexsea_comm.c ****     cstr[1] = total_bytes;
ARM GAS  C:\Users\Alex\AppData\Local\Temp\ccr6sH3p.s 			page 13


 356              		.loc 1 133 0 is_stmt 1
 357 005c ED22     		movs	r2, #237
 358              	.LVL59:
 359 005e 0A70     		strb	r2, [r1]
 134:..\..\flexsea-comm\src/flexsea_comm.c ****     cstr[2 + total_bytes] = checksum;
 360              		.loc 1 134 0
 361 0060 E0B2     		uxtb	r0, r4
 362 0062 4870     		strb	r0, [r1, #1]
 135:..\..\flexsea-comm\src/flexsea_comm.c ****     cstr[3 + total_bytes] = FOOTER;
 363              		.loc 1 135 0
 364 0064 A21C     		adds	r2, r4, #2
 365 0066 8B54     		strb	r3, [r1, r2]
 136:..\..\flexsea-comm\src/flexsea_comm.c **** 
 366              		.loc 1 136 0
 367 0068 0334     		adds	r4, r4, #3
 368              	.LVL60:
 369 006a EE23     		movs	r3, #238
 370              	.LVL61:
 371 006c 0B55     		strb	r3, [r1, r4]
 139:..\..\flexsea-comm\src/flexsea_comm.c **** }
 372              		.loc 1 139 0
 373 006e 0330     		adds	r0, r0, #3
 140:..\..\flexsea-comm\src/flexsea_comm.c **** 
 374              		.loc 1 140 0
 375 0070 C0B2     		uxtb	r0, r0
 376 0072 F0BD     		pop	{r4, r5, r6, r7, pc}
 377              		.cfi_endproc
 378              	.LFE0:
 379              		.size	comm_gen_str, .-comm_gen_str
 380              		.section	.text.unpack_payload_1,"ax",%progbits
 381              		.align	2
 382              		.global	unpack_payload_1
 383              		.thumb
 384              		.thumb_func
 385              		.type	unpack_payload_1, %function
 386              	unpack_payload_1:
 387              	.LFB1:
 146:..\..\flexsea-comm\src/flexsea_comm.c **** 	return unpack_payload(rx_buf_1, rx_command_1);
 388              		.loc 1 146 0
 389              		.cfi_startproc
 390              		@ args = 0, pretend = 0, frame = 0
 391              		@ frame_needed = 0, uses_anonymous_args = 0
 392 0000 08B5     		push	{r3, lr}
 393              		.cfi_def_cfa_offset 8
 394              		.cfi_offset 3, -8
 395              		.cfi_offset 14, -4
 147:..\..\flexsea-comm\src/flexsea_comm.c **** }
 396              		.loc 1 147 0
 397 0002 0248     		ldr	r0, .L37
 398 0004 0249     		ldr	r1, .L37+4
 399 0006 FFF7FEFF 		bl	unpack_payload
 400              	.LVL62:
 148:..\..\flexsea-comm\src/flexsea_comm.c **** #endif	//ENABLE_FLEXSEA_BUF_1
 401              		.loc 1 148 0
 402 000a 08BD     		pop	{r3, pc}
 403              	.L38:
 404              		.align	2
ARM GAS  C:\Users\Alex\AppData\Local\Temp\ccr6sH3p.s 			page 14


 405              	.L37:
 406 000c 00000000 		.word	rx_buf_1
 407 0010 00000000 		.word	rx_command_1
 408              		.cfi_endproc
 409              	.LFE1:
 410              		.size	unpack_payload_1, .-unpack_payload_1
 411              		.section	.text.unpack_payload_2,"ax",%progbits
 412              		.align	2
 413              		.global	unpack_payload_2
 414              		.thumb
 415              		.thumb_func
 416              		.type	unpack_payload_2, %function
 417              	unpack_payload_2:
 418              	.LFB2:
 153:..\..\flexsea-comm\src/flexsea_comm.c **** 	return unpack_payload(rx_buf_2, rx_command_2);
 419              		.loc 1 153 0
 420              		.cfi_startproc
 421              		@ args = 0, pretend = 0, frame = 0
 422              		@ frame_needed = 0, uses_anonymous_args = 0
 423 0000 08B5     		push	{r3, lr}
 424              		.cfi_def_cfa_offset 8
 425              		.cfi_offset 3, -8
 426              		.cfi_offset 14, -4
 154:..\..\flexsea-comm\src/flexsea_comm.c **** }
 427              		.loc 1 154 0
 428 0002 0248     		ldr	r0, .L41
 429 0004 0249     		ldr	r1, .L41+4
 430 0006 FFF7FEFF 		bl	unpack_payload
 431              	.LVL63:
 155:..\..\flexsea-comm\src/flexsea_comm.c **** #endif	//ENABLE_FLEXSEA_BUF_2
 432              		.loc 1 155 0
 433 000a 08BD     		pop	{r3, pc}
 434              	.L42:
 435              		.align	2
 436              	.L41:
 437 000c 00000000 		.word	rx_buf_2
 438 0010 00000000 		.word	rx_command_2
 439              		.cfi_endproc
 440              	.LFE2:
 441              		.size	unpack_payload_2, .-unpack_payload_2
 442              		.comm	slaves_485_2,108,4
 443              		.comm	slaves_485_1,108,4
 444              		.global	cmd_bad_checksum
 445              		.global	cmd_valid
 446              		.comm	rx_command_2,192,4
 447              		.comm	comm_str_2,48,4
 448              		.comm	rx_command_1,192,4
 449              		.comm	comm_str_1,48,4
 450              		.comm	comm_str_tmp,48,4
 451              		.bss
 452              		.align	2
 453              		.set	.LANCHOR0,. + 0
 454              		.type	cmd_valid, %object
 455              		.size	cmd_valid, 4
 456              	cmd_valid:
 457 0000 00000000 		.space	4
 458              		.type	cmd_bad_checksum, %object
ARM GAS  C:\Users\Alex\AppData\Local\Temp\ccr6sH3p.s 			page 15


 459              		.size	cmd_bad_checksum, 4
 460              	cmd_bad_checksum:
 461 0004 00000000 		.space	4
 462              		.text
 463              	.Letext0:
 464              		.file 2 "c:\\program files (x86)\\cypress\\psoc creator\\3.3\\psoc creator\\import\\gnu\\arm\\4.9.
 465              		.file 3 "c:\\program files (x86)\\cypress\\psoc creator\\3.3\\psoc creator\\import\\gnu\\arm\\4.9.
 466              		.file 4 "..\\..\\flexsea-comm\\src\\../inc/flexsea_comm.h"
 467              		.file 5 "..\\..\\flexsea-comm\\src\\../inc/flexsea_buffers.h"