ARM GAS  C:\Users\Alex\AppData\Local\Temp\ccwDTebi.s 			page 1


   1              		.syntax unified
   2              		.cpu cortex-m3
   3              		.fpu softvfp
   4              		.eabi_attribute 20, 1
   5              		.eabi_attribute 21, 1
   6              		.eabi_attribute 23, 3
   7              		.eabi_attribute 24, 1
   8              		.eabi_attribute 25, 1
   9              		.eabi_attribute 26, 1
  10              		.eabi_attribute 30, 1
  11              		.eabi_attribute 34, 1
  12              		.eabi_attribute 18, 4
  13              		.thumb
  14              		.file	"flexsea.c"
  15              		.text
  16              	.Ltext0:
  17              		.cfi_sections	.debug_frame
  18              		.section	.text.clear_rx_command,"ax",%progbits
  19              		.align	2
  20              		.thumb
  21              		.thumb_func
  22              		.type	clear_rx_command, %function
  23              	clear_rx_command:
  24              	.LFB7:
  25              		.file 1 "..\\..\\flexsea-comm\\src\\flexsea.c"
   1:..\..\flexsea-comm\src/flexsea.c **** //****************************************************************************
   2:..\..\flexsea-comm\src/flexsea.c **** // MIT Media Lab - Biomechatronics
   3:..\..\flexsea-comm\src/flexsea.c **** // Jean-Francois (Jeff) Duval
   4:..\..\flexsea-comm\src/flexsea.c **** // jfduval@media.mit.edu
   5:..\..\flexsea-comm\src/flexsea.c **** // 03/2016
   6:..\..\flexsea-comm\src/flexsea.c **** //****************************************************************************
   7:..\..\flexsea-comm\src/flexsea.c **** // flexsea: Master file for the FlexSEA stack.
   8:..\..\flexsea-comm\src/flexsea.c **** //****************************************************************************
   9:..\..\flexsea-comm\src/flexsea.c **** 
  10:..\..\flexsea-comm\src/flexsea.c **** // FlexSEA: Flexible & Scalable Electronics Architecture
  11:..\..\flexsea-comm\src/flexsea.c **** 
  12:..\..\flexsea-comm\src/flexsea.c **** // v0.0 Limitations and known bugs:
  13:..\..\flexsea-comm\src/flexsea.c **** // ================================
  14:..\..\flexsea-comm\src/flexsea.c **** // - The board config is pretty much fixed, at compile time.
  15:..\..\flexsea-comm\src/flexsea.c **** // - Only 1 command per transmission
  16:..\..\flexsea-comm\src/flexsea.c **** // - Fixed payload length: 12 bytes (allows you to send 1 command with up to
  17:..\..\flexsea-comm\src/flexsea.c **** //   8 arguments (uint8) (or 4x uint16))
  18:..\..\flexsea-comm\src/flexsea.c **** // - Fixed comm_str length: 24 bytes (min. to accomodate a payload where all the
  19:..\..\flexsea-comm\src/flexsea.c **** //   data bytes need escaping)
  20:..\..\flexsea-comm\src/flexsea.c **** // - In comm_str #OfBytes isn't escaped. Ok as long as the count is less than
  21:..\..\flexsea-comm\src/flexsea.c **** //   the decimal value of the flags ('a', 'z', 'e') so max 97 bytes.
  22:..\..\flexsea-comm\src/flexsea.c **** // - Data transfer could be faster with shorter ACK sequence, more than 1 command
  23:..\..\flexsea-comm\src/flexsea.c **** //   per packet and no repackaging on the Manage board (straight pass-through)
  24:..\..\flexsea-comm\src/flexsea.c **** //   To be optimized later.
  25:..\..\flexsea-comm\src/flexsea.c **** 
  26:..\..\flexsea-comm\src/flexsea.c **** #ifdef __cplusplus
  27:..\..\flexsea-comm\src/flexsea.c **** extern "C" {
  28:..\..\flexsea-comm\src/flexsea.c **** #endif
  29:..\..\flexsea-comm\src/flexsea.c **** 
  30:..\..\flexsea-comm\src/flexsea.c **** //****************************************************************************
  31:..\..\flexsea-comm\src/flexsea.c **** // Include(s)
  32:..\..\flexsea-comm\src/flexsea.c **** //****************************************************************************
ARM GAS  C:\Users\Alex\AppData\Local\Temp\ccwDTebi.s 			page 2


  33:..\..\flexsea-comm\src/flexsea.c **** 
  34:..\..\flexsea-comm\src/flexsea.c **** //#include <stdio.h>
  35:..\..\flexsea-comm\src/flexsea.c **** //#include <stdlib.h>
  36:..\..\flexsea-comm\src/flexsea.c **** //#include <string.h>
  37:..\..\flexsea-comm\src/flexsea.c **** #include "../inc/flexsea.h"
  38:..\..\flexsea-comm\src/flexsea.c **** #include "flexsea_system.h"
  39:..\..\flexsea-comm\src/flexsea.c **** #include "flexsea_board.h"
  40:..\..\flexsea-comm\src/flexsea.c **** 
  41:..\..\flexsea-comm\src/flexsea.c **** //****************************************************************************
  42:..\..\flexsea-comm\src/flexsea.c **** // Variable(s)
  43:..\..\flexsea-comm\src/flexsea.c **** //****************************************************************************
  44:..\..\flexsea-comm\src/flexsea.c **** 
  45:..\..\flexsea-comm\src/flexsea.c **** unsigned char test_payload[PAYLOAD_BUF_LEN];
  46:..\..\flexsea-comm\src/flexsea.c **** int16_t test_comm_val2_1 = 0, test_comm_val2_2 = 0;
  47:..\..\flexsea-comm\src/flexsea.c **** uint8_t test_comm_mod_1 = 0, test_comm_mod_2 = 0;
  48:..\..\flexsea-comm\src/flexsea.c **** uint32_t packet_received_1 = 0, packet_received_2 = 0;
  49:..\..\flexsea-comm\src/flexsea.c **** 
  50:..\..\flexsea-comm\src/flexsea.c **** //****************************************************************************
  51:..\..\flexsea-comm\src/flexsea.c **** // Private Function Prototype(s)
  52:..\..\flexsea-comm\src/flexsea.c **** //****************************************************************************
  53:..\..\flexsea-comm\src/flexsea.c **** 
  54:..\..\flexsea-comm\src/flexsea.c **** static void clear_rx_command(uint8_t x, uint8_t y, uint8_t rx_cmd[][PACKAGED_PAYLOAD_LEN]);
  55:..\..\flexsea-comm\src/flexsea.c **** 
  56:..\..\flexsea-comm\src/flexsea.c **** //****************************************************************************
  57:..\..\flexsea-comm\src/flexsea.c **** // Public Function(s)
  58:..\..\flexsea-comm\src/flexsea.c **** //****************************************************************************
  59:..\..\flexsea-comm\src/flexsea.c **** 
  60:..\..\flexsea-comm\src/flexsea.c **** //When something goes wrong in the code it will land here:
  61:..\..\flexsea-comm\src/flexsea.c **** unsigned int flexsea_error(unsigned int err_code)
  62:..\..\flexsea-comm\src/flexsea.c **** {
  63:..\..\flexsea-comm\src/flexsea.c **** 	//ToDo something useful
  64:..\..\flexsea-comm\src/flexsea.c **** 	return err_code;
  65:..\..\flexsea-comm\src/flexsea.c **** }
  66:..\..\flexsea-comm\src/flexsea.c **** 
  67:..\..\flexsea-comm\src/flexsea.c **** //From 1 uint32 to 4 uint8
  68:..\..\flexsea-comm\src/flexsea.c **** void uint32_to_bytes(uint32_t x, uint8_t *b0, uint8_t *b1, uint8_t *b2, uint8_t *b3)
  69:..\..\flexsea-comm\src/flexsea.c **** {
  70:..\..\flexsea-comm\src/flexsea.c **** 	*b0 = (uint8_t) ((x >> 24) & 0xFF);
  71:..\..\flexsea-comm\src/flexsea.c **** 	*b1 = (uint8_t) ((x >> 16) & 0xFF);
  72:..\..\flexsea-comm\src/flexsea.c **** 	*b2 = (uint8_t) ((x >> 8) & 0xFF);
  73:..\..\flexsea-comm\src/flexsea.c **** 	*b3 = (uint8_t) (x & 0xFF);
  74:..\..\flexsea-comm\src/flexsea.c **** }
  75:..\..\flexsea-comm\src/flexsea.c **** 
  76:..\..\flexsea-comm\src/flexsea.c **** //From 1 uint16 to 2 uint8
  77:..\..\flexsea-comm\src/flexsea.c **** void uint16_to_bytes(uint32_t x, uint8_t *b0, uint8_t *b1)
  78:..\..\flexsea-comm\src/flexsea.c **** {
  79:..\..\flexsea-comm\src/flexsea.c **** 	*b0 = (uint8_t) ((x >> 8) & 0xFF);
  80:..\..\flexsea-comm\src/flexsea.c **** 	*b1 = (uint8_t) (x & 0xFF);
  81:..\..\flexsea-comm\src/flexsea.c **** }
  82:..\..\flexsea-comm\src/flexsea.c **** 
  83:..\..\flexsea-comm\src/flexsea.c **** //ToDo: look at inline functions
  84:..\..\flexsea-comm\src/flexsea.c **** 
  85:..\..\flexsea-comm\src/flexsea.c **** //Can be used to fill a buffer of any length with any value
  86:..\..\flexsea-comm\src/flexsea.c **** void fill_uint8_buf(uint8_t *buf, uint32_t len, uint8_t filler)
  87:..\..\flexsea-comm\src/flexsea.c **** {
  88:..\..\flexsea-comm\src/flexsea.c **** 	uint32_t i = 0;
  89:..\..\flexsea-comm\src/flexsea.c **** 
ARM GAS  C:\Users\Alex\AppData\Local\Temp\ccwDTebi.s 			page 3


  90:..\..\flexsea-comm\src/flexsea.c **** 	for(i = 0; i < len; i++)
  91:..\..\flexsea-comm\src/flexsea.c **** 	{
  92:..\..\flexsea-comm\src/flexsea.c **** 		buf[i] = filler;
  93:..\..\flexsea-comm\src/flexsea.c **** 	}
  94:..\..\flexsea-comm\src/flexsea.c **** }
  95:..\..\flexsea-comm\src/flexsea.c **** 
  96:..\..\flexsea-comm\src/flexsea.c **** //Quick way to debug the comm functions with the debugger and the terminal.
  97:..\..\flexsea-comm\src/flexsea.c **** //Make sure to enable the printf statements.
  98:..\..\flexsea-comm\src/flexsea.c **** void test_flexsea_stack(void)
  99:..\..\flexsea-comm\src/flexsea.c **** {
 100:..\..\flexsea-comm\src/flexsea.c ****     uint8_t i = 0, res = 0, bytes = 0;
 101:..\..\flexsea-comm\src/flexsea.c **** 
 102:..\..\flexsea-comm\src/flexsea.c ****     //We are using a command that Plan can receive to test the parser too:
 103:..\..\flexsea-comm\src/flexsea.c ****     bytes = tx_cmd_test(FLEXSEA_PLAN_1, CMD_WRITE, test_payload, PAYLOAD_BUF_LEN, 100, 200);
 104:..\..\flexsea-comm\src/flexsea.c ****     //(this fills payload_str[])
 105:..\..\flexsea-comm\src/flexsea.c **** 
 106:..\..\flexsea-comm\src/flexsea.c ****     DEBUG_PRINTF("bytes = %i\n", bytes);
 107:..\..\flexsea-comm\src/flexsea.c **** 
 108:..\..\flexsea-comm\src/flexsea.c ****     //Clear current payload:
 109:..\..\flexsea-comm\src/flexsea.c ****     clear_rx_command(PAYLOAD_BUFFERS, PACKAGED_PAYLOAD_LEN, rx_command_1);
 110:..\..\flexsea-comm\src/flexsea.c **** 
 111:..\..\flexsea-comm\src/flexsea.c ****     //Build comm_str
 112:..\..\flexsea-comm\src/flexsea.c ****     res = comm_gen_str(test_payload, comm_str_1, bytes);
 113:..\..\flexsea-comm\src/flexsea.c **** 
 114:..\..\flexsea-comm\src/flexsea.c ****     DEBUG_PRINTF("comm_str[]: >> %s <<\n", (char*)comm_str_spi);
 115:..\..\flexsea-comm\src/flexsea.c ****     DEBUG_PRINTF("res = %i\n", res);
 116:..\..\flexsea-comm\src/flexsea.c **** 
 117:..\..\flexsea-comm\src/flexsea.c ****     DEBUG_PRINTF("\nrx_buf_spi[]: >> %s <<\n", (char*)rx_buf_spi);
 118:..\..\flexsea-comm\src/flexsea.c **** 
 119:..\..\flexsea-comm\src/flexsea.c ****     //Feed it to the input buffer
 120:..\..\flexsea-comm\src/flexsea.c ****     for(i = 0; i < PACKAGED_PAYLOAD_LEN; i++)
 121:..\..\flexsea-comm\src/flexsea.c ****     {
 122:..\..\flexsea-comm\src/flexsea.c ****         update_rx_buf_byte_1(comm_str_1[i]);
 123:..\..\flexsea-comm\src/flexsea.c ****     }
 124:..\..\flexsea-comm\src/flexsea.c **** 
 125:..\..\flexsea-comm\src/flexsea.c ****     DEBUG_PRINTF("rx_buf_spi[]: >> %s <<\n", (char*)rx_buf_spi);
 126:..\..\flexsea-comm\src/flexsea.c **** 
 127:..\..\flexsea-comm\src/flexsea.c ****     //Try to decode
 128:..\..\flexsea-comm\src/flexsea.c ****     res = unpack_payload_1();
 129:..\..\flexsea-comm\src/flexsea.c **** 
 130:..\..\flexsea-comm\src/flexsea.c ****     DEBUG_PRINTF("Found %i payload(s).\n", res);
 131:..\..\flexsea-comm\src/flexsea.c **** 
 132:..\..\flexsea-comm\src/flexsea.c ****     //Can we parse it?
 133:..\..\flexsea-comm\src/flexsea.c **** 
 134:..\..\flexsea-comm\src/flexsea.c ****     res = payload_parse_str(rx_command_1[0]);
 135:..\..\flexsea-comm\src/flexsea.c **** 
 136:..\..\flexsea-comm\src/flexsea.c ****     //If it works, the console/terminal should display
 137:..\..\flexsea-comm\src/flexsea.c ****     //"Received CMD_TEST. Val1 = 200, Val2 = 100."
 138:..\..\flexsea-comm\src/flexsea.c **** }
 139:..\..\flexsea-comm\src/flexsea.c **** 
 140:..\..\flexsea-comm\src/flexsea.c **** //Transmission of a TEST command
 141:..\..\flexsea-comm\src/flexsea.c **** uint32_t tx_cmd_test(uint8_t receiver, uint8_t cmd_type, uint8_t *buf, uint32_t len, int16_t val1, 
 142:..\..\flexsea-comm\src/flexsea.c **** {
 143:..\..\flexsea-comm\src/flexsea.c **** 	uint8_t tmp0 = 0, tmp1 = 0;
 144:..\..\flexsea-comm\src/flexsea.c **** 	uint32_t bytes = 0;
 145:..\..\flexsea-comm\src/flexsea.c **** 
 146:..\..\flexsea-comm\src/flexsea.c **** 	//Fresh payload string:
ARM GAS  C:\Users\Alex\AppData\Local\Temp\ccwDTebi.s 			page 4


 147:..\..\flexsea-comm\src/flexsea.c **** 	prepare_empty_payload(board_id, receiver, buf, len);
 148:..\..\flexsea-comm\src/flexsea.c **** 
 149:..\..\flexsea-comm\src/flexsea.c **** 	//Command:
 150:..\..\flexsea-comm\src/flexsea.c **** 	buf[P_CMDS] = 1;                     //1 command in string
 151:..\..\flexsea-comm\src/flexsea.c **** 
 152:..\..\flexsea-comm\src/flexsea.c **** 	if(cmd_type == CMD_READ)
 153:..\..\flexsea-comm\src/flexsea.c **** 	{
 154:..\..\flexsea-comm\src/flexsea.c **** 		buf[P_CMD1] = CMD_R(CMD_TEST);
 155:..\..\flexsea-comm\src/flexsea.c **** 
 156:..\..\flexsea-comm\src/flexsea.c **** 		//Arguments - user defined:
 157:..\..\flexsea-comm\src/flexsea.c **** 		uint16_to_bytes(val1, &tmp0, &tmp1);
 158:..\..\flexsea-comm\src/flexsea.c **** 		buf[P_DATA1] = tmp0;
 159:..\..\flexsea-comm\src/flexsea.c **** 		buf[P_DATA1 + 1] = tmp1;
 160:..\..\flexsea-comm\src/flexsea.c **** 		uint16_to_bytes(val2, &tmp0, &tmp1);
 161:..\..\flexsea-comm\src/flexsea.c **** 		buf[P_DATA1 + 2] = tmp0;
 162:..\..\flexsea-comm\src/flexsea.c **** 		buf[P_DATA1 + 3] = tmp1;
 163:..\..\flexsea-comm\src/flexsea.c **** 
 164:..\..\flexsea-comm\src/flexsea.c **** 		//Arguments - fixed:
 165:..\..\flexsea-comm\src/flexsea.c **** 		buf[P_DATA1 + 4] = 50;
 166:..\..\flexsea-comm\src/flexsea.c **** 		buf[P_DATA1 + 5] = 100;
 167:..\..\flexsea-comm\src/flexsea.c **** 		buf[P_DATA1 + 6] = 150;
 168:..\..\flexsea-comm\src/flexsea.c **** 		buf[P_DATA1 + 7] = 200;
 169:..\..\flexsea-comm\src/flexsea.c **** 		buf[P_DATA1 + 8] = 250;
 170:..\..\flexsea-comm\src/flexsea.c **** 		buf[P_DATA1 + 9] = 255;
 171:..\..\flexsea-comm\src/flexsea.c **** 		buf[P_DATA1 + 10] = 0;
 172:..\..\flexsea-comm\src/flexsea.c **** 		buf[P_DATA1 + 11] = 0;
 173:..\..\flexsea-comm\src/flexsea.c **** 
 174:..\..\flexsea-comm\src/flexsea.c **** 		//Argument - modulo:
 175:..\..\flexsea-comm\src/flexsea.c **** 		buf[P_DATA1 + 12] = ((buf[P_DATA1] + buf[P_DATA1 + 1] + buf[P_DATA1 + 4] + buf[P_DATA1 + 6]) % 25
 176:..\..\flexsea-comm\src/flexsea.c **** 
 177:..\..\flexsea-comm\src/flexsea.c **** 		bytes = P_DATA1 + 13;     //Bytes is always last+1
 178:..\..\flexsea-comm\src/flexsea.c **** 
 179:..\..\flexsea-comm\src/flexsea.c **** 	}
 180:..\..\flexsea-comm\src/flexsea.c **** 	else if(cmd_type == CMD_WRITE)
 181:..\..\flexsea-comm\src/flexsea.c **** 	{
 182:..\..\flexsea-comm\src/flexsea.c **** 		buf[P_CMD1] = CMD_W(CMD_TEST);
 183:..\..\flexsea-comm\src/flexsea.c **** 
 184:..\..\flexsea-comm\src/flexsea.c **** 		//Arguments - user defined:
 185:..\..\flexsea-comm\src/flexsea.c **** 		uint16_to_bytes(val1, &tmp0, &tmp1);
 186:..\..\flexsea-comm\src/flexsea.c **** 		buf[P_DATA1] = tmp0;
 187:..\..\flexsea-comm\src/flexsea.c **** 		buf[P_DATA1 + 1] = tmp1;
 188:..\..\flexsea-comm\src/flexsea.c **** 		uint16_to_bytes(val2, &tmp0, &tmp1);
 189:..\..\flexsea-comm\src/flexsea.c **** 		buf[P_DATA1 + 2] = tmp0;
 190:..\..\flexsea-comm\src/flexsea.c **** 		buf[P_DATA1 + 3] = tmp1;
 191:..\..\flexsea-comm\src/flexsea.c **** 
 192:..\..\flexsea-comm\src/flexsea.c **** 		//Arguments - fixed:
 193:..\..\flexsea-comm\src/flexsea.c **** 		buf[P_DATA1 + 4] = 50;
 194:..\..\flexsea-comm\src/flexsea.c **** 		buf[P_DATA1 + 5] = 100;
 195:..\..\flexsea-comm\src/flexsea.c **** 		buf[P_DATA1 + 6] = 150;
 196:..\..\flexsea-comm\src/flexsea.c **** 		buf[P_DATA1 + 7] = 200;
 197:..\..\flexsea-comm\src/flexsea.c **** 		buf[P_DATA1 + 8] = 250;
 198:..\..\flexsea-comm\src/flexsea.c **** 		buf[P_DATA1 + 9] = 255;
 199:..\..\flexsea-comm\src/flexsea.c **** 		buf[P_DATA1 + 10] = 0;
 200:..\..\flexsea-comm\src/flexsea.c **** 		buf[P_DATA1 + 11] = 0;
 201:..\..\flexsea-comm\src/flexsea.c **** 
 202:..\..\flexsea-comm\src/flexsea.c **** 		//Argument - modulo:
 203:..\..\flexsea-comm\src/flexsea.c **** 		buf[P_DATA1 + 12] = ((buf[P_DATA1] + buf[P_DATA1 + 1] + buf[P_DATA1 + 4] + buf[P_DATA1 + 6]) % 25
ARM GAS  C:\Users\Alex\AppData\Local\Temp\ccwDTebi.s 			page 5


 204:..\..\flexsea-comm\src/flexsea.c **** 
 205:..\..\flexsea-comm\src/flexsea.c **** 		bytes = P_DATA1 + 13;     //Bytes is always last+1
 206:..\..\flexsea-comm\src/flexsea.c **** 	}
 207:..\..\flexsea-comm\src/flexsea.c **** 	else
 208:..\..\flexsea-comm\src/flexsea.c **** 	{
 209:..\..\flexsea-comm\src/flexsea.c **** 		//Invalid
 210:..\..\flexsea-comm\src/flexsea.c **** 		flexsea_error(SE_INVALID_READ_TYPE);
 211:..\..\flexsea-comm\src/flexsea.c **** 		bytes = 0;
 212:..\..\flexsea-comm\src/flexsea.c **** 	}
 213:..\..\flexsea-comm\src/flexsea.c **** 
 214:..\..\flexsea-comm\src/flexsea.c **** 	return bytes;
 215:..\..\flexsea-comm\src/flexsea.c **** }
 216:..\..\flexsea-comm\src/flexsea.c **** 
 217:..\..\flexsea-comm\src/flexsea.c **** //Reception of a TEST command
 218:..\..\flexsea-comm\src/flexsea.c **** void rx_cmd_test(uint8_t *buf)
 219:..\..\flexsea-comm\src/flexsea.c **** {
 220:..\..\flexsea-comm\src/flexsea.c **** 	uint32_t numb = 0;
 221:..\..\flexsea-comm\src/flexsea.c **** 	int16_t tmp_val1 = 0, tmp_val2 = 0;
 222:..\..\flexsea-comm\src/flexsea.c **** 	uint8_t mod = 0;
 223:..\..\flexsea-comm\src/flexsea.c **** 
 224:..\..\flexsea-comm\src/flexsea.c **** 	if(IS_CMD_RW(buf[P_CMD1]) == READ)
 225:..\..\flexsea-comm\src/flexsea.c **** 	{
 226:..\..\flexsea-comm\src/flexsea.c **** 		//Received a Read command from our master, prepare a reply:
 227:..\..\flexsea-comm\src/flexsea.c **** 
 228:..\..\flexsea-comm\src/flexsea.c **** 		//Decode user data:
 229:..\..\flexsea-comm\src/flexsea.c **** 		tmp_val1 = (int16_t) (BYTES_TO_UINT16(buf[P_DATA1], buf[P_DATA1+1]));
 230:..\..\flexsea-comm\src/flexsea.c **** 		tmp_val2 = (int16_t) (BYTES_TO_UINT16(buf[P_DATA1+2], buf[P_DATA1+3]));
 231:..\..\flexsea-comm\src/flexsea.c **** 
 232:..\..\flexsea-comm\src/flexsea.c **** 		//Modulo
 233:..\..\flexsea-comm\src/flexsea.c **** 		mod = ((buf[P_DATA1] + buf[P_DATA1 + 1] + buf[P_DATA1 + 4] + buf[P_DATA1 + 6]) % 256);
 234:..\..\flexsea-comm\src/flexsea.c **** 		if(mod == buf[P_DATA1 + 12])
 235:..\..\flexsea-comm\src/flexsea.c **** 		{
 236:..\..\flexsea-comm\src/flexsea.c **** 			//We received a valid command, almost certain it has no errors
 237:..\..\flexsea-comm\src/flexsea.c **** 
 238:..\..\flexsea-comm\src/flexsea.c **** 			#ifdef BOARD_TYPE_FLEXSEA_EXECUTE
 239:..\..\flexsea-comm\src/flexsea.c **** 
 240:..\..\flexsea-comm\src/flexsea.c **** 			numb = tx_cmd_test(buf[P_XID], CMD_WRITE, test_payload, \
 241:..\..\flexsea-comm\src/flexsea.c **** 								PAYLOAD_BUF_LEN, mod, tmp_val2);
 242:..\..\flexsea-comm\src/flexsea.c **** 			numb = comm_gen_str(test_payload, comm_str_485, numb);
 243:..\..\flexsea-comm\src/flexsea.c **** 			numb = COMM_STR_BUF_LEN;
 244:..\..\flexsea-comm\src/flexsea.c **** 			rs485_reply_ready(comm_str_485, numb);
 245:..\..\flexsea-comm\src/flexsea.c **** 
 246:..\..\flexsea-comm\src/flexsea.c **** 			#endif //BOARD_TYPE_FLEXSEA_EXECUTE
 247:..\..\flexsea-comm\src/flexsea.c **** 
 248:..\..\flexsea-comm\src/flexsea.c **** 		}
 249:..\..\flexsea-comm\src/flexsea.c **** 		else
 250:..\..\flexsea-comm\src/flexsea.c **** 		{
 251:..\..\flexsea-comm\src/flexsea.c **** 			//Modulo didn't match... send a constant, 0xAA
 252:..\..\flexsea-comm\src/flexsea.c **** 
 253:..\..\flexsea-comm\src/flexsea.c **** 			#ifdef BOARD_TYPE_FLEXSEA_EXECUTE
 254:..\..\flexsea-comm\src/flexsea.c **** 
 255:..\..\flexsea-comm\src/flexsea.c **** 			numb = tx_cmd_test(buf[P_XID], CMD_WRITE, test_payload, \
 256:..\..\flexsea-comm\src/flexsea.c **** 								PAYLOAD_BUF_LEN, 123, 234);
 257:..\..\flexsea-comm\src/flexsea.c **** 			numb = comm_gen_str(test_payload, comm_str_485, numb);
 258:..\..\flexsea-comm\src/flexsea.c **** 			numb = COMM_STR_BUF_LEN;
 259:..\..\flexsea-comm\src/flexsea.c **** 			rs485_reply_ready(comm_str_485, numb);
 260:..\..\flexsea-comm\src/flexsea.c **** 
ARM GAS  C:\Users\Alex\AppData\Local\Temp\ccwDTebi.s 			page 6


 261:..\..\flexsea-comm\src/flexsea.c **** 			#endif //BOARD_TYPE_FLEXSEA_EXECUTE
 262:..\..\flexsea-comm\src/flexsea.c **** 
 263:..\..\flexsea-comm\src/flexsea.c **** 		}
 264:..\..\flexsea-comm\src/flexsea.c **** 
 265:..\..\flexsea-comm\src/flexsea.c **** 	}
 266:..\..\flexsea-comm\src/flexsea.c **** 	else if(IS_CMD_RW(buf[P_CMD1]) == WRITE)
 267:..\..\flexsea-comm\src/flexsea.c **** 	{
 268:..\..\flexsea-comm\src/flexsea.c **** 		//Two options: from Master of from slave (a read reply)
 269:..\..\flexsea-comm\src/flexsea.c **** 
 270:..\..\flexsea-comm\src/flexsea.c **** 		//Decode data:
 271:..\..\flexsea-comm\src/flexsea.c **** 		tmp_val1 = (int16_t) (BYTES_TO_UINT16(buf[P_DATA1], buf[P_DATA1+1]));
 272:..\..\flexsea-comm\src/flexsea.c **** 		tmp_val2 = (int16_t) (BYTES_TO_UINT16(buf[P_DATA1+2], buf[P_DATA1+3]));
 273:..\..\flexsea-comm\src/flexsea.c **** 		//ToDo store that value somewhere useful
 274:..\..\flexsea-comm\src/flexsea.c **** 
 275:..\..\flexsea-comm\src/flexsea.c **** 		if(sent_from_a_slave(buf))
 276:..\..\flexsea-comm\src/flexsea.c **** 		{
 277:..\..\flexsea-comm\src/flexsea.c **** 			//We received a reply to our read request
 278:..\..\flexsea-comm\src/flexsea.c **** 
 279:..\..\flexsea-comm\src/flexsea.c **** 			if(buf[P_XID] == FLEXSEA_EXECUTE_1)
 280:..\..\flexsea-comm\src/flexsea.c **** 			{
 281:..\..\flexsea-comm\src/flexsea.c **** 				//Increment received packet counter:
 282:..\..\flexsea-comm\src/flexsea.c **** 				packet_received_1++;
 283:..\..\flexsea-comm\src/flexsea.c **** 
 284:..\..\flexsea-comm\src/flexsea.c **** 				//Store values
 285:..\..\flexsea-comm\src/flexsea.c **** 				test_comm_mod_1 = buf[P_DATA1];
 286:..\..\flexsea-comm\src/flexsea.c **** 				test_comm_val2_1 = tmp_val2;
 287:..\..\flexsea-comm\src/flexsea.c **** 			}
 288:..\..\flexsea-comm\src/flexsea.c **** 			else if(buf[P_XID] == FLEXSEA_EXECUTE_2)
 289:..\..\flexsea-comm\src/flexsea.c **** 			{
 290:..\..\flexsea-comm\src/flexsea.c **** 				//Increment received packet counter:
 291:..\..\flexsea-comm\src/flexsea.c **** 				packet_received_2++;
 292:..\..\flexsea-comm\src/flexsea.c **** 
 293:..\..\flexsea-comm\src/flexsea.c **** 				//Store values
 294:..\..\flexsea-comm\src/flexsea.c **** 				test_comm_mod_2 = buf[P_DATA1];
 295:..\..\flexsea-comm\src/flexsea.c **** 				test_comm_val2_2 = tmp_val2;
 296:..\..\flexsea-comm\src/flexsea.c **** 			}
 297:..\..\flexsea-comm\src/flexsea.c **** 
 298:..\..\flexsea-comm\src/flexsea.c **** 			//Store the reply:
 299:..\..\flexsea-comm\src/flexsea.c **** 
 300:..\..\flexsea-comm\src/flexsea.c **** 			DEBUG_PRINTF("Received CMD_TEST_REPLY. Val1 = %i, Val2 = %i.\n", tmp_val1, tmp_val2);
 301:..\..\flexsea-comm\src/flexsea.c **** 		}
 302:..\..\flexsea-comm\src/flexsea.c **** 		else
 303:..\..\flexsea-comm\src/flexsea.c **** 		{
 304:..\..\flexsea-comm\src/flexsea.c **** 			//Master is writing a value to this board
 305:..\..\flexsea-comm\src/flexsea.c **** 
 306:..\..\flexsea-comm\src/flexsea.c **** 			DEBUG_PRINTF("Received CMD_TEST. Val1 = %i, Val2 = %i.\n", tmp_val1, tmp_val2);
 307:..\..\flexsea-comm\src/flexsea.c **** 		}
 308:..\..\flexsea-comm\src/flexsea.c **** 	}
 309:..\..\flexsea-comm\src/flexsea.c **** }
 310:..\..\flexsea-comm\src/flexsea.c **** 
 311:..\..\flexsea-comm\src/flexsea.c **** //****************************************************************************
 312:..\..\flexsea-comm\src/flexsea.c **** // Private Function(s)
 313:..\..\flexsea-comm\src/flexsea.c **** //****************************************************************************
 314:..\..\flexsea-comm\src/flexsea.c **** 
 315:..\..\flexsea-comm\src/flexsea.c **** //Empties the buffer - used by the flexes test function
 316:..\..\flexsea-comm\src/flexsea.c **** static void clear_rx_command(uint8_t x, uint8_t y, uint8_t rx_cmd[][PACKAGED_PAYLOAD_LEN])
 317:..\..\flexsea-comm\src/flexsea.c **** {
ARM GAS  C:\Users\Alex\AppData\Local\Temp\ccwDTebi.s 			page 7


  26              		.loc 1 317 0
  27              		.cfi_startproc
  28              		@ args = 0, pretend = 0, frame = 0
  29              		@ frame_needed = 0, uses_anonymous_args = 0
  30              		@ link register save eliminated.
  31              	.LVL0:
  32 0000 70B4     		push	{r4, r5, r6}
  33              		.cfi_def_cfa_offset 12
  34              		.cfi_offset 4, -12
  35              		.cfi_offset 5, -8
  36              		.cfi_offset 6, -4
  37              	.LVL1:
 318:..\..\flexsea-comm\src/flexsea.c ****     unsigned char i = 0, j = 0;
 319:..\..\flexsea-comm\src/flexsea.c **** 
 320:..\..\flexsea-comm\src/flexsea.c ****     for(i = 0; i < x; i++)
  38              		.loc 1 320 0
  39 0002 0025     		movs	r5, #0
  40 0004 0DE0     		b	.L2
  41              	.LVL2:
  42              	.L3:
 321:..\..\flexsea-comm\src/flexsea.c ****     {
 322:..\..\flexsea-comm\src/flexsea.c ****         for(j = 0; j < y; j++)
 323:..\..\flexsea-comm\src/flexsea.c ****         {
 324:..\..\flexsea-comm\src/flexsea.c ****         	rx_cmd[i][j] = 0;
  43              		.loc 1 324 0 discriminator 3
  44 0006 05EB4504 		add	r4, r5, r5, lsl #1
  45 000a 2401     		lsls	r4, r4, #4
  46 000c 1444     		add	r4, r4, r2
  47 000e 0026     		movs	r6, #0
  48 0010 E654     		strb	r6, [r4, r3]
 322:..\..\flexsea-comm\src/flexsea.c ****         {
  49              		.loc 1 322 0 discriminator 3
  50 0012 0133     		adds	r3, r3, #1
  51              	.LVL3:
  52 0014 DBB2     		uxtb	r3, r3
  53              	.LVL4:
  54 0016 00E0     		b	.L4
  55              	.LVL5:
  56              	.L5:
  57 0018 0023     		movs	r3, #0
  58              	.L4:
  59              	.LVL6:
 322:..\..\flexsea-comm\src/flexsea.c ****         {
  60              		.loc 1 322 0 is_stmt 0 discriminator 1
  61 001a 8B42     		cmp	r3, r1
  62 001c F3D3     		bcc	.L3
 320:..\..\flexsea-comm\src/flexsea.c ****     {
  63              		.loc 1 320 0 is_stmt 1 discriminator 2
  64 001e 0135     		adds	r5, r5, #1
  65              	.LVL7:
  66 0020 EDB2     		uxtb	r5, r5
  67              	.LVL8:
  68              	.L2:
 320:..\..\flexsea-comm\src/flexsea.c ****     {
  69              		.loc 1 320 0 is_stmt 0 discriminator 1
  70 0022 8542     		cmp	r5, r0
  71 0024 F8D3     		bcc	.L5
ARM GAS  C:\Users\Alex\AppData\Local\Temp\ccwDTebi.s 			page 8


 325:..\..\flexsea-comm\src/flexsea.c ****         }
 326:..\..\flexsea-comm\src/flexsea.c ****     }
 327:..\..\flexsea-comm\src/flexsea.c **** }
  72              		.loc 1 327 0 is_stmt 1
  73 0026 70BC     		pop	{r4, r5, r6}
  74              		.cfi_restore 6
  75              		.cfi_restore 5
  76              		.cfi_restore 4
  77              		.cfi_def_cfa_offset 0
  78              	.LVL9:
  79 0028 7047     		bx	lr
  80              		.cfi_endproc
  81              	.LFE7:
  82              		.size	clear_rx_command, .-clear_rx_command
  83 002a 00BF     		.section	.text.flexsea_error,"ax",%progbits
  84              		.align	2
  85              		.global	flexsea_error
  86              		.thumb
  87              		.thumb_func
  88              		.type	flexsea_error, %function
  89              	flexsea_error:
  90              	.LFB0:
  62:..\..\flexsea-comm\src/flexsea.c **** 	//ToDo something useful
  91              		.loc 1 62 0
  92              		.cfi_startproc
  93              		@ args = 0, pretend = 0, frame = 0
  94              		@ frame_needed = 0, uses_anonymous_args = 0
  95              		@ link register save eliminated.
  96              	.LVL10:
  65:..\..\flexsea-comm\src/flexsea.c **** 
  97              		.loc 1 65 0
  98 0000 7047     		bx	lr
  99              		.cfi_endproc
 100              	.LFE0:
 101              		.size	flexsea_error, .-flexsea_error
 102 0002 00BF     		.section	.text.uint32_to_bytes,"ax",%progbits
 103              		.align	2
 104              		.global	uint32_to_bytes
 105              		.thumb
 106              		.thumb_func
 107              		.type	uint32_to_bytes, %function
 108              	uint32_to_bytes:
 109              	.LFB1:
  69:..\..\flexsea-comm\src/flexsea.c **** 	*b0 = (uint8_t) ((x >> 24) & 0xFF);
 110              		.loc 1 69 0
 111              		.cfi_startproc
 112              		@ args = 4, pretend = 0, frame = 0
 113              		@ frame_needed = 0, uses_anonymous_args = 0
 114              		@ link register save eliminated.
 115              	.LVL11:
 116 0000 10B4     		push	{r4}
 117              		.cfi_def_cfa_offset 4
 118              		.cfi_offset 4, -4
  70:..\..\flexsea-comm\src/flexsea.c **** 	*b1 = (uint8_t) ((x >> 16) & 0xFF);
 119              		.loc 1 70 0
 120 0002 040E     		lsrs	r4, r0, #24
 121 0004 0C70     		strb	r4, [r1]
ARM GAS  C:\Users\Alex\AppData\Local\Temp\ccwDTebi.s 			page 9


  71:..\..\flexsea-comm\src/flexsea.c **** 	*b2 = (uint8_t) ((x >> 8) & 0xFF);
 122              		.loc 1 71 0
 123 0006 C0F30741 		ubfx	r1, r0, #16, #8
 124              	.LVL12:
 125 000a 1170     		strb	r1, [r2]
  72:..\..\flexsea-comm\src/flexsea.c **** 	*b3 = (uint8_t) (x & 0xFF);
 126              		.loc 1 72 0
 127 000c C0F30722 		ubfx	r2, r0, #8, #8
 128              	.LVL13:
 129 0010 1A70     		strb	r2, [r3]
  73:..\..\flexsea-comm\src/flexsea.c **** }
 130              		.loc 1 73 0
 131 0012 019B     		ldr	r3, [sp, #4]
 132              	.LVL14:
 133 0014 1870     		strb	r0, [r3]
  74:..\..\flexsea-comm\src/flexsea.c **** 
 134              		.loc 1 74 0
 135 0016 5DF8044B 		ldr	r4, [sp], #4
 136              		.cfi_restore 4
 137              		.cfi_def_cfa_offset 0
 138              	.LVL15:
 139 001a 7047     		bx	lr
 140              		.cfi_endproc
 141              	.LFE1:
 142              		.size	uint32_to_bytes, .-uint32_to_bytes
 143              		.section	.text.uint16_to_bytes,"ax",%progbits
 144              		.align	2
 145              		.global	uint16_to_bytes
 146              		.thumb
 147              		.thumb_func
 148              		.type	uint16_to_bytes, %function
 149              	uint16_to_bytes:
 150              	.LFB2:
  78:..\..\flexsea-comm\src/flexsea.c **** 	*b0 = (uint8_t) ((x >> 8) & 0xFF);
 151              		.loc 1 78 0
 152              		.cfi_startproc
 153              		@ args = 0, pretend = 0, frame = 0
 154              		@ frame_needed = 0, uses_anonymous_args = 0
 155              		@ link register save eliminated.
 156              	.LVL16:
  79:..\..\flexsea-comm\src/flexsea.c **** 	*b1 = (uint8_t) (x & 0xFF);
 157              		.loc 1 79 0
 158 0000 C0F30723 		ubfx	r3, r0, #8, #8
 159 0004 0B70     		strb	r3, [r1]
  80:..\..\flexsea-comm\src/flexsea.c **** }
 160              		.loc 1 80 0
 161 0006 1070     		strb	r0, [r2]
 162 0008 7047     		bx	lr
 163              		.cfi_endproc
 164              	.LFE2:
 165              		.size	uint16_to_bytes, .-uint16_to_bytes
 166 000a 00BF     		.section	.text.fill_uint8_buf,"ax",%progbits
 167              		.align	2
 168              		.global	fill_uint8_buf
 169              		.thumb
 170              		.thumb_func
 171              		.type	fill_uint8_buf, %function
ARM GAS  C:\Users\Alex\AppData\Local\Temp\ccwDTebi.s 			page 10


 172              	fill_uint8_buf:
 173              	.LFB3:
  87:..\..\flexsea-comm\src/flexsea.c **** 	uint32_t i = 0;
 174              		.loc 1 87 0
 175              		.cfi_startproc
 176              		@ args = 0, pretend = 0, frame = 0
 177              		@ frame_needed = 0, uses_anonymous_args = 0
 178              		@ link register save eliminated.
 179              	.LVL17:
  90:..\..\flexsea-comm\src/flexsea.c **** 	{
 180              		.loc 1 90 0
 181 0000 0023     		movs	r3, #0
 182 0002 01E0     		b	.L12
 183              	.LVL18:
 184              	.L13:
  92:..\..\flexsea-comm\src/flexsea.c **** 	}
 185              		.loc 1 92 0 discriminator 3
 186 0004 C254     		strb	r2, [r0, r3]
  90:..\..\flexsea-comm\src/flexsea.c **** 	{
 187              		.loc 1 90 0 discriminator 3
 188 0006 0133     		adds	r3, r3, #1
 189              	.LVL19:
 190              	.L12:
  90:..\..\flexsea-comm\src/flexsea.c **** 	{
 191              		.loc 1 90 0 is_stmt 0 discriminator 1
 192 0008 8B42     		cmp	r3, r1
 193 000a FBD3     		bcc	.L13
  94:..\..\flexsea-comm\src/flexsea.c **** 
 194              		.loc 1 94 0 is_stmt 1
 195 000c 7047     		bx	lr
 196              		.cfi_endproc
 197              	.LFE3:
 198              		.size	fill_uint8_buf, .-fill_uint8_buf
 199 000e 00BF     		.section	.text.tx_cmd_test,"ax",%progbits
 200              		.align	2
 201              		.global	tx_cmd_test
 202              		.thumb
 203              		.thumb_func
 204              		.type	tx_cmd_test, %function
 205              	tx_cmd_test:
 206              	.LFB5:
 142:..\..\flexsea-comm\src/flexsea.c **** 	uint8_t tmp0 = 0, tmp1 = 0;
 207              		.loc 1 142 0
 208              		.cfi_startproc
 209              		@ args = 8, pretend = 0, frame = 8
 210              		@ frame_needed = 0, uses_anonymous_args = 0
 211              	.LVL20:
 212 0000 2DE9F041 		push	{r4, r5, r6, r7, r8, lr}
 213              		.cfi_def_cfa_offset 24
 214              		.cfi_offset 4, -24
 215              		.cfi_offset 5, -20
 216              		.cfi_offset 6, -16
 217              		.cfi_offset 7, -12
 218              		.cfi_offset 8, -8
 219              		.cfi_offset 14, -4
 220 0004 82B0     		sub	sp, sp, #8
 221              		.cfi_def_cfa_offset 32
ARM GAS  C:\Users\Alex\AppData\Local\Temp\ccwDTebi.s 			page 11


 222 0006 0646     		mov	r6, r0
 223 0008 0D46     		mov	r5, r1
 224 000a 1446     		mov	r4, r2
 225 000c BDF92080 		ldrsh	r8, [sp, #32]
 226 0010 BDF92470 		ldrsh	r7, [sp, #36]
 143:..\..\flexsea-comm\src/flexsea.c **** 	uint32_t bytes = 0;
 227              		.loc 1 143 0
 228 0014 0021     		movs	r1, #0
 229              	.LVL21:
 230 0016 8DF80710 		strb	r1, [sp, #7]
 231 001a 8DF80610 		strb	r1, [sp, #6]
 232              	.LVL22:
 147:..\..\flexsea-comm\src/flexsea.c **** 
 233              		.loc 1 147 0
 234 001e 4149     		ldr	r1, .L21
 235 0020 0878     		ldrb	r0, [r1]	@ zero_extendqisi2
 236              	.LVL23:
 237 0022 3146     		mov	r1, r6
 238 0024 FFF7FEFF 		bl	prepare_empty_payload
 239              	.LVL24:
 150:..\..\flexsea-comm\src/flexsea.c **** 
 240              		.loc 1 150 0
 241 0028 0123     		movs	r3, #1
 242 002a A370     		strb	r3, [r4, #2]
 152:..\..\flexsea-comm\src/flexsea.c **** 	{
 243              		.loc 1 152 0
 244 002c 9D42     		cmp	r5, r3
 245 002e 39D1     		bne	.L15
 154:..\..\flexsea-comm\src/flexsea.c **** 
 246              		.loc 1 154 0
 247 0030 0323     		movs	r3, #3
 248 0032 E370     		strb	r3, [r4, #3]
 157:..\..\flexsea-comm\src/flexsea.c **** 		buf[P_DATA1] = tmp0;
 249              		.loc 1 157 0
 250 0034 4046     		mov	r0, r8
 251 0036 0DF10701 		add	r1, sp, #7
 252 003a 0DF10602 		add	r2, sp, #6
 253 003e FFF7FEFF 		bl	uint16_to_bytes
 254              	.LVL25:
 158:..\..\flexsea-comm\src/flexsea.c **** 		buf[P_DATA1 + 1] = tmp1;
 255              		.loc 1 158 0
 256 0042 9DF80730 		ldrb	r3, [sp, #7]	@ zero_extendqisi2
 257 0046 2371     		strb	r3, [r4, #4]
 159:..\..\flexsea-comm\src/flexsea.c **** 		uint16_to_bytes(val2, &tmp0, &tmp1);
 258              		.loc 1 159 0
 259 0048 9DF80630 		ldrb	r3, [sp, #6]	@ zero_extendqisi2
 260 004c 6371     		strb	r3, [r4, #5]
 160:..\..\flexsea-comm\src/flexsea.c **** 		buf[P_DATA1 + 2] = tmp0;
 261              		.loc 1 160 0
 262 004e 3846     		mov	r0, r7
 263 0050 0DF10701 		add	r1, sp, #7
 264 0054 0DF10602 		add	r2, sp, #6
 265 0058 FFF7FEFF 		bl	uint16_to_bytes
 266              	.LVL26:
 161:..\..\flexsea-comm\src/flexsea.c **** 		buf[P_DATA1 + 3] = tmp1;
 267              		.loc 1 161 0
 268 005c 9DF80730 		ldrb	r3, [sp, #7]	@ zero_extendqisi2
ARM GAS  C:\Users\Alex\AppData\Local\Temp\ccwDTebi.s 			page 12


 269 0060 A371     		strb	r3, [r4, #6]
 162:..\..\flexsea-comm\src/flexsea.c **** 
 270              		.loc 1 162 0
 271 0062 9DF80630 		ldrb	r3, [sp, #6]	@ zero_extendqisi2
 272 0066 E371     		strb	r3, [r4, #7]
 165:..\..\flexsea-comm\src/flexsea.c **** 		buf[P_DATA1 + 5] = 100;
 273              		.loc 1 165 0
 274 0068 3223     		movs	r3, #50
 275 006a 2372     		strb	r3, [r4, #8]
 166:..\..\flexsea-comm\src/flexsea.c **** 		buf[P_DATA1 + 6] = 150;
 276              		.loc 1 166 0
 277 006c 6423     		movs	r3, #100
 278 006e 6372     		strb	r3, [r4, #9]
 167:..\..\flexsea-comm\src/flexsea.c **** 		buf[P_DATA1 + 7] = 200;
 279              		.loc 1 167 0
 280 0070 9623     		movs	r3, #150
 281 0072 A372     		strb	r3, [r4, #10]
 168:..\..\flexsea-comm\src/flexsea.c **** 		buf[P_DATA1 + 8] = 250;
 282              		.loc 1 168 0
 283 0074 C823     		movs	r3, #200
 284 0076 E372     		strb	r3, [r4, #11]
 169:..\..\flexsea-comm\src/flexsea.c **** 		buf[P_DATA1 + 9] = 255;
 285              		.loc 1 169 0
 286 0078 FA23     		movs	r3, #250
 287 007a 2373     		strb	r3, [r4, #12]
 170:..\..\flexsea-comm\src/flexsea.c **** 		buf[P_DATA1 + 10] = 0;
 288              		.loc 1 170 0
 289 007c FF23     		movs	r3, #255
 290 007e 6373     		strb	r3, [r4, #13]
 171:..\..\flexsea-comm\src/flexsea.c **** 		buf[P_DATA1 + 11] = 0;
 291              		.loc 1 171 0
 292 0080 0023     		movs	r3, #0
 293 0082 A373     		strb	r3, [r4, #14]
 172:..\..\flexsea-comm\src/flexsea.c **** 
 294              		.loc 1 172 0
 295 0084 E373     		strb	r3, [r4, #15]
 175:..\..\flexsea-comm\src/flexsea.c **** 
 296              		.loc 1 175 0
 297 0086 2279     		ldrb	r2, [r4, #4]	@ zero_extendqisi2
 298 0088 6379     		ldrb	r3, [r4, #5]	@ zero_extendqisi2
 299 008a 1A44     		add	r2, r2, r3
 300 008c C832     		adds	r2, r2, #200
 301 008e 264B     		ldr	r3, .L21+4
 302 0090 1340     		ands	r3, r3, r2
 303 0092 002B     		cmp	r3, #0
 304 0094 03DA     		bge	.L16
 305 0096 013B     		subs	r3, r3, #1
 306 0098 63F0FF03 		orn	r3, r3, #255
 307 009c 0133     		adds	r3, r3, #1
 308              	.L16:
 309 009e 2374     		strb	r3, [r4, #16]
 310              	.LVL27:
 177:..\..\flexsea-comm\src/flexsea.c **** 
 311              		.loc 1 177 0
 312 00a0 1120     		movs	r0, #17
 313 00a2 3CE0     		b	.L17
 314              	.LVL28:
ARM GAS  C:\Users\Alex\AppData\Local\Temp\ccwDTebi.s 			page 13


 315              	.L15:
 180:..\..\flexsea-comm\src/flexsea.c **** 	{
 316              		.loc 1 180 0
 317 00a4 022D     		cmp	r5, #2
 318 00a6 39D1     		bne	.L19
 182:..\..\flexsea-comm\src/flexsea.c **** 
 319              		.loc 1 182 0
 320 00a8 0223     		movs	r3, #2
 321 00aa E370     		strb	r3, [r4, #3]
 185:..\..\flexsea-comm\src/flexsea.c **** 		buf[P_DATA1] = tmp0;
 322              		.loc 1 185 0
 323 00ac 4046     		mov	r0, r8
 324 00ae 0DF10701 		add	r1, sp, #7
 325 00b2 0DF10602 		add	r2, sp, #6
 326 00b6 FFF7FEFF 		bl	uint16_to_bytes
 327              	.LVL29:
 186:..\..\flexsea-comm\src/flexsea.c **** 		buf[P_DATA1 + 1] = tmp1;
 328              		.loc 1 186 0
 329 00ba 9DF80730 		ldrb	r3, [sp, #7]	@ zero_extendqisi2
 330 00be 2371     		strb	r3, [r4, #4]
 187:..\..\flexsea-comm\src/flexsea.c **** 		uint16_to_bytes(val2, &tmp0, &tmp1);
 331              		.loc 1 187 0
 332 00c0 9DF80630 		ldrb	r3, [sp, #6]	@ zero_extendqisi2
 333 00c4 6371     		strb	r3, [r4, #5]
 188:..\..\flexsea-comm\src/flexsea.c **** 		buf[P_DATA1 + 2] = tmp0;
 334              		.loc 1 188 0
 335 00c6 3846     		mov	r0, r7
 336 00c8 0DF10701 		add	r1, sp, #7
 337 00cc 0DF10602 		add	r2, sp, #6
 338 00d0 FFF7FEFF 		bl	uint16_to_bytes
 339              	.LVL30:
 189:..\..\flexsea-comm\src/flexsea.c **** 		buf[P_DATA1 + 3] = tmp1;
 340              		.loc 1 189 0
 341 00d4 9DF80730 		ldrb	r3, [sp, #7]	@ zero_extendqisi2
 342 00d8 A371     		strb	r3, [r4, #6]
 190:..\..\flexsea-comm\src/flexsea.c **** 
 343              		.loc 1 190 0
 344 00da 9DF80630 		ldrb	r3, [sp, #6]	@ zero_extendqisi2
 345 00de E371     		strb	r3, [r4, #7]
 193:..\..\flexsea-comm\src/flexsea.c **** 		buf[P_DATA1 + 5] = 100;
 346              		.loc 1 193 0
 347 00e0 3223     		movs	r3, #50
 348 00e2 2372     		strb	r3, [r4, #8]
 194:..\..\flexsea-comm\src/flexsea.c **** 		buf[P_DATA1 + 6] = 150;
 349              		.loc 1 194 0
 350 00e4 6423     		movs	r3, #100
 351 00e6 6372     		strb	r3, [r4, #9]
 195:..\..\flexsea-comm\src/flexsea.c **** 		buf[P_DATA1 + 7] = 200;
 352              		.loc 1 195 0
 353 00e8 9623     		movs	r3, #150
 354 00ea A372     		strb	r3, [r4, #10]
 196:..\..\flexsea-comm\src/flexsea.c **** 		buf[P_DATA1 + 8] = 250;
 355              		.loc 1 196 0
 356 00ec C823     		movs	r3, #200
 357 00ee E372     		strb	r3, [r4, #11]
 197:..\..\flexsea-comm\src/flexsea.c **** 		buf[P_DATA1 + 9] = 255;
 358              		.loc 1 197 0
ARM GAS  C:\Users\Alex\AppData\Local\Temp\ccwDTebi.s 			page 14


 359 00f0 FA23     		movs	r3, #250
 360 00f2 2373     		strb	r3, [r4, #12]
 198:..\..\flexsea-comm\src/flexsea.c **** 		buf[P_DATA1 + 10] = 0;
 361              		.loc 1 198 0
 362 00f4 FF23     		movs	r3, #255
 363 00f6 6373     		strb	r3, [r4, #13]
 199:..\..\flexsea-comm\src/flexsea.c **** 		buf[P_DATA1 + 11] = 0;
 364              		.loc 1 199 0
 365 00f8 0023     		movs	r3, #0
 366 00fa A373     		strb	r3, [r4, #14]
 200:..\..\flexsea-comm\src/flexsea.c **** 
 367              		.loc 1 200 0
 368 00fc E373     		strb	r3, [r4, #15]
 203:..\..\flexsea-comm\src/flexsea.c **** 
 369              		.loc 1 203 0
 370 00fe 2279     		ldrb	r2, [r4, #4]	@ zero_extendqisi2
 371 0100 6379     		ldrb	r3, [r4, #5]	@ zero_extendqisi2
 372 0102 1A44     		add	r2, r2, r3
 373 0104 C832     		adds	r2, r2, #200
 374 0106 084B     		ldr	r3, .L21+4
 375 0108 1340     		ands	r3, r3, r2
 376 010a 002B     		cmp	r3, #0
 377 010c 03DA     		bge	.L18
 378 010e 013B     		subs	r3, r3, #1
 379 0110 63F0FF03 		orn	r3, r3, #255
 380 0114 0133     		adds	r3, r3, #1
 381              	.L18:
 382 0116 2374     		strb	r3, [r4, #16]
 383              	.LVL31:
 205:..\..\flexsea-comm\src/flexsea.c **** 	}
 384              		.loc 1 205 0
 385 0118 1120     		movs	r0, #17
 386 011a 00E0     		b	.L17
 387              	.LVL32:
 388              	.L19:
 211:..\..\flexsea-comm\src/flexsea.c **** 	}
 389              		.loc 1 211 0
 390 011c 0020     		movs	r0, #0
 391              	.LVL33:
 392              	.L17:
 215:..\..\flexsea-comm\src/flexsea.c **** 
 393              		.loc 1 215 0
 394 011e 02B0     		add	sp, sp, #8
 395              		.cfi_def_cfa_offset 24
 396              		@ sp needed
 397 0120 BDE8F081 		pop	{r4, r5, r6, r7, r8, pc}
 398              	.LVL34:
 399              	.L22:
 400              		.align	2
 401              	.L21:
 402 0124 00000000 		.word	board_id
 403 0128 FF000080 		.word	-2147483393
 404              		.cfi_endproc
 405              	.LFE5:
 406              		.size	tx_cmd_test, .-tx_cmd_test
 407              		.section	.text.test_flexsea_stack,"ax",%progbits
 408              		.align	2
ARM GAS  C:\Users\Alex\AppData\Local\Temp\ccwDTebi.s 			page 15


 409              		.global	test_flexsea_stack
 410              		.thumb
 411              		.thumb_func
 412              		.type	test_flexsea_stack, %function
 413              	test_flexsea_stack:
 414              	.LFB4:
  99:..\..\flexsea-comm\src/flexsea.c ****     uint8_t i = 0, res = 0, bytes = 0;
 415              		.loc 1 99 0
 416              		.cfi_startproc
 417              		@ args = 0, pretend = 0, frame = 0
 418              		@ frame_needed = 0, uses_anonymous_args = 0
 419 0000 30B5     		push	{r4, r5, lr}
 420              		.cfi_def_cfa_offset 12
 421              		.cfi_offset 4, -12
 422              		.cfi_offset 5, -8
 423              		.cfi_offset 14, -4
 424 0002 83B0     		sub	sp, sp, #12
 425              		.cfi_def_cfa_offset 24
 426              	.LVL35:
 103:..\..\flexsea-comm\src/flexsea.c ****     //(this fills payload_str[])
 427              		.loc 1 103 0
 428 0004 134C     		ldr	r4, .L27
 429 0006 6423     		movs	r3, #100
 430 0008 0093     		str	r3, [sp]
 431 000a C823     		movs	r3, #200
 432 000c 0193     		str	r3, [sp, #4]
 433 000e 0A20     		movs	r0, #10
 434 0010 0221     		movs	r1, #2
 435 0012 2246     		mov	r2, r4
 436 0014 2423     		movs	r3, #36
 437 0016 FFF7FEFF 		bl	tx_cmd_test
 438              	.LVL36:
 439 001a C5B2     		uxtb	r5, r0
 440              	.LVL37:
 109:..\..\flexsea-comm\src/flexsea.c **** 
 441              		.loc 1 109 0
 442 001c 0420     		movs	r0, #4
 443 001e 3021     		movs	r1, #48
 444 0020 0D4A     		ldr	r2, .L27+4
 445 0022 FFF7FEFF 		bl	clear_rx_command
 446              	.LVL38:
 112:..\..\flexsea-comm\src/flexsea.c **** 
 447              		.loc 1 112 0
 448 0026 2046     		mov	r0, r4
 449 0028 0C49     		ldr	r1, .L27+8
 450 002a 2A46     		mov	r2, r5
 451 002c FFF7FEFF 		bl	comm_gen_str
 452              	.LVL39:
 120:..\..\flexsea-comm\src/flexsea.c ****     {
 453              		.loc 1 120 0
 454 0030 0024     		movs	r4, #0
 455 0032 05E0     		b	.L24
 456              	.LVL40:
 457              	.L25:
 122:..\..\flexsea-comm\src/flexsea.c ****     }
 458              		.loc 1 122 0 discriminator 3
 459 0034 094B     		ldr	r3, .L27+8
ARM GAS  C:\Users\Alex\AppData\Local\Temp\ccwDTebi.s 			page 16


 460 0036 185D     		ldrb	r0, [r3, r4]	@ zero_extendqisi2
 461 0038 FFF7FEFF 		bl	update_rx_buf_byte_1
 462              	.LVL41:
 120:..\..\flexsea-comm\src/flexsea.c ****     {
 463              		.loc 1 120 0 discriminator 3
 464 003c 0134     		adds	r4, r4, #1
 465              	.LVL42:
 466 003e E4B2     		uxtb	r4, r4
 467              	.LVL43:
 468              	.L24:
 120:..\..\flexsea-comm\src/flexsea.c ****     {
 469              		.loc 1 120 0 is_stmt 0 discriminator 1
 470 0040 2F2C     		cmp	r4, #47
 471 0042 F7D9     		bls	.L25
 128:..\..\flexsea-comm\src/flexsea.c **** 
 472              		.loc 1 128 0 is_stmt 1
 473 0044 FFF7FEFF 		bl	unpack_payload_1
 474              	.LVL44:
 134:..\..\flexsea-comm\src/flexsea.c **** 
 475              		.loc 1 134 0
 476 0048 0348     		ldr	r0, .L27+4
 477 004a FFF7FEFF 		bl	payload_parse_str
 478              	.LVL45:
 138:..\..\flexsea-comm\src/flexsea.c **** 
 479              		.loc 1 138 0
 480 004e 03B0     		add	sp, sp, #12
 481              		.cfi_def_cfa_offset 12
 482              		@ sp needed
 483 0050 30BD     		pop	{r4, r5, pc}
 484              	.LVL46:
 485              	.L28:
 486 0052 00BF     		.align	2
 487              	.L27:
 488 0054 00000000 		.word	test_payload
 489 0058 00000000 		.word	rx_command_1
 490 005c 00000000 		.word	comm_str_1
 491              		.cfi_endproc
 492              	.LFE4:
 493              		.size	test_flexsea_stack, .-test_flexsea_stack
 494              		.section	.text.rx_cmd_test,"ax",%progbits
 495              		.align	2
 496              		.global	rx_cmd_test
 497              		.thumb
 498              		.thumb_func
 499              		.type	rx_cmd_test, %function
 500              	rx_cmd_test:
 501              	.LFB6:
 219:..\..\flexsea-comm\src/flexsea.c **** 	uint32_t numb = 0;
 502              		.loc 1 219 0
 503              		.cfi_startproc
 504              		@ args = 0, pretend = 0, frame = 0
 505              		@ frame_needed = 0, uses_anonymous_args = 0
 506              	.LVL47:
 507 0000 30B5     		push	{r4, r5, lr}
 508              		.cfi_def_cfa_offset 12
 509              		.cfi_offset 4, -12
 510              		.cfi_offset 5, -8
ARM GAS  C:\Users\Alex\AppData\Local\Temp\ccwDTebi.s 			page 17


 511              		.cfi_offset 14, -4
 512 0002 83B0     		sub	sp, sp, #12
 513              		.cfi_def_cfa_offset 24
 514 0004 0446     		mov	r4, r0
 515              	.LVL48:
 224:..\..\flexsea-comm\src/flexsea.c **** 	{
 516              		.loc 1 224 0
 517 0006 C378     		ldrb	r3, [r0, #3]	@ zero_extendqisi2
 518 0008 13F00103 		ands	r3, r3, #1
 519 000c 42D0     		beq	.L30
 520              	.LVL49:
 230:..\..\flexsea-comm\src/flexsea.c **** 
 521              		.loc 1 230 0
 522 000e 8279     		ldrb	r2, [r0, #6]	@ zero_extendqisi2
 523 0010 C379     		ldrb	r3, [r0, #7]	@ zero_extendqisi2
 524 0012 03EB0223 		add	r3, r3, r2, lsl #8
 525 0016 9AB2     		uxth	r2, r3
 526              	.LVL50:
 233:..\..\flexsea-comm\src/flexsea.c **** 		if(mod == buf[P_DATA1 + 12])
 527              		.loc 1 233 0
 528 0018 0179     		ldrb	r1, [r0, #4]	@ zero_extendqisi2
 529 001a 4379     		ldrb	r3, [r0, #5]	@ zero_extendqisi2
 530 001c 1944     		add	r1, r1, r3
 531 001e 037A     		ldrb	r3, [r0, #8]	@ zero_extendqisi2
 532 0020 1944     		add	r1, r1, r3
 533 0022 837A     		ldrb	r3, [r0, #10]	@ zero_extendqisi2
 534 0024 1944     		add	r1, r1, r3
 535 0026 2B4B     		ldr	r3, .L36
 536 0028 0B40     		ands	r3, r3, r1
 537 002a 002B     		cmp	r3, #0
 538 002c 03DA     		bge	.L31
 539 002e 013B     		subs	r3, r3, #1
 540 0030 63F0FF03 		orn	r3, r3, #255
 541 0034 0133     		adds	r3, r3, #1
 542              	.L31:
 543 0036 DBB2     		uxtb	r3, r3
 544              	.LVL51:
 234:..\..\flexsea-comm\src/flexsea.c **** 		{
 545              		.loc 1 234 0
 546 0038 217C     		ldrb	r1, [r4, #16]	@ zero_extendqisi2
 547 003a 9942     		cmp	r1, r3
 548 003c 14D1     		bne	.L32
 240:..\..\flexsea-comm\src/flexsea.c **** 								PAYLOAD_BUF_LEN, mod, tmp_val2);
 549              		.loc 1 240 0
 550 003e 2078     		ldrb	r0, [r4]	@ zero_extendqisi2
 551              	.LVL52:
 552 0040 254D     		ldr	r5, .L36+4
 553 0042 0093     		str	r3, [sp]
 554              	.LVL53:
 555 0044 13B2     		sxth	r3, r2
 556              	.LVL54:
 557 0046 0193     		str	r3, [sp, #4]
 558 0048 0221     		movs	r1, #2
 559 004a 2A46     		mov	r2, r5
 560              	.LVL55:
 561 004c 2423     		movs	r3, #36
 562              	.LVL56:
ARM GAS  C:\Users\Alex\AppData\Local\Temp\ccwDTebi.s 			page 18


 563 004e FFF7FEFF 		bl	tx_cmd_test
 564              	.LVL57:
 242:..\..\flexsea-comm\src/flexsea.c **** 			numb = COMM_STR_BUF_LEN;
 565              		.loc 1 242 0
 566 0052 224C     		ldr	r4, .L36+8
 567              	.LVL58:
 568 0054 C2B2     		uxtb	r2, r0
 569 0056 2846     		mov	r0, r5
 570              	.LVL59:
 571 0058 2146     		mov	r1, r4
 572 005a FFF7FEFF 		bl	comm_gen_str
 573              	.LVL60:
 244:..\..\flexsea-comm\src/flexsea.c **** 
 574              		.loc 1 244 0
 575 005e 2046     		mov	r0, r4
 576 0060 3021     		movs	r1, #48
 577 0062 FFF7FEFF 		bl	rs485_reply_ready
 578              	.LVL61:
 579 0066 32E0     		b	.L29
 580              	.LVL62:
 581              	.L32:
 255:..\..\flexsea-comm\src/flexsea.c **** 								PAYLOAD_BUF_LEN, 123, 234);
 582              		.loc 1 255 0
 583 0068 2078     		ldrb	r0, [r4]	@ zero_extendqisi2
 584              	.LVL63:
 585 006a 1B4D     		ldr	r5, .L36+4
 586 006c 7B23     		movs	r3, #123
 587              	.LVL64:
 588 006e 0093     		str	r3, [sp]
 589              	.LVL65:
 590 0070 EA23     		movs	r3, #234
 591 0072 0193     		str	r3, [sp, #4]
 592 0074 0221     		movs	r1, #2
 593 0076 2A46     		mov	r2, r5
 594              	.LVL66:
 595 0078 2423     		movs	r3, #36
 596 007a FFF7FEFF 		bl	tx_cmd_test
 597              	.LVL67:
 257:..\..\flexsea-comm\src/flexsea.c **** 			numb = COMM_STR_BUF_LEN;
 598              		.loc 1 257 0
 599 007e 174C     		ldr	r4, .L36+8
 600              	.LVL68:
 601 0080 C2B2     		uxtb	r2, r0
 602 0082 2846     		mov	r0, r5
 603              	.LVL69:
 604 0084 2146     		mov	r1, r4
 605 0086 FFF7FEFF 		bl	comm_gen_str
 606              	.LVL70:
 259:..\..\flexsea-comm\src/flexsea.c **** 
 607              		.loc 1 259 0
 608 008a 2046     		mov	r0, r4
 609 008c 3021     		movs	r1, #48
 610 008e FFF7FEFF 		bl	rs485_reply_ready
 611              	.LVL71:
 612 0092 1CE0     		b	.L29
 613              	.LVL72:
 614              	.L30:
ARM GAS  C:\Users\Alex\AppData\Local\Temp\ccwDTebi.s 			page 19


 266:..\..\flexsea-comm\src/flexsea.c **** 	{
 615              		.loc 1 266 0
 616 0094 DBB9     		cbnz	r3, .L29
 617              	.LVL73:
 272:..\..\flexsea-comm\src/flexsea.c **** 		//ToDo store that value somewhere useful
 618              		.loc 1 272 0
 619 0096 8279     		ldrb	r2, [r0, #6]	@ zero_extendqisi2
 620 0098 C379     		ldrb	r3, [r0, #7]	@ zero_extendqisi2
 621 009a 03EB0223 		add	r3, r3, r2, lsl #8
 622 009e 9DB2     		uxth	r5, r3
 623              	.LVL74:
 275:..\..\flexsea-comm\src/flexsea.c **** 		{
 624              		.loc 1 275 0
 625 00a0 FFF7FEFF 		bl	sent_from_a_slave
 626              	.LVL75:
 627 00a4 98B1     		cbz	r0, .L29
 279:..\..\flexsea-comm\src/flexsea.c **** 			{
 628              		.loc 1 279 0
 629 00a6 2378     		ldrb	r3, [r4]	@ zero_extendqisi2
 630 00a8 282B     		cmp	r3, #40
 631 00aa 07D1     		bne	.L34
 282:..\..\flexsea-comm\src/flexsea.c **** 
 632              		.loc 1 282 0
 633 00ac 0C4B     		ldr	r3, .L36+12
 634 00ae 1A68     		ldr	r2, [r3]
 635 00b0 0132     		adds	r2, r2, #1
 636 00b2 1A60     		str	r2, [r3]
 285:..\..\flexsea-comm\src/flexsea.c **** 				test_comm_val2_1 = tmp_val2;
 637              		.loc 1 285 0
 638 00b4 2279     		ldrb	r2, [r4, #4]	@ zero_extendqisi2
 639 00b6 1A71     		strb	r2, [r3, #4]
 286:..\..\flexsea-comm\src/flexsea.c **** 			}
 640              		.loc 1 286 0
 641 00b8 DD80     		strh	r5, [r3, #6]	@ movhi
 642 00ba 08E0     		b	.L29
 643              	.L34:
 288:..\..\flexsea-comm\src/flexsea.c **** 			{
 644              		.loc 1 288 0
 645 00bc 292B     		cmp	r3, #41
 646 00be 06D1     		bne	.L29
 291:..\..\flexsea-comm\src/flexsea.c **** 
 647              		.loc 1 291 0
 648 00c0 074B     		ldr	r3, .L36+12
 649 00c2 9A68     		ldr	r2, [r3, #8]
 650 00c4 0132     		adds	r2, r2, #1
 651 00c6 9A60     		str	r2, [r3, #8]
 294:..\..\flexsea-comm\src/flexsea.c **** 				test_comm_val2_2 = tmp_val2;
 652              		.loc 1 294 0
 653 00c8 2279     		ldrb	r2, [r4, #4]	@ zero_extendqisi2
 654 00ca 1A73     		strb	r2, [r3, #12]
 295:..\..\flexsea-comm\src/flexsea.c **** 			}
 655              		.loc 1 295 0
 656 00cc DD81     		strh	r5, [r3, #14]	@ movhi
 657              	.LVL76:
 658              	.L29:
 309:..\..\flexsea-comm\src/flexsea.c **** 
 659              		.loc 1 309 0
ARM GAS  C:\Users\Alex\AppData\Local\Temp\ccwDTebi.s 			page 20


 660 00ce 03B0     		add	sp, sp, #12
 661              		.cfi_def_cfa_offset 12
 662              		@ sp needed
 663 00d0 30BD     		pop	{r4, r5, pc}
 664              	.L37:
 665 00d2 00BF     		.align	2
 666              	.L36:
 667 00d4 FF000080 		.word	-2147483393
 668 00d8 00000000 		.word	test_payload
 669 00dc 00000000 		.word	comm_str_1
 670 00e0 00000000 		.word	.LANCHOR0
 671              		.cfi_endproc
 672              	.LFE6:
 673              		.size	rx_cmd_test, .-rx_cmd_test
 674              		.global	packet_received_2
 675              		.global	packet_received_1
 676              		.global	test_comm_mod_2
 677              		.global	test_comm_mod_1
 678              		.global	test_comm_val2_2
 679              		.global	test_comm_val2_1
 680              		.comm	test_payload,36,4
 681              		.bss
 682              		.align	2
 683              		.set	.LANCHOR0,. + 0
 684              		.type	packet_received_1, %object
 685              		.size	packet_received_1, 4
 686              	packet_received_1:
 687 0000 00000000 		.space	4
 688              		.type	test_comm_mod_1, %object
 689              		.size	test_comm_mod_1, 1
 690              	test_comm_mod_1:
 691 0004 00       		.space	1
 692 0005 00       		.space	1
 693              		.type	test_comm_val2_1, %object
 694              		.size	test_comm_val2_1, 2
 695              	test_comm_val2_1:
 696 0006 0000     		.space	2
 697              		.type	packet_received_2, %object
 698              		.size	packet_received_2, 4
 699              	packet_received_2:
 700 0008 00000000 		.space	4
 701              		.type	test_comm_mod_2, %object
 702              		.size	test_comm_mod_2, 1
 703              	test_comm_mod_2:
 704 000c 00       		.space	1
 705 000d 00       		.space	1
 706              		.type	test_comm_val2_2, %object
 707              		.size	test_comm_val2_2, 2
 708              	test_comm_val2_2:
 709 000e 0000     		.space	2
 710              		.text
 711              	.Letext0:
 712              		.file 2 "c:\\program files (x86)\\cypress\\psoc creator\\3.3\\psoc creator\\import\\gnu\\arm\\4.9.
 713              		.file 3 "c:\\program files (x86)\\cypress\\psoc creator\\3.3\\psoc creator\\import\\gnu\\arm\\4.9.
 714              		.file 4 "..\\inc/flexsea_board.h"
 715              		.file 5 "..\\..\\flexsea-comm\\src\\../inc/flexsea_comm.h"
 716              		.file 6 "..\\..\\flexsea-comm\\src\\../inc/flexsea_payload.h"
ARM GAS  C:\Users\Alex\AppData\Local\Temp\ccwDTebi.s 			page 21


 717              		.file 7 "..\\..\\flexsea-comm\\src\\../inc/flexsea_buffers.h"