ARM GAS  C:\Users\Alex\AppData\Local\Temp\cchBAlOP.s 			page 1


   1              		.syntax unified
   2              		.cpu cortex-m3
   3              		.fpu softvfp
   4              		.eabi_attribute 20, 1
   5              		.eabi_attribute 21, 1
   6              		.eabi_attribute 23, 3
   7              		.eabi_attribute 24, 1
   8              		.eabi_attribute 25, 1
   9              		.eabi_attribute 26, 1
  10              		.eabi_attribute 30, 1
  11              		.eabi_attribute 34, 1
  12              		.eabi_attribute 18, 4
  13              		.thumb
  14              		.file	"flexsea_cmd_control.c"
  15              		.text
  16              	.Ltext0:
  17              		.cfi_sections	.debug_frame
  18              		.global _printf_float
  19              		.thumb
  20              		.section	.text.tx_cmd_ctrl_mode,"ax",%progbits
  21              		.align	2
  22              		.global	tx_cmd_ctrl_mode
  23              		.thumb
  24              		.thumb_func
  25              		.type	tx_cmd_ctrl_mode, %function
  26              	tx_cmd_ctrl_mode:
  27              	.LFB63:
  28              		.file 1 "..\\..\\flexsea-system\\src\\flexsea_cmd_control.c"
   1:..\..\flexsea-system\src/flexsea_cmd_control.c **** //****************************************************************************
   2:..\..\flexsea-system\src/flexsea_cmd_control.c **** // MIT Media Lab - Biomechatronics
   3:..\..\flexsea-system\src/flexsea_cmd_control.c **** // Jean-Francois (Jeff) Duval
   4:..\..\flexsea-system\src/flexsea_cmd_control.c **** // jfduval@media.mit.edu
   5:..\..\flexsea-system\src/flexsea_cmd_control.c **** // 04/2016
   6:..\..\flexsea-system\src/flexsea_cmd_control.c **** //****************************************************************************
   7:..\..\flexsea-system\src/flexsea_cmd_control.c **** // flexsea_cmd_control: commands specific to the motor & control
   8:..\..\flexsea-system\src/flexsea_cmd_control.c **** //****************************************************************************
   9:..\..\flexsea-system\src/flexsea_cmd_control.c **** 
  10:..\..\flexsea-system\src/flexsea_cmd_control.c **** #ifdef __cplusplus
  11:..\..\flexsea-system\src/flexsea_cmd_control.c **** extern "C" {
  12:..\..\flexsea-system\src/flexsea_cmd_control.c **** #endif
  13:..\..\flexsea-system\src/flexsea_cmd_control.c **** 
  14:..\..\flexsea-system\src/flexsea_cmd_control.c **** //****************************************************************************
  15:..\..\flexsea-system\src/flexsea_cmd_control.c **** // Include(s)
  16:..\..\flexsea-system\src/flexsea_cmd_control.c **** //****************************************************************************
  17:..\..\flexsea-system\src/flexsea_cmd_control.c **** 
  18:..\..\flexsea-system\src/flexsea_cmd_control.c **** #include <stdio.h>
  19:..\..\flexsea-system\src/flexsea_cmd_control.c **** #include <stdlib.h>
  20:..\..\flexsea-system\src/flexsea_cmd_control.c **** #include "../inc/flexsea_system.h"
  21:..\..\flexsea-system\src/flexsea_cmd_control.c **** #include "../inc/flexsea_cmd_control.h"
  22:..\..\flexsea-system\src/flexsea_cmd_control.c **** 
  23:..\..\flexsea-system\src/flexsea_cmd_control.c **** //Plan boards only:
  24:..\..\flexsea-system\src/flexsea_cmd_control.c **** #ifdef BOARD_TYPE_FLEXSEA_PLAN
  25:..\..\flexsea-system\src/flexsea_cmd_control.c **** //...
  26:..\..\flexsea-system\src/flexsea_cmd_control.c **** #endif	//BOARD_TYPE_FLEXSEA_PLAN
  27:..\..\flexsea-system\src/flexsea_cmd_control.c **** 
  28:..\..\flexsea-system\src/flexsea_cmd_control.c **** //Manage boards only:
  29:..\..\flexsea-system\src/flexsea_cmd_control.c **** #ifdef BOARD_TYPE_FLEXSEA_MANAGE
ARM GAS  C:\Users\Alex\AppData\Local\Temp\cchBAlOP.s 			page 2


  30:..\..\flexsea-system\src/flexsea_cmd_control.c **** //...
  31:..\..\flexsea-system\src/flexsea_cmd_control.c **** #endif	//BOARD_TYPE_FLEXSEA_MANAGE
  32:..\..\flexsea-system\src/flexsea_cmd_control.c **** 
  33:..\..\flexsea-system\src/flexsea_cmd_control.c **** //Execute boards only:
  34:..\..\flexsea-system\src/flexsea_cmd_control.c **** #ifdef BOARD_TYPE_FLEXSEA_EXECUTE
  35:..\..\flexsea-system\src/flexsea_cmd_control.c **** #include "main.h"
  36:..\..\flexsea-system\src/flexsea_cmd_control.c **** #endif	//BOARD_TYPE_FLEXSEA_EXECUTE
  37:..\..\flexsea-system\src/flexsea_cmd_control.c **** 
  38:..\..\flexsea-system\src/flexsea_cmd_control.c **** //****************************************************************************
  39:..\..\flexsea-system\src/flexsea_cmd_control.c **** // Variable(s)
  40:..\..\flexsea-system\src/flexsea_cmd_control.c **** //****************************************************************************
  41:..\..\flexsea-system\src/flexsea_cmd_control.c **** 
  42:..\..\flexsea-system\src/flexsea_cmd_control.c **** //Will change this, but for now the payloads will be stored in:
  43:..\..\flexsea-system\src/flexsea_cmd_control.c **** unsigned char tmp_payload_xmit[PAYLOAD_BUF_LEN];
  44:..\..\flexsea-system\src/flexsea_cmd_control.c **** 
  45:..\..\flexsea-system\src/flexsea_cmd_control.c **** //****************************************************************************
  46:..\..\flexsea-system\src/flexsea_cmd_control.c **** // Function(s)
  47:..\..\flexsea-system\src/flexsea_cmd_control.c **** //****************************************************************************
  48:..\..\flexsea-system\src/flexsea_cmd_control.c **** 
  49:..\..\flexsea-system\src/flexsea_cmd_control.c **** //Transmission of a CTRL_MODE command
  50:..\..\flexsea-system\src/flexsea_cmd_control.c **** uint32_t tx_cmd_ctrl_mode(uint8_t receiver, uint8_t cmd_type, uint8_t *buf, uint32_t len, int16_t c
  51:..\..\flexsea-system\src/flexsea_cmd_control.c **** {
  29              		.loc 1 51 0
  30              		.cfi_startproc
  31              		@ args = 4, pretend = 0, frame = 0
  32              		@ frame_needed = 0, uses_anonymous_args = 0
  33              	.LVL0:
  34 0000 70B5     		push	{r4, r5, r6, lr}
  35              		.cfi_def_cfa_offset 16
  36              		.cfi_offset 4, -16
  37              		.cfi_offset 5, -12
  38              		.cfi_offset 6, -8
  39              		.cfi_offset 14, -4
  40 0002 0646     		mov	r6, r0
  41 0004 0D46     		mov	r5, r1
  42 0006 1446     		mov	r4, r2
  43              	.LVL1:
  52:..\..\flexsea-system\src/flexsea_cmd_control.c **** 	uint32_t bytes = 0;
  53:..\..\flexsea-system\src/flexsea_cmd_control.c **** 
  54:..\..\flexsea-system\src/flexsea_cmd_control.c **** 	//Fresh payload string:
  55:..\..\flexsea-system\src/flexsea_cmd_control.c **** 	prepare_empty_payload(board_id, receiver, buf, len);
  44              		.loc 1 55 0
  45 0008 0D49     		ldr	r1, .L6
  46              	.LVL2:
  47 000a 0878     		ldrb	r0, [r1]	@ zero_extendqisi2
  48              	.LVL3:
  49 000c 3146     		mov	r1, r6
  50 000e FFF7FEFF 		bl	prepare_empty_payload
  51              	.LVL4:
  56:..\..\flexsea-system\src/flexsea_cmd_control.c **** 
  57:..\..\flexsea-system\src/flexsea_cmd_control.c **** 	//Command:
  58:..\..\flexsea-system\src/flexsea_cmd_control.c **** 	buf[P_CMDS] = 1;                     //1 command in string
  52              		.loc 1 58 0
  53 0012 0123     		movs	r3, #1
  54 0014 A370     		strb	r3, [r4, #2]
  59:..\..\flexsea-system\src/flexsea_cmd_control.c **** 
  60:..\..\flexsea-system\src/flexsea_cmd_control.c **** 	if(cmd_type == CMD_READ)
ARM GAS  C:\Users\Alex\AppData\Local\Temp\cchBAlOP.s 			page 3


  55              		.loc 1 60 0
  56 0016 9D42     		cmp	r5, r3
  57 0018 03D1     		bne	.L2
  61:..\..\flexsea-system\src/flexsea_cmd_control.c **** 	{
  62:..\..\flexsea-system\src/flexsea_cmd_control.c **** 		buf[P_CMD1] = CMD_R(CMD_CTRL_MODE);
  58              		.loc 1 62 0
  59 001a A123     		movs	r3, #161
  60 001c E370     		strb	r3, [r4, #3]
  61              	.LVL5:
  63:..\..\flexsea-system\src/flexsea_cmd_control.c **** 
  64:..\..\flexsea-system\src/flexsea_cmd_control.c **** 		bytes = P_CMD1 + 1;     //Bytes is always last+1
  62              		.loc 1 64 0
  63 001e 0420     		movs	r0, #4
  64 0020 70BD     		pop	{r4, r5, r6, pc}
  65              	.LVL6:
  66              	.L2:
  65:..\..\flexsea-system\src/flexsea_cmd_control.c **** 	}
  66:..\..\flexsea-system\src/flexsea_cmd_control.c **** 	else if(cmd_type == CMD_WRITE)
  67              		.loc 1 66 0
  68 0022 022D     		cmp	r5, #2
  69 0024 06D1     		bne	.L4
  67:..\..\flexsea-system\src/flexsea_cmd_control.c **** 	{
  68:..\..\flexsea-system\src/flexsea_cmd_control.c **** 		buf[P_CMD1] = CMD_W(CMD_CTRL_MODE);
  70              		.loc 1 68 0
  71 0026 A023     		movs	r3, #160
  72 0028 E370     		strb	r3, [r4, #3]
  69:..\..\flexsea-system\src/flexsea_cmd_control.c **** 
  70:..\..\flexsea-system\src/flexsea_cmd_control.c **** 		//Arguments:
  71:..\..\flexsea-system\src/flexsea_cmd_control.c **** 		buf[P_DATA1] = ctrl;
  73              		.loc 1 71 0
  74 002a BDF91030 		ldrsh	r3, [sp, #16]
  75 002e 2371     		strb	r3, [r4, #4]
  76              	.LVL7:
  72:..\..\flexsea-system\src/flexsea_cmd_control.c **** 
  73:..\..\flexsea-system\src/flexsea_cmd_control.c **** 		bytes = P_DATA1 + 1;     //Bytes is always last+1
  77              		.loc 1 73 0
  78 0030 0520     		movs	r0, #5
  79 0032 70BD     		pop	{r4, r5, r6, pc}
  80              	.LVL8:
  81              	.L4:
  74:..\..\flexsea-system\src/flexsea_cmd_control.c **** 	}
  75:..\..\flexsea-system\src/flexsea_cmd_control.c **** 	else
  76:..\..\flexsea-system\src/flexsea_cmd_control.c **** 	{
  77:..\..\flexsea-system\src/flexsea_cmd_control.c **** 		//Invalid
  78:..\..\flexsea-system\src/flexsea_cmd_control.c **** 		flexsea_error(SE_INVALID_READ_TYPE);
  82              		.loc 1 78 0
  83 0034 4FF48060 		mov	r0, #1024
  84 0038 FFF7FEFF 		bl	flexsea_error
  85              	.LVL9:
  79:..\..\flexsea-system\src/flexsea_cmd_control.c **** 		bytes = 0;
  86              		.loc 1 79 0
  87 003c 0020     		movs	r0, #0
  88              	.LVL10:
  80:..\..\flexsea-system\src/flexsea_cmd_control.c **** 	}
  81:..\..\flexsea-system\src/flexsea_cmd_control.c **** 
  82:..\..\flexsea-system\src/flexsea_cmd_control.c **** 	return bytes;
  83:..\..\flexsea-system\src/flexsea_cmd_control.c **** }
ARM GAS  C:\Users\Alex\AppData\Local\Temp\cchBAlOP.s 			page 4


  89              		.loc 1 83 0
  90 003e 70BD     		pop	{r4, r5, r6, pc}
  91              	.LVL11:
  92              	.L7:
  93              		.align	2
  94              	.L6:
  95 0040 00000000 		.word	board_id
  96              		.cfi_endproc
  97              	.LFE63:
  98              		.size	tx_cmd_ctrl_mode, .-tx_cmd_ctrl_mode
  99              		.section	.text.flexsea_payload_80,"ax",%progbits
 100              		.align	2
 101              		.weak	flexsea_payload_80
 102              		.thumb
 103              		.thumb_func
 104              		.type	flexsea_payload_80, %function
 105              	flexsea_payload_80:
 106              	.LFB64:
  84:..\..\flexsea-system\src/flexsea_cmd_control.c **** 
  85:..\..\flexsea-system\src/flexsea_cmd_control.c **** //Reception of a CTRL_MODE command
  86:..\..\flexsea-system\src/flexsea_cmd_control.c **** void rx_cmd_ctrl_mode(uint8_t *buf)
  87:..\..\flexsea-system\src/flexsea_cmd_control.c **** {
 107              		.loc 1 87 0
 108              		.cfi_startproc
 109              		@ args = 0, pretend = 0, frame = 0
 110              		@ frame_needed = 0, uses_anonymous_args = 0
 111              	.LVL12:
 112 0000 30B5     		push	{r4, r5, lr}
 113              		.cfi_def_cfa_offset 12
 114              		.cfi_offset 4, -12
 115              		.cfi_offset 5, -8
 116              		.cfi_offset 14, -4
 117 0002 83B0     		sub	sp, sp, #12
 118              		.cfi_def_cfa_offset 24
 119              	.LVL13:
  88:..\..\flexsea-system\src/flexsea_cmd_control.c **** 	uint8_t numb = 0, controller = 0;
  89:..\..\flexsea-system\src/flexsea_cmd_control.c **** 
  90:..\..\flexsea-system\src/flexsea_cmd_control.c **** 	if(IS_CMD_RW(buf[P_CMD1]) == READ)
 120              		.loc 1 90 0
 121 0004 C378     		ldrb	r3, [r0, #3]	@ zero_extendqisi2
 122 0006 13F00103 		ands	r3, r3, #1
 123 000a 14D0     		beq	.L9
  91:..\..\flexsea-system\src/flexsea_cmd_control.c **** 	{
  92:..\..\flexsea-system\src/flexsea_cmd_control.c **** 		//Received a Read command from our master, prepare a reply:
  93:..\..\flexsea-system\src/flexsea_cmd_control.c **** 
  94:..\..\flexsea-system\src/flexsea_cmd_control.c **** 		#ifdef BOARD_TYPE_FLEXSEA_EXECUTE
  95:..\..\flexsea-system\src/flexsea_cmd_control.c **** 
  96:..\..\flexsea-system\src/flexsea_cmd_control.c **** 		//Generate the reply:
  97:..\..\flexsea-system\src/flexsea_cmd_control.c **** 		numb = tx_cmd_ctrl_mode(buf[P_XID], CMD_WRITE, tmp_payload_xmit, PAYLOAD_BUF_LEN, ctrl.active_ctr
 124              		.loc 1 97 0
 125 000c 0F4B     		ldr	r3, .L12
 126 000e 1B78     		ldrb	r3, [r3]	@ zero_extendqisi2
 127 0010 0078     		ldrb	r0, [r0]	@ zero_extendqisi2
 128              	.LVL14:
 129 0012 0F4D     		ldr	r5, .L12+4
 130 0014 0093     		str	r3, [sp]
 131 0016 0221     		movs	r1, #2
ARM GAS  C:\Users\Alex\AppData\Local\Temp\cchBAlOP.s 			page 5


 132 0018 2A46     		mov	r2, r5
 133 001a 2423     		movs	r3, #36
 134 001c FFF7FEFF 		bl	tx_cmd_ctrl_mode
 135              	.LVL15:
 136 0020 C2B2     		uxtb	r2, r0
 137              	.LVL16:
  98:..\..\flexsea-system\src/flexsea_cmd_control.c **** 		numb = comm_gen_str(tmp_payload_xmit, comm_str_485, numb);
 138              		.loc 1 98 0
 139 0022 0C4C     		ldr	r4, .L12+8
 140 0024 2846     		mov	r0, r5
 141 0026 2146     		mov	r1, r4
 142 0028 FFF7FEFF 		bl	comm_gen_str
 143              	.LVL17:
 144 002c 0146     		mov	r1, r0
 145              	.LVL18:
  99:..\..\flexsea-system\src/flexsea_cmd_control.c **** 
 100:..\..\flexsea-system\src/flexsea_cmd_control.c **** 		//Notify the code that a buffer is ready to be transmitted:
 101:..\..\flexsea-system\src/flexsea_cmd_control.c **** 		//xmit_flag_1 = 1;
 102:..\..\flexsea-system\src/flexsea_cmd_control.c **** 		
 103:..\..\flexsea-system\src/flexsea_cmd_control.c **** 		//(for now, send it)
 104:..\..\flexsea-system\src/flexsea_cmd_control.c **** 		rs485_puts(comm_str_485, numb);
 146              		.loc 1 104 0
 147 002e 2046     		mov	r0, r4
 148 0030 FFF7FEFF 		bl	rs485_puts
 149              	.LVL19:
 150 0034 07E0     		b	.L8
 151              	.LVL20:
 152              	.L9:
 105:..\..\flexsea-system\src/flexsea_cmd_control.c **** 
 106:..\..\flexsea-system\src/flexsea_cmd_control.c **** 		#endif	//BOARD_TYPE_FLEXSEA_EXECUTE
 107:..\..\flexsea-system\src/flexsea_cmd_control.c **** 	}
 108:..\..\flexsea-system\src/flexsea_cmd_control.c **** 	else if(IS_CMD_RW(buf[P_CMD1]) == WRITE)
 153              		.loc 1 108 0
 154 0036 33B9     		cbnz	r3, .L8
 109:..\..\flexsea-system\src/flexsea_cmd_control.c **** 	{
 110:..\..\flexsea-system\src/flexsea_cmd_control.c **** 		//Two options: from Master of from slave (a read reply)
 111:..\..\flexsea-system\src/flexsea_cmd_control.c **** 
 112:..\..\flexsea-system\src/flexsea_cmd_control.c **** 		//Decode data:
 113:..\..\flexsea-system\src/flexsea_cmd_control.c **** 		controller = buf[P_DATA1];
 155              		.loc 1 113 0
 156 0038 0479     		ldrb	r4, [r0, #4]	@ zero_extendqisi2
 157              	.LVL21:
 114:..\..\flexsea-system\src/flexsea_cmd_control.c **** 		//ToDo store that value somewhere useful
 115:..\..\flexsea-system\src/flexsea_cmd_control.c **** 
 116:..\..\flexsea-system\src/flexsea_cmd_control.c **** 		if(sent_from_a_slave(buf))
 158              		.loc 1 116 0
 159 003a FFF7FEFF 		bl	sent_from_a_slave
 160              	.LVL22:
 161 003e 10B9     		cbnz	r0, .L8
 117:..\..\flexsea-system\src/flexsea_cmd_control.c **** 		{
 118:..\..\flexsea-system\src/flexsea_cmd_control.c **** 			//We received a reply to our read request
 119:..\..\flexsea-system\src/flexsea_cmd_control.c **** 
 120:..\..\flexsea-system\src/flexsea_cmd_control.c **** 			#if((defined BOARD_TYPE_FLEXSEA_MANAGE) || (defined BOARD_TYPE_FLEXSEA_PLAN))
 121:..\..\flexsea-system\src/flexsea_cmd_control.c **** 
 122:..\..\flexsea-system\src/flexsea_cmd_control.c **** 			//Store value:
 123:..\..\flexsea-system\src/flexsea_cmd_control.c **** 			exec1.ctrl.active_ctrl = controller;
 124:..\..\flexsea-system\src/flexsea_cmd_control.c **** 
ARM GAS  C:\Users\Alex\AppData\Local\Temp\cchBAlOP.s 			page 6


 125:..\..\flexsea-system\src/flexsea_cmd_control.c **** 			#endif	//((defined BOARD_TYPE_FLEXSEA_MANAGE) || (defined BOARD_TYPE_FLEXSEA_PLAN))
 126:..\..\flexsea-system\src/flexsea_cmd_control.c **** 		}
 127:..\..\flexsea-system\src/flexsea_cmd_control.c **** 		else
 128:..\..\flexsea-system\src/flexsea_cmd_control.c **** 		{
 129:..\..\flexsea-system\src/flexsea_cmd_control.c **** 			//Master is writing a value to this board
 130:..\..\flexsea-system\src/flexsea_cmd_control.c **** 
 131:..\..\flexsea-system\src/flexsea_cmd_control.c **** 			#ifdef BOARD_TYPE_FLEXSEA_EXECUTE
 132:..\..\flexsea-system\src/flexsea_cmd_control.c **** 
 133:..\..\flexsea-system\src/flexsea_cmd_control.c **** 			control_strategy(controller);
 162              		.loc 1 133 0
 163 0040 2046     		mov	r0, r4
 164 0042 FFF7FEFF 		bl	control_strategy
 165              	.LVL23:
 166              	.L8:
 134:..\..\flexsea-system\src/flexsea_cmd_control.c **** 
 135:..\..\flexsea-system\src/flexsea_cmd_control.c **** 			#endif	//BOARD_TYPE_FLEXSEA_EXECUTE
 136:..\..\flexsea-system\src/flexsea_cmd_control.c **** 		}
 137:..\..\flexsea-system\src/flexsea_cmd_control.c **** 	}
 138:..\..\flexsea-system\src/flexsea_cmd_control.c **** }
 167              		.loc 1 138 0
 168 0046 03B0     		add	sp, sp, #12
 169              		.cfi_def_cfa_offset 12
 170              		@ sp needed
 171 0048 30BD     		pop	{r4, r5, pc}
 172              	.L13:
 173 004a 00BF     		.align	2
 174              	.L12:
 175 004c 00000000 		.word	ctrl
 176 0050 00000000 		.word	tmp_payload_xmit
 177 0054 00000000 		.word	comm_str_1
 178              		.cfi_endproc
 179              	.LFE64:
 180              		.size	flexsea_payload_80, .-flexsea_payload_80
 181              		.section	.text.tx_cmd_ctrl_i,"ax",%progbits
 182              		.align	2
 183              		.global	tx_cmd_ctrl_i
 184              		.thumb
 185              		.thumb_func
 186              		.type	tx_cmd_ctrl_i, %function
 187              	tx_cmd_ctrl_i:
 188              	.LFB65:
 139:..\..\flexsea-system\src/flexsea_cmd_control.c **** 
 140:..\..\flexsea-system\src/flexsea_cmd_control.c **** //Transmission of a CTRL_I command
 141:..\..\flexsea-system\src/flexsea_cmd_control.c **** uint32_t tx_cmd_ctrl_i(uint8_t receiver, uint8_t cmd_type, uint8_t *buf, uint32_t len, int16_t want
 142:..\..\flexsea-system\src/flexsea_cmd_control.c **** {
 189              		.loc 1 142 0
 190              		.cfi_startproc
 191              		@ args = 8, pretend = 0, frame = 8
 192              		@ frame_needed = 0, uses_anonymous_args = 0
 193              	.LVL24:
 194 0000 70B5     		push	{r4, r5, r6, lr}
 195              		.cfi_def_cfa_offset 16
 196              		.cfi_offset 4, -16
 197              		.cfi_offset 5, -12
 198              		.cfi_offset 6, -8
 199              		.cfi_offset 14, -4
 200 0002 82B0     		sub	sp, sp, #8
ARM GAS  C:\Users\Alex\AppData\Local\Temp\cchBAlOP.s 			page 7


 201              		.cfi_def_cfa_offset 24
 202 0004 0646     		mov	r6, r0
 203 0006 0D46     		mov	r5, r1
 204 0008 1446     		mov	r4, r2
 143:..\..\flexsea-system\src/flexsea_cmd_control.c **** 	uint8_t tmp0 = 0, tmp1 = 0;
 205              		.loc 1 143 0
 206 000a 0021     		movs	r1, #0
 207              	.LVL25:
 208 000c 8DF80710 		strb	r1, [sp, #7]
 209 0010 8DF80610 		strb	r1, [sp, #6]
 210              	.LVL26:
 144:..\..\flexsea-system\src/flexsea_cmd_control.c **** 	uint32_t bytes = 0;
 145:..\..\flexsea-system\src/flexsea_cmd_control.c **** 
 146:..\..\flexsea-system\src/flexsea_cmd_control.c **** 	//Fresh payload string:
 147:..\..\flexsea-system\src/flexsea_cmd_control.c **** 	prepare_empty_payload(board_id, receiver, buf, len);
 211              		.loc 1 147 0
 212 0014 1A49     		ldr	r1, .L19
 213 0016 0878     		ldrb	r0, [r1]	@ zero_extendqisi2
 214              	.LVL27:
 215 0018 3146     		mov	r1, r6
 216 001a FFF7FEFF 		bl	prepare_empty_payload
 217              	.LVL28:
 148:..\..\flexsea-system\src/flexsea_cmd_control.c **** 
 149:..\..\flexsea-system\src/flexsea_cmd_control.c **** 	//Command:
 150:..\..\flexsea-system\src/flexsea_cmd_control.c **** 	buf[P_CMDS] = 1;                     //1 command in string
 218              		.loc 1 150 0
 219 001e 0123     		movs	r3, #1
 220 0020 A370     		strb	r3, [r4, #2]
 151:..\..\flexsea-system\src/flexsea_cmd_control.c **** 
 152:..\..\flexsea-system\src/flexsea_cmd_control.c **** 	if(cmd_type == CMD_READ)
 221              		.loc 1 152 0
 222 0022 9D42     		cmp	r5, r3
 223 0024 03D1     		bne	.L15
 153:..\..\flexsea-system\src/flexsea_cmd_control.c **** 	{
 154:..\..\flexsea-system\src/flexsea_cmd_control.c **** 		buf[P_CMD1] = CMD_R(CMD_CTRL_I);
 224              		.loc 1 154 0
 225 0026 AD23     		movs	r3, #173
 226 0028 E370     		strb	r3, [r4, #3]
 227              	.LVL29:
 155:..\..\flexsea-system\src/flexsea_cmd_control.c **** 
 156:..\..\flexsea-system\src/flexsea_cmd_control.c **** 		bytes = P_CMD1 + 1;     //Bytes is always last+1
 228              		.loc 1 156 0
 229 002a 0420     		movs	r0, #4
 230 002c 26E0     		b	.L16
 231              	.LVL30:
 232              	.L15:
 157:..\..\flexsea-system\src/flexsea_cmd_control.c **** 	}
 158:..\..\flexsea-system\src/flexsea_cmd_control.c **** 	else if(cmd_type == CMD_WRITE)
 233              		.loc 1 158 0
 234 002e 022D     		cmp	r5, #2
 235 0030 1FD1     		bne	.L17
 159:..\..\flexsea-system\src/flexsea_cmd_control.c **** 	{
 160:..\..\flexsea-system\src/flexsea_cmd_control.c **** 		buf[P_CMD1] = CMD_W(CMD_CTRL_I);
 236              		.loc 1 160 0
 237 0032 AC23     		movs	r3, #172
 238 0034 E370     		strb	r3, [r4, #3]
 161:..\..\flexsea-system\src/flexsea_cmd_control.c **** 
ARM GAS  C:\Users\Alex\AppData\Local\Temp\cchBAlOP.s 			page 8


 162:..\..\flexsea-system\src/flexsea_cmd_control.c **** 		//Arguments:
 163:..\..\flexsea-system\src/flexsea_cmd_control.c **** 		uint16_to_bytes(measured, &tmp0, &tmp1);
 239              		.loc 1 163 0
 240 0036 BDF91C00 		ldrsh	r0, [sp, #28]
 241 003a 0DF10701 		add	r1, sp, #7
 242 003e 0DF10602 		add	r2, sp, #6
 243 0042 FFF7FEFF 		bl	uint16_to_bytes
 244              	.LVL31:
 164:..\..\flexsea-system\src/flexsea_cmd_control.c **** 		buf[P_DATA1] = tmp0;
 245              		.loc 1 164 0
 246 0046 9DF80730 		ldrb	r3, [sp, #7]	@ zero_extendqisi2
 247 004a 2371     		strb	r3, [r4, #4]
 165:..\..\flexsea-system\src/flexsea_cmd_control.c **** 		buf[P_DATA1 + 1] = tmp1;
 248              		.loc 1 165 0
 249 004c 9DF80630 		ldrb	r3, [sp, #6]	@ zero_extendqisi2
 250 0050 6371     		strb	r3, [r4, #5]
 166:..\..\flexsea-system\src/flexsea_cmd_control.c **** 		uint16_to_bytes(wanted, &tmp0, &tmp1);
 251              		.loc 1 166 0
 252 0052 BDF91800 		ldrsh	r0, [sp, #24]
 253 0056 0DF10701 		add	r1, sp, #7
 254 005a 0DF10602 		add	r2, sp, #6
 255 005e FFF7FEFF 		bl	uint16_to_bytes
 256              	.LVL32:
 167:..\..\flexsea-system\src/flexsea_cmd_control.c **** 		buf[P_DATA1 + 2] = tmp0;
 257              		.loc 1 167 0
 258 0062 9DF80730 		ldrb	r3, [sp, #7]	@ zero_extendqisi2
 259 0066 A371     		strb	r3, [r4, #6]
 168:..\..\flexsea-system\src/flexsea_cmd_control.c **** 		buf[P_DATA1 + 3] = tmp1;
 260              		.loc 1 168 0
 261 0068 9DF80630 		ldrb	r3, [sp, #6]	@ zero_extendqisi2
 262 006c E371     		strb	r3, [r4, #7]
 263              	.LVL33:
 169:..\..\flexsea-system\src/flexsea_cmd_control.c **** 
 170:..\..\flexsea-system\src/flexsea_cmd_control.c **** 		bytes = P_DATA1 + 4;     //Bytes is always last+1
 264              		.loc 1 170 0
 265 006e 0820     		movs	r0, #8
 266 0070 04E0     		b	.L16
 267              	.LVL34:
 268              	.L17:
 171:..\..\flexsea-system\src/flexsea_cmd_control.c **** 	}
 172:..\..\flexsea-system\src/flexsea_cmd_control.c **** 	else
 173:..\..\flexsea-system\src/flexsea_cmd_control.c **** 	{
 174:..\..\flexsea-system\src/flexsea_cmd_control.c **** 		//Invalid
 175:..\..\flexsea-system\src/flexsea_cmd_control.c **** 		flexsea_error(SE_INVALID_READ_TYPE);
 269              		.loc 1 175 0
 270 0072 4FF48060 		mov	r0, #1024
 271 0076 FFF7FEFF 		bl	flexsea_error
 272              	.LVL35:
 176:..\..\flexsea-system\src/flexsea_cmd_control.c **** 		bytes = 0;
 273              		.loc 1 176 0
 274 007a 0020     		movs	r0, #0
 275              	.LVL36:
 276              	.L16:
 177:..\..\flexsea-system\src/flexsea_cmd_control.c **** 	}
 178:..\..\flexsea-system\src/flexsea_cmd_control.c **** 
 179:..\..\flexsea-system\src/flexsea_cmd_control.c **** 	return bytes;
 180:..\..\flexsea-system\src/flexsea_cmd_control.c **** }
ARM GAS  C:\Users\Alex\AppData\Local\Temp\cchBAlOP.s 			page 9


 277              		.loc 1 180 0
 278 007c 02B0     		add	sp, sp, #8
 279              		.cfi_def_cfa_offset 16
 280              		@ sp needed
 281 007e 70BD     		pop	{r4, r5, r6, pc}
 282              	.LVL37:
 283              	.L20:
 284              		.align	2
 285              	.L19:
 286 0080 00000000 		.word	board_id
 287              		.cfi_endproc
 288              	.LFE65:
 289              		.size	tx_cmd_ctrl_i, .-tx_cmd_ctrl_i
 290              		.section	.text.flexsea_payload_86,"ax",%progbits
 291              		.align	2
 292              		.weak	flexsea_payload_86
 293              		.thumb
 294              		.thumb_func
 295              		.type	flexsea_payload_86, %function
 296              	flexsea_payload_86:
 297              	.LFB66:
 181:..\..\flexsea-system\src/flexsea_cmd_control.c **** 
 182:..\..\flexsea-system\src/flexsea_cmd_control.c **** //Reception of a CTRL_I command
 183:..\..\flexsea-system\src/flexsea_cmd_control.c **** void rx_cmd_ctrl_i(uint8_t *buf)
 184:..\..\flexsea-system\src/flexsea_cmd_control.c **** {
 298              		.loc 1 184 0
 299              		.cfi_startproc
 300              		@ args = 0, pretend = 0, frame = 0
 301              		@ frame_needed = 0, uses_anonymous_args = 0
 302              	.LVL38:
 303 0000 30B5     		push	{r4, r5, lr}
 304              		.cfi_def_cfa_offset 12
 305              		.cfi_offset 4, -12
 306              		.cfi_offset 5, -8
 307              		.cfi_offset 14, -4
 308 0002 83B0     		sub	sp, sp, #12
 309              		.cfi_def_cfa_offset 24
 310              	.LVL39:
 185:..\..\flexsea-system\src/flexsea_cmd_control.c **** 	uint32_t numb = 0;
 186:..\..\flexsea-system\src/flexsea_cmd_control.c **** 	int16_t tmp_wanted_current = 0, tmp_measured_current = 0;
 187:..\..\flexsea-system\src/flexsea_cmd_control.c **** 
 188:..\..\flexsea-system\src/flexsea_cmd_control.c **** 	if(IS_CMD_RW(buf[P_CMD1]) == READ)
 311              		.loc 1 188 0
 312 0004 C378     		ldrb	r3, [r0, #3]	@ zero_extendqisi2
 313 0006 13F00103 		ands	r3, r3, #1
 314 000a 18D0     		beq	.L22
 189:..\..\flexsea-system\src/flexsea_cmd_control.c **** 	{
 190:..\..\flexsea-system\src/flexsea_cmd_control.c **** 		//Received a Read command from our master, prepare a reply:
 191:..\..\flexsea-system\src/flexsea_cmd_control.c **** 
 192:..\..\flexsea-system\src/flexsea_cmd_control.c **** 		#ifdef BOARD_TYPE_FLEXSEA_EXECUTE
 193:..\..\flexsea-system\src/flexsea_cmd_control.c **** 
 194:..\..\flexsea-system\src/flexsea_cmd_control.c **** 		//Generate the reply:
 195:..\..\flexsea-system\src/flexsea_cmd_control.c **** 		numb = tx_cmd_ctrl_i(buf[P_XID], CMD_WRITE, tmp_payload_xmit, PAYLOAD_BUF_LEN, \
 315              		.loc 1 195 0
 316 000c 0078     		ldrb	r0, [r0]	@ zero_extendqisi2
 317              	.LVL40:
 196:..\..\flexsea-system\src/flexsea_cmd_control.c **** 			ctrl.current.actual_val, ctrl.current.setpoint_val);
ARM GAS  C:\Users\Alex\AppData\Local\Temp\cchBAlOP.s 			page 10


 318              		.loc 1 196 0
 319 000e 184B     		ldr	r3, .L26
 320 0010 5A6B     		ldr	r2, [r3, #52]
 321 0012 9B6B     		ldr	r3, [r3, #56]
 195:..\..\flexsea-system\src/flexsea_cmd_control.c **** 			ctrl.current.actual_val, ctrl.current.setpoint_val);
 322              		.loc 1 195 0
 323 0014 174D     		ldr	r5, .L26+4
 324 0016 12B2     		sxth	r2, r2
 325 0018 0092     		str	r2, [sp]
 326 001a 1BB2     		sxth	r3, r3
 327 001c 0193     		str	r3, [sp, #4]
 328 001e 0221     		movs	r1, #2
 329 0020 2A46     		mov	r2, r5
 330 0022 2423     		movs	r3, #36
 331 0024 FFF7FEFF 		bl	tx_cmd_ctrl_i
 332              	.LVL41:
 197:..\..\flexsea-system\src/flexsea_cmd_control.c **** 		numb = comm_gen_str(tmp_payload_xmit, comm_str_485, numb);
 333              		.loc 1 197 0
 334 0028 134C     		ldr	r4, .L26+8
 335 002a C2B2     		uxtb	r2, r0
 336 002c 2846     		mov	r0, r5
 337              	.LVL42:
 338 002e 2146     		mov	r1, r4
 339 0030 FFF7FEFF 		bl	comm_gen_str
 340              	.LVL43:
 341 0034 0146     		mov	r1, r0
 342              	.LVL44:
 198:..\..\flexsea-system\src/flexsea_cmd_control.c **** 
 199:..\..\flexsea-system\src/flexsea_cmd_control.c **** 		//Notify the code that a buffer is ready to be transmitted:
 200:..\..\flexsea-system\src/flexsea_cmd_control.c **** 		//xmit_flag_1 = 1;
 201:..\..\flexsea-system\src/flexsea_cmd_control.c **** 		
 202:..\..\flexsea-system\src/flexsea_cmd_control.c **** 		//(for now, send it)
 203:..\..\flexsea-system\src/flexsea_cmd_control.c **** 		rs485_puts(comm_str_485, (numb));
 343              		.loc 1 203 0
 344 0036 2046     		mov	r0, r4
 345              	.LVL45:
 346 0038 FFF7FEFF 		bl	rs485_puts
 347              	.LVL46:
 348 003c 15E0     		b	.L21
 349              	.LVL47:
 350              	.L22:
 204:..\..\flexsea-system\src/flexsea_cmd_control.c **** 
 205:..\..\flexsea-system\src/flexsea_cmd_control.c **** 		#endif	//BOARD_TYPE_FLEXSEA_EXECUTE
 206:..\..\flexsea-system\src/flexsea_cmd_control.c **** 	}
 207:..\..\flexsea-system\src/flexsea_cmd_control.c **** 	else if(IS_CMD_RW(buf[P_CMD1]) == WRITE)
 351              		.loc 1 207 0
 352 003e A3B9     		cbnz	r3, .L21
 353              	.LVL48:
 208:..\..\flexsea-system\src/flexsea_cmd_control.c **** 	{
 209:..\..\flexsea-system\src/flexsea_cmd_control.c **** 		//Two options: from Master of from slave (a read reply)
 210:..\..\flexsea-system\src/flexsea_cmd_control.c **** 
 211:..\..\flexsea-system\src/flexsea_cmd_control.c **** 		//Decode data:
 212:..\..\flexsea-system\src/flexsea_cmd_control.c **** 		tmp_measured_current = (int16_t) (BYTES_TO_UINT16(buf[P_DATA1], buf[P_DATA1+1]));
 213:..\..\flexsea-system\src/flexsea_cmd_control.c **** 		tmp_wanted_current = (int16_t) (BYTES_TO_UINT16(buf[P_DATA1+2], buf[P_DATA1+3]));
 354              		.loc 1 213 0
 355 0040 8279     		ldrb	r2, [r0, #6]	@ zero_extendqisi2
 356 0042 C379     		ldrb	r3, [r0, #7]	@ zero_extendqisi2
ARM GAS  C:\Users\Alex\AppData\Local\Temp\cchBAlOP.s 			page 11


 357 0044 03EB0223 		add	r3, r3, r2, lsl #8
 358 0048 9CB2     		uxth	r4, r3
 359              	.LVL49:
 214:..\..\flexsea-system\src/flexsea_cmd_control.c **** 		//ToDo store that value somewhere useful
 215:..\..\flexsea-system\src/flexsea_cmd_control.c **** 
 216:..\..\flexsea-system\src/flexsea_cmd_control.c **** 		if(sent_from_a_slave(buf))
 360              		.loc 1 216 0
 361 004a FFF7FEFF 		bl	sent_from_a_slave
 362              	.LVL50:
 363 004e 20B1     		cbz	r0, .L24
 217:..\..\flexsea-system\src/flexsea_cmd_control.c **** 		{
 218:..\..\flexsea-system\src/flexsea_cmd_control.c **** 			//We received a reply to our read request
 219:..\..\flexsea-system\src/flexsea_cmd_control.c **** 
 220:..\..\flexsea-system\src/flexsea_cmd_control.c **** 			#ifdef BOARD_TYPE_FLEXSEA_EXECUTE
 221:..\..\flexsea-system\src/flexsea_cmd_control.c **** 			//No code (yet), you shouldn't be here...
 222:..\..\flexsea-system\src/flexsea_cmd_control.c **** 			flexsea_error(SE_CMD_NOT_PROGRAMMED);
 364              		.loc 1 222 0
 365 0050 4FF40070 		mov	r0, #512
 366 0054 FFF7FEFF 		bl	flexsea_error
 367              	.LVL51:
 368 0058 07E0     		b	.L21
 369              	.L24:
 223:..\..\flexsea-system\src/flexsea_cmd_control.c **** 			#endif	//BOARD_TYPE_FLEXSEA_EXECUTE
 224:..\..\flexsea-system\src/flexsea_cmd_control.c **** 
 225:..\..\flexsea-system\src/flexsea_cmd_control.c **** 			#ifdef BOARD_TYPE_FLEXSEA_MANAGE
 226:..\..\flexsea-system\src/flexsea_cmd_control.c **** 
 227:..\..\flexsea-system\src/flexsea_cmd_control.c **** 			//Store value:
 228:..\..\flexsea-system\src/flexsea_cmd_control.c **** 			exec1.current = tmp_measured_current;
 229:..\..\flexsea-system\src/flexsea_cmd_control.c **** 
 230:..\..\flexsea-system\src/flexsea_cmd_control.c **** 			#endif	//BOARD_TYPE_FLEXSEA_MANAGE
 231:..\..\flexsea-system\src/flexsea_cmd_control.c **** 
 232:..\..\flexsea-system\src/flexsea_cmd_control.c **** 			#ifdef BOARD_TYPE_FLEXSEA_PLAN
 233:..\..\flexsea-system\src/flexsea_cmd_control.c **** 
 234:..\..\flexsea-system\src/flexsea_cmd_control.c **** 			#ifdef USE_PRINTF
 235:..\..\flexsea-system\src/flexsea_cmd_control.c **** 			printf("Received CMD_CTRL_I_READ_REPLY. Wanted = %i, Measured = %i.\n", tmp_wanted_current, tmp_
 236:..\..\flexsea-system\src/flexsea_cmd_control.c **** 			#endif	//USE_PRINTF
 237:..\..\flexsea-system\src/flexsea_cmd_control.c **** 
 238:..\..\flexsea-system\src/flexsea_cmd_control.c **** 			#endif	//BOARD_TYPE_FLEXSEA_PLAN
 239:..\..\flexsea-system\src/flexsea_cmd_control.c **** 		}
 240:..\..\flexsea-system\src/flexsea_cmd_control.c **** 		else
 241:..\..\flexsea-system\src/flexsea_cmd_control.c **** 		{
 242:..\..\flexsea-system\src/flexsea_cmd_control.c **** 			//Master is writing a value to this board
 243:..\..\flexsea-system\src/flexsea_cmd_control.c **** 
 244:..\..\flexsea-system\src/flexsea_cmd_control.c **** 			#ifdef BOARD_TYPE_FLEXSEA_EXECUTE
 245:..\..\flexsea-system\src/flexsea_cmd_control.c **** 
 246:..\..\flexsea-system\src/flexsea_cmd_control.c **** 			//Only change the setpoint if we are in current control mode:
 247:..\..\flexsea-system\src/flexsea_cmd_control.c **** 			if(ctrl.active_ctrl == CTRL_CURRENT)
 370              		.loc 1 247 0
 371 005a 054B     		ldr	r3, .L26
 372 005c 1B78     		ldrb	r3, [r3]	@ zero_extendqisi2
 373 005e DBB2     		uxtb	r3, r3
 374 0060 032B     		cmp	r3, #3
 375 0062 02D1     		bne	.L21
 248:..\..\flexsea-system\src/flexsea_cmd_control.c **** 			{
 249:..\..\flexsea-system\src/flexsea_cmd_control.c **** 				ctrl.current.setpoint_val = tmp_wanted_current;
 376              		.loc 1 249 0
 377 0064 23B2     		sxth	r3, r4
ARM GAS  C:\Users\Alex\AppData\Local\Temp\cchBAlOP.s 			page 12


 378 0066 024A     		ldr	r2, .L26
 379 0068 9363     		str	r3, [r2, #56]
 380              	.LVL52:
 381              	.L21:
 250:..\..\flexsea-system\src/flexsea_cmd_control.c **** 			}
 251:..\..\flexsea-system\src/flexsea_cmd_control.c **** 
 252:..\..\flexsea-system\src/flexsea_cmd_control.c **** 			#endif	//BOARD_TYPE_FLEXSEA_EXECUTE
 253:..\..\flexsea-system\src/flexsea_cmd_control.c **** 		}
 254:..\..\flexsea-system\src/flexsea_cmd_control.c **** 	}
 255:..\..\flexsea-system\src/flexsea_cmd_control.c **** }
 382              		.loc 1 255 0
 383 006a 03B0     		add	sp, sp, #12
 384              		.cfi_def_cfa_offset 12
 385              		@ sp needed
 386 006c 30BD     		pop	{r4, r5, pc}
 387              	.L27:
 388 006e 00BF     		.align	2
 389              	.L26:
 390 0070 00000000 		.word	ctrl
 391 0074 00000000 		.word	tmp_payload_xmit
 392 0078 00000000 		.word	comm_str_1
 393              		.cfi_endproc
 394              	.LFE66:
 395              		.size	flexsea_payload_86, .-flexsea_payload_86
 396              		.section	.text.tx_cmd_ctrl_o,"ax",%progbits
 397              		.align	2
 398              		.global	tx_cmd_ctrl_o
 399              		.thumb
 400              		.thumb_func
 401              		.type	tx_cmd_ctrl_o, %function
 402              	tx_cmd_ctrl_o:
 403              	.LFB67:
 256:..\..\flexsea-system\src/flexsea_cmd_control.c **** 
 257:..\..\flexsea-system\src/flexsea_cmd_control.c **** /*
 258:..\..\flexsea-system\src/flexsea_cmd_control.c **** void test_cmd_ctrl_i(void)
 259:..\..\flexsea-system\src/flexsea_cmd_control.c **** {
 260:..\..\flexsea-system\src/flexsea_cmd_control.c **** 	//First, we generate a TX Write:
 261:..\..\flexsea-system\src/flexsea_cmd_control.c **** 	tx_cmd_ctrl_i(FLEXSEA_EXECUTE_1, CMD_WRITE, tmp_payload_xmit, PAYLOAD_BUF_LEN, -333, 666);
 262:..\..\flexsea-system\src/flexsea_cmd_control.c **** 
 263:..\..\flexsea-system\src/flexsea_cmd_control.c **** 	//Minimalist parsing:
 264:..\..\flexsea-system\src/flexsea_cmd_control.c **** 	if(CMD_7BITS(tmp_payload_xmit[CP_CMD1]) == CMD_CTRL_I)
 265:..\..\flexsea-system\src/flexsea_cmd_control.c **** 	{
 266:..\..\flexsea-system\src/flexsea_cmd_control.c **** 		//Decode it:
 267:..\..\flexsea-system\src/flexsea_cmd_control.c **** 		rx_cmd_ctrl_i(tmp_payload_xmit);
 268:..\..\flexsea-system\src/flexsea_cmd_control.c **** 	}
 269:..\..\flexsea-system\src/flexsea_cmd_control.c **** }
 270:..\..\flexsea-system\src/flexsea_cmd_control.c **** */
 271:..\..\flexsea-system\src/flexsea_cmd_control.c **** 
 272:..\..\flexsea-system\src/flexsea_cmd_control.c **** //Transmission of a CTRL_O command
 273:..\..\flexsea-system\src/flexsea_cmd_control.c **** uint32_t tx_cmd_ctrl_o(uint8_t receiver, uint8_t cmd_type, uint8_t *buf, uint32_t len, int16_t open
 274:..\..\flexsea-system\src/flexsea_cmd_control.c **** {
 404              		.loc 1 274 0
 405              		.cfi_startproc
 406              		@ args = 4, pretend = 0, frame = 8
 407              		@ frame_needed = 0, uses_anonymous_args = 0
 408              	.LVL53:
 409 0000 70B5     		push	{r4, r5, r6, lr}
ARM GAS  C:\Users\Alex\AppData\Local\Temp\cchBAlOP.s 			page 13


 410              		.cfi_def_cfa_offset 16
 411              		.cfi_offset 4, -16
 412              		.cfi_offset 5, -12
 413              		.cfi_offset 6, -8
 414              		.cfi_offset 14, -4
 415 0002 82B0     		sub	sp, sp, #8
 416              		.cfi_def_cfa_offset 24
 417 0004 0646     		mov	r6, r0
 418 0006 0D46     		mov	r5, r1
 419 0008 1446     		mov	r4, r2
 275:..\..\flexsea-system\src/flexsea_cmd_control.c **** 	uint8_t tmp0 = 0, tmp1 = 0;
 420              		.loc 1 275 0
 421 000a 0021     		movs	r1, #0
 422              	.LVL54:
 423 000c 8DF80710 		strb	r1, [sp, #7]
 424 0010 8DF80610 		strb	r1, [sp, #6]
 425              	.LVL55:
 276:..\..\flexsea-system\src/flexsea_cmd_control.c **** 	uint32_t bytes = 0;
 277:..\..\flexsea-system\src/flexsea_cmd_control.c **** 
 278:..\..\flexsea-system\src/flexsea_cmd_control.c **** 	//Fresh payload string:
 279:..\..\flexsea-system\src/flexsea_cmd_control.c **** 	prepare_empty_payload(board_id, receiver, buf, len);
 426              		.loc 1 279 0
 427 0014 1349     		ldr	r1, .L33
 428 0016 0878     		ldrb	r0, [r1]	@ zero_extendqisi2
 429              	.LVL56:
 430 0018 3146     		mov	r1, r6
 431 001a FFF7FEFF 		bl	prepare_empty_payload
 432              	.LVL57:
 280:..\..\flexsea-system\src/flexsea_cmd_control.c **** 
 281:..\..\flexsea-system\src/flexsea_cmd_control.c **** 	//Command:
 282:..\..\flexsea-system\src/flexsea_cmd_control.c **** 	buf[P_CMDS] = 1;                     //1 command in string
 433              		.loc 1 282 0
 434 001e 0123     		movs	r3, #1
 435 0020 A370     		strb	r3, [r4, #2]
 283:..\..\flexsea-system\src/flexsea_cmd_control.c **** 
 284:..\..\flexsea-system\src/flexsea_cmd_control.c **** 	if(cmd_type == CMD_READ)
 436              		.loc 1 284 0
 437 0022 9D42     		cmp	r5, r3
 438 0024 03D1     		bne	.L29
 285:..\..\flexsea-system\src/flexsea_cmd_control.c **** 	{
 286:..\..\flexsea-system\src/flexsea_cmd_control.c **** 		buf[P_CMD1] = CMD_R(CMD_CTRL_O);
 439              		.loc 1 286 0
 440 0026 AB23     		movs	r3, #171
 441 0028 E370     		strb	r3, [r4, #3]
 442              	.LVL58:
 287:..\..\flexsea-system\src/flexsea_cmd_control.c **** 
 288:..\..\flexsea-system\src/flexsea_cmd_control.c **** 		bytes = P_CMD1 + 1;     //Bytes is always last+1
 443              		.loc 1 288 0
 444 002a 0420     		movs	r0, #4
 445 002c 18E0     		b	.L30
 446              	.LVL59:
 447              	.L29:
 289:..\..\flexsea-system\src/flexsea_cmd_control.c **** 	}
 290:..\..\flexsea-system\src/flexsea_cmd_control.c **** 	else if(cmd_type == CMD_WRITE)
 448              		.loc 1 290 0
 449 002e 022D     		cmp	r5, #2
 450 0030 11D1     		bne	.L31
ARM GAS  C:\Users\Alex\AppData\Local\Temp\cchBAlOP.s 			page 14


 291:..\..\flexsea-system\src/flexsea_cmd_control.c **** 	{
 292:..\..\flexsea-system\src/flexsea_cmd_control.c **** 		buf[P_CMD1] = CMD_W(CMD_CTRL_O);
 451              		.loc 1 292 0
 452 0032 AA23     		movs	r3, #170
 453 0034 E370     		strb	r3, [r4, #3]
 293:..\..\flexsea-system\src/flexsea_cmd_control.c **** 
 294:..\..\flexsea-system\src/flexsea_cmd_control.c **** 		//Arguments:
 295:..\..\flexsea-system\src/flexsea_cmd_control.c **** 		uint16_to_bytes(open_spd, &tmp0, &tmp1);
 454              		.loc 1 295 0
 455 0036 BDF91800 		ldrsh	r0, [sp, #24]
 456 003a 0DF10701 		add	r1, sp, #7
 457 003e 0DF10602 		add	r2, sp, #6
 458 0042 FFF7FEFF 		bl	uint16_to_bytes
 459              	.LVL60:
 296:..\..\flexsea-system\src/flexsea_cmd_control.c **** 		buf[P_DATA1] = tmp0;
 460              		.loc 1 296 0
 461 0046 9DF80730 		ldrb	r3, [sp, #7]	@ zero_extendqisi2
 462 004a 2371     		strb	r3, [r4, #4]
 297:..\..\flexsea-system\src/flexsea_cmd_control.c **** 		buf[P_DATA1 + 1] = tmp1;
 463              		.loc 1 297 0
 464 004c 9DF80630 		ldrb	r3, [sp, #6]	@ zero_extendqisi2
 465 0050 6371     		strb	r3, [r4, #5]
 466              	.LVL61:
 298:..\..\flexsea-system\src/flexsea_cmd_control.c **** 
 299:..\..\flexsea-system\src/flexsea_cmd_control.c **** 		bytes = P_DATA1 + 2;     //Bytes is always last+1
 467              		.loc 1 299 0
 468 0052 0620     		movs	r0, #6
 469 0054 04E0     		b	.L30
 470              	.LVL62:
 471              	.L31:
 300:..\..\flexsea-system\src/flexsea_cmd_control.c **** 	}
 301:..\..\flexsea-system\src/flexsea_cmd_control.c **** 	else
 302:..\..\flexsea-system\src/flexsea_cmd_control.c **** 	{
 303:..\..\flexsea-system\src/flexsea_cmd_control.c **** 		//Invalid
 304:..\..\flexsea-system\src/flexsea_cmd_control.c **** 		flexsea_error(SE_INVALID_READ_TYPE);
 472              		.loc 1 304 0
 473 0056 4FF48060 		mov	r0, #1024
 474 005a FFF7FEFF 		bl	flexsea_error
 475              	.LVL63:
 305:..\..\flexsea-system\src/flexsea_cmd_control.c **** 		bytes = 0;
 476              		.loc 1 305 0
 477 005e 0020     		movs	r0, #0
 478              	.LVL64:
 479              	.L30:
 306:..\..\flexsea-system\src/flexsea_cmd_control.c **** 	}
 307:..\..\flexsea-system\src/flexsea_cmd_control.c **** 
 308:..\..\flexsea-system\src/flexsea_cmd_control.c **** 	return bytes;
 309:..\..\flexsea-system\src/flexsea_cmd_control.c **** }
 480              		.loc 1 309 0
 481 0060 02B0     		add	sp, sp, #8
 482              		.cfi_def_cfa_offset 16
 483              		@ sp needed
 484 0062 70BD     		pop	{r4, r5, r6, pc}
 485              	.LVL65:
 486              	.L34:
 487              		.align	2
 488              	.L33:
ARM GAS  C:\Users\Alex\AppData\Local\Temp\cchBAlOP.s 			page 15


 489 0064 00000000 		.word	board_id
 490              		.cfi_endproc
 491              	.LFE67:
 492              		.size	tx_cmd_ctrl_o, .-tx_cmd_ctrl_o
 493              		.section	.text.flexsea_payload_85,"ax",%progbits
 494              		.align	2
 495              		.weak	flexsea_payload_85
 496              		.thumb
 497              		.thumb_func
 498              		.type	flexsea_payload_85, %function
 499              	flexsea_payload_85:
 500              	.LFB68:
 310:..\..\flexsea-system\src/flexsea_cmd_control.c **** 
 311:..\..\flexsea-system\src/flexsea_cmd_control.c **** //Reception of a CTRL_O command
 312:..\..\flexsea-system\src/flexsea_cmd_control.c **** void rx_cmd_ctrl_o(uint8_t *buf)
 313:..\..\flexsea-system\src/flexsea_cmd_control.c **** {
 501              		.loc 1 313 0
 502              		.cfi_startproc
 503              		@ args = 0, pretend = 0, frame = 0
 504              		@ frame_needed = 0, uses_anonymous_args = 0
 505              	.LVL66:
 506 0000 30B5     		push	{r4, r5, lr}
 507              		.cfi_def_cfa_offset 12
 508              		.cfi_offset 4, -12
 509              		.cfi_offset 5, -8
 510              		.cfi_offset 14, -4
 511 0002 83B0     		sub	sp, sp, #12
 512              		.cfi_def_cfa_offset 24
 513              	.LVL67:
 314:..\..\flexsea-system\src/flexsea_cmd_control.c **** 	uint32_t numb = 0;
 315:..\..\flexsea-system\src/flexsea_cmd_control.c **** 	int16_t tmp_open_spd = 0;
 316:..\..\flexsea-system\src/flexsea_cmd_control.c **** 
 317:..\..\flexsea-system\src/flexsea_cmd_control.c **** 	if(IS_CMD_RW(buf[P_CMD1]) == READ)
 514              		.loc 1 317 0
 515 0004 C378     		ldrb	r3, [r0, #3]	@ zero_extendqisi2
 516 0006 13F00103 		ands	r3, r3, #1
 517 000a 14D0     		beq	.L36
 318:..\..\flexsea-system\src/flexsea_cmd_control.c **** 	{
 319:..\..\flexsea-system\src/flexsea_cmd_control.c **** 		//Received a Read command from our master, prepare a reply:
 320:..\..\flexsea-system\src/flexsea_cmd_control.c **** 
 321:..\..\flexsea-system\src/flexsea_cmd_control.c **** 		#ifdef BOARD_TYPE_FLEXSEA_EXECUTE
 322:..\..\flexsea-system\src/flexsea_cmd_control.c **** 
 323:..\..\flexsea-system\src/flexsea_cmd_control.c **** 		//Generate the reply:
 324:..\..\flexsea-system\src/flexsea_cmd_control.c **** 		numb = tx_cmd_ctrl_o(buf[P_XID], CMD_WRITE, tmp_payload_xmit, PAYLOAD_BUF_LEN, \
 518              		.loc 1 324 0
 519 000c 0078     		ldrb	r0, [r0]	@ zero_extendqisi2
 520              	.LVL68:
 325:..\..\flexsea-system\src/flexsea_cmd_control.c **** 			ctrl.pwm);
 521              		.loc 1 325 0
 522 000e 134B     		ldr	r3, .L39
 523 0010 5B78     		ldrb	r3, [r3, #1]	@ zero_extendqisi2
 324:..\..\flexsea-system\src/flexsea_cmd_control.c **** 			ctrl.pwm);
 524              		.loc 1 324 0
 525 0012 134D     		ldr	r5, .L39+4
 526 0014 0093     		str	r3, [sp]
 527 0016 0221     		movs	r1, #2
 528 0018 2A46     		mov	r2, r5
ARM GAS  C:\Users\Alex\AppData\Local\Temp\cchBAlOP.s 			page 16


 529 001a 2423     		movs	r3, #36
 530 001c FFF7FEFF 		bl	tx_cmd_ctrl_o
 531              	.LVL69:
 326:..\..\flexsea-system\src/flexsea_cmd_control.c **** 		numb = comm_gen_str(tmp_payload_xmit, comm_str_485, numb);
 532              		.loc 1 326 0
 533 0020 104C     		ldr	r4, .L39+8
 534 0022 C2B2     		uxtb	r2, r0
 535 0024 2846     		mov	r0, r5
 536              	.LVL70:
 537 0026 2146     		mov	r1, r4
 538 0028 FFF7FEFF 		bl	comm_gen_str
 539              	.LVL71:
 540 002c 0146     		mov	r1, r0
 541              	.LVL72:
 327:..\..\flexsea-system\src/flexsea_cmd_control.c **** 
 328:..\..\flexsea-system\src/flexsea_cmd_control.c **** 		//Notify the code that a buffer is ready to be transmitted:
 329:..\..\flexsea-system\src/flexsea_cmd_control.c **** 		//xmit_flag_1 = 1;
 330:..\..\flexsea-system\src/flexsea_cmd_control.c **** 		
 331:..\..\flexsea-system\src/flexsea_cmd_control.c **** 		//(for now, send it)
 332:..\..\flexsea-system\src/flexsea_cmd_control.c **** 		rs485_puts(comm_str_485, numb);
 542              		.loc 1 332 0
 543 002e 2046     		mov	r0, r4
 544              	.LVL73:
 545 0030 FFF7FEFF 		bl	rs485_puts
 546              	.LVL74:
 547 0034 10E0     		b	.L35
 548              	.LVL75:
 549              	.L36:
 333:..\..\flexsea-system\src/flexsea_cmd_control.c **** 
 334:..\..\flexsea-system\src/flexsea_cmd_control.c **** 		#endif	//BOARD_TYPE_FLEXSEA_EXECUTE
 335:..\..\flexsea-system\src/flexsea_cmd_control.c **** 	}
 336:..\..\flexsea-system\src/flexsea_cmd_control.c **** 	else if(IS_CMD_RW(buf[P_CMD1]) == WRITE)
 550              		.loc 1 336 0
 551 0036 7BB9     		cbnz	r3, .L35
 337:..\..\flexsea-system\src/flexsea_cmd_control.c **** 	{
 338:..\..\flexsea-system\src/flexsea_cmd_control.c **** 		//Two options: from Master of from slave (a read reply)
 339:..\..\flexsea-system\src/flexsea_cmd_control.c **** 
 340:..\..\flexsea-system\src/flexsea_cmd_control.c **** 		//Decode data:
 341:..\..\flexsea-system\src/flexsea_cmd_control.c **** 		tmp_open_spd = (int16_t) (BYTES_TO_UINT16(buf[P_DATA1], buf[P_DATA1+1]));
 552              		.loc 1 341 0
 553 0038 0279     		ldrb	r2, [r0, #4]	@ zero_extendqisi2
 554 003a 4379     		ldrb	r3, [r0, #5]	@ zero_extendqisi2
 555 003c 03EB0223 		add	r3, r3, r2, lsl #8
 556 0040 9CB2     		uxth	r4, r3
 557              	.LVL76:
 342:..\..\flexsea-system\src/flexsea_cmd_control.c **** 		//ToDo store that value somewhere useful
 343:..\..\flexsea-system\src/flexsea_cmd_control.c **** 
 344:..\..\flexsea-system\src/flexsea_cmd_control.c **** 		if(sent_from_a_slave(buf))
 558              		.loc 1 344 0
 559 0042 FFF7FEFF 		bl	sent_from_a_slave
 560              	.LVL77:
 561 0046 38B9     		cbnz	r0, .L35
 345:..\..\flexsea-system\src/flexsea_cmd_control.c **** 		{
 346:..\..\flexsea-system\src/flexsea_cmd_control.c **** 			//We received a reply to our read request
 347:..\..\flexsea-system\src/flexsea_cmd_control.c **** 
 348:..\..\flexsea-system\src/flexsea_cmd_control.c **** 			#ifdef BOARD_TYPE_FLEXSEA_MANAGE
 349:..\..\flexsea-system\src/flexsea_cmd_control.c **** 
ARM GAS  C:\Users\Alex\AppData\Local\Temp\cchBAlOP.s 			page 17


 350:..\..\flexsea-system\src/flexsea_cmd_control.c **** 			//Store value:
 351:..\..\flexsea-system\src/flexsea_cmd_control.c **** 			exec1.ctrl.pwm = tmp_open_spd;
 352:..\..\flexsea-system\src/flexsea_cmd_control.c **** 
 353:..\..\flexsea-system\src/flexsea_cmd_control.c **** 			#endif	//BOARD_TYPE_FLEXSEA_MANAGE
 354:..\..\flexsea-system\src/flexsea_cmd_control.c **** 
 355:..\..\flexsea-system\src/flexsea_cmd_control.c **** 			#ifdef BOARD_TYPE_FLEXSEA_PLAN
 356:..\..\flexsea-system\src/flexsea_cmd_control.c **** 
 357:..\..\flexsea-system\src/flexsea_cmd_control.c **** 			#ifdef USE_PRINTF
 358:..\..\flexsea-system\src/flexsea_cmd_control.c **** 			printf("Received CMD_CTRL_O. PWM DC = %i.\n", tmp_open_spd);
 359:..\..\flexsea-system\src/flexsea_cmd_control.c **** 			#endif	//USE_PRINTF
 360:..\..\flexsea-system\src/flexsea_cmd_control.c **** 
 361:..\..\flexsea-system\src/flexsea_cmd_control.c **** 			#endif	//BOARD_TYPE_FLEXSEA_PLAN
 362:..\..\flexsea-system\src/flexsea_cmd_control.c **** 		}
 363:..\..\flexsea-system\src/flexsea_cmd_control.c **** 		else
 364:..\..\flexsea-system\src/flexsea_cmd_control.c **** 		{
 365:..\..\flexsea-system\src/flexsea_cmd_control.c **** 			//Master is writing a value to this board
 366:..\..\flexsea-system\src/flexsea_cmd_control.c **** 
 367:..\..\flexsea-system\src/flexsea_cmd_control.c **** 			#ifdef BOARD_TYPE_FLEXSEA_EXECUTE
 368:..\..\flexsea-system\src/flexsea_cmd_control.c **** 
 369:..\..\flexsea-system\src/flexsea_cmd_control.c **** 			if(ctrl.active_ctrl == CTRL_OPEN)
 562              		.loc 1 369 0
 563 0048 044B     		ldr	r3, .L39
 564 004a 1B78     		ldrb	r3, [r3]	@ zero_extendqisi2
 565 004c DBB2     		uxtb	r3, r3
 566 004e 012B     		cmp	r3, #1
 567 0050 02D1     		bne	.L35
 370:..\..\flexsea-system\src/flexsea_cmd_control.c **** 			{
 371:..\..\flexsea-system\src/flexsea_cmd_control.c **** 				motor_open_speed_1(tmp_open_spd);
 568              		.loc 1 371 0
 569 0052 20B2     		sxth	r0, r4
 570 0054 FFF7FEFF 		bl	motor_open_speed_1
 571              	.LVL78:
 572              	.L35:
 372:..\..\flexsea-system\src/flexsea_cmd_control.c **** 			}
 373:..\..\flexsea-system\src/flexsea_cmd_control.c **** 
 374:..\..\flexsea-system\src/flexsea_cmd_control.c **** 			#endif	//BOARD_TYPE_FLEXSEA_EXECUTE
 375:..\..\flexsea-system\src/flexsea_cmd_control.c **** 		}
 376:..\..\flexsea-system\src/flexsea_cmd_control.c **** 	}
 377:..\..\flexsea-system\src/flexsea_cmd_control.c **** }
 573              		.loc 1 377 0
 574 0058 03B0     		add	sp, sp, #12
 575              		.cfi_def_cfa_offset 12
 576              		@ sp needed
 577 005a 30BD     		pop	{r4, r5, pc}
 578              	.L40:
 579              		.align	2
 580              	.L39:
 581 005c 00000000 		.word	ctrl
 582 0060 00000000 		.word	tmp_payload_xmit
 583 0064 00000000 		.word	comm_str_1
 584              		.cfi_endproc
 585              	.LFE68:
 586              		.size	flexsea_payload_85, .-flexsea_payload_85
 587              		.section	.text.tx_cmd_ctrl_p,"ax",%progbits
 588              		.align	2
 589              		.global	tx_cmd_ctrl_p
 590              		.thumb
ARM GAS  C:\Users\Alex\AppData\Local\Temp\cchBAlOP.s 			page 18


 591              		.thumb_func
 592              		.type	tx_cmd_ctrl_p, %function
 593              	tx_cmd_ctrl_p:
 594              	.LFB69:
 378:..\..\flexsea-system\src/flexsea_cmd_control.c **** 
 379:..\..\flexsea-system\src/flexsea_cmd_control.c **** //Transmission of a CTRL_P command
 380:..\..\flexsea-system\src/flexsea_cmd_control.c **** uint32_t tx_cmd_ctrl_p(uint8_t receiver, uint8_t cmd_type, uint8_t *buf, uint32_t len, \
 381:..\..\flexsea-system\src/flexsea_cmd_control.c **** 						int32_t pos, int32_t posi, int32_t posf, int32_t spdm, int32_t acc)
 382:..\..\flexsea-system\src/flexsea_cmd_control.c **** {
 595              		.loc 1 382 0
 596              		.cfi_startproc
 597              		@ args = 20, pretend = 0, frame = 8
 598              		@ frame_needed = 0, uses_anonymous_args = 0
 599              	.LVL79:
 600 0000 70B5     		push	{r4, r5, r6, lr}
 601              		.cfi_def_cfa_offset 16
 602              		.cfi_offset 4, -16
 603              		.cfi_offset 5, -12
 604              		.cfi_offset 6, -8
 605              		.cfi_offset 14, -4
 606 0002 84B0     		sub	sp, sp, #16
 607              		.cfi_def_cfa_offset 32
 608 0004 0646     		mov	r6, r0
 609 0006 0D46     		mov	r5, r1
 610 0008 1446     		mov	r4, r2
 383:..\..\flexsea-system\src/flexsea_cmd_control.c **** 	uint8_t tmp0 = 0, tmp1 = 0, tmp2 = 0, tmp3 = 0;
 611              		.loc 1 383 0
 612 000a 0021     		movs	r1, #0
 613              	.LVL80:
 614 000c 8DF80F10 		strb	r1, [sp, #15]
 615 0010 8DF80E10 		strb	r1, [sp, #14]
 616 0014 8DF80D10 		strb	r1, [sp, #13]
 617 0018 8DF80C10 		strb	r1, [sp, #12]
 618              	.LVL81:
 384:..\..\flexsea-system\src/flexsea_cmd_control.c **** 	uint32_t bytes = 0;
 385:..\..\flexsea-system\src/flexsea_cmd_control.c **** 
 386:..\..\flexsea-system\src/flexsea_cmd_control.c **** 	//Fresh payload string:
 387:..\..\flexsea-system\src/flexsea_cmd_control.c **** 	prepare_empty_payload(board_id, receiver, buf, len);
 619              		.loc 1 387 0
 620 001c 4449     		ldr	r1, .L46
 621 001e 0878     		ldrb	r0, [r1]	@ zero_extendqisi2
 622              	.LVL82:
 623 0020 3146     		mov	r1, r6
 624 0022 FFF7FEFF 		bl	prepare_empty_payload
 625              	.LVL83:
 388:..\..\flexsea-system\src/flexsea_cmd_control.c **** 
 389:..\..\flexsea-system\src/flexsea_cmd_control.c **** 	//Command:
 390:..\..\flexsea-system\src/flexsea_cmd_control.c **** 	buf[P_CMDS] = 1;                     //1 command in string
 626              		.loc 1 390 0
 627 0026 0123     		movs	r3, #1
 628 0028 A370     		strb	r3, [r4, #2]
 391:..\..\flexsea-system\src/flexsea_cmd_control.c **** 
 392:..\..\flexsea-system\src/flexsea_cmd_control.c **** 	if(cmd_type == CMD_READ)
 629              		.loc 1 392 0
 630 002a 9D42     		cmp	r5, r3
 631 002c 03D1     		bne	.L42
 393:..\..\flexsea-system\src/flexsea_cmd_control.c **** 	{
ARM GAS  C:\Users\Alex\AppData\Local\Temp\cchBAlOP.s 			page 19


 394:..\..\flexsea-system\src/flexsea_cmd_control.c **** 		buf[P_CMD1] = CMD_R(CMD_CTRL_P);
 632              		.loc 1 394 0
 633 002e AF23     		movs	r3, #175
 634 0030 E370     		strb	r3, [r4, #3]
 635              	.LVL84:
 395:..\..\flexsea-system\src/flexsea_cmd_control.c **** 
 396:..\..\flexsea-system\src/flexsea_cmd_control.c **** 		bytes = P_CMD1 + 1;     //Bytes is always last+1
 636              		.loc 1 396 0
 637 0032 0420     		movs	r0, #4
 638 0034 79E0     		b	.L43
 639              	.LVL85:
 640              	.L42:
 397:..\..\flexsea-system\src/flexsea_cmd_control.c **** 	}
 398:..\..\flexsea-system\src/flexsea_cmd_control.c **** 	else if(cmd_type == CMD_WRITE)
 641              		.loc 1 398 0
 642 0036 022D     		cmp	r5, #2
 643 0038 72D1     		bne	.L44
 399:..\..\flexsea-system\src/flexsea_cmd_control.c **** 	{
 400:..\..\flexsea-system\src/flexsea_cmd_control.c **** 		buf[P_CMD1] = CMD_W(CMD_CTRL_P);
 644              		.loc 1 400 0
 645 003a AE23     		movs	r3, #174
 646 003c E370     		strb	r3, [r4, #3]
 401:..\..\flexsea-system\src/flexsea_cmd_control.c **** 
 402:..\..\flexsea-system\src/flexsea_cmd_control.c **** 		//Arguments:
 403:..\..\flexsea-system\src/flexsea_cmd_control.c **** 		uint32_to_bytes((uint32_t)pos, &tmp0, &tmp1, &tmp2, &tmp3);
 647              		.loc 1 403 0
 648 003e 03AD     		add	r5, sp, #12
 649 0040 0095     		str	r5, [sp]
 650 0042 0898     		ldr	r0, [sp, #32]
 651 0044 0DF10F01 		add	r1, sp, #15
 652 0048 0DF10E02 		add	r2, sp, #14
 653 004c 0DF10D03 		add	r3, sp, #13
 654 0050 FFF7FEFF 		bl	uint32_to_bytes
 655              	.LVL86:
 404:..\..\flexsea-system\src/flexsea_cmd_control.c **** 		buf[P_DATA1 + 0] = tmp0;
 656              		.loc 1 404 0
 657 0054 9DF80F30 		ldrb	r3, [sp, #15]	@ zero_extendqisi2
 658 0058 2371     		strb	r3, [r4, #4]
 405:..\..\flexsea-system\src/flexsea_cmd_control.c **** 		buf[P_DATA1 + 1] = tmp1;
 659              		.loc 1 405 0
 660 005a 9DF80E30 		ldrb	r3, [sp, #14]	@ zero_extendqisi2
 661 005e 6371     		strb	r3, [r4, #5]
 406:..\..\flexsea-system\src/flexsea_cmd_control.c **** 		buf[P_DATA1 + 2] = tmp2;
 662              		.loc 1 406 0
 663 0060 9DF80D30 		ldrb	r3, [sp, #13]	@ zero_extendqisi2
 664 0064 A371     		strb	r3, [r4, #6]
 407:..\..\flexsea-system\src/flexsea_cmd_control.c **** 		buf[P_DATA1 + 3] = tmp3;
 665              		.loc 1 407 0
 666 0066 9DF80C30 		ldrb	r3, [sp, #12]	@ zero_extendqisi2
 667 006a E371     		strb	r3, [r4, #7]
 408:..\..\flexsea-system\src/flexsea_cmd_control.c **** 		uint32_to_bytes((uint32_t)posi, &tmp0, &tmp1, &tmp2, &tmp3);
 668              		.loc 1 408 0
 669 006c 0095     		str	r5, [sp]
 670 006e 0998     		ldr	r0, [sp, #36]
 671 0070 0DF10F01 		add	r1, sp, #15
 672 0074 0DF10E02 		add	r2, sp, #14
 673 0078 0DF10D03 		add	r3, sp, #13
ARM GAS  C:\Users\Alex\AppData\Local\Temp\cchBAlOP.s 			page 20


 674 007c FFF7FEFF 		bl	uint32_to_bytes
 675              	.LVL87:
 409:..\..\flexsea-system\src/flexsea_cmd_control.c **** 		buf[P_DATA1 + 4] = tmp0;
 676              		.loc 1 409 0
 677 0080 9DF80F30 		ldrb	r3, [sp, #15]	@ zero_extendqisi2
 678 0084 2372     		strb	r3, [r4, #8]
 410:..\..\flexsea-system\src/flexsea_cmd_control.c **** 		buf[P_DATA1 + 5] = tmp1;
 679              		.loc 1 410 0
 680 0086 9DF80E30 		ldrb	r3, [sp, #14]	@ zero_extendqisi2
 681 008a 6372     		strb	r3, [r4, #9]
 411:..\..\flexsea-system\src/flexsea_cmd_control.c **** 		buf[P_DATA1 + 6] = tmp2;
 682              		.loc 1 411 0
 683 008c 9DF80D30 		ldrb	r3, [sp, #13]	@ zero_extendqisi2
 684 0090 A372     		strb	r3, [r4, #10]
 412:..\..\flexsea-system\src/flexsea_cmd_control.c **** 		buf[P_DATA1 + 7] = tmp3;
 685              		.loc 1 412 0
 686 0092 9DF80C30 		ldrb	r3, [sp, #12]	@ zero_extendqisi2
 687 0096 E372     		strb	r3, [r4, #11]
 413:..\..\flexsea-system\src/flexsea_cmd_control.c **** 		uint32_to_bytes((uint32_t)posf, &tmp0, &tmp1, &tmp2, &tmp3);
 688              		.loc 1 413 0
 689 0098 0095     		str	r5, [sp]
 690 009a 0A98     		ldr	r0, [sp, #40]
 691 009c 0DF10F01 		add	r1, sp, #15
 692 00a0 0DF10E02 		add	r2, sp, #14
 693 00a4 0DF10D03 		add	r3, sp, #13
 694 00a8 FFF7FEFF 		bl	uint32_to_bytes
 695              	.LVL88:
 414:..\..\flexsea-system\src/flexsea_cmd_control.c **** 		buf[P_DATA1 + 8] = tmp0;
 696              		.loc 1 414 0
 697 00ac 9DF80F30 		ldrb	r3, [sp, #15]	@ zero_extendqisi2
 698 00b0 2373     		strb	r3, [r4, #12]
 415:..\..\flexsea-system\src/flexsea_cmd_control.c **** 		buf[P_DATA1 + 9] = tmp1;
 699              		.loc 1 415 0
 700 00b2 9DF80E30 		ldrb	r3, [sp, #14]	@ zero_extendqisi2
 701 00b6 6373     		strb	r3, [r4, #13]
 416:..\..\flexsea-system\src/flexsea_cmd_control.c **** 		buf[P_DATA1 + 10] = tmp2;
 702              		.loc 1 416 0
 703 00b8 9DF80D30 		ldrb	r3, [sp, #13]	@ zero_extendqisi2
 704 00bc A373     		strb	r3, [r4, #14]
 417:..\..\flexsea-system\src/flexsea_cmd_control.c **** 		buf[P_DATA1 + 11] = tmp3;
 705              		.loc 1 417 0
 706 00be 9DF80C30 		ldrb	r3, [sp, #12]	@ zero_extendqisi2
 707 00c2 E373     		strb	r3, [r4, #15]
 418:..\..\flexsea-system\src/flexsea_cmd_control.c **** 		uint32_to_bytes((uint32_t)spdm, &tmp0, &tmp1, &tmp2, &tmp3);
 708              		.loc 1 418 0
 709 00c4 0095     		str	r5, [sp]
 710 00c6 0B98     		ldr	r0, [sp, #44]
 711 00c8 0DF10F01 		add	r1, sp, #15
 712 00cc 0DF10E02 		add	r2, sp, #14
 713 00d0 0DF10D03 		add	r3, sp, #13
 714 00d4 FFF7FEFF 		bl	uint32_to_bytes
 715              	.LVL89:
 419:..\..\flexsea-system\src/flexsea_cmd_control.c **** 		buf[P_DATA1 + 12] = tmp0;
 716              		.loc 1 419 0
 717 00d8 9DF80F30 		ldrb	r3, [sp, #15]	@ zero_extendqisi2
 718 00dc 2374     		strb	r3, [r4, #16]
 420:..\..\flexsea-system\src/flexsea_cmd_control.c **** 		buf[P_DATA1 + 13] = tmp1;
ARM GAS  C:\Users\Alex\AppData\Local\Temp\cchBAlOP.s 			page 21


 719              		.loc 1 420 0
 720 00de 9DF80E30 		ldrb	r3, [sp, #14]	@ zero_extendqisi2
 721 00e2 6374     		strb	r3, [r4, #17]
 421:..\..\flexsea-system\src/flexsea_cmd_control.c **** 		buf[P_DATA1 + 14] = tmp2;
 722              		.loc 1 421 0
 723 00e4 9DF80D30 		ldrb	r3, [sp, #13]	@ zero_extendqisi2
 724 00e8 A374     		strb	r3, [r4, #18]
 422:..\..\flexsea-system\src/flexsea_cmd_control.c **** 		buf[P_DATA1 + 15] = tmp3;
 725              		.loc 1 422 0
 726 00ea 9DF80C30 		ldrb	r3, [sp, #12]	@ zero_extendqisi2
 727 00ee E374     		strb	r3, [r4, #19]
 423:..\..\flexsea-system\src/flexsea_cmd_control.c **** 		uint32_to_bytes((uint32_t)acc, &tmp0, &tmp1, &tmp2, &tmp3);
 728              		.loc 1 423 0
 729 00f0 0095     		str	r5, [sp]
 730 00f2 0C98     		ldr	r0, [sp, #48]
 731 00f4 0DF10F01 		add	r1, sp, #15
 732 00f8 0DF10E02 		add	r2, sp, #14
 733 00fc 0DF10D03 		add	r3, sp, #13
 734 0100 FFF7FEFF 		bl	uint32_to_bytes
 735              	.LVL90:
 424:..\..\flexsea-system\src/flexsea_cmd_control.c **** 		buf[P_DATA1 + 16] = tmp0;
 736              		.loc 1 424 0
 737 0104 9DF80F30 		ldrb	r3, [sp, #15]	@ zero_extendqisi2
 738 0108 2375     		strb	r3, [r4, #20]
 425:..\..\flexsea-system\src/flexsea_cmd_control.c **** 		buf[P_DATA1 + 17] = tmp1;
 739              		.loc 1 425 0
 740 010a 9DF80E30 		ldrb	r3, [sp, #14]	@ zero_extendqisi2
 741 010e 6375     		strb	r3, [r4, #21]
 426:..\..\flexsea-system\src/flexsea_cmd_control.c **** 		buf[P_DATA1 + 18] = tmp2;
 742              		.loc 1 426 0
 743 0110 9DF80D30 		ldrb	r3, [sp, #13]	@ zero_extendqisi2
 744 0114 A375     		strb	r3, [r4, #22]
 427:..\..\flexsea-system\src/flexsea_cmd_control.c **** 		buf[P_DATA1 + 19] = tmp3;
 745              		.loc 1 427 0
 746 0116 9DF80C30 		ldrb	r3, [sp, #12]	@ zero_extendqisi2
 747 011a E375     		strb	r3, [r4, #23]
 748              	.LVL91:
 428:..\..\flexsea-system\src/flexsea_cmd_control.c **** 
 429:..\..\flexsea-system\src/flexsea_cmd_control.c **** 		bytes = P_DATA1 + 20;     //Bytes is always last+1
 749              		.loc 1 429 0
 750 011c 1820     		movs	r0, #24
 751 011e 04E0     		b	.L43
 752              	.LVL92:
 753              	.L44:
 430:..\..\flexsea-system\src/flexsea_cmd_control.c **** 	}
 431:..\..\flexsea-system\src/flexsea_cmd_control.c **** 	else
 432:..\..\flexsea-system\src/flexsea_cmd_control.c **** 	{
 433:..\..\flexsea-system\src/flexsea_cmd_control.c **** 		//Invalid
 434:..\..\flexsea-system\src/flexsea_cmd_control.c **** 		flexsea_error(SE_INVALID_READ_TYPE);
 754              		.loc 1 434 0
 755 0120 4FF48060 		mov	r0, #1024
 756 0124 FFF7FEFF 		bl	flexsea_error
 757              	.LVL93:
 435:..\..\flexsea-system\src/flexsea_cmd_control.c **** 		bytes = 0;
 758              		.loc 1 435 0
 759 0128 0020     		movs	r0, #0
 760              	.LVL94:
ARM GAS  C:\Users\Alex\AppData\Local\Temp\cchBAlOP.s 			page 22


 761              	.L43:
 436:..\..\flexsea-system\src/flexsea_cmd_control.c **** 	}
 437:..\..\flexsea-system\src/flexsea_cmd_control.c **** 
 438:..\..\flexsea-system\src/flexsea_cmd_control.c **** 	return bytes;
 439:..\..\flexsea-system\src/flexsea_cmd_control.c **** }
 762              		.loc 1 439 0
 763 012a 04B0     		add	sp, sp, #16
 764              		.cfi_def_cfa_offset 16
 765              		@ sp needed
 766 012c 70BD     		pop	{r4, r5, r6, pc}
 767              	.LVL95:
 768              	.L47:
 769 012e 00BF     		.align	2
 770              	.L46:
 771 0130 00000000 		.word	board_id
 772              		.cfi_endproc
 773              	.LFE69:
 774              		.size	tx_cmd_ctrl_p, .-tx_cmd_ctrl_p
 775              		.section	.text.flexsea_payload_87,"ax",%progbits
 776              		.align	2
 777              		.weak	flexsea_payload_87
 778              		.thumb
 779              		.thumb_func
 780              		.type	flexsea_payload_87, %function
 781              	flexsea_payload_87:
 782              	.LFB70:
 440:..\..\flexsea-system\src/flexsea_cmd_control.c **** 
 441:..\..\flexsea-system\src/flexsea_cmd_control.c **** //Reception of a CTRL_P command
 442:..\..\flexsea-system\src/flexsea_cmd_control.c **** void rx_cmd_ctrl_p(uint8_t *buf)
 443:..\..\flexsea-system\src/flexsea_cmd_control.c **** {
 783              		.loc 1 443 0
 784              		.cfi_startproc
 785              		@ args = 0, pretend = 0, frame = 0
 786              		@ frame_needed = 0, uses_anonymous_args = 0
 787              	.LVL96:
 788 0000 2DE9F04F 		push	{r4, r5, r6, r7, r8, r9, r10, fp, lr}
 789              		.cfi_def_cfa_offset 36
 790              		.cfi_offset 4, -36
 791              		.cfi_offset 5, -32
 792              		.cfi_offset 6, -28
 793              		.cfi_offset 7, -24
 794              		.cfi_offset 8, -20
 795              		.cfi_offset 9, -16
 796              		.cfi_offset 10, -12
 797              		.cfi_offset 11, -8
 798              		.cfi_offset 14, -4
 799 0004 87B0     		sub	sp, sp, #28
 800              		.cfi_def_cfa_offset 64
 801              	.LVL97:
 444:..\..\flexsea-system\src/flexsea_cmd_control.c **** 	uint32_t numb = 0;
 445:..\..\flexsea-system\src/flexsea_cmd_control.c **** 	int32_t tmp_pos = 0, tmp_posi = 0, tmp_posf = 0, tmp_spdm = 0, tmp_acc = 0;
 446:..\..\flexsea-system\src/flexsea_cmd_control.c **** 	int16_t tmp_z_k = 0, tmp_z_b = 0, tmp_z_i = 0;
 447:..\..\flexsea-system\src/flexsea_cmd_control.c **** 
 448:..\..\flexsea-system\src/flexsea_cmd_control.c **** 	if(IS_CMD_RW(buf[P_CMD1]) == READ)
 802              		.loc 1 448 0
 803 0006 C378     		ldrb	r3, [r0, #3]	@ zero_extendqisi2
 804 0008 13F00103 		ands	r3, r3, #1
ARM GAS  C:\Users\Alex\AppData\Local\Temp\cchBAlOP.s 			page 23


 805 000c 1CD0     		beq	.L49
 449:..\..\flexsea-system\src/flexsea_cmd_control.c **** 	{
 450:..\..\flexsea-system\src/flexsea_cmd_control.c **** 		//Received a Read command from our master, prepare a reply:
 451:..\..\flexsea-system\src/flexsea_cmd_control.c **** 
 452:..\..\flexsea-system\src/flexsea_cmd_control.c **** 		#ifdef BOARD_TYPE_FLEXSEA_EXECUTE
 453:..\..\flexsea-system\src/flexsea_cmd_control.c **** 
 454:..\..\flexsea-system\src/flexsea_cmd_control.c **** 		//Generate the reply:
 455:..\..\flexsea-system\src/flexsea_cmd_control.c **** 		numb = tx_cmd_ctrl_p(buf[P_XID], CMD_WRITE, tmp_payload_xmit, PAYLOAD_BUF_LEN, \
 806              		.loc 1 455 0
 807 000e 0078     		ldrb	r0, [r0]	@ zero_extendqisi2
 808              	.LVL98:
 809 0010 4D4B     		ldr	r3, .L54
 810 0012 9E6D     		ldr	r6, [r3, #88]
 811 0014 1C6E     		ldr	r4, [r3, #96]
 812 0016 596E     		ldr	r1, [r3, #100]
 813 0018 9A6E     		ldr	r2, [r3, #104]
 814 001a DB6E     		ldr	r3, [r3, #108]
 815 001c 4B4D     		ldr	r5, .L54+4
 816 001e 0096     		str	r6, [sp]
 817 0020 0194     		str	r4, [sp, #4]
 818 0022 0291     		str	r1, [sp, #8]
 819 0024 0392     		str	r2, [sp, #12]
 820 0026 0493     		str	r3, [sp, #16]
 821 0028 0221     		movs	r1, #2
 822 002a 2A46     		mov	r2, r5
 823 002c 2423     		movs	r3, #36
 824 002e FFF7FEFF 		bl	tx_cmd_ctrl_p
 825              	.LVL99:
 456:..\..\flexsea-system\src/flexsea_cmd_control.c **** 			ctrl.position.pos, ctrl.position.posi, ctrl.position.posf, ctrl.position.spdm, ctrl.position.acc
 457:..\..\flexsea-system\src/flexsea_cmd_control.c **** 		numb = comm_gen_str(tmp_payload_xmit, comm_str_485, numb);
 826              		.loc 1 457 0
 827 0032 474C     		ldr	r4, .L54+8
 828 0034 C2B2     		uxtb	r2, r0
 829 0036 2846     		mov	r0, r5
 830              	.LVL100:
 831 0038 2146     		mov	r1, r4
 832 003a FFF7FEFF 		bl	comm_gen_str
 833              	.LVL101:
 834 003e 0146     		mov	r1, r0
 835              	.LVL102:
 458:..\..\flexsea-system\src/flexsea_cmd_control.c **** 
 459:..\..\flexsea-system\src/flexsea_cmd_control.c **** 		//Notify the code that a buffer is ready to be transmitted:
 460:..\..\flexsea-system\src/flexsea_cmd_control.c **** 		//xmit_flag_1 = 1;
 461:..\..\flexsea-system\src/flexsea_cmd_control.c **** 
 462:..\..\flexsea-system\src/flexsea_cmd_control.c **** 		//(for now, send it)
 463:..\..\flexsea-system\src/flexsea_cmd_control.c **** 		rs485_puts(comm_str_485, numb);
 836              		.loc 1 463 0
 837 0040 2046     		mov	r0, r4
 838              	.LVL103:
 839 0042 FFF7FEFF 		bl	rs485_puts
 840              	.LVL104:
 841 0046 7BE0     		b	.L48
 842              	.LVL105:
 843              	.L49:
 464:..\..\flexsea-system\src/flexsea_cmd_control.c **** 
 465:..\..\flexsea-system\src/flexsea_cmd_control.c **** 		#endif	//BOARD_TYPE_FLEXSEA_EXECUTE
 466:..\..\flexsea-system\src/flexsea_cmd_control.c **** 	}
ARM GAS  C:\Users\Alex\AppData\Local\Temp\cchBAlOP.s 			page 24


 467:..\..\flexsea-system\src/flexsea_cmd_control.c **** 	else if(IS_CMD_RW(buf[P_CMD1]) == WRITE)
 844              		.loc 1 467 0
 845 0048 002B     		cmp	r3, #0
 846 004a 79D1     		bne	.L48
 847              	.LVL106:
 468:..\..\flexsea-system\src/flexsea_cmd_control.c **** 	{
 469:..\..\flexsea-system\src/flexsea_cmd_control.c **** 		//Two options: from Master of from slave (a read reply)
 470:..\..\flexsea-system\src/flexsea_cmd_control.c **** 
 471:..\..\flexsea-system\src/flexsea_cmd_control.c **** 		//Decode data:
 472:..\..\flexsea-system\src/flexsea_cmd_control.c **** 		tmp_pos = (int32_t) (BYTES_TO_UINT32(buf[P_DATA1 + 0], buf[P_DATA1 + 1], buf[P_DATA1 + 2], buf[P_
 473:..\..\flexsea-system\src/flexsea_cmd_control.c **** 		tmp_posi = (int32_t) (BYTES_TO_UINT32(buf[P_DATA1 + 4], buf[P_DATA1 + 5], buf[P_DATA1 + 6], buf[P
 848              		.loc 1 473 0
 849 004c 057A     		ldrb	r5, [r0, #8]	@ zero_extendqisi2
 850 004e 437A     		ldrb	r3, [r0, #9]	@ zero_extendqisi2
 851 0050 1B04     		lsls	r3, r3, #16
 852 0052 03EB0563 		add	r3, r3, r5, lsl #24
 853 0056 857A     		ldrb	r5, [r0, #10]	@ zero_extendqisi2
 854 0058 03EB0523 		add	r3, r3, r5, lsl #8
 855 005c C57A     		ldrb	r5, [r0, #11]	@ zero_extendqisi2
 856 005e 1D44     		add	r5, r5, r3
 857              	.LVL107:
 474:..\..\flexsea-system\src/flexsea_cmd_control.c **** 		tmp_posf = (int32_t) (BYTES_TO_UINT32(buf[P_DATA1 + 8], buf[P_DATA1 + 9], buf[P_DATA1 + 10], buf[
 858              		.loc 1 474 0
 859 0060 047B     		ldrb	r4, [r0, #12]	@ zero_extendqisi2
 860 0062 437B     		ldrb	r3, [r0, #13]	@ zero_extendqisi2
 861 0064 1B04     		lsls	r3, r3, #16
 862 0066 03EB0463 		add	r3, r3, r4, lsl #24
 863 006a 847B     		ldrb	r4, [r0, #14]	@ zero_extendqisi2
 864 006c 03EB0423 		add	r3, r3, r4, lsl #8
 865 0070 C47B     		ldrb	r4, [r0, #15]	@ zero_extendqisi2
 866 0072 1C44     		add	r4, r4, r3
 867              	.LVL108:
 475:..\..\flexsea-system\src/flexsea_cmd_control.c **** 		tmp_spdm = (int32_t) (BYTES_TO_UINT32(buf[P_DATA1 + 12], buf[P_DATA1 + 13], buf[P_DATA1 + 14], bu
 868              		.loc 1 475 0
 869 0074 027C     		ldrb	r2, [r0, #16]	@ zero_extendqisi2
 870 0076 437C     		ldrb	r3, [r0, #17]	@ zero_extendqisi2
 871 0078 1B04     		lsls	r3, r3, #16
 872 007a 03EB0263 		add	r3, r3, r2, lsl #24
 873 007e 827C     		ldrb	r2, [r0, #18]	@ zero_extendqisi2
 874 0080 03EB0223 		add	r3, r3, r2, lsl #8
 875 0084 C67C     		ldrb	r6, [r0, #19]	@ zero_extendqisi2
 876 0086 1E44     		add	r6, r6, r3
 877              	.LVL109:
 476:..\..\flexsea-system\src/flexsea_cmd_control.c **** 		tmp_acc = (int32_t) (BYTES_TO_UINT32(buf[P_DATA1 + 16], buf[P_DATA1 + 17], buf[P_DATA1 + 18], buf
 878              		.loc 1 476 0
 879 0088 027D     		ldrb	r2, [r0, #20]	@ zero_extendqisi2
 880 008a 437D     		ldrb	r3, [r0, #21]	@ zero_extendqisi2
 881 008c 1B04     		lsls	r3, r3, #16
 882 008e 03EB0263 		add	r3, r3, r2, lsl #24
 883 0092 827D     		ldrb	r2, [r0, #22]	@ zero_extendqisi2
 884 0094 03EB0223 		add	r3, r3, r2, lsl #8
 885 0098 C77D     		ldrb	r7, [r0, #23]	@ zero_extendqisi2
 886 009a 1F44     		add	r7, r7, r3
 887              	.LVL110:
 477:..\..\flexsea-system\src/flexsea_cmd_control.c **** 		//ToDo store that value somewhere useful
 478:..\..\flexsea-system\src/flexsea_cmd_control.c **** 
 479:..\..\flexsea-system\src/flexsea_cmd_control.c **** 		if(sent_from_a_slave(buf))
ARM GAS  C:\Users\Alex\AppData\Local\Temp\cchBAlOP.s 			page 25


 888              		.loc 1 479 0
 889 009c FFF7FEFF 		bl	sent_from_a_slave
 890              	.LVL111:
 891 00a0 20B1     		cbz	r0, .L51
 480:..\..\flexsea-system\src/flexsea_cmd_control.c **** 		{
 481:..\..\flexsea-system\src/flexsea_cmd_control.c **** 			//We received a reply to our read request
 482:..\..\flexsea-system\src/flexsea_cmd_control.c **** 
 483:..\..\flexsea-system\src/flexsea_cmd_control.c **** 			#ifdef BOARD_TYPE_FLEXSEA_EXECUTE
 484:..\..\flexsea-system\src/flexsea_cmd_control.c **** 			//No code (yet), you shouldn't be here...
 485:..\..\flexsea-system\src/flexsea_cmd_control.c **** 			flexsea_error(SE_CMD_NOT_PROGRAMMED);
 892              		.loc 1 485 0
 893 00a2 4FF40070 		mov	r0, #512
 894 00a6 FFF7FEFF 		bl	flexsea_error
 895              	.LVL112:
 896 00aa 49E0     		b	.L48
 897              	.L51:
 486:..\..\flexsea-system\src/flexsea_cmd_control.c **** 			#endif	//BOARD_TYPE_FLEXSEA_EXECUTE
 487:..\..\flexsea-system\src/flexsea_cmd_control.c **** 
 488:..\..\flexsea-system\src/flexsea_cmd_control.c **** 			#if((defined BOARD_TYPE_FLEXSEA_MANAGE) || (defined BOARD_TYPE_FLEXSEA_PLAN))
 489:..\..\flexsea-system\src/flexsea_cmd_control.c **** 
 490:..\..\flexsea-system\src/flexsea_cmd_control.c **** 			//Store value:
 491:..\..\flexsea-system\src/flexsea_cmd_control.c **** 			exec1.ctrl.position.pos = tmp_pos;
 492:..\..\flexsea-system\src/flexsea_cmd_control.c **** 			exec1.ctrl.position.posi = tmp_posi;
 493:..\..\flexsea-system\src/flexsea_cmd_control.c **** 			exec1.ctrl.position.posf = tmp_posf;
 494:..\..\flexsea-system\src/flexsea_cmd_control.c **** 			exec1.ctrl.position.spdm = tmp_spdm;
 495:..\..\flexsea-system\src/flexsea_cmd_control.c **** 			exec1.ctrl.position.acc = tmp_acc;
 496:..\..\flexsea-system\src/flexsea_cmd_control.c **** 
 497:..\..\flexsea-system\src/flexsea_cmd_control.c **** 			#endif	//((defined BOARD_TYPE_FLEXSEA_MANAGE) || (defined BOARD_TYPE_FLEXSEA_PLAN))
 498:..\..\flexsea-system\src/flexsea_cmd_control.c **** 
 499:..\..\flexsea-system\src/flexsea_cmd_control.c **** 		}
 500:..\..\flexsea-system\src/flexsea_cmd_control.c **** 		else
 501:..\..\flexsea-system\src/flexsea_cmd_control.c **** 		{
 502:..\..\flexsea-system\src/flexsea_cmd_control.c **** 			//Master is writing a value to this board
 503:..\..\flexsea-system\src/flexsea_cmd_control.c **** 
 504:..\..\flexsea-system\src/flexsea_cmd_control.c **** 			#ifdef BOARD_TYPE_FLEXSEA_EXECUTE
 505:..\..\flexsea-system\src/flexsea_cmd_control.c **** 
 506:..\..\flexsea-system\src/flexsea_cmd_control.c **** 			//Store value:
 507:..\..\flexsea-system\src/flexsea_cmd_control.c **** 			//ctrl.position.pos = tmp_pos;
 508:..\..\flexsea-system\src/flexsea_cmd_control.c **** 			ctrl.position.posi = tmp_posi;
 898              		.loc 1 508 0
 899 00ac 264B     		ldr	r3, .L54
 900 00ae 1D66     		str	r5, [r3, #96]
 509:..\..\flexsea-system\src/flexsea_cmd_control.c **** 			ctrl.position.posf = tmp_posf;
 901              		.loc 1 509 0
 902 00b0 5C66     		str	r4, [r3, #100]
 510:..\..\flexsea-system\src/flexsea_cmd_control.c **** 			ctrl.position.spdm = tmp_spdm;
 903              		.loc 1 510 0
 904 00b2 9E66     		str	r6, [r3, #104]
 511:..\..\flexsea-system\src/flexsea_cmd_control.c **** 			ctrl.position.acc = tmp_acc;
 905              		.loc 1 511 0
 906 00b4 DF66     		str	r7, [r3, #108]
 512:..\..\flexsea-system\src/flexsea_cmd_control.c **** 
 513:..\..\flexsea-system\src/flexsea_cmd_control.c **** 			if(ctrl.active_ctrl == CTRL_POSITION)
 907              		.loc 1 513 0
 908 00b6 1B78     		ldrb	r3, [r3]	@ zero_extendqisi2
 909 00b8 DBB2     		uxtb	r3, r3
 910 00ba 022B     		cmp	r3, #2
ARM GAS  C:\Users\Alex\AppData\Local\Temp\cchBAlOP.s 			page 26


 911 00bc 10D1     		bne	.L52
 514:..\..\flexsea-system\src/flexsea_cmd_control.c **** 			{
 515:..\..\flexsea-system\src/flexsea_cmd_control.c **** 				steps = trapez_gen_motion_1(tmp_posi, tmp_posf, tmp_spdm, tmp_acc);
 912              		.loc 1 515 0
 913 00be 3246     		mov	r2, r6
 914 00c0 F317     		asrs	r3, r6, #31
 915 00c2 CDE90023 		strd	r2, [sp]
 916 00c6 3A46     		mov	r2, r7
 917 00c8 FB17     		asrs	r3, r7, #31
 918 00ca CDE90223 		strd	r2, [sp, #8]
 919 00ce 2846     		mov	r0, r5
 920 00d0 E917     		asrs	r1, r5, #31
 921 00d2 2246     		mov	r2, r4
 922 00d4 E317     		asrs	r3, r4, #31
 923 00d6 FFF7FEFF 		bl	trapez_gen_motion_1
 924              	.LVL113:
 925 00da 1E4B     		ldr	r3, .L54+12
 926 00dc 1860     		str	r0, [r3]
 927 00de 2FE0     		b	.L48
 928              	.L52:
 516:..\..\flexsea-system\src/flexsea_cmd_control.c **** 			}
 517:..\..\flexsea-system\src/flexsea_cmd_control.c **** 			else if(ctrl.active_ctrl == CTRL_IMPEDANCE)
 929              		.loc 1 517 0
 930 00e0 194B     		ldr	r3, .L54
 931 00e2 1B78     		ldrb	r3, [r3]	@ zero_extendqisi2
 932 00e4 DBB2     		uxtb	r3, r3
 933 00e6 042B     		cmp	r3, #4
 934 00e8 2AD1     		bne	.L48
 518:..\..\flexsea-system\src/flexsea_cmd_control.c **** 			{
 519:..\..\flexsea-system\src/flexsea_cmd_control.c **** 				//Backup gains
 520:..\..\flexsea-system\src/flexsea_cmd_control.c **** 				tmp_z_k = ctrl.impedance.gain.Z_K;
 935              		.loc 1 520 0
 936 00ea DFF85C80 		ldr	r8, .L54
 937 00ee B8F880B0 		ldrh	fp, [r8, #128]
 938 00f2 1FFA8BFB 		uxth	fp, fp
 939              	.LVL114:
 521:..\..\flexsea-system\src/flexsea_cmd_control.c **** 				tmp_z_b = ctrl.impedance.gain.Z_B;
 940              		.loc 1 521 0
 941 00f6 B8F882A0 		ldrh	r10, [r8, #130]
 942 00fa 1FFA8AFA 		uxth	r10, r10
 943              	.LVL115:
 522:..\..\flexsea-system\src/flexsea_cmd_control.c **** 				tmp_z_i = ctrl.impedance.gain.Z_I;
 944              		.loc 1 522 0
 945 00fe B8F88490 		ldrh	r9, [r8, #132]
 946 0102 1FFA89F9 		uxth	r9, r9
 947              	.LVL116:
 523:..\..\flexsea-system\src/flexsea_cmd_control.c **** 
 524:..\..\flexsea-system\src/flexsea_cmd_control.c **** 				//Zero them
 525:..\..\flexsea-system\src/flexsea_cmd_control.c **** 				ctrl.impedance.gain.Z_K = 0;
 948              		.loc 1 525 0
 949 0106 0023     		movs	r3, #0
 950 0108 A8F88030 		strh	r3, [r8, #128]	@ movhi
 526:..\..\flexsea-system\src/flexsea_cmd_control.c **** 				ctrl.impedance.gain.Z_B = 0;
 951              		.loc 1 526 0
 952 010c A8F88230 		strh	r3, [r8, #130]	@ movhi
 527:..\..\flexsea-system\src/flexsea_cmd_control.c **** 				ctrl.impedance.gain.Z_I = 0;
 953              		.loc 1 527 0
ARM GAS  C:\Users\Alex\AppData\Local\Temp\cchBAlOP.s 			page 27


 954 0110 A8F88430 		strh	r3, [r8, #132]	@ movhi
 528:..\..\flexsea-system\src/flexsea_cmd_control.c **** 
 529:..\..\flexsea-system\src/flexsea_cmd_control.c **** 				//New trajectory
 530:..\..\flexsea-system\src/flexsea_cmd_control.c **** 				steps = trapez_gen_motion_1(tmp_posi, tmp_posf, tmp_spdm, tmp_acc);
 955              		.loc 1 530 0
 956 0114 3246     		mov	r2, r6
 957 0116 F317     		asrs	r3, r6, #31
 958 0118 CDE90023 		strd	r2, [sp]
 959 011c 3A46     		mov	r2, r7
 960 011e FB17     		asrs	r3, r7, #31
 961 0120 CDE90223 		strd	r2, [sp, #8]
 962 0124 2846     		mov	r0, r5
 963 0126 E917     		asrs	r1, r5, #31
 964 0128 2246     		mov	r2, r4
 965 012a E317     		asrs	r3, r4, #31
 966 012c FFF7FEFF 		bl	trapez_gen_motion_1
 967              	.LVL117:
 968 0130 084B     		ldr	r3, .L54+12
 969 0132 1860     		str	r0, [r3]
 531:..\..\flexsea-system\src/flexsea_cmd_control.c **** 
 532:..\..\flexsea-system\src/flexsea_cmd_control.c **** 				//Restore gains
 533:..\..\flexsea-system\src/flexsea_cmd_control.c **** 				ctrl.impedance.gain.Z_K = tmp_z_k;
 970              		.loc 1 533 0
 971 0134 A8F880B0 		strh	fp, [r8, #128]	@ movhi
 534:..\..\flexsea-system\src/flexsea_cmd_control.c **** 				ctrl.impedance.gain.Z_B = tmp_z_b;
 972              		.loc 1 534 0
 973 0138 A8F882A0 		strh	r10, [r8, #130]	@ movhi
 535:..\..\flexsea-system\src/flexsea_cmd_control.c **** 				ctrl.impedance.gain.Z_I = tmp_z_i;
 974              		.loc 1 535 0
 975 013c A8F88490 		strh	r9, [r8, #132]	@ movhi
 976              	.LVL118:
 977              	.L48:
 536:..\..\flexsea-system\src/flexsea_cmd_control.c **** 			}
 537:..\..\flexsea-system\src/flexsea_cmd_control.c **** 
 538:..\..\flexsea-system\src/flexsea_cmd_control.c **** 
 539:..\..\flexsea-system\src/flexsea_cmd_control.c **** 			#endif	//BOARD_TYPE_FLEXSEA_EXECUTE
 540:..\..\flexsea-system\src/flexsea_cmd_control.c **** 		}
 541:..\..\flexsea-system\src/flexsea_cmd_control.c **** 	}
 542:..\..\flexsea-system\src/flexsea_cmd_control.c **** }
 978              		.loc 1 542 0
 979 0140 07B0     		add	sp, sp, #28
 980              		.cfi_def_cfa_offset 36
 981              		@ sp needed
 982 0142 BDE8F08F 		pop	{r4, r5, r6, r7, r8, r9, r10, fp, pc}
 983              	.L55:
 984 0146 00BF     		.align	2
 985              	.L54:
 986 0148 00000000 		.word	ctrl
 987 014c 00000000 		.word	tmp_payload_xmit
 988 0150 00000000 		.word	comm_str_1
 989 0154 00000000 		.word	steps
 990              		.cfi_endproc
 991              	.LFE70:
 992              		.size	flexsea_payload_87, .-flexsea_payload_87
 993              		.section	.text.tx_cmd_ctrl_i_g,"ax",%progbits
 994              		.align	2
 995              		.global	tx_cmd_ctrl_i_g
ARM GAS  C:\Users\Alex\AppData\Local\Temp\cchBAlOP.s 			page 28


 996              		.thumb
 997              		.thumb_func
 998              		.type	tx_cmd_ctrl_i_g, %function
 999              	tx_cmd_ctrl_i_g:
 1000              	.LFB71:
 543:..\..\flexsea-system\src/flexsea_cmd_control.c **** 
 544:..\..\flexsea-system\src/flexsea_cmd_control.c **** //Transmission of a CTRL_I_G command
 545:..\..\flexsea-system\src/flexsea_cmd_control.c **** uint32_t tx_cmd_ctrl_i_g(uint8_t receiver, uint8_t cmd_type, uint8_t *buf, uint32_t len, \
 546:..\..\flexsea-system\src/flexsea_cmd_control.c **** 						int16_t kp, int16_t ki, int16_t kd)
 547:..\..\flexsea-system\src/flexsea_cmd_control.c **** {
 1001              		.loc 1 547 0
 1002              		.cfi_startproc
 1003              		@ args = 12, pretend = 0, frame = 8
 1004              		@ frame_needed = 0, uses_anonymous_args = 0
 1005              	.LVL119:
 1006 0000 70B5     		push	{r4, r5, r6, lr}
 1007              		.cfi_def_cfa_offset 16
 1008              		.cfi_offset 4, -16
 1009              		.cfi_offset 5, -12
 1010              		.cfi_offset 6, -8
 1011              		.cfi_offset 14, -4
 1012 0002 82B0     		sub	sp, sp, #8
 1013              		.cfi_def_cfa_offset 24
 1014 0004 0646     		mov	r6, r0
 1015 0006 0D46     		mov	r5, r1
 1016 0008 1446     		mov	r4, r2
 548:..\..\flexsea-system\src/flexsea_cmd_control.c **** 	uint8_t tmp0 = 0, tmp1 = 0;
 1017              		.loc 1 548 0
 1018 000a 0021     		movs	r1, #0
 1019              	.LVL120:
 1020 000c 8DF80710 		strb	r1, [sp, #7]
 1021 0010 8DF80610 		strb	r1, [sp, #6]
 1022              	.LVL121:
 549:..\..\flexsea-system\src/flexsea_cmd_control.c **** 	uint32_t bytes = 0;
 550:..\..\flexsea-system\src/flexsea_cmd_control.c **** 
 551:..\..\flexsea-system\src/flexsea_cmd_control.c **** 	//Fresh payload string:
 552:..\..\flexsea-system\src/flexsea_cmd_control.c **** 	prepare_empty_payload(board_id, receiver, buf, len);
 1023              		.loc 1 552 0
 1024 0014 2149     		ldr	r1, .L61
 1025 0016 0878     		ldrb	r0, [r1]	@ zero_extendqisi2
 1026              	.LVL122:
 1027 0018 3146     		mov	r1, r6
 1028 001a FFF7FEFF 		bl	prepare_empty_payload
 1029              	.LVL123:
 553:..\..\flexsea-system\src/flexsea_cmd_control.c **** 
 554:..\..\flexsea-system\src/flexsea_cmd_control.c **** 	//Command:
 555:..\..\flexsea-system\src/flexsea_cmd_control.c **** 	buf[P_CMDS] = 1;                     //1 command in string
 1030              		.loc 1 555 0
 1031 001e 0123     		movs	r3, #1
 1032 0020 A370     		strb	r3, [r4, #2]
 556:..\..\flexsea-system\src/flexsea_cmd_control.c **** 
 557:..\..\flexsea-system\src/flexsea_cmd_control.c **** 	if(cmd_type == CMD_READ)
 1033              		.loc 1 557 0
 1034 0022 9D42     		cmp	r5, r3
 1035 0024 03D1     		bne	.L57
 558:..\..\flexsea-system\src/flexsea_cmd_control.c **** 	{
 559:..\..\flexsea-system\src/flexsea_cmd_control.c **** 		buf[P_CMD1] = CMD_R(CMD_CTRL_I_G);
ARM GAS  C:\Users\Alex\AppData\Local\Temp\cchBAlOP.s 			page 29


 1036              		.loc 1 559 0
 1037 0026 A523     		movs	r3, #165
 1038 0028 E370     		strb	r3, [r4, #3]
 1039              	.LVL124:
 560:..\..\flexsea-system\src/flexsea_cmd_control.c **** 
 561:..\..\flexsea-system\src/flexsea_cmd_control.c **** 		bytes = P_CMD1 + 1;     //Bytes is always last+1
 1040              		.loc 1 561 0
 1041 002a 0420     		movs	r0, #4
 1042 002c 34E0     		b	.L58
 1043              	.LVL125:
 1044              	.L57:
 562:..\..\flexsea-system\src/flexsea_cmd_control.c **** 	}
 563:..\..\flexsea-system\src/flexsea_cmd_control.c **** 	else if(cmd_type == CMD_WRITE)
 1045              		.loc 1 563 0
 1046 002e 022D     		cmp	r5, #2
 1047 0030 2DD1     		bne	.L59
 564:..\..\flexsea-system\src/flexsea_cmd_control.c **** 	{
 565:..\..\flexsea-system\src/flexsea_cmd_control.c **** 		buf[P_CMD1] = CMD_W(CMD_CTRL_I_G);
 1048              		.loc 1 565 0
 1049 0032 A423     		movs	r3, #164
 1050 0034 E370     		strb	r3, [r4, #3]
 566:..\..\flexsea-system\src/flexsea_cmd_control.c **** 
 567:..\..\flexsea-system\src/flexsea_cmd_control.c **** 		//Arguments:
 568:..\..\flexsea-system\src/flexsea_cmd_control.c **** 		uint16_to_bytes((uint16_t)kp, &tmp0, &tmp1);
 1051              		.loc 1 568 0
 1052 0036 BDF81800 		ldrh	r0, [sp, #24]
 1053 003a 0DF10701 		add	r1, sp, #7
 1054 003e 0DF10602 		add	r2, sp, #6
 1055 0042 FFF7FEFF 		bl	uint16_to_bytes
 1056              	.LVL126:
 569:..\..\flexsea-system\src/flexsea_cmd_control.c **** 		buf[P_DATA1 + 0] = tmp0;
 1057              		.loc 1 569 0
 1058 0046 9DF80730 		ldrb	r3, [sp, #7]	@ zero_extendqisi2
 1059 004a 2371     		strb	r3, [r4, #4]
 570:..\..\flexsea-system\src/flexsea_cmd_control.c **** 		buf[P_DATA1 + 1] = tmp1;
 1060              		.loc 1 570 0
 1061 004c 9DF80630 		ldrb	r3, [sp, #6]	@ zero_extendqisi2
 1062 0050 6371     		strb	r3, [r4, #5]
 571:..\..\flexsea-system\src/flexsea_cmd_control.c **** 		uint16_to_bytes((uint16_t)ki, &tmp0, &tmp1);
 1063              		.loc 1 571 0
 1064 0052 BDF81C00 		ldrh	r0, [sp, #28]
 1065 0056 0DF10701 		add	r1, sp, #7
 1066 005a 0DF10602 		add	r2, sp, #6
 1067 005e FFF7FEFF 		bl	uint16_to_bytes
 1068              	.LVL127:
 572:..\..\flexsea-system\src/flexsea_cmd_control.c **** 		buf[P_DATA1 + 2] = tmp0;
 1069              		.loc 1 572 0
 1070 0062 9DF80730 		ldrb	r3, [sp, #7]	@ zero_extendqisi2
 1071 0066 A371     		strb	r3, [r4, #6]
 573:..\..\flexsea-system\src/flexsea_cmd_control.c **** 		buf[P_DATA1 + 3] = tmp1;
 1072              		.loc 1 573 0
 1073 0068 9DF80630 		ldrb	r3, [sp, #6]	@ zero_extendqisi2
 1074 006c E371     		strb	r3, [r4, #7]
 574:..\..\flexsea-system\src/flexsea_cmd_control.c **** 		uint16_to_bytes((uint16_t)kd, &tmp0, &tmp1);
 1075              		.loc 1 574 0
 1076 006e BDF82000 		ldrh	r0, [sp, #32]
 1077 0072 0DF10701 		add	r1, sp, #7
ARM GAS  C:\Users\Alex\AppData\Local\Temp\cchBAlOP.s 			page 30


 1078 0076 0DF10602 		add	r2, sp, #6
 1079 007a FFF7FEFF 		bl	uint16_to_bytes
 1080              	.LVL128:
 575:..\..\flexsea-system\src/flexsea_cmd_control.c **** 		buf[P_DATA1 + 4] = tmp0;
 1081              		.loc 1 575 0
 1082 007e 9DF80730 		ldrb	r3, [sp, #7]	@ zero_extendqisi2
 1083 0082 2372     		strb	r3, [r4, #8]
 576:..\..\flexsea-system\src/flexsea_cmd_control.c **** 		buf[P_DATA1 + 5] = tmp1;
 1084              		.loc 1 576 0
 1085 0084 9DF80630 		ldrb	r3, [sp, #6]	@ zero_extendqisi2
 1086 0088 6372     		strb	r3, [r4, #9]
 1087              	.LVL129:
 577:..\..\flexsea-system\src/flexsea_cmd_control.c **** 
 578:..\..\flexsea-system\src/flexsea_cmd_control.c **** 
 579:..\..\flexsea-system\src/flexsea_cmd_control.c **** 		bytes = P_DATA1 + 6;     //Bytes is always last+1
 1088              		.loc 1 579 0
 1089 008a 0A20     		movs	r0, #10
 1090 008c 04E0     		b	.L58
 1091              	.LVL130:
 1092              	.L59:
 580:..\..\flexsea-system\src/flexsea_cmd_control.c **** 	}
 581:..\..\flexsea-system\src/flexsea_cmd_control.c **** 	else
 582:..\..\flexsea-system\src/flexsea_cmd_control.c **** 	{
 583:..\..\flexsea-system\src/flexsea_cmd_control.c **** 		//Invalid
 584:..\..\flexsea-system\src/flexsea_cmd_control.c **** 		flexsea_error(SE_INVALID_READ_TYPE);
 1093              		.loc 1 584 0
 1094 008e 4FF48060 		mov	r0, #1024
 1095 0092 FFF7FEFF 		bl	flexsea_error
 1096              	.LVL131:
 585:..\..\flexsea-system\src/flexsea_cmd_control.c **** 		bytes = 0;
 1097              		.loc 1 585 0
 1098 0096 0020     		movs	r0, #0
 1099              	.LVL132:
 1100              	.L58:
 586:..\..\flexsea-system\src/flexsea_cmd_control.c **** 	}
 587:..\..\flexsea-system\src/flexsea_cmd_control.c **** 
 588:..\..\flexsea-system\src/flexsea_cmd_control.c **** 	return bytes;
 589:..\..\flexsea-system\src/flexsea_cmd_control.c **** }
 1101              		.loc 1 589 0
 1102 0098 02B0     		add	sp, sp, #8
 1103              		.cfi_def_cfa_offset 16
 1104              		@ sp needed
 1105 009a 70BD     		pop	{r4, r5, r6, pc}
 1106              	.LVL133:
 1107              	.L62:
 1108              		.align	2
 1109              	.L61:
 1110 009c 00000000 		.word	board_id
 1111              		.cfi_endproc
 1112              	.LFE71:
 1113              		.size	tx_cmd_ctrl_i_g, .-tx_cmd_ctrl_i_g
 1114              		.section	.text.flexsea_payload_82,"ax",%progbits
 1115              		.align	2
 1116              		.weak	flexsea_payload_82
 1117              		.thumb
 1118              		.thumb_func
 1119              		.type	flexsea_payload_82, %function
ARM GAS  C:\Users\Alex\AppData\Local\Temp\cchBAlOP.s 			page 31


 1120              	flexsea_payload_82:
 1121              	.LFB72:
 590:..\..\flexsea-system\src/flexsea_cmd_control.c **** 
 591:..\..\flexsea-system\src/flexsea_cmd_control.c **** //Reception of a CTRL_I_G command
 592:..\..\flexsea-system\src/flexsea_cmd_control.c **** void rx_cmd_ctrl_i_g(uint8_t *buf)
 593:..\..\flexsea-system\src/flexsea_cmd_control.c **** {
 1122              		.loc 1 593 0
 1123              		.cfi_startproc
 1124              		@ args = 0, pretend = 0, frame = 0
 1125              		@ frame_needed = 0, uses_anonymous_args = 0
 1126              	.LVL134:
 1127 0000 70B5     		push	{r4, r5, r6, lr}
 1128              		.cfi_def_cfa_offset 16
 1129              		.cfi_offset 4, -16
 1130              		.cfi_offset 5, -12
 1131              		.cfi_offset 6, -8
 1132              		.cfi_offset 14, -4
 1133 0002 84B0     		sub	sp, sp, #16
 1134              		.cfi_def_cfa_offset 32
 1135              	.LVL135:
 594:..\..\flexsea-system\src/flexsea_cmd_control.c **** 	uint32_t numb = 0;
 595:..\..\flexsea-system\src/flexsea_cmd_control.c **** 	int16_t tmp_kp = 0, tmp_ki = 0, tmp_kd = 0;
 596:..\..\flexsea-system\src/flexsea_cmd_control.c **** 
 597:..\..\flexsea-system\src/flexsea_cmd_control.c **** 	if(IS_CMD_RW(buf[P_CMD1]) == READ)
 1136              		.loc 1 597 0
 1137 0004 C378     		ldrb	r3, [r0, #3]	@ zero_extendqisi2
 1138 0006 13F00103 		ands	r3, r3, #1
 1139 000a 1BD0     		beq	.L64
 598:..\..\flexsea-system\src/flexsea_cmd_control.c **** 	{
 599:..\..\flexsea-system\src/flexsea_cmd_control.c **** 		//Received a Read command from our master, prepare a reply:
 600:..\..\flexsea-system\src/flexsea_cmd_control.c **** 
 601:..\..\flexsea-system\src/flexsea_cmd_control.c **** 		#ifdef BOARD_TYPE_FLEXSEA_EXECUTE
 602:..\..\flexsea-system\src/flexsea_cmd_control.c **** 
 603:..\..\flexsea-system\src/flexsea_cmd_control.c **** 		//Generate the reply:
 604:..\..\flexsea-system\src/flexsea_cmd_control.c **** 		numb = tx_cmd_ctrl_i_g(buf[P_XID], CMD_WRITE, tmp_payload_xmit, PAYLOAD_BUF_LEN, \
 1140              		.loc 1 604 0
 1141 000c 0078     		ldrb	r0, [r0]	@ zero_extendqisi2
 1142              	.LVL136:
 605:..\..\flexsea-system\src/flexsea_cmd_control.c **** 			ctrl.current.gain.I_KP, ctrl.current.gain.I_KI, ctrl.current.gain.I_KD);
 1143              		.loc 1 605 0
 1144 000e 1C4B     		ldr	r3, .L68
 1145 0010 198D     		ldrh	r1, [r3, #40]
 1146 0012 5A8D     		ldrh	r2, [r3, #42]
 1147 0014 9B8D     		ldrh	r3, [r3, #44]
 604:..\..\flexsea-system\src/flexsea_cmd_control.c **** 			ctrl.current.gain.I_KP, ctrl.current.gain.I_KI, ctrl.current.gain.I_KD);
 1148              		.loc 1 604 0
 1149 0016 1B4D     		ldr	r5, .L68+4
 1150 0018 09B2     		sxth	r1, r1
 1151 001a 0091     		str	r1, [sp]
 1152 001c 12B2     		sxth	r2, r2
 1153 001e 0192     		str	r2, [sp, #4]
 1154 0020 1BB2     		sxth	r3, r3
 1155 0022 0293     		str	r3, [sp, #8]
 1156 0024 0221     		movs	r1, #2
 1157 0026 2A46     		mov	r2, r5
 1158 0028 2423     		movs	r3, #36
 1159 002a FFF7FEFF 		bl	tx_cmd_ctrl_i_g
ARM GAS  C:\Users\Alex\AppData\Local\Temp\cchBAlOP.s 			page 32


 1160              	.LVL137:
 606:..\..\flexsea-system\src/flexsea_cmd_control.c **** 		numb = comm_gen_str(tmp_payload_xmit, comm_str_485, numb);
 1161              		.loc 1 606 0
 1162 002e 164C     		ldr	r4, .L68+8
 1163 0030 C2B2     		uxtb	r2, r0
 1164 0032 2846     		mov	r0, r5
 1165              	.LVL138:
 1166 0034 2146     		mov	r1, r4
 1167 0036 FFF7FEFF 		bl	comm_gen_str
 1168              	.LVL139:
 1169 003a 0146     		mov	r1, r0
 1170              	.LVL140:
 607:..\..\flexsea-system\src/flexsea_cmd_control.c **** 
 608:..\..\flexsea-system\src/flexsea_cmd_control.c **** 		//Notify the code that a buffer is ready to be transmitted:
 609:..\..\flexsea-system\src/flexsea_cmd_control.c **** 		//xmit_flag_1 = 1;
 610:..\..\flexsea-system\src/flexsea_cmd_control.c **** 
 611:..\..\flexsea-system\src/flexsea_cmd_control.c **** 		//(for now, send it)
 612:..\..\flexsea-system\src/flexsea_cmd_control.c **** 		rs485_puts(comm_str_485, numb);
 1171              		.loc 1 612 0
 1172 003c 2046     		mov	r0, r4
 1173              	.LVL141:
 1174 003e FFF7FEFF 		bl	rs485_puts
 1175              	.LVL142:
 1176 0042 1BE0     		b	.L63
 1177              	.LVL143:
 1178              	.L64:
 613:..\..\flexsea-system\src/flexsea_cmd_control.c **** 
 614:..\..\flexsea-system\src/flexsea_cmd_control.c **** 		#endif	//BOARD_TYPE_FLEXSEA_EXECUTE
 615:..\..\flexsea-system\src/flexsea_cmd_control.c **** 	}
 616:..\..\flexsea-system\src/flexsea_cmd_control.c **** 	else if(IS_CMD_RW(buf[P_CMD1]) == WRITE)
 1179              		.loc 1 616 0
 1180 0044 D3B9     		cbnz	r3, .L63
 617:..\..\flexsea-system\src/flexsea_cmd_control.c **** 	{
 618:..\..\flexsea-system\src/flexsea_cmd_control.c **** 		//Two options: from Master of from slave (a read reply)
 619:..\..\flexsea-system\src/flexsea_cmd_control.c **** 
 620:..\..\flexsea-system\src/flexsea_cmd_control.c **** 		//Decode data:
 621:..\..\flexsea-system\src/flexsea_cmd_control.c **** 		tmp_kp = (int16_t) (BYTES_TO_UINT16(buf[P_DATA1 + 0], buf[P_DATA1 + 1]));
 1181              		.loc 1 621 0
 1182 0046 0279     		ldrb	r2, [r0, #4]	@ zero_extendqisi2
 1183 0048 4379     		ldrb	r3, [r0, #5]	@ zero_extendqisi2
 1184 004a 03EB0223 		add	r3, r3, r2, lsl #8
 1185 004e 9EB2     		uxth	r6, r3
 1186              	.LVL144:
 622:..\..\flexsea-system\src/flexsea_cmd_control.c **** 		tmp_ki = (int16_t) (BYTES_TO_UINT16(buf[P_DATA1 + 2], buf[P_DATA1 + 3]));
 1187              		.loc 1 622 0
 1188 0050 8279     		ldrb	r2, [r0, #6]	@ zero_extendqisi2
 1189 0052 C379     		ldrb	r3, [r0, #7]	@ zero_extendqisi2
 1190 0054 03EB0223 		add	r3, r3, r2, lsl #8
 1191 0058 9DB2     		uxth	r5, r3
 1192              	.LVL145:
 623:..\..\flexsea-system\src/flexsea_cmd_control.c **** 		tmp_kd = (int16_t) (BYTES_TO_UINT16(buf[P_DATA1 + 4], buf[P_DATA1 + 5]));
 1193              		.loc 1 623 0
 1194 005a 027A     		ldrb	r2, [r0, #8]	@ zero_extendqisi2
 1195 005c 437A     		ldrb	r3, [r0, #9]	@ zero_extendqisi2
 1196 005e 03EB0223 		add	r3, r3, r2, lsl #8
 1197 0062 9CB2     		uxth	r4, r3
 1198              	.LVL146:
ARM GAS  C:\Users\Alex\AppData\Local\Temp\cchBAlOP.s 			page 33


 624:..\..\flexsea-system\src/flexsea_cmd_control.c **** 		//ToDo store that value somewhere useful
 625:..\..\flexsea-system\src/flexsea_cmd_control.c **** 
 626:..\..\flexsea-system\src/flexsea_cmd_control.c **** 		if(sent_from_a_slave(buf))
 1199              		.loc 1 626 0
 1200 0064 FFF7FEFF 		bl	sent_from_a_slave
 1201              	.LVL147:
 1202 0068 20B1     		cbz	r0, .L66
 627:..\..\flexsea-system\src/flexsea_cmd_control.c **** 		{
 628:..\..\flexsea-system\src/flexsea_cmd_control.c **** 			//We received a reply to our read request
 629:..\..\flexsea-system\src/flexsea_cmd_control.c **** 
 630:..\..\flexsea-system\src/flexsea_cmd_control.c **** 			#ifdef BOARD_TYPE_FLEXSEA_EXECUTE
 631:..\..\flexsea-system\src/flexsea_cmd_control.c **** 			//No code (yet), you shouldn't be here...
 632:..\..\flexsea-system\src/flexsea_cmd_control.c **** 			flexsea_error(SE_CMD_NOT_PROGRAMMED);
 1203              		.loc 1 632 0
 1204 006a 4FF40070 		mov	r0, #512
 1205 006e FFF7FEFF 		bl	flexsea_error
 1206              	.LVL148:
 1207 0072 03E0     		b	.L63
 1208              	.L66:
 633:..\..\flexsea-system\src/flexsea_cmd_control.c **** 			#endif	//BOARD_TYPE_FLEXSEA_EXECUTE
 634:..\..\flexsea-system\src/flexsea_cmd_control.c **** 
 635:..\..\flexsea-system\src/flexsea_cmd_control.c **** 			#if((defined BOARD_TYPE_FLEXSEA_MANAGE) || (defined BOARD_TYPE_FLEXSEA_PLAN))
 636:..\..\flexsea-system\src/flexsea_cmd_control.c **** 
 637:..\..\flexsea-system\src/flexsea_cmd_control.c **** 			//Store value:
 638:..\..\flexsea-system\src/flexsea_cmd_control.c **** 			exec1.ctrl.current.gain.I_KP = tmp_kp;
 639:..\..\flexsea-system\src/flexsea_cmd_control.c **** 			exec1.ctrl.current.gain.I_KI = tmp_ki;
 640:..\..\flexsea-system\src/flexsea_cmd_control.c **** 			exec1.ctrl.current.gain.I_KD = tmp_kd;
 641:..\..\flexsea-system\src/flexsea_cmd_control.c **** 
 642:..\..\flexsea-system\src/flexsea_cmd_control.c **** 			#endif	//((defined BOARD_TYPE_FLEXSEA_MANAGE) || (defined BOARD_TYPE_FLEXSEA_PLAN))
 643:..\..\flexsea-system\src/flexsea_cmd_control.c **** 
 644:..\..\flexsea-system\src/flexsea_cmd_control.c **** 		}
 645:..\..\flexsea-system\src/flexsea_cmd_control.c **** 		else
 646:..\..\flexsea-system\src/flexsea_cmd_control.c **** 		{
 647:..\..\flexsea-system\src/flexsea_cmd_control.c **** 			//Master is writing a value to this board
 648:..\..\flexsea-system\src/flexsea_cmd_control.c **** 
 649:..\..\flexsea-system\src/flexsea_cmd_control.c **** 			#ifdef BOARD_TYPE_FLEXSEA_EXECUTE
 650:..\..\flexsea-system\src/flexsea_cmd_control.c **** 
 651:..\..\flexsea-system\src/flexsea_cmd_control.c **** 			//Store value:
 652:..\..\flexsea-system\src/flexsea_cmd_control.c **** 			ctrl.current.gain.I_KP = tmp_kp;
 1209              		.loc 1 652 0
 1210 0074 024B     		ldr	r3, .L68
 1211 0076 1E85     		strh	r6, [r3, #40]	@ movhi
 653:..\..\flexsea-system\src/flexsea_cmd_control.c **** 			ctrl.current.gain.I_KI = tmp_ki;
 1212              		.loc 1 653 0
 1213 0078 5D85     		strh	r5, [r3, #42]	@ movhi
 654:..\..\flexsea-system\src/flexsea_cmd_control.c **** 			ctrl.current.gain.I_KD = tmp_kd;
 1214              		.loc 1 654 0
 1215 007a 9C85     		strh	r4, [r3, #44]	@ movhi
 1216              	.LVL149:
 1217              	.L63:
 655:..\..\flexsea-system\src/flexsea_cmd_control.c **** 			//ToDo: do we need to call something?
 656:..\..\flexsea-system\src/flexsea_cmd_control.c **** 
 657:..\..\flexsea-system\src/flexsea_cmd_control.c **** 			#endif	//BOARD_TYPE_FLEXSEA_EXECUTE
 658:..\..\flexsea-system\src/flexsea_cmd_control.c **** 		}
 659:..\..\flexsea-system\src/flexsea_cmd_control.c **** 	}
 660:..\..\flexsea-system\src/flexsea_cmd_control.c **** }
 1218              		.loc 1 660 0
ARM GAS  C:\Users\Alex\AppData\Local\Temp\cchBAlOP.s 			page 34


 1219 007c 04B0     		add	sp, sp, #16
 1220              		.cfi_def_cfa_offset 16
 1221              		@ sp needed
 1222 007e 70BD     		pop	{r4, r5, r6, pc}
 1223              	.L69:
 1224              		.align	2
 1225              	.L68:
 1226 0080 00000000 		.word	ctrl
 1227 0084 00000000 		.word	tmp_payload_xmit
 1228 0088 00000000 		.word	comm_str_1
 1229              		.cfi_endproc
 1230              	.LFE72:
 1231              		.size	flexsea_payload_82, .-flexsea_payload_82
 1232              		.section	.text.tx_cmd_ctrl_p_g,"ax",%progbits
 1233              		.align	2
 1234              		.global	tx_cmd_ctrl_p_g
 1235              		.thumb
 1236              		.thumb_func
 1237              		.type	tx_cmd_ctrl_p_g, %function
 1238              	tx_cmd_ctrl_p_g:
 1239              	.LFB73:
 661:..\..\flexsea-system\src/flexsea_cmd_control.c **** 
 662:..\..\flexsea-system\src/flexsea_cmd_control.c **** //Transmission of a CTRL_P_G command
 663:..\..\flexsea-system\src/flexsea_cmd_control.c **** uint32_t tx_cmd_ctrl_p_g(uint8_t receiver, uint8_t cmd_type, uint8_t *buf, uint32_t len, \
 664:..\..\flexsea-system\src/flexsea_cmd_control.c **** 						int16_t kp, int16_t ki, int16_t kd)
 665:..\..\flexsea-system\src/flexsea_cmd_control.c **** {
 1240              		.loc 1 665 0
 1241              		.cfi_startproc
 1242              		@ args = 12, pretend = 0, frame = 8
 1243              		@ frame_needed = 0, uses_anonymous_args = 0
 1244              	.LVL150:
 1245 0000 70B5     		push	{r4, r5, r6, lr}
 1246              		.cfi_def_cfa_offset 16
 1247              		.cfi_offset 4, -16
 1248              		.cfi_offset 5, -12
 1249              		.cfi_offset 6, -8
 1250              		.cfi_offset 14, -4
 1251 0002 82B0     		sub	sp, sp, #8
 1252              		.cfi_def_cfa_offset 24
 1253 0004 0646     		mov	r6, r0
 1254 0006 0D46     		mov	r5, r1
 1255 0008 1446     		mov	r4, r2
 666:..\..\flexsea-system\src/flexsea_cmd_control.c **** 	uint8_t tmp0 = 0, tmp1 = 0;
 1256              		.loc 1 666 0
 1257 000a 0021     		movs	r1, #0
 1258              	.LVL151:
 1259 000c 8DF80710 		strb	r1, [sp, #7]
 1260 0010 8DF80610 		strb	r1, [sp, #6]
 1261              	.LVL152:
 667:..\..\flexsea-system\src/flexsea_cmd_control.c **** 	uint32_t bytes = 0;
 668:..\..\flexsea-system\src/flexsea_cmd_control.c **** 
 669:..\..\flexsea-system\src/flexsea_cmd_control.c **** 	//Fresh payload string:
 670:..\..\flexsea-system\src/flexsea_cmd_control.c **** 	prepare_empty_payload(board_id, receiver, buf, len);
 1262              		.loc 1 670 0
 1263 0014 2149     		ldr	r1, .L75
 1264 0016 0878     		ldrb	r0, [r1]	@ zero_extendqisi2
 1265              	.LVL153:
ARM GAS  C:\Users\Alex\AppData\Local\Temp\cchBAlOP.s 			page 35


 1266 0018 3146     		mov	r1, r6
 1267 001a FFF7FEFF 		bl	prepare_empty_payload
 1268              	.LVL154:
 671:..\..\flexsea-system\src/flexsea_cmd_control.c **** 
 672:..\..\flexsea-system\src/flexsea_cmd_control.c **** 	//Command:
 673:..\..\flexsea-system\src/flexsea_cmd_control.c **** 	buf[P_CMDS] = 1;                     //1 command in string
 1269              		.loc 1 673 0
 1270 001e 0123     		movs	r3, #1
 1271 0020 A370     		strb	r3, [r4, #2]
 674:..\..\flexsea-system\src/flexsea_cmd_control.c **** 
 675:..\..\flexsea-system\src/flexsea_cmd_control.c **** 	if(cmd_type == CMD_READ)
 1272              		.loc 1 675 0
 1273 0022 9D42     		cmp	r5, r3
 1274 0024 03D1     		bne	.L71
 676:..\..\flexsea-system\src/flexsea_cmd_control.c **** 	{
 677:..\..\flexsea-system\src/flexsea_cmd_control.c **** 		buf[P_CMD1] = CMD_R(CMD_CTRL_P_G);
 1275              		.loc 1 677 0
 1276 0026 A723     		movs	r3, #167
 1277 0028 E370     		strb	r3, [r4, #3]
 1278              	.LVL155:
 678:..\..\flexsea-system\src/flexsea_cmd_control.c **** 
 679:..\..\flexsea-system\src/flexsea_cmd_control.c **** 		bytes = P_CMD1 + 1;     //Bytes is always last+1
 1279              		.loc 1 679 0
 1280 002a 0420     		movs	r0, #4
 1281 002c 34E0     		b	.L72
 1282              	.LVL156:
 1283              	.L71:
 680:..\..\flexsea-system\src/flexsea_cmd_control.c **** 	}
 681:..\..\flexsea-system\src/flexsea_cmd_control.c **** 	else if(cmd_type == CMD_WRITE)
 1284              		.loc 1 681 0
 1285 002e 022D     		cmp	r5, #2
 1286 0030 2DD1     		bne	.L73
 682:..\..\flexsea-system\src/flexsea_cmd_control.c **** 	{
 683:..\..\flexsea-system\src/flexsea_cmd_control.c **** 		buf[P_CMD1] = CMD_W(CMD_CTRL_P_G);
 1287              		.loc 1 683 0
 1288 0032 A623     		movs	r3, #166
 1289 0034 E370     		strb	r3, [r4, #3]
 684:..\..\flexsea-system\src/flexsea_cmd_control.c **** 
 685:..\..\flexsea-system\src/flexsea_cmd_control.c **** 		//Arguments:
 686:..\..\flexsea-system\src/flexsea_cmd_control.c **** 		uint16_to_bytes((uint16_t)kp, &tmp0, &tmp1);
 1290              		.loc 1 686 0
 1291 0036 BDF81800 		ldrh	r0, [sp, #24]
 1292 003a 0DF10701 		add	r1, sp, #7
 1293 003e 0DF10602 		add	r2, sp, #6
 1294 0042 FFF7FEFF 		bl	uint16_to_bytes
 1295              	.LVL157:
 687:..\..\flexsea-system\src/flexsea_cmd_control.c **** 		buf[P_DATA1 + 0] = tmp0;
 1296              		.loc 1 687 0
 1297 0046 9DF80730 		ldrb	r3, [sp, #7]	@ zero_extendqisi2
 1298 004a 2371     		strb	r3, [r4, #4]
 688:..\..\flexsea-system\src/flexsea_cmd_control.c **** 		buf[P_DATA1 + 1] = tmp1;
 1299              		.loc 1 688 0
 1300 004c 9DF80630 		ldrb	r3, [sp, #6]	@ zero_extendqisi2
 1301 0050 6371     		strb	r3, [r4, #5]
 689:..\..\flexsea-system\src/flexsea_cmd_control.c **** 		uint16_to_bytes((uint16_t)ki, &tmp0, &tmp1);
 1302              		.loc 1 689 0
 1303 0052 BDF81C00 		ldrh	r0, [sp, #28]
ARM GAS  C:\Users\Alex\AppData\Local\Temp\cchBAlOP.s 			page 36


 1304 0056 0DF10701 		add	r1, sp, #7
 1305 005a 0DF10602 		add	r2, sp, #6
 1306 005e FFF7FEFF 		bl	uint16_to_bytes
 1307              	.LVL158:
 690:..\..\flexsea-system\src/flexsea_cmd_control.c **** 		buf[P_DATA1 + 2] = tmp0;
 1308              		.loc 1 690 0
 1309 0062 9DF80730 		ldrb	r3, [sp, #7]	@ zero_extendqisi2
 1310 0066 A371     		strb	r3, [r4, #6]
 691:..\..\flexsea-system\src/flexsea_cmd_control.c **** 		buf[P_DATA1 + 3] = tmp1;
 1311              		.loc 1 691 0
 1312 0068 9DF80630 		ldrb	r3, [sp, #6]	@ zero_extendqisi2
 1313 006c E371     		strb	r3, [r4, #7]
 692:..\..\flexsea-system\src/flexsea_cmd_control.c **** 		uint16_to_bytes((uint16_t)kd, &tmp0, &tmp1);
 1314              		.loc 1 692 0
 1315 006e BDF82000 		ldrh	r0, [sp, #32]
 1316 0072 0DF10701 		add	r1, sp, #7
 1317 0076 0DF10602 		add	r2, sp, #6
 1318 007a FFF7FEFF 		bl	uint16_to_bytes
 1319              	.LVL159:
 693:..\..\flexsea-system\src/flexsea_cmd_control.c **** 		buf[P_DATA1 + 4] = tmp0;
 1320              		.loc 1 693 0
 1321 007e 9DF80730 		ldrb	r3, [sp, #7]	@ zero_extendqisi2
 1322 0082 2372     		strb	r3, [r4, #8]
 694:..\..\flexsea-system\src/flexsea_cmd_control.c **** 		buf[P_DATA1 + 5] = tmp1;
 1323              		.loc 1 694 0
 1324 0084 9DF80630 		ldrb	r3, [sp, #6]	@ zero_extendqisi2
 1325 0088 6372     		strb	r3, [r4, #9]
 1326              	.LVL160:
 695:..\..\flexsea-system\src/flexsea_cmd_control.c **** 
 696:..\..\flexsea-system\src/flexsea_cmd_control.c **** 
 697:..\..\flexsea-system\src/flexsea_cmd_control.c **** 		bytes = P_DATA1 + 6;     //Bytes is always last+1
 1327              		.loc 1 697 0
 1328 008a 0A20     		movs	r0, #10
 1329 008c 04E0     		b	.L72
 1330              	.LVL161:
 1331              	.L73:
 698:..\..\flexsea-system\src/flexsea_cmd_control.c **** 	}
 699:..\..\flexsea-system\src/flexsea_cmd_control.c **** 	else
 700:..\..\flexsea-system\src/flexsea_cmd_control.c **** 	{
 701:..\..\flexsea-system\src/flexsea_cmd_control.c **** 		//Invalid
 702:..\..\flexsea-system\src/flexsea_cmd_control.c **** 		flexsea_error(SE_INVALID_READ_TYPE);
 1332              		.loc 1 702 0
 1333 008e 4FF48060 		mov	r0, #1024
 1334 0092 FFF7FEFF 		bl	flexsea_error
 1335              	.LVL162:
 703:..\..\flexsea-system\src/flexsea_cmd_control.c **** 		bytes = 0;
 1336              		.loc 1 703 0
 1337 0096 0020     		movs	r0, #0
 1338              	.LVL163:
 1339              	.L72:
 704:..\..\flexsea-system\src/flexsea_cmd_control.c **** 	}
 705:..\..\flexsea-system\src/flexsea_cmd_control.c **** 
 706:..\..\flexsea-system\src/flexsea_cmd_control.c **** 	return bytes;
 707:..\..\flexsea-system\src/flexsea_cmd_control.c **** }
 1340              		.loc 1 707 0
 1341 0098 02B0     		add	sp, sp, #8
 1342              		.cfi_def_cfa_offset 16
ARM GAS  C:\Users\Alex\AppData\Local\Temp\cchBAlOP.s 			page 37


 1343              		@ sp needed
 1344 009a 70BD     		pop	{r4, r5, r6, pc}
 1345              	.LVL164:
 1346              	.L76:
 1347              		.align	2
 1348              	.L75:
 1349 009c 00000000 		.word	board_id
 1350              		.cfi_endproc
 1351              	.LFE73:
 1352              		.size	tx_cmd_ctrl_p_g, .-tx_cmd_ctrl_p_g
 1353              		.section	.text.flexsea_payload_83,"ax",%progbits
 1354              		.align	2
 1355              		.weak	flexsea_payload_83
 1356              		.thumb
 1357              		.thumb_func
 1358              		.type	flexsea_payload_83, %function
 1359              	flexsea_payload_83:
 1360              	.LFB74:
 708:..\..\flexsea-system\src/flexsea_cmd_control.c **** 
 709:..\..\flexsea-system\src/flexsea_cmd_control.c **** //Reception of a CTRL_P_G command
 710:..\..\flexsea-system\src/flexsea_cmd_control.c **** void rx_cmd_ctrl_p_g(uint8_t *buf)
 711:..\..\flexsea-system\src/flexsea_cmd_control.c **** {
 1361              		.loc 1 711 0
 1362              		.cfi_startproc
 1363              		@ args = 0, pretend = 0, frame = 0
 1364              		@ frame_needed = 0, uses_anonymous_args = 0
 1365              	.LVL165:
 1366 0000 70B5     		push	{r4, r5, r6, lr}
 1367              		.cfi_def_cfa_offset 16
 1368              		.cfi_offset 4, -16
 1369              		.cfi_offset 5, -12
 1370              		.cfi_offset 6, -8
 1371              		.cfi_offset 14, -4
 1372 0002 84B0     		sub	sp, sp, #16
 1373              		.cfi_def_cfa_offset 32
 1374              	.LVL166:
 712:..\..\flexsea-system\src/flexsea_cmd_control.c **** 	uint32_t numb = 0;
 713:..\..\flexsea-system\src/flexsea_cmd_control.c **** 	int16_t tmp_kp = 0, tmp_ki = 0, tmp_kd = 0;
 714:..\..\flexsea-system\src/flexsea_cmd_control.c **** 
 715:..\..\flexsea-system\src/flexsea_cmd_control.c **** 	if(IS_CMD_RW(buf[P_CMD1]) == READ)
 1375              		.loc 1 715 0
 1376 0004 C378     		ldrb	r3, [r0, #3]	@ zero_extendqisi2
 1377 0006 13F00103 		ands	r3, r3, #1
 1378 000a 1ED0     		beq	.L78
 716:..\..\flexsea-system\src/flexsea_cmd_control.c **** 	{
 717:..\..\flexsea-system\src/flexsea_cmd_control.c **** 		//Received a Read command from our master, prepare a reply:
 718:..\..\flexsea-system\src/flexsea_cmd_control.c **** 
 719:..\..\flexsea-system\src/flexsea_cmd_control.c **** 		#ifdef BOARD_TYPE_FLEXSEA_EXECUTE
 720:..\..\flexsea-system\src/flexsea_cmd_control.c **** 
 721:..\..\flexsea-system\src/flexsea_cmd_control.c **** 		//Generate the reply:
 722:..\..\flexsea-system\src/flexsea_cmd_control.c **** 		numb = tx_cmd_ctrl_p_g(buf[P_XID], CMD_WRITE, tmp_payload_xmit, PAYLOAD_BUF_LEN, \
 1379              		.loc 1 722 0
 1380 000c 0078     		ldrb	r0, [r0]	@ zero_extendqisi2
 1381              	.LVL167:
 723:..\..\flexsea-system\src/flexsea_cmd_control.c **** 			ctrl.position.gain.P_KP, ctrl.position.gain.P_KI, ctrl.position.gain.P_KD);
 1382              		.loc 1 723 0
 1383 000e 1F4B     		ldr	r3, .L82
ARM GAS  C:\Users\Alex\AppData\Local\Temp\cchBAlOP.s 			page 38


 1384 0010 B3F84C10 		ldrh	r1, [r3, #76]
 1385 0014 B3F84E20 		ldrh	r2, [r3, #78]
 1386 0018 B3F85030 		ldrh	r3, [r3, #80]
 722:..\..\flexsea-system\src/flexsea_cmd_control.c **** 			ctrl.position.gain.P_KP, ctrl.position.gain.P_KI, ctrl.position.gain.P_KD);
 1387              		.loc 1 722 0
 1388 001c 1C4D     		ldr	r5, .L82+4
 1389 001e 09B2     		sxth	r1, r1
 1390 0020 0091     		str	r1, [sp]
 1391 0022 12B2     		sxth	r2, r2
 1392 0024 0192     		str	r2, [sp, #4]
 1393 0026 1BB2     		sxth	r3, r3
 1394 0028 0293     		str	r3, [sp, #8]
 1395 002a 0221     		movs	r1, #2
 1396 002c 2A46     		mov	r2, r5
 1397 002e 2423     		movs	r3, #36
 1398 0030 FFF7FEFF 		bl	tx_cmd_ctrl_p_g
 1399              	.LVL168:
 724:..\..\flexsea-system\src/flexsea_cmd_control.c **** 		numb = comm_gen_str(tmp_payload_xmit, comm_str_485, numb);
 1400              		.loc 1 724 0
 1401 0034 174C     		ldr	r4, .L82+8
 1402 0036 C2B2     		uxtb	r2, r0
 1403 0038 2846     		mov	r0, r5
 1404              	.LVL169:
 1405 003a 2146     		mov	r1, r4
 1406 003c FFF7FEFF 		bl	comm_gen_str
 1407              	.LVL170:
 1408 0040 0146     		mov	r1, r0
 1409              	.LVL171:
 725:..\..\flexsea-system\src/flexsea_cmd_control.c **** 
 726:..\..\flexsea-system\src/flexsea_cmd_control.c **** 		//Notify the code that a buffer is ready to be transmitted:
 727:..\..\flexsea-system\src/flexsea_cmd_control.c **** 		//xmit_flag_1 = 1;
 728:..\..\flexsea-system\src/flexsea_cmd_control.c **** 
 729:..\..\flexsea-system\src/flexsea_cmd_control.c **** 		//(for now, send it)
 730:..\..\flexsea-system\src/flexsea_cmd_control.c **** 		rs485_puts(comm_str_485, numb);
 1410              		.loc 1 730 0
 1411 0042 2046     		mov	r0, r4
 1412              	.LVL172:
 1413 0044 FFF7FEFF 		bl	rs485_puts
 1414              	.LVL173:
 1415 0048 1EE0     		b	.L77
 1416              	.LVL174:
 1417              	.L78:
 731:..\..\flexsea-system\src/flexsea_cmd_control.c **** 
 732:..\..\flexsea-system\src/flexsea_cmd_control.c **** 		#endif	//BOARD_TYPE_FLEXSEA_EXECUTE
 733:..\..\flexsea-system\src/flexsea_cmd_control.c **** 	}
 734:..\..\flexsea-system\src/flexsea_cmd_control.c **** 	else if(IS_CMD_RW(buf[P_CMD1]) == WRITE)
 1418              		.loc 1 734 0
 1419 004a EBB9     		cbnz	r3, .L77
 735:..\..\flexsea-system\src/flexsea_cmd_control.c **** 	{
 736:..\..\flexsea-system\src/flexsea_cmd_control.c **** 		//Two options: from Master of from slave (a read reply)
 737:..\..\flexsea-system\src/flexsea_cmd_control.c **** 
 738:..\..\flexsea-system\src/flexsea_cmd_control.c **** 		//Decode data:
 739:..\..\flexsea-system\src/flexsea_cmd_control.c **** 		tmp_kp = (int16_t) (BYTES_TO_UINT16(buf[P_DATA1 + 0], buf[P_DATA1 + 1]));
 1420              		.loc 1 739 0
 1421 004c 0279     		ldrb	r2, [r0, #4]	@ zero_extendqisi2
 1422 004e 4379     		ldrb	r3, [r0, #5]	@ zero_extendqisi2
 1423 0050 03EB0223 		add	r3, r3, r2, lsl #8
ARM GAS  C:\Users\Alex\AppData\Local\Temp\cchBAlOP.s 			page 39


 1424 0054 9EB2     		uxth	r6, r3
 1425              	.LVL175:
 740:..\..\flexsea-system\src/flexsea_cmd_control.c **** 		tmp_ki = (int16_t) (BYTES_TO_UINT16(buf[P_DATA1 + 2], buf[P_DATA1 + 3]));
 1426              		.loc 1 740 0
 1427 0056 8279     		ldrb	r2, [r0, #6]	@ zero_extendqisi2
 1428 0058 C379     		ldrb	r3, [r0, #7]	@ zero_extendqisi2
 1429 005a 03EB0223 		add	r3, r3, r2, lsl #8
 1430 005e 9DB2     		uxth	r5, r3
 1431              	.LVL176:
 741:..\..\flexsea-system\src/flexsea_cmd_control.c **** 		tmp_kd = (int16_t) (BYTES_TO_UINT16(buf[P_DATA1 + 4], buf[P_DATA1 + 5]));
 1432              		.loc 1 741 0
 1433 0060 027A     		ldrb	r2, [r0, #8]	@ zero_extendqisi2
 1434 0062 437A     		ldrb	r3, [r0, #9]	@ zero_extendqisi2
 1435 0064 03EB0223 		add	r3, r3, r2, lsl #8
 1436 0068 9CB2     		uxth	r4, r3
 1437              	.LVL177:
 742:..\..\flexsea-system\src/flexsea_cmd_control.c **** 		//ToDo store that value somewhere useful
 743:..\..\flexsea-system\src/flexsea_cmd_control.c **** 
 744:..\..\flexsea-system\src/flexsea_cmd_control.c **** 		if(sent_from_a_slave(buf))
 1438              		.loc 1 744 0
 1439 006a FFF7FEFF 		bl	sent_from_a_slave
 1440              	.LVL178:
 1441 006e 20B1     		cbz	r0, .L80
 745:..\..\flexsea-system\src/flexsea_cmd_control.c **** 		{
 746:..\..\flexsea-system\src/flexsea_cmd_control.c **** 			//We received a reply to our read request
 747:..\..\flexsea-system\src/flexsea_cmd_control.c **** 
 748:..\..\flexsea-system\src/flexsea_cmd_control.c **** 			#ifdef BOARD_TYPE_FLEXSEA_EXECUTE
 749:..\..\flexsea-system\src/flexsea_cmd_control.c **** 			//No code (yet), you shouldn't be here...
 750:..\..\flexsea-system\src/flexsea_cmd_control.c **** 			flexsea_error(SE_CMD_NOT_PROGRAMMED);
 1442              		.loc 1 750 0
 1443 0070 4FF40070 		mov	r0, #512
 1444 0074 FFF7FEFF 		bl	flexsea_error
 1445              	.LVL179:
 1446 0078 06E0     		b	.L77
 1447              	.L80:
 751:..\..\flexsea-system\src/flexsea_cmd_control.c **** 			#endif	//BOARD_TYPE_FLEXSEA_EXECUTE
 752:..\..\flexsea-system\src/flexsea_cmd_control.c **** 
 753:..\..\flexsea-system\src/flexsea_cmd_control.c **** 			#if((defined BOARD_TYPE_FLEXSEA_MANAGE) || (defined BOARD_TYPE_FLEXSEA_PLAN))
 754:..\..\flexsea-system\src/flexsea_cmd_control.c **** 
 755:..\..\flexsea-system\src/flexsea_cmd_control.c **** 			//Store value:
 756:..\..\flexsea-system\src/flexsea_cmd_control.c **** 			exec1.ctrl.position.gain.I_KP = tmp_kp;
 757:..\..\flexsea-system\src/flexsea_cmd_control.c **** 			exec1.ctrl.position.gain.I_KI = tmp_ki;
 758:..\..\flexsea-system\src/flexsea_cmd_control.c **** 			exec1.ctrl.position.gain.I_KD = tmp_kd;
 759:..\..\flexsea-system\src/flexsea_cmd_control.c **** 
 760:..\..\flexsea-system\src/flexsea_cmd_control.c **** 			#endif	//((defined BOARD_TYPE_FLEXSEA_MANAGE) || (defined BOARD_TYPE_FLEXSEA_PLAN))
 761:..\..\flexsea-system\src/flexsea_cmd_control.c **** 
 762:..\..\flexsea-system\src/flexsea_cmd_control.c **** 		}
 763:..\..\flexsea-system\src/flexsea_cmd_control.c **** 		else
 764:..\..\flexsea-system\src/flexsea_cmd_control.c **** 		{
 765:..\..\flexsea-system\src/flexsea_cmd_control.c **** 			//Master is writing a value to this board
 766:..\..\flexsea-system\src/flexsea_cmd_control.c **** 
 767:..\..\flexsea-system\src/flexsea_cmd_control.c **** 			#ifdef BOARD_TYPE_FLEXSEA_EXECUTE
 768:..\..\flexsea-system\src/flexsea_cmd_control.c **** 
 769:..\..\flexsea-system\src/flexsea_cmd_control.c **** 			//Store value:
 770:..\..\flexsea-system\src/flexsea_cmd_control.c **** 			ctrl.position.gain.P_KP = tmp_kp;
 1448              		.loc 1 770 0
 1449 007a 044B     		ldr	r3, .L82
ARM GAS  C:\Users\Alex\AppData\Local\Temp\cchBAlOP.s 			page 40


 1450 007c A3F84C60 		strh	r6, [r3, #76]	@ movhi
 771:..\..\flexsea-system\src/flexsea_cmd_control.c **** 			ctrl.position.gain.P_KI = tmp_ki;
 1451              		.loc 1 771 0
 1452 0080 A3F84E50 		strh	r5, [r3, #78]	@ movhi
 772:..\..\flexsea-system\src/flexsea_cmd_control.c **** 			ctrl.position.gain.P_KD = tmp_kd;
 1453              		.loc 1 772 0
 1454 0084 A3F85040 		strh	r4, [r3, #80]	@ movhi
 1455              	.LVL180:
 1456              	.L77:
 773:..\..\flexsea-system\src/flexsea_cmd_control.c **** 			//ToDo: do we need to call something?
 774:..\..\flexsea-system\src/flexsea_cmd_control.c **** 
 775:..\..\flexsea-system\src/flexsea_cmd_control.c **** 			#endif	//BOARD_TYPE_FLEXSEA_EXECUTE
 776:..\..\flexsea-system\src/flexsea_cmd_control.c **** 		}
 777:..\..\flexsea-system\src/flexsea_cmd_control.c **** 	}
 778:..\..\flexsea-system\src/flexsea_cmd_control.c **** }
 1457              		.loc 1 778 0
 1458 0088 04B0     		add	sp, sp, #16
 1459              		.cfi_def_cfa_offset 16
 1460              		@ sp needed
 1461 008a 70BD     		pop	{r4, r5, r6, pc}
 1462              	.L83:
 1463              		.align	2
 1464              	.L82:
 1465 008c 00000000 		.word	ctrl
 1466 0090 00000000 		.word	tmp_payload_xmit
 1467 0094 00000000 		.word	comm_str_1
 1468              		.cfi_endproc
 1469              	.LFE74:
 1470              		.size	flexsea_payload_83, .-flexsea_payload_83
 1471              		.section	.text.tx_cmd_ctrl_z_g,"ax",%progbits
 1472              		.align	2
 1473              		.global	tx_cmd_ctrl_z_g
 1474              		.thumb
 1475              		.thumb_func
 1476              		.type	tx_cmd_ctrl_z_g, %function
 1477              	tx_cmd_ctrl_z_g:
 1478              	.LFB75:
 779:..\..\flexsea-system\src/flexsea_cmd_control.c **** 
 780:..\..\flexsea-system\src/flexsea_cmd_control.c **** //Transmission of a CTRL_Z_G command
 781:..\..\flexsea-system\src/flexsea_cmd_control.c **** uint32_t tx_cmd_ctrl_z_g(uint8_t receiver, uint8_t cmd_type, uint8_t *buf, uint32_t len, \
 782:..\..\flexsea-system\src/flexsea_cmd_control.c **** 						int16_t zk, int16_t zb, int16_t zi)
 783:..\..\flexsea-system\src/flexsea_cmd_control.c **** {
 1479              		.loc 1 783 0
 1480              		.cfi_startproc
 1481              		@ args = 12, pretend = 0, frame = 8
 1482              		@ frame_needed = 0, uses_anonymous_args = 0
 1483              	.LVL181:
 1484 0000 70B5     		push	{r4, r5, r6, lr}
 1485              		.cfi_def_cfa_offset 16
 1486              		.cfi_offset 4, -16
 1487              		.cfi_offset 5, -12
 1488              		.cfi_offset 6, -8
 1489              		.cfi_offset 14, -4
 1490 0002 82B0     		sub	sp, sp, #8
 1491              		.cfi_def_cfa_offset 24
 1492 0004 0646     		mov	r6, r0
 1493 0006 0D46     		mov	r5, r1
ARM GAS  C:\Users\Alex\AppData\Local\Temp\cchBAlOP.s 			page 41


 1494 0008 1446     		mov	r4, r2
 784:..\..\flexsea-system\src/flexsea_cmd_control.c **** 	uint8_t tmp0 = 0, tmp1 = 0;
 1495              		.loc 1 784 0
 1496 000a 0021     		movs	r1, #0
 1497              	.LVL182:
 1498 000c 8DF80710 		strb	r1, [sp, #7]
 1499 0010 8DF80610 		strb	r1, [sp, #6]
 1500              	.LVL183:
 785:..\..\flexsea-system\src/flexsea_cmd_control.c **** 	uint32_t bytes = 0;
 786:..\..\flexsea-system\src/flexsea_cmd_control.c **** 
 787:..\..\flexsea-system\src/flexsea_cmd_control.c **** 	//Fresh payload string:
 788:..\..\flexsea-system\src/flexsea_cmd_control.c **** 	prepare_empty_payload(board_id, receiver, buf, len);
 1501              		.loc 1 788 0
 1502 0014 2149     		ldr	r1, .L89
 1503 0016 0878     		ldrb	r0, [r1]	@ zero_extendqisi2
 1504              	.LVL184:
 1505 0018 3146     		mov	r1, r6
 1506 001a FFF7FEFF 		bl	prepare_empty_payload
 1507              	.LVL185:
 789:..\..\flexsea-system\src/flexsea_cmd_control.c **** 
 790:..\..\flexsea-system\src/flexsea_cmd_control.c **** 	//Command:
 791:..\..\flexsea-system\src/flexsea_cmd_control.c **** 	buf[P_CMDS] = 1;                     //1 command in string
 1508              		.loc 1 791 0
 1509 001e 0123     		movs	r3, #1
 1510 0020 A370     		strb	r3, [r4, #2]
 792:..\..\flexsea-system\src/flexsea_cmd_control.c **** 
 793:..\..\flexsea-system\src/flexsea_cmd_control.c **** 	if(cmd_type == CMD_READ)
 1511              		.loc 1 793 0
 1512 0022 9D42     		cmp	r5, r3
 1513 0024 03D1     		bne	.L85
 794:..\..\flexsea-system\src/flexsea_cmd_control.c **** 	{
 795:..\..\flexsea-system\src/flexsea_cmd_control.c **** 		buf[P_CMD1] = CMD_R(CMD_CTRL_Z_G);
 1514              		.loc 1 795 0
 1515 0026 A923     		movs	r3, #169
 1516 0028 E370     		strb	r3, [r4, #3]
 1517              	.LVL186:
 796:..\..\flexsea-system\src/flexsea_cmd_control.c **** 
 797:..\..\flexsea-system\src/flexsea_cmd_control.c **** 		bytes = P_CMD1 + 1;     //Bytes is always last+1
 1518              		.loc 1 797 0
 1519 002a 0420     		movs	r0, #4
 1520 002c 34E0     		b	.L86
 1521              	.LVL187:
 1522              	.L85:
 798:..\..\flexsea-system\src/flexsea_cmd_control.c **** 	}
 799:..\..\flexsea-system\src/flexsea_cmd_control.c **** 	else if(cmd_type == CMD_WRITE)
 1523              		.loc 1 799 0
 1524 002e 022D     		cmp	r5, #2
 1525 0030 2DD1     		bne	.L87
 800:..\..\flexsea-system\src/flexsea_cmd_control.c **** 	{
 801:..\..\flexsea-system\src/flexsea_cmd_control.c **** 		buf[P_CMD1] = CMD_W(CMD_CTRL_Z_G);
 1526              		.loc 1 801 0
 1527 0032 A823     		movs	r3, #168
 1528 0034 E370     		strb	r3, [r4, #3]
 802:..\..\flexsea-system\src/flexsea_cmd_control.c **** 
 803:..\..\flexsea-system\src/flexsea_cmd_control.c **** 		//Arguments:
 804:..\..\flexsea-system\src/flexsea_cmd_control.c **** 		uint16_to_bytes((uint16_t)zk, &tmp0, &tmp1);
 1529              		.loc 1 804 0
ARM GAS  C:\Users\Alex\AppData\Local\Temp\cchBAlOP.s 			page 42


 1530 0036 BDF81800 		ldrh	r0, [sp, #24]
 1531 003a 0DF10701 		add	r1, sp, #7
 1532 003e 0DF10602 		add	r2, sp, #6
 1533 0042 FFF7FEFF 		bl	uint16_to_bytes
 1534              	.LVL188:
 805:..\..\flexsea-system\src/flexsea_cmd_control.c **** 		buf[P_DATA1 + 0] = tmp0;
 1535              		.loc 1 805 0
 1536 0046 9DF80730 		ldrb	r3, [sp, #7]	@ zero_extendqisi2
 1537 004a 2371     		strb	r3, [r4, #4]
 806:..\..\flexsea-system\src/flexsea_cmd_control.c **** 		buf[P_DATA1 + 1] = tmp1;
 1538              		.loc 1 806 0
 1539 004c 9DF80630 		ldrb	r3, [sp, #6]	@ zero_extendqisi2
 1540 0050 6371     		strb	r3, [r4, #5]
 807:..\..\flexsea-system\src/flexsea_cmd_control.c **** 		uint16_to_bytes((uint16_t)zb, &tmp0, &tmp1);
 1541              		.loc 1 807 0
 1542 0052 BDF81C00 		ldrh	r0, [sp, #28]
 1543 0056 0DF10701 		add	r1, sp, #7
 1544 005a 0DF10602 		add	r2, sp, #6
 1545 005e FFF7FEFF 		bl	uint16_to_bytes
 1546              	.LVL189:
 808:..\..\flexsea-system\src/flexsea_cmd_control.c **** 		buf[P_DATA1 + 2] = tmp0;
 1547              		.loc 1 808 0
 1548 0062 9DF80730 		ldrb	r3, [sp, #7]	@ zero_extendqisi2
 1549 0066 A371     		strb	r3, [r4, #6]
 809:..\..\flexsea-system\src/flexsea_cmd_control.c **** 		buf[P_DATA1 + 3] = tmp1;
 1550              		.loc 1 809 0
 1551 0068 9DF80630 		ldrb	r3, [sp, #6]	@ zero_extendqisi2
 1552 006c E371     		strb	r3, [r4, #7]
 810:..\..\flexsea-system\src/flexsea_cmd_control.c **** 		uint16_to_bytes((uint16_t)zi, &tmp0, &tmp1);
 1553              		.loc 1 810 0
 1554 006e BDF82000 		ldrh	r0, [sp, #32]
 1555 0072 0DF10701 		add	r1, sp, #7
 1556 0076 0DF10602 		add	r2, sp, #6
 1557 007a FFF7FEFF 		bl	uint16_to_bytes
 1558              	.LVL190:
 811:..\..\flexsea-system\src/flexsea_cmd_control.c **** 		buf[P_DATA1 + 4] = tmp0;
 1559              		.loc 1 811 0
 1560 007e 9DF80730 		ldrb	r3, [sp, #7]	@ zero_extendqisi2
 1561 0082 2372     		strb	r3, [r4, #8]
 812:..\..\flexsea-system\src/flexsea_cmd_control.c **** 		buf[P_DATA1 + 5] = tmp1;
 1562              		.loc 1 812 0
 1563 0084 9DF80630 		ldrb	r3, [sp, #6]	@ zero_extendqisi2
 1564 0088 6372     		strb	r3, [r4, #9]
 1565              	.LVL191:
 813:..\..\flexsea-system\src/flexsea_cmd_control.c **** 
 814:..\..\flexsea-system\src/flexsea_cmd_control.c **** 
 815:..\..\flexsea-system\src/flexsea_cmd_control.c **** 		bytes = P_DATA1 + 6;     //Bytes is always last+1
 1566              		.loc 1 815 0
 1567 008a 0A20     		movs	r0, #10
 1568 008c 04E0     		b	.L86
 1569              	.LVL192:
 1570              	.L87:
 816:..\..\flexsea-system\src/flexsea_cmd_control.c **** 	}
 817:..\..\flexsea-system\src/flexsea_cmd_control.c **** 	else
 818:..\..\flexsea-system\src/flexsea_cmd_control.c **** 	{
 819:..\..\flexsea-system\src/flexsea_cmd_control.c **** 		//Invalid
 820:..\..\flexsea-system\src/flexsea_cmd_control.c **** 		flexsea_error(SE_INVALID_READ_TYPE);
ARM GAS  C:\Users\Alex\AppData\Local\Temp\cchBAlOP.s 			page 43


 1571              		.loc 1 820 0
 1572 008e 4FF48060 		mov	r0, #1024
 1573 0092 FFF7FEFF 		bl	flexsea_error
 1574              	.LVL193:
 821:..\..\flexsea-system\src/flexsea_cmd_control.c **** 		bytes = 0;
 1575              		.loc 1 821 0
 1576 0096 0020     		movs	r0, #0
 1577              	.LVL194:
 1578              	.L86:
 822:..\..\flexsea-system\src/flexsea_cmd_control.c **** 	}
 823:..\..\flexsea-system\src/flexsea_cmd_control.c **** 
 824:..\..\flexsea-system\src/flexsea_cmd_control.c **** 	return bytes;
 825:..\..\flexsea-system\src/flexsea_cmd_control.c **** }
 1579              		.loc 1 825 0
 1580 0098 02B0     		add	sp, sp, #8
 1581              		.cfi_def_cfa_offset 16
 1582              		@ sp needed
 1583 009a 70BD     		pop	{r4, r5, r6, pc}
 1584              	.LVL195:
 1585              	.L90:
 1586              		.align	2
 1587              	.L89:
 1588 009c 00000000 		.word	board_id
 1589              		.cfi_endproc
 1590              	.LFE75:
 1591              		.size	tx_cmd_ctrl_z_g, .-tx_cmd_ctrl_z_g
 1592              		.section	.text.flexsea_payload_84,"ax",%progbits
 1593              		.align	2
 1594              		.weak	flexsea_payload_84
 1595              		.thumb
 1596              		.thumb_func
 1597              		.type	flexsea_payload_84, %function
 1598              	flexsea_payload_84:
 1599              	.LFB76:
 826:..\..\flexsea-system\src/flexsea_cmd_control.c **** 
 827:..\..\flexsea-system\src/flexsea_cmd_control.c **** //Reception of a CTRL_Z_G command
 828:..\..\flexsea-system\src/flexsea_cmd_control.c **** void rx_cmd_ctrl_z_g(uint8_t *buf)
 829:..\..\flexsea-system\src/flexsea_cmd_control.c **** {
 1600              		.loc 1 829 0
 1601              		.cfi_startproc
 1602              		@ args = 0, pretend = 0, frame = 0
 1603              		@ frame_needed = 0, uses_anonymous_args = 0
 1604              	.LVL196:
 1605 0000 70B5     		push	{r4, r5, r6, lr}
 1606              		.cfi_def_cfa_offset 16
 1607              		.cfi_offset 4, -16
 1608              		.cfi_offset 5, -12
 1609              		.cfi_offset 6, -8
 1610              		.cfi_offset 14, -4
 1611 0002 84B0     		sub	sp, sp, #16
 1612              		.cfi_def_cfa_offset 32
 1613              	.LVL197:
 830:..\..\flexsea-system\src/flexsea_cmd_control.c **** 	uint32_t numb = 0;
 831:..\..\flexsea-system\src/flexsea_cmd_control.c **** 	int16_t tmp_zk = 0, tmp_zb = 0, tmp_zi = 0;
 832:..\..\flexsea-system\src/flexsea_cmd_control.c **** 
 833:..\..\flexsea-system\src/flexsea_cmd_control.c **** 	if(IS_CMD_RW(buf[P_CMD1]) == READ)
 1614              		.loc 1 833 0
ARM GAS  C:\Users\Alex\AppData\Local\Temp\cchBAlOP.s 			page 44


 1615 0004 C378     		ldrb	r3, [r0, #3]	@ zero_extendqisi2
 1616 0006 13F00103 		ands	r3, r3, #1
 1617 000a 1ED0     		beq	.L92
 834:..\..\flexsea-system\src/flexsea_cmd_control.c **** 	{
 835:..\..\flexsea-system\src/flexsea_cmd_control.c **** 		//Received a Read command from our master, prepare a reply:
 836:..\..\flexsea-system\src/flexsea_cmd_control.c **** 
 837:..\..\flexsea-system\src/flexsea_cmd_control.c **** 		#ifdef BOARD_TYPE_FLEXSEA_EXECUTE
 838:..\..\flexsea-system\src/flexsea_cmd_control.c **** 
 839:..\..\flexsea-system\src/flexsea_cmd_control.c **** 		//Generate the reply:
 840:..\..\flexsea-system\src/flexsea_cmd_control.c **** 		numb = tx_cmd_ctrl_z_g(buf[P_XID], CMD_WRITE, tmp_payload_xmit, PAYLOAD_BUF_LEN, \
 1618              		.loc 1 840 0
 1619 000c 0078     		ldrb	r0, [r0]	@ zero_extendqisi2
 1620              	.LVL198:
 841:..\..\flexsea-system\src/flexsea_cmd_control.c **** 			ctrl.impedance.gain.Z_K, ctrl.impedance.gain.Z_B, ctrl.impedance.gain.Z_I);
 1621              		.loc 1 841 0
 1622 000e 1F4B     		ldr	r3, .L96
 1623 0010 B3F88010 		ldrh	r1, [r3, #128]
 1624 0014 B3F88220 		ldrh	r2, [r3, #130]
 1625 0018 B3F88430 		ldrh	r3, [r3, #132]
 840:..\..\flexsea-system\src/flexsea_cmd_control.c **** 			ctrl.impedance.gain.Z_K, ctrl.impedance.gain.Z_B, ctrl.impedance.gain.Z_I);
 1626              		.loc 1 840 0
 1627 001c 1C4D     		ldr	r5, .L96+4
 1628 001e 09B2     		sxth	r1, r1
 1629 0020 0091     		str	r1, [sp]
 1630 0022 12B2     		sxth	r2, r2
 1631 0024 0192     		str	r2, [sp, #4]
 1632 0026 1BB2     		sxth	r3, r3
 1633 0028 0293     		str	r3, [sp, #8]
 1634 002a 0221     		movs	r1, #2
 1635 002c 2A46     		mov	r2, r5
 1636 002e 2423     		movs	r3, #36
 1637 0030 FFF7FEFF 		bl	tx_cmd_ctrl_z_g
 1638              	.LVL199:
 842:..\..\flexsea-system\src/flexsea_cmd_control.c **** 		numb = comm_gen_str(tmp_payload_xmit, comm_str_485, numb);
 1639              		.loc 1 842 0
 1640 0034 174C     		ldr	r4, .L96+8
 1641 0036 C2B2     		uxtb	r2, r0
 1642 0038 2846     		mov	r0, r5
 1643              	.LVL200:
 1644 003a 2146     		mov	r1, r4
 1645 003c FFF7FEFF 		bl	comm_gen_str
 1646              	.LVL201:
 1647 0040 0146     		mov	r1, r0
 1648              	.LVL202:
 843:..\..\flexsea-system\src/flexsea_cmd_control.c **** 
 844:..\..\flexsea-system\src/flexsea_cmd_control.c **** 		//Notify the code that a buffer is ready to be transmitted:
 845:..\..\flexsea-system\src/flexsea_cmd_control.c **** 		//xmit_flag_1 = 1;
 846:..\..\flexsea-system\src/flexsea_cmd_control.c **** 
 847:..\..\flexsea-system\src/flexsea_cmd_control.c **** 		//(for now, send it)
 848:..\..\flexsea-system\src/flexsea_cmd_control.c **** 		rs485_puts(comm_str_485, numb);
 1649              		.loc 1 848 0
 1650 0042 2046     		mov	r0, r4
 1651              	.LVL203:
 1652 0044 FFF7FEFF 		bl	rs485_puts
 1653              	.LVL204:
 1654 0048 1EE0     		b	.L91
 1655              	.LVL205:
ARM GAS  C:\Users\Alex\AppData\Local\Temp\cchBAlOP.s 			page 45


 1656              	.L92:
 849:..\..\flexsea-system\src/flexsea_cmd_control.c **** 
 850:..\..\flexsea-system\src/flexsea_cmd_control.c **** 		#endif	//BOARD_TYPE_FLEXSEA_EXECUTE
 851:..\..\flexsea-system\src/flexsea_cmd_control.c **** 	}
 852:..\..\flexsea-system\src/flexsea_cmd_control.c **** 	else if(IS_CMD_RW(buf[P_CMD1]) == WRITE)
 1657              		.loc 1 852 0
 1658 004a EBB9     		cbnz	r3, .L91
 853:..\..\flexsea-system\src/flexsea_cmd_control.c **** 	{
 854:..\..\flexsea-system\src/flexsea_cmd_control.c **** 		//Two options: from Master of from slave (a read reply)
 855:..\..\flexsea-system\src/flexsea_cmd_control.c **** 
 856:..\..\flexsea-system\src/flexsea_cmd_control.c **** 		//Decode data:
 857:..\..\flexsea-system\src/flexsea_cmd_control.c **** 		tmp_zk = (int16_t) (BYTES_TO_UINT16(buf[P_DATA1 + 0], buf[P_DATA1 + 1]));
 1659              		.loc 1 857 0
 1660 004c 0279     		ldrb	r2, [r0, #4]	@ zero_extendqisi2
 1661 004e 4379     		ldrb	r3, [r0, #5]	@ zero_extendqisi2
 1662 0050 03EB0223 		add	r3, r3, r2, lsl #8
 1663 0054 9EB2     		uxth	r6, r3
 1664              	.LVL206:
 858:..\..\flexsea-system\src/flexsea_cmd_control.c **** 		tmp_zb = (int16_t) (BYTES_TO_UINT16(buf[P_DATA1 + 2], buf[P_DATA1 + 3]));
 1665              		.loc 1 858 0
 1666 0056 8279     		ldrb	r2, [r0, #6]	@ zero_extendqisi2
 1667 0058 C379     		ldrb	r3, [r0, #7]	@ zero_extendqisi2
 1668 005a 03EB0223 		add	r3, r3, r2, lsl #8
 1669 005e 9DB2     		uxth	r5, r3
 1670              	.LVL207:
 859:..\..\flexsea-system\src/flexsea_cmd_control.c **** 		tmp_zi = (int16_t) (BYTES_TO_UINT16(buf[P_DATA1 + 4], buf[P_DATA1 + 5]));
 1671              		.loc 1 859 0
 1672 0060 027A     		ldrb	r2, [r0, #8]	@ zero_extendqisi2
 1673 0062 437A     		ldrb	r3, [r0, #9]	@ zero_extendqisi2
 1674 0064 03EB0223 		add	r3, r3, r2, lsl #8
 1675 0068 9CB2     		uxth	r4, r3
 1676              	.LVL208:
 860:..\..\flexsea-system\src/flexsea_cmd_control.c **** 		//ToDo store that value somewhere useful
 861:..\..\flexsea-system\src/flexsea_cmd_control.c **** 
 862:..\..\flexsea-system\src/flexsea_cmd_control.c **** 		if(sent_from_a_slave(buf))
 1677              		.loc 1 862 0
 1678 006a FFF7FEFF 		bl	sent_from_a_slave
 1679              	.LVL209:
 1680 006e 20B1     		cbz	r0, .L94
 863:..\..\flexsea-system\src/flexsea_cmd_control.c **** 		{
 864:..\..\flexsea-system\src/flexsea_cmd_control.c **** 			//We received a reply to our read request
 865:..\..\flexsea-system\src/flexsea_cmd_control.c **** 
 866:..\..\flexsea-system\src/flexsea_cmd_control.c **** 			#ifdef BOARD_TYPE_FLEXSEA_EXECUTE
 867:..\..\flexsea-system\src/flexsea_cmd_control.c **** 			//No code (yet), you shouldn't be here...
 868:..\..\flexsea-system\src/flexsea_cmd_control.c **** 			flexsea_error(SE_CMD_NOT_PROGRAMMED);
 1681              		.loc 1 868 0
 1682 0070 4FF40070 		mov	r0, #512
 1683 0074 FFF7FEFF 		bl	flexsea_error
 1684              	.LVL210:
 1685 0078 06E0     		b	.L91
 1686              	.L94:
 869:..\..\flexsea-system\src/flexsea_cmd_control.c **** 			#endif	//BOARD_TYPE_FLEXSEA_EXECUTE
 870:..\..\flexsea-system\src/flexsea_cmd_control.c **** 
 871:..\..\flexsea-system\src/flexsea_cmd_control.c **** 			#if((defined BOARD_TYPE_FLEXSEA_MANAGE) || (defined BOARD_TYPE_FLEXSEA_PLAN))
 872:..\..\flexsea-system\src/flexsea_cmd_control.c **** 
 873:..\..\flexsea-system\src/flexsea_cmd_control.c **** 			//Store value:
 874:..\..\flexsea-system\src/flexsea_cmd_control.c **** 			exec1.ctrl.impedance.gain.Z_K = tmp_zk;
ARM GAS  C:\Users\Alex\AppData\Local\Temp\cchBAlOP.s 			page 46


 875:..\..\flexsea-system\src/flexsea_cmd_control.c **** 			exec1.ctrl.impedance.gain.Z_B = tmp_zb;
 876:..\..\flexsea-system\src/flexsea_cmd_control.c **** 			exec1.ctrl.impedance.gain.Z_I = tmp_zi;
 877:..\..\flexsea-system\src/flexsea_cmd_control.c **** 
 878:..\..\flexsea-system\src/flexsea_cmd_control.c **** 			#endif	//((defined BOARD_TYPE_FLEXSEA_MANAGE) || (defined BOARD_TYPE_FLEXSEA_PLAN))
 879:..\..\flexsea-system\src/flexsea_cmd_control.c **** 
 880:..\..\flexsea-system\src/flexsea_cmd_control.c **** 		}
 881:..\..\flexsea-system\src/flexsea_cmd_control.c **** 		else
 882:..\..\flexsea-system\src/flexsea_cmd_control.c **** 		{
 883:..\..\flexsea-system\src/flexsea_cmd_control.c **** 			//Master is writing a value to this board
 884:..\..\flexsea-system\src/flexsea_cmd_control.c **** 
 885:..\..\flexsea-system\src/flexsea_cmd_control.c **** 			#ifdef BOARD_TYPE_FLEXSEA_EXECUTE
 886:..\..\flexsea-system\src/flexsea_cmd_control.c **** 
 887:..\..\flexsea-system\src/flexsea_cmd_control.c **** 			//Store value:
 888:..\..\flexsea-system\src/flexsea_cmd_control.c **** 			ctrl.impedance.gain.Z_K = tmp_zk;
 1687              		.loc 1 888 0
 1688 007a 044B     		ldr	r3, .L96
 1689 007c A3F88060 		strh	r6, [r3, #128]	@ movhi
 889:..\..\flexsea-system\src/flexsea_cmd_control.c **** 			ctrl.impedance.gain.Z_B = tmp_zb;
 1690              		.loc 1 889 0
 1691 0080 A3F88250 		strh	r5, [r3, #130]	@ movhi
 890:..\..\flexsea-system\src/flexsea_cmd_control.c **** 			ctrl.impedance.gain.Z_I = tmp_zi;
 1692              		.loc 1 890 0
 1693 0084 A3F88440 		strh	r4, [r3, #132]	@ movhi
 1694              	.LVL211:
 1695              	.L91:
 891:..\..\flexsea-system\src/flexsea_cmd_control.c **** 			//ToDo: do we need to call something?
 892:..\..\flexsea-system\src/flexsea_cmd_control.c **** 
 893:..\..\flexsea-system\src/flexsea_cmd_control.c **** 			#endif	//BOARD_TYPE_FLEXSEA_EXECUTE
 894:..\..\flexsea-system\src/flexsea_cmd_control.c **** 		}
 895:..\..\flexsea-system\src/flexsea_cmd_control.c **** 	}
 896:..\..\flexsea-system\src/flexsea_cmd_control.c **** }
 1696              		.loc 1 896 0
 1697 0088 04B0     		add	sp, sp, #16
 1698              		.cfi_def_cfa_offset 16
 1699              		@ sp needed
 1700 008a 70BD     		pop	{r4, r5, r6, pc}
 1701              	.L97:
 1702              		.align	2
 1703              	.L96:
 1704 008c 00000000 		.word	ctrl
 1705 0090 00000000 		.word	tmp_payload_xmit
 1706 0094 00000000 		.word	comm_str_1
 1707              		.cfi_endproc
 1708              	.LFE76:
 1709              		.size	flexsea_payload_84, .-flexsea_payload_84
 1710              		.section	.text.tx_cmd_in_control,"ax",%progbits
 1711              		.align	2
 1712              		.global	tx_cmd_in_control
 1713              		.thumb
 1714              		.thumb_func
 1715              		.type	tx_cmd_in_control, %function
 1716              	tx_cmd_in_control:
 1717              	.LFB77:
 897:..\..\flexsea-system\src/flexsea_cmd_control.c **** 
 898:..\..\flexsea-system\src/flexsea_cmd_control.c **** //Transmission of an IN_CONTROL command
 899:..\..\flexsea-system\src/flexsea_cmd_control.c **** //Note: we can only write one parameter at the time (that's what we need for typical use cases).
 900:..\..\flexsea-system\src/flexsea_cmd_control.c **** //'select_w' will determine what variable is written.
ARM GAS  C:\Users\Alex\AppData\Local\Temp\cchBAlOP.s 			page 47


 901:..\..\flexsea-system\src/flexsea_cmd_control.c **** uint32_t tx_cmd_in_control(uint8_t receiver, uint8_t cmd_type, uint8_t *buf, uint32_t len, uint8_t 
 902:..\..\flexsea-system\src/flexsea_cmd_control.c **** {
 1718              		.loc 1 902 0
 1719              		.cfi_startproc
 1720              		@ args = 4, pretend = 0, frame = 8
 1721              		@ frame_needed = 0, uses_anonymous_args = 0
 1722              	.LVL212:
 1723 0000 F0B5     		push	{r4, r5, r6, r7, lr}
 1724              		.cfi_def_cfa_offset 20
 1725              		.cfi_offset 4, -20
 1726              		.cfi_offset 5, -16
 1727              		.cfi_offset 6, -12
 1728              		.cfi_offset 7, -8
 1729              		.cfi_offset 14, -4
 1730 0002 85B0     		sub	sp, sp, #20
 1731              		.cfi_def_cfa_offset 40
 1732 0004 0746     		mov	r7, r0
 1733 0006 0D46     		mov	r5, r1
 1734 0008 1446     		mov	r4, r2
 1735 000a 9DF82860 		ldrb	r6, [sp, #40]	@ zero_extendqisi2
 903:..\..\flexsea-system\src/flexsea_cmd_control.c **** 	uint8_t tmp0 = 0, tmp1 = 0, tmp2 = 0, tmp3 = 0;
 1736              		.loc 1 903 0
 1737 000e 0021     		movs	r1, #0
 1738              	.LVL213:
 1739 0010 8DF80F10 		strb	r1, [sp, #15]
 1740 0014 8DF80E10 		strb	r1, [sp, #14]
 1741 0018 8DF80D10 		strb	r1, [sp, #13]
 1742 001c 8DF80C10 		strb	r1, [sp, #12]
 1743              	.LVL214:
 904:..\..\flexsea-system\src/flexsea_cmd_control.c **** 	uint32_t bytes = 0;
 905:..\..\flexsea-system\src/flexsea_cmd_control.c **** 
 906:..\..\flexsea-system\src/flexsea_cmd_control.c **** 	//Fresh payload string:
 907:..\..\flexsea-system\src/flexsea_cmd_control.c **** 	prepare_empty_payload(board_id, receiver, buf, len);
 1744              		.loc 1 907 0
 1745 0020 6B49     		ldr	r1, .L103
 1746 0022 0878     		ldrb	r0, [r1]	@ zero_extendqisi2
 1747              	.LVL215:
 1748 0024 3946     		mov	r1, r7
 1749 0026 FFF7FEFF 		bl	prepare_empty_payload
 1750              	.LVL216:
 908:..\..\flexsea-system\src/flexsea_cmd_control.c **** 
 909:..\..\flexsea-system\src/flexsea_cmd_control.c **** 	//Command:
 910:..\..\flexsea-system\src/flexsea_cmd_control.c **** 	buf[P_CMDS] = 1;                     //1 command in string
 1751              		.loc 1 910 0
 1752 002a 0123     		movs	r3, #1
 1753 002c A370     		strb	r3, [r4, #2]
 911:..\..\flexsea-system\src/flexsea_cmd_control.c **** 
 912:..\..\flexsea-system\src/flexsea_cmd_control.c **** 	if(cmd_type == CMD_READ)
 1754              		.loc 1 912 0
 1755 002e 9D42     		cmp	r5, r3
 1756 0030 03D1     		bne	.L99
 913:..\..\flexsea-system\src/flexsea_cmd_control.c **** 	{
 914:..\..\flexsea-system\src/flexsea_cmd_control.c **** 		buf[P_CMD1] = CMD_R(CMD_IN_CONTROL);
 1757              		.loc 1 914 0
 1758 0032 B523     		movs	r3, #181
 1759 0034 E370     		strb	r3, [r4, #3]
 1760              	.LVL217:
ARM GAS  C:\Users\Alex\AppData\Local\Temp\cchBAlOP.s 			page 48


 915:..\..\flexsea-system\src/flexsea_cmd_control.c **** 
 916:..\..\flexsea-system\src/flexsea_cmd_control.c **** 		bytes = P_CMD1 + 1;     //Bytes is always last+1
 1761              		.loc 1 916 0
 1762 0036 0420     		movs	r0, #4
 1763 0038 C7E0     		b	.L100
 1764              	.LVL218:
 1765              	.L99:
 917:..\..\flexsea-system\src/flexsea_cmd_control.c **** 	}
 918:..\..\flexsea-system\src/flexsea_cmd_control.c **** 	else if(cmd_type == CMD_WRITE)
 1766              		.loc 1 918 0
 1767 003a 022D     		cmp	r5, #2
 1768 003c 40F0C080 		bne	.L101
 919:..\..\flexsea-system\src/flexsea_cmd_control.c **** 	{
 920:..\..\flexsea-system\src/flexsea_cmd_control.c **** 		buf[P_CMD1] = CMD_W(CMD_IN_CONTROL);
 1769              		.loc 1 920 0
 1770 0040 B423     		movs	r3, #180
 1771 0042 E370     		strb	r3, [r4, #3]
 921:..\..\flexsea-system\src/flexsea_cmd_control.c **** 
 922:..\..\flexsea-system\src/flexsea_cmd_control.c **** 		//Arguments:
 923:..\..\flexsea-system\src/flexsea_cmd_control.c **** 
 924:..\..\flexsea-system\src/flexsea_cmd_control.c ****         #ifdef BOARD_TYPE_FLEXSEA_EXECUTE
 925:..\..\flexsea-system\src/flexsea_cmd_control.c **** 
 926:..\..\flexsea-system\src/flexsea_cmd_control.c **** 		buf[P_DATA1 + 1] = select_w; //Parameter written
 1772              		.loc 1 926 0
 1773 0044 6671     		strb	r6, [r4, #5]
 927:..\..\flexsea-system\src/flexsea_cmd_control.c **** 		uint32_to_bytes((uint32_t)in_control.w[select_w], &tmp0, &tmp1, &tmp2, &tmp3);
 1774              		.loc 1 927 0
 1775 0046 634D     		ldr	r5, .L103+4
 1776 0048 0A36     		adds	r6, r6, #10
 1777 004a 05EB8606 		add	r6, r5, r6, lsl #2
 1778 004e 7068     		ldr	r0, [r6, #4]
 1779 0050 03AE     		add	r6, sp, #12
 1780 0052 0096     		str	r6, [sp]
 1781 0054 0DF10F01 		add	r1, sp, #15
 1782 0058 0DF10E02 		add	r2, sp, #14
 1783 005c 0DF10D03 		add	r3, sp, #13
 1784 0060 FFF7FEFF 		bl	uint32_to_bytes
 1785              	.LVL219:
 928:..\..\flexsea-system\src/flexsea_cmd_control.c **** 		buf[P_DATA1 + 1] = tmp0;
 1786              		.loc 1 928 0
 1787 0064 9DF80F30 		ldrb	r3, [sp, #15]	@ zero_extendqisi2
 1788 0068 6371     		strb	r3, [r4, #5]
 929:..\..\flexsea-system\src/flexsea_cmd_control.c **** 		buf[P_DATA1 + 2] = tmp1;
 1789              		.loc 1 929 0
 1790 006a 9DF80E30 		ldrb	r3, [sp, #14]	@ zero_extendqisi2
 1791 006e A371     		strb	r3, [r4, #6]
 930:..\..\flexsea-system\src/flexsea_cmd_control.c **** 		buf[P_DATA1 + 3] = tmp2;
 1792              		.loc 1 930 0
 1793 0070 9DF80D30 		ldrb	r3, [sp, #13]	@ zero_extendqisi2
 1794 0074 E371     		strb	r3, [r4, #7]
 931:..\..\flexsea-system\src/flexsea_cmd_control.c **** 		buf[P_DATA1 + 4] = tmp3;
 1795              		.loc 1 931 0
 1796 0076 9DF80C30 		ldrb	r3, [sp, #12]	@ zero_extendqisi2
 1797 007a 2372     		strb	r3, [r4, #8]
 932:..\..\flexsea-system\src/flexsea_cmd_control.c **** 		
 933:..\..\flexsea-system\src/flexsea_cmd_control.c **** 		uint32_to_bytes((uint32_t)in_control.setp, &tmp0, &tmp1, &tmp2, &tmp3);
 1798              		.loc 1 933 0
ARM GAS  C:\Users\Alex\AppData\Local\Temp\cchBAlOP.s 			page 49


 1799 007c 6868     		ldr	r0, [r5, #4]
 1800 007e 0096     		str	r6, [sp]
 1801 0080 0DF10F01 		add	r1, sp, #15
 1802 0084 0DF10E02 		add	r2, sp, #14
 1803 0088 0DF10D03 		add	r3, sp, #13
 1804 008c FFF7FEFF 		bl	uint32_to_bytes
 1805              	.LVL220:
 934:..\..\flexsea-system\src/flexsea_cmd_control.c **** 		buf[P_DATA1 + 5] = tmp0;
 1806              		.loc 1 934 0
 1807 0090 9DF80F30 		ldrb	r3, [sp, #15]	@ zero_extendqisi2
 1808 0094 6372     		strb	r3, [r4, #9]
 935:..\..\flexsea-system\src/flexsea_cmd_control.c **** 		buf[P_DATA1 + 6] = tmp1;
 1809              		.loc 1 935 0
 1810 0096 9DF80E30 		ldrb	r3, [sp, #14]	@ zero_extendqisi2
 1811 009a A372     		strb	r3, [r4, #10]
 936:..\..\flexsea-system\src/flexsea_cmd_control.c **** 		buf[P_DATA1 + 7] = tmp2;
 1812              		.loc 1 936 0
 1813 009c 9DF80D30 		ldrb	r3, [sp, #13]	@ zero_extendqisi2
 1814 00a0 E372     		strb	r3, [r4, #11]
 937:..\..\flexsea-system\src/flexsea_cmd_control.c **** 		buf[P_DATA1 + 8] = tmp3;
 1815              		.loc 1 937 0
 1816 00a2 9DF80C30 		ldrb	r3, [sp, #12]	@ zero_extendqisi2
 1817 00a6 2373     		strb	r3, [r4, #12]
 938:..\..\flexsea-system\src/flexsea_cmd_control.c **** 		
 939:..\..\flexsea-system\src/flexsea_cmd_control.c **** 		uint32_to_bytes((uint32_t)in_control.actual_val, &tmp0, &tmp1, &tmp2, &tmp3);
 1818              		.loc 1 939 0
 1819 00a8 A868     		ldr	r0, [r5, #8]
 1820 00aa 0096     		str	r6, [sp]
 1821 00ac 0DF10F01 		add	r1, sp, #15
 1822 00b0 0DF10E02 		add	r2, sp, #14
 1823 00b4 0DF10D03 		add	r3, sp, #13
 1824 00b8 FFF7FEFF 		bl	uint32_to_bytes
 1825              	.LVL221:
 940:..\..\flexsea-system\src/flexsea_cmd_control.c **** 		buf[P_DATA1 + 9] = tmp0;
 1826              		.loc 1 940 0
 1827 00bc 9DF80F30 		ldrb	r3, [sp, #15]	@ zero_extendqisi2
 1828 00c0 6373     		strb	r3, [r4, #13]
 941:..\..\flexsea-system\src/flexsea_cmd_control.c **** 		buf[P_DATA1 + 10] = tmp1;
 1829              		.loc 1 941 0
 1830 00c2 9DF80E30 		ldrb	r3, [sp, #14]	@ zero_extendqisi2
 1831 00c6 A373     		strb	r3, [r4, #14]
 942:..\..\flexsea-system\src/flexsea_cmd_control.c **** 		buf[P_DATA1 + 11] = tmp2;
 1832              		.loc 1 942 0
 1833 00c8 9DF80D30 		ldrb	r3, [sp, #13]	@ zero_extendqisi2
 1834 00cc E373     		strb	r3, [r4, #15]
 943:..\..\flexsea-system\src/flexsea_cmd_control.c **** 		buf[P_DATA1 + 12] = tmp3;
 1835              		.loc 1 943 0
 1836 00ce 9DF80C30 		ldrb	r3, [sp, #12]	@ zero_extendqisi2
 1837 00d2 2374     		strb	r3, [r4, #16]
 944:..\..\flexsea-system\src/flexsea_cmd_control.c **** 		
 945:..\..\flexsea-system\src/flexsea_cmd_control.c **** 		uint32_to_bytes((uint32_t)in_control.error, &tmp0, &tmp1, &tmp2, &tmp3);
 1838              		.loc 1 945 0
 1839 00d4 E868     		ldr	r0, [r5, #12]
 1840 00d6 0096     		str	r6, [sp]
 1841 00d8 0DF10F01 		add	r1, sp, #15
 1842 00dc 0DF10E02 		add	r2, sp, #14
 1843 00e0 0DF10D03 		add	r3, sp, #13
ARM GAS  C:\Users\Alex\AppData\Local\Temp\cchBAlOP.s 			page 50


 1844 00e4 FFF7FEFF 		bl	uint32_to_bytes
 1845              	.LVL222:
 946:..\..\flexsea-system\src/flexsea_cmd_control.c **** 		buf[P_DATA1 + 13] = tmp0;
 1846              		.loc 1 946 0
 1847 00e8 9DF80F30 		ldrb	r3, [sp, #15]	@ zero_extendqisi2
 1848 00ec 6374     		strb	r3, [r4, #17]
 947:..\..\flexsea-system\src/flexsea_cmd_control.c **** 		buf[P_DATA1 + 14] = tmp1;
 1849              		.loc 1 947 0
 1850 00ee 9DF80E30 		ldrb	r3, [sp, #14]	@ zero_extendqisi2
 1851 00f2 A374     		strb	r3, [r4, #18]
 948:..\..\flexsea-system\src/flexsea_cmd_control.c **** 		buf[P_DATA1 + 15] = tmp2;
 1852              		.loc 1 948 0
 1853 00f4 9DF80D30 		ldrb	r3, [sp, #13]	@ zero_extendqisi2
 1854 00f8 E374     		strb	r3, [r4, #19]
 949:..\..\flexsea-system\src/flexsea_cmd_control.c **** 		buf[P_DATA1 + 16] = tmp3;
 1855              		.loc 1 949 0
 1856 00fa 9DF80C30 		ldrb	r3, [sp, #12]	@ zero_extendqisi2
 1857 00fe 2375     		strb	r3, [r4, #20]
 950:..\..\flexsea-system\src/flexsea_cmd_control.c **** 		
 951:..\..\flexsea-system\src/flexsea_cmd_control.c **** 		uint16_to_bytes((uint16_t)in_control.output, &tmp0, &tmp1);
 1858              		.loc 1 951 0
 1859 0100 2869     		ldr	r0, [r5, #16]
 1860 0102 80B2     		uxth	r0, r0
 1861 0104 0DF10F01 		add	r1, sp, #15
 1862 0108 0DF10E02 		add	r2, sp, #14
 1863 010c FFF7FEFF 		bl	uint16_to_bytes
 1864              	.LVL223:
 952:..\..\flexsea-system\src/flexsea_cmd_control.c **** 		buf[P_DATA1 + 17] = tmp0;
 1865              		.loc 1 952 0
 1866 0110 9DF80F30 		ldrb	r3, [sp, #15]	@ zero_extendqisi2
 1867 0114 6375     		strb	r3, [r4, #21]
 953:..\..\flexsea-system\src/flexsea_cmd_control.c **** 		buf[P_DATA1 + 18] = tmp1;
 1868              		.loc 1 953 0
 1869 0116 9DF80E30 		ldrb	r3, [sp, #14]	@ zero_extendqisi2
 1870 011a A375     		strb	r3, [r4, #22]
 954:..\..\flexsea-system\src/flexsea_cmd_control.c **** 		
 955:..\..\flexsea-system\src/flexsea_cmd_control.c **** 		//Combine 3 fields in 1 uint16:
 956:..\..\flexsea-system\src/flexsea_cmd_control.c **** 		in_control_get_pwm_dir();
 1871              		.loc 1 956 0
 1872 011c FFF7FEFF 		bl	in_control_get_pwm_dir
 1873              	.LVL224:
 957:..\..\flexsea-system\src/flexsea_cmd_control.c **** 		in_control_combine();
 1874              		.loc 1 957 0
 1875 0120 FFF7FEFF 		bl	in_control_combine
 1876              	.LVL225:
 958:..\..\flexsea-system\src/flexsea_cmd_control.c ****         uint16_to_bytes((uint16_t)in_control.combined, &tmp0, &tmp1);
 1877              		.loc 1 958 0
 1878 0124 688B     		ldrh	r0, [r5, #26]
 1879 0126 80B2     		uxth	r0, r0
 1880 0128 0DF10F01 		add	r1, sp, #15
 1881 012c 0DF10E02 		add	r2, sp, #14
 1882 0130 FFF7FEFF 		bl	uint16_to_bytes
 1883              	.LVL226:
 959:..\..\flexsea-system\src/flexsea_cmd_control.c ****         buf[P_DATA1 + 19] = tmp0;
 1884              		.loc 1 959 0
 1885 0134 9DF80F30 		ldrb	r3, [sp, #15]	@ zero_extendqisi2
 1886 0138 E375     		strb	r3, [r4, #23]
ARM GAS  C:\Users\Alex\AppData\Local\Temp\cchBAlOP.s 			page 51


 960:..\..\flexsea-system\src/flexsea_cmd_control.c ****         buf[P_DATA1 + 20] = tmp1;
 1887              		.loc 1 960 0
 1888 013a 9DF80E30 		ldrb	r3, [sp, #14]	@ zero_extendqisi2
 1889 013e 2376     		strb	r3, [r4, #24]
 961:..\..\flexsea-system\src/flexsea_cmd_control.c **** 
 962:..\..\flexsea-system\src/flexsea_cmd_control.c ****         uint16_to_bytes((uint16_t)ctrl.current.actual_val, &tmp0, &tmp1);
 1890              		.loc 1 962 0
 1891 0140 254B     		ldr	r3, .L103+8
 1892 0142 586B     		ldr	r0, [r3, #52]
 1893 0144 80B2     		uxth	r0, r0
 1894 0146 0DF10F01 		add	r1, sp, #15
 1895 014a 0DF10E02 		add	r2, sp, #14
 1896 014e FFF7FEFF 		bl	uint16_to_bytes
 1897              	.LVL227:
 963:..\..\flexsea-system\src/flexsea_cmd_control.c ****         buf[P_DATA1 + 21] = tmp0;
 1898              		.loc 1 963 0
 1899 0152 9DF80F30 		ldrb	r3, [sp, #15]	@ zero_extendqisi2
 1900 0156 6376     		strb	r3, [r4, #25]
 964:..\..\flexsea-system\src/flexsea_cmd_control.c ****         buf[P_DATA1 + 22] = tmp1;
 1901              		.loc 1 964 0
 1902 0158 9DF80E30 		ldrb	r3, [sp, #14]	@ zero_extendqisi2
 1903 015c A376     		strb	r3, [r4, #26]
 965:..\..\flexsea-system\src/flexsea_cmd_control.c **** 		
 966:..\..\flexsea-system\src/flexsea_cmd_control.c **** 		//User fields:
 967:..\..\flexsea-system\src/flexsea_cmd_control.c **** 		uint32_to_bytes((uint32_t)in_control.r[0], &tmp0, &tmp1, &tmp2, &tmp3);
 1904              		.loc 1 967 0
 1905 015e E869     		ldr	r0, [r5, #28]
 1906 0160 0096     		str	r6, [sp]
 1907 0162 0DF10F01 		add	r1, sp, #15
 1908 0166 0DF10E02 		add	r2, sp, #14
 1909 016a 0DF10D03 		add	r3, sp, #13
 1910 016e FFF7FEFF 		bl	uint32_to_bytes
 1911              	.LVL228:
 968:..\..\flexsea-system\src/flexsea_cmd_control.c **** 		buf[P_DATA1 + 23] = tmp0;
 1912              		.loc 1 968 0
 1913 0172 9DF80F30 		ldrb	r3, [sp, #15]	@ zero_extendqisi2
 1914 0176 E376     		strb	r3, [r4, #27]
 969:..\..\flexsea-system\src/flexsea_cmd_control.c **** 		buf[P_DATA1 + 24] = tmp1;
 1915              		.loc 1 969 0
 1916 0178 9DF80E30 		ldrb	r3, [sp, #14]	@ zero_extendqisi2
 1917 017c 2377     		strb	r3, [r4, #28]
 970:..\..\flexsea-system\src/flexsea_cmd_control.c **** 		buf[P_DATA1 + 25] = tmp2;
 1918              		.loc 1 970 0
 1919 017e 9DF80D30 		ldrb	r3, [sp, #13]	@ zero_extendqisi2
 1920 0182 6377     		strb	r3, [r4, #29]
 971:..\..\flexsea-system\src/flexsea_cmd_control.c **** 		buf[P_DATA1 + 26] = tmp3;
 1921              		.loc 1 971 0
 1922 0184 9DF80C30 		ldrb	r3, [sp, #12]	@ zero_extendqisi2
 1923 0188 A377     		strb	r3, [r4, #30]
 972:..\..\flexsea-system\src/flexsea_cmd_control.c **** 		uint32_to_bytes((uint32_t)in_control.r[1], &tmp0, &tmp1, &tmp2, &tmp3);
 1924              		.loc 1 972 0
 1925 018a 286A     		ldr	r0, [r5, #32]
 1926 018c 0096     		str	r6, [sp]
 1927 018e 0DF10F01 		add	r1, sp, #15
 1928 0192 0DF10E02 		add	r2, sp, #14
 1929 0196 0DF10D03 		add	r3, sp, #13
 1930 019a FFF7FEFF 		bl	uint32_to_bytes
ARM GAS  C:\Users\Alex\AppData\Local\Temp\cchBAlOP.s 			page 52


 1931              	.LVL229:
 973:..\..\flexsea-system\src/flexsea_cmd_control.c **** 		buf[P_DATA1 + 27] = tmp0;
 1932              		.loc 1 973 0
 1933 019e 9DF80F30 		ldrb	r3, [sp, #15]	@ zero_extendqisi2
 1934 01a2 E377     		strb	r3, [r4, #31]
 974:..\..\flexsea-system\src/flexsea_cmd_control.c **** 		buf[P_DATA1 + 28] = tmp1;
 1935              		.loc 1 974 0
 1936 01a4 9DF80E30 		ldrb	r3, [sp, #14]	@ zero_extendqisi2
 1937 01a8 84F82030 		strb	r3, [r4, #32]
 975:..\..\flexsea-system\src/flexsea_cmd_control.c **** 		buf[P_DATA1 + 29] = tmp2;
 1938              		.loc 1 975 0
 1939 01ac 9DF80D30 		ldrb	r3, [sp, #13]	@ zero_extendqisi2
 1940 01b0 84F82130 		strb	r3, [r4, #33]
 976:..\..\flexsea-system\src/flexsea_cmd_control.c **** 		buf[P_DATA1 + 30] = tmp3;
 1941              		.loc 1 976 0
 1942 01b4 9DF80C30 		ldrb	r3, [sp, #12]	@ zero_extendqisi2
 1943 01b8 84F82230 		strb	r3, [r4, #34]
 1944              	.LVL230:
 977:..\..\flexsea-system\src/flexsea_cmd_control.c **** 
 978:..\..\flexsea-system\src/flexsea_cmd_control.c ****         bytes = P_DATA1 + 31;     //Bytes is always last+1
 1945              		.loc 1 978 0
 1946 01bc 2320     		movs	r0, #35
 1947 01be 04E0     		b	.L100
 1948              	.LVL231:
 1949              	.L101:
 979:..\..\flexsea-system\src/flexsea_cmd_control.c **** 
 980:..\..\flexsea-system\src/flexsea_cmd_control.c ****         #endif //BOARD_TYPE_FLEXSEA_EXECUTE
 981:..\..\flexsea-system\src/flexsea_cmd_control.c **** 
 982:..\..\flexsea-system\src/flexsea_cmd_control.c ****         #ifdef BOARD_TYPE_FLEXSEA_PLAN
 983:..\..\flexsea-system\src/flexsea_cmd_control.c **** 
 984:..\..\flexsea-system\src/flexsea_cmd_control.c ****         buf[P_DATA1 + 0] = select_w; //Parameter written
 985:..\..\flexsea-system\src/flexsea_cmd_control.c ****         uint32_to_bytes((uint32_t)in_control_1.w[select_w], &tmp0, &tmp1, &tmp2, &tmp3);
 986:..\..\flexsea-system\src/flexsea_cmd_control.c ****         buf[P_DATA1 + 1] = tmp0;
 987:..\..\flexsea-system\src/flexsea_cmd_control.c ****         buf[P_DATA1 + 2] = tmp1;
 988:..\..\flexsea-system\src/flexsea_cmd_control.c ****         buf[P_DATA1 + 3] = tmp2;
 989:..\..\flexsea-system\src/flexsea_cmd_control.c ****         buf[P_DATA1 + 4] = tmp3;
 990:..\..\flexsea-system\src/flexsea_cmd_control.c **** 
 991:..\..\flexsea-system\src/flexsea_cmd_control.c ****         bytes = P_DATA1 + 5;     //Bytes is always last+1
 992:..\..\flexsea-system\src/flexsea_cmd_control.c **** 
 993:..\..\flexsea-system\src/flexsea_cmd_control.c ****         #endif  //BOARD_TYPE_FLEXSEA_PLAN
 994:..\..\flexsea-system\src/flexsea_cmd_control.c **** 	}
 995:..\..\flexsea-system\src/flexsea_cmd_control.c **** 	else
 996:..\..\flexsea-system\src/flexsea_cmd_control.c **** 	{
 997:..\..\flexsea-system\src/flexsea_cmd_control.c **** 		//Invalid
 998:..\..\flexsea-system\src/flexsea_cmd_control.c **** 		flexsea_error(SE_INVALID_READ_TYPE);
 1950              		.loc 1 998 0
 1951 01c0 4FF48060 		mov	r0, #1024
 1952 01c4 FFF7FEFF 		bl	flexsea_error
 1953              	.LVL232:
 999:..\..\flexsea-system\src/flexsea_cmd_control.c **** 		bytes = 0;
 1954              		.loc 1 999 0
 1955 01c8 0020     		movs	r0, #0
 1956              	.LVL233:
 1957              	.L100:
1000:..\..\flexsea-system\src/flexsea_cmd_control.c **** 	}
1001:..\..\flexsea-system\src/flexsea_cmd_control.c **** 
1002:..\..\flexsea-system\src/flexsea_cmd_control.c **** 	return bytes;
ARM GAS  C:\Users\Alex\AppData\Local\Temp\cchBAlOP.s 			page 53


1003:..\..\flexsea-system\src/flexsea_cmd_control.c **** }
 1958              		.loc 1 1003 0
 1959 01ca 05B0     		add	sp, sp, #20
 1960              		.cfi_def_cfa_offset 20
 1961              		@ sp needed
 1962 01cc F0BD     		pop	{r4, r5, r6, r7, pc}
 1963              	.LVL234:
 1964              	.L104:
 1965 01ce 00BF     		.align	2
 1966              	.L103:
 1967 01d0 00000000 		.word	board_id
 1968 01d4 00000000 		.word	in_control
 1969 01d8 00000000 		.word	ctrl
 1970              		.cfi_endproc
 1971              	.LFE77:
 1972              		.size	tx_cmd_in_control, .-tx_cmd_in_control
 1973              		.section	.text.flexsea_payload_90,"ax",%progbits
 1974              		.align	2
 1975              		.weak	flexsea_payload_90
 1976              		.thumb
 1977              		.thumb_func
 1978              		.type	flexsea_payload_90, %function
 1979              	flexsea_payload_90:
 1980              	.LFB78:
1004:..\..\flexsea-system\src/flexsea_cmd_control.c **** 
1005:..\..\flexsea-system\src/flexsea_cmd_control.c **** //Reception of an IN_CONTROL command
1006:..\..\flexsea-system\src/flexsea_cmd_control.c **** void rx_cmd_in_control(uint8_t *buf)
1007:..\..\flexsea-system\src/flexsea_cmd_control.c **** {
 1981              		.loc 1 1007 0
 1982              		.cfi_startproc
 1983              		@ args = 0, pretend = 0, frame = 0
 1984              		@ frame_needed = 0, uses_anonymous_args = 0
 1985              	.LVL235:
 1986 0000 30B5     		push	{r4, r5, lr}
 1987              		.cfi_def_cfa_offset 12
 1988              		.cfi_offset 4, -12
 1989              		.cfi_offset 5, -8
 1990              		.cfi_offset 14, -4
 1991 0002 83B0     		sub	sp, sp, #12
 1992              		.cfi_def_cfa_offset 24
 1993              	.LVL236:
1008:..\..\flexsea-system\src/flexsea_cmd_control.c **** 	uint8_t numb = 0, w_select = 0;
1009:..\..\flexsea-system\src/flexsea_cmd_control.c **** 	int32_t w_val = 0;
1010:..\..\flexsea-system\src/flexsea_cmd_control.c **** 
1011:..\..\flexsea-system\src/flexsea_cmd_control.c **** 	if(IS_CMD_RW(buf[P_CMD1]) == READ)
 1994              		.loc 1 1011 0
 1995 0004 C378     		ldrb	r3, [r0, #3]	@ zero_extendqisi2
 1996 0006 13F00103 		ands	r3, r3, #1
 1997 000a 17D0     		beq	.L106
1012:..\..\flexsea-system\src/flexsea_cmd_control.c **** 	{
1013:..\..\flexsea-system\src/flexsea_cmd_control.c **** 		//Received a Read command from our master, prepare a reply:
1014:..\..\flexsea-system\src/flexsea_cmd_control.c **** 
1015:..\..\flexsea-system\src/flexsea_cmd_control.c **** 		#ifdef BOARD_TYPE_FLEXSEA_EXECUTE
1016:..\..\flexsea-system\src/flexsea_cmd_control.c **** 
1017:..\..\flexsea-system\src/flexsea_cmd_control.c **** 		//Generate the reply:
1018:..\..\flexsea-system\src/flexsea_cmd_control.c **** 		numb = tx_cmd_in_control(buf[P_XID], CMD_WRITE, tmp_payload_xmit, PAYLOAD_BUF_LEN, 0);
 1998              		.loc 1 1018 0
ARM GAS  C:\Users\Alex\AppData\Local\Temp\cchBAlOP.s 			page 54


 1999 000c 0078     		ldrb	r0, [r0]	@ zero_extendqisi2
 2000              	.LVL237:
 2001 000e 164D     		ldr	r5, .L109
 2002 0010 0023     		movs	r3, #0
 2003 0012 0093     		str	r3, [sp]
 2004 0014 0221     		movs	r1, #2
 2005 0016 2A46     		mov	r2, r5
 2006 0018 2423     		movs	r3, #36
 2007 001a FFF7FEFF 		bl	tx_cmd_in_control
 2008              	.LVL238:
 2009 001e C2B2     		uxtb	r2, r0
 2010              	.LVL239:
1019:..\..\flexsea-system\src/flexsea_cmd_control.c **** 		numb = comm_gen_str(tmp_payload_xmit, comm_str_485, numb);
 2011              		.loc 1 1019 0
 2012 0020 124C     		ldr	r4, .L109+4
 2013 0022 2846     		mov	r0, r5
 2014 0024 2146     		mov	r1, r4
 2015 0026 FFF7FEFF 		bl	comm_gen_str
 2016              	.LVL240:
1020:..\..\flexsea-system\src/flexsea_cmd_control.c **** 		numb = COMM_STR_BUF_LEN;	//Fixed length for now to accomodate the DMA
1021:..\..\flexsea-system\src/flexsea_cmd_control.c **** 
1022:..\..\flexsea-system\src/flexsea_cmd_control.c **** 		//Notify the code that a buffer is ready to be transmitted:
1023:..\..\flexsea-system\src/flexsea_cmd_control.c **** 		//xmit_flag_1 = 1;
1024:..\..\flexsea-system\src/flexsea_cmd_control.c **** 		
1025:..\..\flexsea-system\src/flexsea_cmd_control.c **** 		//(for now, send it)
1026:..\..\flexsea-system\src/flexsea_cmd_control.c **** 		rs485_puts(comm_str_485, numb);
 2017              		.loc 1 1026 0
 2018 002a 2046     		mov	r0, r4
 2019 002c 3021     		movs	r1, #48
 2020 002e FFF7FEFF 		bl	rs485_puts
 2021              	.LVL241:
1027:..\..\flexsea-system\src/flexsea_cmd_control.c **** 		
1028:..\..\flexsea-system\src/flexsea_cmd_control.c **** 		#ifdef USE_USB
1029:..\..\flexsea-system\src/flexsea_cmd_control.c **** 		usb_puts(comm_str_485, (numb));
 2022              		.loc 1 1029 0
 2023 0032 2046     		mov	r0, r4
 2024 0034 3021     		movs	r1, #48
 2025 0036 FFF7FEFF 		bl	usb_puts
 2026              	.LVL242:
 2027 003a 13E0     		b	.L105
 2028              	.LVL243:
 2029              	.L106:
1030:..\..\flexsea-system\src/flexsea_cmd_control.c **** 		#endif
1031:..\..\flexsea-system\src/flexsea_cmd_control.c **** 
1032:..\..\flexsea-system\src/flexsea_cmd_control.c **** 		#endif	//BOARD_TYPE_FLEXSEA_EXECUTE
1033:..\..\flexsea-system\src/flexsea_cmd_control.c **** 	}
1034:..\..\flexsea-system\src/flexsea_cmd_control.c **** 	else if(IS_CMD_RW(buf[P_CMD1]) == WRITE)
 2030              		.loc 1 1034 0
 2031 003c 93B9     		cbnz	r3, .L105
1035:..\..\flexsea-system\src/flexsea_cmd_control.c **** 	{
1036:..\..\flexsea-system\src/flexsea_cmd_control.c **** 		//Two options: from Master of from slave (a read reply)
1037:..\..\flexsea-system\src/flexsea_cmd_control.c **** 
1038:..\..\flexsea-system\src/flexsea_cmd_control.c **** 		//Decode data:
1039:..\..\flexsea-system\src/flexsea_cmd_control.c **** 		w_select = buf[P_DATA1];
 2032              		.loc 1 1039 0
 2033 003e 0579     		ldrb	r5, [r0, #4]	@ zero_extendqisi2
 2034              	.LVL244:
ARM GAS  C:\Users\Alex\AppData\Local\Temp\cchBAlOP.s 			page 55


1040:..\..\flexsea-system\src/flexsea_cmd_control.c **** 		w_val = (int32_t) (BYTES_TO_UINT32(buf[P_DATA1 + 1], buf[P_DATA1 + 2], buf[P_DATA1 + 3], buf[P_DA
 2035              		.loc 1 1040 0
 2036 0040 4279     		ldrb	r2, [r0, #5]	@ zero_extendqisi2
 2037 0042 8379     		ldrb	r3, [r0, #6]	@ zero_extendqisi2
 2038 0044 1B04     		lsls	r3, r3, #16
 2039 0046 03EB0263 		add	r3, r3, r2, lsl #24
 2040 004a C279     		ldrb	r2, [r0, #7]	@ zero_extendqisi2
 2041 004c 03EB0223 		add	r3, r3, r2, lsl #8
 2042 0050 027A     		ldrb	r2, [r0, #8]	@ zero_extendqisi2
 2043 0052 9C18     		adds	r4, r3, r2
 2044              	.LVL245:
1041:..\..\flexsea-system\src/flexsea_cmd_control.c **** 
1042:..\..\flexsea-system\src/flexsea_cmd_control.c **** 		if(sent_from_a_slave(buf))
 2045              		.loc 1 1042 0
 2046 0054 FFF7FEFF 		bl	sent_from_a_slave
 2047              	.LVL246:
 2048 0058 20B9     		cbnz	r0, .L105
1043:..\..\flexsea-system\src/flexsea_cmd_control.c **** 		{
1044:..\..\flexsea-system\src/flexsea_cmd_control.c **** 			//We received a reply to our read request
1045:..\..\flexsea-system\src/flexsea_cmd_control.c **** 
1046:..\..\flexsea-system\src/flexsea_cmd_control.c **** 			#if((defined BOARD_TYPE_FLEXSEA_MANAGE) || (defined BOARD_TYPE_FLEXSEA_PLAN))
1047:..\..\flexsea-system\src/flexsea_cmd_control.c **** 
1048:..\..\flexsea-system\src/flexsea_cmd_control.c **** 			//Store value:
1049:..\..\flexsea-system\src/flexsea_cmd_control.c **** 			in_control_1.setp = (int32_t) (BYTES_TO_UINT32(buf[P_DATA1 + 5], buf[P_DATA1 + 6], buf[P_DATA1 +
1050:..\..\flexsea-system\src/flexsea_cmd_control.c **** 			in_control_1.actual_val = (int32_t) (BYTES_TO_UINT32(buf[P_DATA1 + 9], buf[P_DATA1 + 10], buf[P_
1051:..\..\flexsea-system\src/flexsea_cmd_control.c **** 			
1052:..\..\flexsea-system\src/flexsea_cmd_control.c **** 			in_control_1.error = (int32_t) (BYTES_TO_UINT32(buf[P_DATA1 + 13], buf[P_DATA1 + 14], buf[P_DATA
1053:..\..\flexsea-system\src/flexsea_cmd_control.c ****             in_control_1.output = (int16_t) (BYTES_TO_UINT16(buf[P_DATA1 + 17], buf[P_DATA1 + 18]))
1054:..\..\flexsea-system\src/flexsea_cmd_control.c ****             
1055:..\..\flexsea-system\src/flexsea_cmd_control.c **** 			in_control_1.combined = (BYTES_TO_UINT16(buf[P_DATA1 + 19], buf[P_DATA1 + 20]));			
1056:..\..\flexsea-system\src/flexsea_cmd_control.c **** 			in_control_1.current = (int16_t) (BYTES_TO_UINT16(buf[P_DATA1 + 21], buf[P_DATA1 + 22]));
1057:..\..\flexsea-system\src/flexsea_cmd_control.c **** 			
1058:..\..\flexsea-system\src/flexsea_cmd_control.c ****             in_control_1.r[0] = (int32_t) (BYTES_TO_UINT32(buf[P_DATA1 + 23], buf[P_DATA1 + 24], bu
1059:..\..\flexsea-system\src/flexsea_cmd_control.c ****             in_control_1.r[1] = (int32_t) (BYTES_TO_UINT32(buf[P_DATA1 + 27], buf[P_DATA1 + 28], bu
1060:..\..\flexsea-system\src/flexsea_cmd_control.c ****             
1061:..\..\flexsea-system\src/flexsea_cmd_control.c **** 			in_control_1.controller = IN_CONTROL_CONTROLLER(in_control_1.combined);
1062:..\..\flexsea-system\src/flexsea_cmd_control.c **** 			in_control_1.mot_dir = IN_CONTROL_MOT_DIR(in_control_1.combined);
1063:..\..\flexsea-system\src/flexsea_cmd_control.c **** 			in_control_1.pwm = IN_CONTROL_PWM(in_control_1.combined);
1064:..\..\flexsea-system\src/flexsea_cmd_control.c **** 
1065:..\..\flexsea-system\src/flexsea_cmd_control.c **** 			#endif	//((defined BOARD_TYPE_FLEXSEA_MANAGE) || (defined BOARD_TYPE_FLEXSEA_PLAN))
1066:..\..\flexsea-system\src/flexsea_cmd_control.c **** 		}
1067:..\..\flexsea-system\src/flexsea_cmd_control.c **** 		else
1068:..\..\flexsea-system\src/flexsea_cmd_control.c **** 		{
1069:..\..\flexsea-system\src/flexsea_cmd_control.c **** 			//Master is writing a value to this board
1070:..\..\flexsea-system\src/flexsea_cmd_control.c **** 
1071:..\..\flexsea-system\src/flexsea_cmd_control.c **** 			#ifdef BOARD_TYPE_FLEXSEA_EXECUTE
1072:..\..\flexsea-system\src/flexsea_cmd_control.c **** 
1073:..\..\flexsea-system\src/flexsea_cmd_control.c **** 			in_control.w[w_select] = w_val;
 2049              		.loc 1 1073 0
 2050 005a 0A35     		adds	r5, r5, #10
 2051              	.LVL247:
 2052 005c 044B     		ldr	r3, .L109+8
 2053 005e 03EB8505 		add	r5, r3, r5, lsl #2
 2054              	.LVL248:
 2055 0062 6C60     		str	r4, [r5, #4]
 2056              	.LVL249:
 2057              	.L105:
ARM GAS  C:\Users\Alex\AppData\Local\Temp\cchBAlOP.s 			page 56


1074:..\..\flexsea-system\src/flexsea_cmd_control.c **** 
1075:..\..\flexsea-system\src/flexsea_cmd_control.c **** 			#endif	//BOARD_TYPE_FLEXSEA_EXECUTE
1076:..\..\flexsea-system\src/flexsea_cmd_control.c **** 		}
1077:..\..\flexsea-system\src/flexsea_cmd_control.c **** 	}
1078:..\..\flexsea-system\src/flexsea_cmd_control.c **** }
 2058              		.loc 1 1078 0
 2059 0064 03B0     		add	sp, sp, #12
 2060              		.cfi_def_cfa_offset 12
 2061              		@ sp needed
 2062 0066 30BD     		pop	{r4, r5, pc}
 2063              	.L110:
 2064              		.align	2
 2065              	.L109:
 2066 0068 00000000 		.word	tmp_payload_xmit
 2067 006c 00000000 		.word	comm_str_1
 2068 0070 00000000 		.word	in_control
 2069              		.cfi_endproc
 2070              	.LFE78:
 2071              		.size	flexsea_payload_90, .-flexsea_payload_90
 2072              		.comm	tmp_payload_xmit,36,4
 2073              		.text
 2074              	.Letext0:
 2075              		.file 2 "c:\\program files (x86)\\cypress\\psoc creator\\3.3\\psoc creator\\import\\gnu\\arm\\4.9.
 2076              		.file 3 "c:\\program files (x86)\\cypress\\psoc creator\\3.3\\psoc creator\\import\\gnu\\arm\\4.9.
 2077              		.file 4 "..\\..\\flexsea-system\\src\\../inc/flexsea_cmd_control.h"
 2078              		.file 5 "..\\..\\flexsea-system\\src\\../inc/flexsea_system.h"
 2079              		.file 6 "Generated_Source\\PSoC5/cytypes.h"
 2080              		.file 7 "..\\inc/flexsea_board.h"
 2081              		.file 8 "c:\\flexsea_alx87grd\\flexsea-comm\\inc\\flexsea_comm.h"
 2082              		.file 9 "Generated_Source\\PSoC5/core_cm3.h"
 2083              		.file 10 "..\\inc/main_fsm.h"
 2084              		.file 11 "..\\inc/control.h"
 2085              		.file 12 "c:\\flexsea_alx87grd\\flexsea-comm\\inc\\flexsea.h"
 2086              		.file 13 "c:\\flexsea_alx87grd\\flexsea-comm\\inc\\flexsea_payload.h"
 2087              		.file 14 "..\\inc/serial.h"
 2088              		.file 15 "..\\inc/motor.h"
 2089              		.file 16 "..\\inc/trapez.h"
 2090              		.file 17 "..\\inc/usb.h"