ARM GAS  C:\Users\Alex\AppData\Local\Temp\cccxcf9E.s 			page 1


   1              		.syntax unified
   2              		.cpu cortex-m3
   3              		.fpu softvfp
   4              		.eabi_attribute 20, 1
   5              		.eabi_attribute 21, 1
   6              		.eabi_attribute 23, 3
   7              		.eabi_attribute 24, 1
   8              		.eabi_attribute 25, 1
   9              		.eabi_attribute 26, 1
  10              		.eabi_attribute 30, 1
  11              		.eabi_attribute 34, 1
  12              		.eabi_attribute 18, 4
  13              		.thumb
  14              		.file	"I2C_1_PM.c"
  15              		.text
  16              	.Ltext0:
  17              		.cfi_sections	.debug_frame
  18              		.section	.text.I2C_1_SaveConfig,"ax",%progbits
  19              		.align	2
  20              		.global	I2C_1_SaveConfig
  21              		.thumb
  22              		.thumb_func
  23              		.type	I2C_1_SaveConfig, %function
  24              	I2C_1_SaveConfig:
  25              	.LFB0:
  26              		.file 1 ".\\Generated_Source\\PSoC5\\I2C_1_PM.c"
   1:.\Generated_Source\PSoC5/I2C_1_PM.c **** /*******************************************************************************
   2:.\Generated_Source\PSoC5/I2C_1_PM.c **** * File Name: I2C_1_PM.c
   3:.\Generated_Source\PSoC5/I2C_1_PM.c **** * Version 3.50
   4:.\Generated_Source\PSoC5/I2C_1_PM.c **** *
   5:.\Generated_Source\PSoC5/I2C_1_PM.c **** * Description:
   6:.\Generated_Source\PSoC5/I2C_1_PM.c **** *  This file provides low power mode APIs for the I2C component.
   7:.\Generated_Source\PSoC5/I2C_1_PM.c **** *
   8:.\Generated_Source\PSoC5/I2C_1_PM.c **** ********************************************************************************
   9:.\Generated_Source\PSoC5/I2C_1_PM.c **** * Copyright 2008-2015, Cypress Semiconductor Corporation. All rights reserved.
  10:.\Generated_Source\PSoC5/I2C_1_PM.c **** * You may use this file only in accordance with the license, terms, conditions,
  11:.\Generated_Source\PSoC5/I2C_1_PM.c **** * disclaimers, and limitations in the end user license agreement accompanying
  12:.\Generated_Source\PSoC5/I2C_1_PM.c **** * the software package with which this file was provided.
  13:.\Generated_Source\PSoC5/I2C_1_PM.c **** *******************************************************************************/
  14:.\Generated_Source\PSoC5/I2C_1_PM.c **** 
  15:.\Generated_Source\PSoC5/I2C_1_PM.c **** #include "I2C_1_PVT.h"
  16:.\Generated_Source\PSoC5/I2C_1_PM.c **** 
  17:.\Generated_Source\PSoC5/I2C_1_PM.c **** I2C_1_BACKUP_STRUCT I2C_1_backup =
  18:.\Generated_Source\PSoC5/I2C_1_PM.c **** {
  19:.\Generated_Source\PSoC5/I2C_1_PM.c ****     I2C_1_DISABLE,
  20:.\Generated_Source\PSoC5/I2C_1_PM.c **** 
  21:.\Generated_Source\PSoC5/I2C_1_PM.c **** #if (I2C_1_FF_IMPLEMENTED)
  22:.\Generated_Source\PSoC5/I2C_1_PM.c ****     I2C_1_DEFAULT_XCFG,
  23:.\Generated_Source\PSoC5/I2C_1_PM.c ****     I2C_1_DEFAULT_CFG,
  24:.\Generated_Source\PSoC5/I2C_1_PM.c ****     I2C_1_DEFAULT_ADDR,
  25:.\Generated_Source\PSoC5/I2C_1_PM.c ****     LO8(I2C_1_DEFAULT_DIVIDE_FACTOR),
  26:.\Generated_Source\PSoC5/I2C_1_PM.c ****     HI8(I2C_1_DEFAULT_DIVIDE_FACTOR),
  27:.\Generated_Source\PSoC5/I2C_1_PM.c **** #else  /* (I2C_1_UDB_IMPLEMENTED) */
  28:.\Generated_Source\PSoC5/I2C_1_PM.c ****     I2C_1_DEFAULT_CFG,
  29:.\Generated_Source\PSoC5/I2C_1_PM.c **** #endif /* (I2C_1_FF_IMPLEMENTED) */
  30:.\Generated_Source\PSoC5/I2C_1_PM.c **** 
  31:.\Generated_Source\PSoC5/I2C_1_PM.c **** #if (I2C_1_TIMEOUT_ENABLED)
ARM GAS  C:\Users\Alex\AppData\Local\Temp\cccxcf9E.s 			page 2


  32:.\Generated_Source\PSoC5/I2C_1_PM.c ****     I2C_1_DEFAULT_TMOUT_PERIOD,
  33:.\Generated_Source\PSoC5/I2C_1_PM.c ****     I2C_1_DEFAULT_TMOUT_INTR_MASK,
  34:.\Generated_Source\PSoC5/I2C_1_PM.c **** #endif /* (I2C_1_TIMEOUT_ENABLED) */
  35:.\Generated_Source\PSoC5/I2C_1_PM.c **** };
  36:.\Generated_Source\PSoC5/I2C_1_PM.c **** 
  37:.\Generated_Source\PSoC5/I2C_1_PM.c **** #if ((I2C_1_FF_IMPLEMENTED) && (I2C_1_WAKEUP_ENABLED))
  38:.\Generated_Source\PSoC5/I2C_1_PM.c ****     volatile uint8 I2C_1_wakeupSource;
  39:.\Generated_Source\PSoC5/I2C_1_PM.c **** #endif /* ((I2C_1_FF_IMPLEMENTED) && (I2C_1_WAKEUP_ENABLED)) */
  40:.\Generated_Source\PSoC5/I2C_1_PM.c **** 
  41:.\Generated_Source\PSoC5/I2C_1_PM.c **** 
  42:.\Generated_Source\PSoC5/I2C_1_PM.c **** /*******************************************************************************
  43:.\Generated_Source\PSoC5/I2C_1_PM.c **** * Function Name: I2C_1_SaveConfig
  44:.\Generated_Source\PSoC5/I2C_1_PM.c **** ********************************************************************************
  45:.\Generated_Source\PSoC5/I2C_1_PM.c **** *
  46:.\Generated_Source\PSoC5/I2C_1_PM.c **** * Summary:
  47:.\Generated_Source\PSoC5/I2C_1_PM.c **** *  The Enable wakeup from Sleep Mode selection influences this function
  48:.\Generated_Source\PSoC5/I2C_1_PM.c **** *  implementation:
  49:.\Generated_Source\PSoC5/I2C_1_PM.c **** *   Unchecked: Stores the component non-retention configuration registers.
  50:.\Generated_Source\PSoC5/I2C_1_PM.c **** *   Checked:   Disables the master, if it was enabled before, and enables
  51:.\Generated_Source\PSoC5/I2C_1_PM.c **** *              backup regulator of the I2C hardware. If a transaction intended
  52:.\Generated_Source\PSoC5/I2C_1_PM.c **** *              for component executes during this function call, it waits until
  53:.\Generated_Source\PSoC5/I2C_1_PM.c **** *              the current transaction is completed and I2C hardware is ready
  54:.\Generated_Source\PSoC5/I2C_1_PM.c **** *              to enter sleep mode. All subsequent I2C traffic is NAKed until
  55:.\Generated_Source\PSoC5/I2C_1_PM.c **** *              the device is put into sleep mode.
  56:.\Generated_Source\PSoC5/I2C_1_PM.c **** *
  57:.\Generated_Source\PSoC5/I2C_1_PM.c **** * Parameters:
  58:.\Generated_Source\PSoC5/I2C_1_PM.c **** *  None.
  59:.\Generated_Source\PSoC5/I2C_1_PM.c **** *
  60:.\Generated_Source\PSoC5/I2C_1_PM.c **** * Return:
  61:.\Generated_Source\PSoC5/I2C_1_PM.c **** *  None.
  62:.\Generated_Source\PSoC5/I2C_1_PM.c **** *
  63:.\Generated_Source\PSoC5/I2C_1_PM.c **** * Global Variables:
  64:.\Generated_Source\PSoC5/I2C_1_PM.c **** *  I2C_1_backup - The global variable used to save the component
  65:.\Generated_Source\PSoC5/I2C_1_PM.c **** *                            configuration and non-retention registers before
  66:.\Generated_Source\PSoC5/I2C_1_PM.c **** *                            entering the sleep mode.
  67:.\Generated_Source\PSoC5/I2C_1_PM.c **** *
  68:.\Generated_Source\PSoC5/I2C_1_PM.c **** * Reentrant:
  69:.\Generated_Source\PSoC5/I2C_1_PM.c **** *  No.
  70:.\Generated_Source\PSoC5/I2C_1_PM.c **** *
  71:.\Generated_Source\PSoC5/I2C_1_PM.c **** *******************************************************************************/
  72:.\Generated_Source\PSoC5/I2C_1_PM.c **** void I2C_1_SaveConfig(void) 
  73:.\Generated_Source\PSoC5/I2C_1_PM.c **** {
  27              		.loc 1 73 0
  28              		.cfi_startproc
  29              		@ args = 0, pretend = 0, frame = 0
  30              		@ frame_needed = 0, uses_anonymous_args = 0
  31              		@ link register save eliminated.
  74:.\Generated_Source\PSoC5/I2C_1_PM.c **** #if (I2C_1_FF_IMPLEMENTED)
  75:.\Generated_Source\PSoC5/I2C_1_PM.c ****     #if (I2C_1_WAKEUP_ENABLED)
  76:.\Generated_Source\PSoC5/I2C_1_PM.c ****         uint8 intState;
  77:.\Generated_Source\PSoC5/I2C_1_PM.c ****     #endif /* (I2C_1_WAKEUP_ENABLED) */
  78:.\Generated_Source\PSoC5/I2C_1_PM.c **** 
  79:.\Generated_Source\PSoC5/I2C_1_PM.c ****     /* Store registers before enter low power mode */
  80:.\Generated_Source\PSoC5/I2C_1_PM.c ****     I2C_1_backup.cfg     = I2C_1_CFG_REG;
  81:.\Generated_Source\PSoC5/I2C_1_PM.c ****     I2C_1_backup.xcfg    = I2C_1_XCFG_REG;
  82:.\Generated_Source\PSoC5/I2C_1_PM.c ****     I2C_1_backup.addr    = I2C_1_ADDR_REG;
  83:.\Generated_Source\PSoC5/I2C_1_PM.c ****     I2C_1_backup.clkDiv1 = I2C_1_CLKDIV1_REG;
ARM GAS  C:\Users\Alex\AppData\Local\Temp\cccxcf9E.s 			page 3


  84:.\Generated_Source\PSoC5/I2C_1_PM.c ****     I2C_1_backup.clkDiv2 = I2C_1_CLKDIV2_REG;
  85:.\Generated_Source\PSoC5/I2C_1_PM.c **** 
  86:.\Generated_Source\PSoC5/I2C_1_PM.c **** #if (I2C_1_WAKEUP_ENABLED)
  87:.\Generated_Source\PSoC5/I2C_1_PM.c ****     /* Disable master */
  88:.\Generated_Source\PSoC5/I2C_1_PM.c ****     I2C_1_CFG_REG &= (uint8) ~I2C_1_ENABLE_MASTER;
  89:.\Generated_Source\PSoC5/I2C_1_PM.c **** 
  90:.\Generated_Source\PSoC5/I2C_1_PM.c ****     /* Enable backup regulator to keep block powered in low power mode */
  91:.\Generated_Source\PSoC5/I2C_1_PM.c ****     intState = CyEnterCriticalSection();
  92:.\Generated_Source\PSoC5/I2C_1_PM.c ****     I2C_1_PWRSYS_CR1_REG |= I2C_1_PWRSYS_CR1_I2C_REG_BACKUP;
  93:.\Generated_Source\PSoC5/I2C_1_PM.c ****     CyExitCriticalSection(intState);
  94:.\Generated_Source\PSoC5/I2C_1_PM.c **** 
  95:.\Generated_Source\PSoC5/I2C_1_PM.c ****     /* 1) Set force NACK to ignore I2C transactions;
  96:.\Generated_Source\PSoC5/I2C_1_PM.c ****     *  2) Wait unti I2C is ready go to Sleep; !!
  97:.\Generated_Source\PSoC5/I2C_1_PM.c ****     *  3) These bits are cleared on wake up.
  98:.\Generated_Source\PSoC5/I2C_1_PM.c ****     */
  99:.\Generated_Source\PSoC5/I2C_1_PM.c ****     /* Wait when block is ready for sleep */
 100:.\Generated_Source\PSoC5/I2C_1_PM.c ****     I2C_1_XCFG_REG |= I2C_1_XCFG_FORCE_NACK;
 101:.\Generated_Source\PSoC5/I2C_1_PM.c ****     while (0u == (I2C_1_XCFG_REG & I2C_1_XCFG_RDY_TO_SLEEP))
 102:.\Generated_Source\PSoC5/I2C_1_PM.c ****     {
 103:.\Generated_Source\PSoC5/I2C_1_PM.c ****     }
 104:.\Generated_Source\PSoC5/I2C_1_PM.c **** 
 105:.\Generated_Source\PSoC5/I2C_1_PM.c ****     /* Setup wakeup interrupt */
 106:.\Generated_Source\PSoC5/I2C_1_PM.c ****     I2C_1_DisableInt();
 107:.\Generated_Source\PSoC5/I2C_1_PM.c ****     (void) CyIntSetVector(I2C_1_ISR_NUMBER, &I2C_1_WAKEUP_ISR);
 108:.\Generated_Source\PSoC5/I2C_1_PM.c ****     I2C_1_wakeupSource = 0u;
 109:.\Generated_Source\PSoC5/I2C_1_PM.c ****     I2C_1_EnableInt();
 110:.\Generated_Source\PSoC5/I2C_1_PM.c **** #endif /* (I2C_1_WAKEUP_ENABLED) */
 111:.\Generated_Source\PSoC5/I2C_1_PM.c **** 
 112:.\Generated_Source\PSoC5/I2C_1_PM.c **** #else
 113:.\Generated_Source\PSoC5/I2C_1_PM.c ****     /* Store only address match bit */
 114:.\Generated_Source\PSoC5/I2C_1_PM.c ****     I2C_1_backup.control = (I2C_1_CFG_REG & I2C_1_CTRL_ANY_ADDRESS_MASK);
  32              		.loc 1 114 0
  33 0000 034B     		ldr	r3, .L2
  34 0002 1B78     		ldrb	r3, [r3]	@ zero_extendqisi2
  35 0004 03F00803 		and	r3, r3, #8
  36 0008 024A     		ldr	r2, .L2+4
  37 000a 5370     		strb	r3, [r2, #1]
  38 000c 7047     		bx	lr
  39              	.L3:
  40 000e 00BF     		.align	2
  41              	.L2:
  42 0010 77640040 		.word	1073767543
  43 0014 00000000 		.word	.LANCHOR0
  44              		.cfi_endproc
  45              	.LFE0:
  46              		.size	I2C_1_SaveConfig, .-I2C_1_SaveConfig
  47              		.section	.text.I2C_1_Sleep,"ax",%progbits
  48              		.align	2
  49              		.global	I2C_1_Sleep
  50              		.thumb
  51              		.thumb_func
  52              		.type	I2C_1_Sleep, %function
  53              	I2C_1_Sleep:
  54              	.LFB1:
 115:.\Generated_Source\PSoC5/I2C_1_PM.c **** #endif /* (I2C_1_FF_IMPLEMENTED) */
 116:.\Generated_Source\PSoC5/I2C_1_PM.c **** 
 117:.\Generated_Source\PSoC5/I2C_1_PM.c **** #if (I2C_1_TIMEOUT_ENABLED)
ARM GAS  C:\Users\Alex\AppData\Local\Temp\cccxcf9E.s 			page 4


 118:.\Generated_Source\PSoC5/I2C_1_PM.c ****     I2C_1_TimeoutSaveConfig();
 119:.\Generated_Source\PSoC5/I2C_1_PM.c **** #endif /* (I2C_1_TIMEOUT_ENABLED) */
 120:.\Generated_Source\PSoC5/I2C_1_PM.c **** }
 121:.\Generated_Source\PSoC5/I2C_1_PM.c **** 
 122:.\Generated_Source\PSoC5/I2C_1_PM.c **** 
 123:.\Generated_Source\PSoC5/I2C_1_PM.c **** /*******************************************************************************
 124:.\Generated_Source\PSoC5/I2C_1_PM.c **** * Function Name: I2C_1_Sleep
 125:.\Generated_Source\PSoC5/I2C_1_PM.c **** ********************************************************************************
 126:.\Generated_Source\PSoC5/I2C_1_PM.c **** *
 127:.\Generated_Source\PSoC5/I2C_1_PM.c **** * Summary:
 128:.\Generated_Source\PSoC5/I2C_1_PM.c **** *  This is the preferred method to prepare the component before device enters
 129:.\Generated_Source\PSoC5/I2C_1_PM.c **** *  sleep mode. The Enable wakeup from Sleep Mode selection influences this
 130:.\Generated_Source\PSoC5/I2C_1_PM.c **** *  function implementation:
 131:.\Generated_Source\PSoC5/I2C_1_PM.c **** *   Unchecked: Checks current I2C component state, saves it, and disables the
 132:.\Generated_Source\PSoC5/I2C_1_PM.c **** *              component by calling I2C_Stop() if it is currently enabled.
 133:.\Generated_Source\PSoC5/I2C_1_PM.c **** *              I2C_SaveConfig() is then called to save the component
 134:.\Generated_Source\PSoC5/I2C_1_PM.c **** *              non-retention configuration registers.
 135:.\Generated_Source\PSoC5/I2C_1_PM.c **** *   Checked:   If a transaction intended for component executes during this
 136:.\Generated_Source\PSoC5/I2C_1_PM.c **** *              function call, it waits until the current transaction is
 137:.\Generated_Source\PSoC5/I2C_1_PM.c **** *              completed. All subsequent I2C traffic intended for component
 138:.\Generated_Source\PSoC5/I2C_1_PM.c **** *              is NAKed until the device is put to sleep mode. The address
 139:.\Generated_Source\PSoC5/I2C_1_PM.c **** *              match event wakes up the device.
 140:.\Generated_Source\PSoC5/I2C_1_PM.c **** *
 141:.\Generated_Source\PSoC5/I2C_1_PM.c **** * Parameters:
 142:.\Generated_Source\PSoC5/I2C_1_PM.c **** *  None.
 143:.\Generated_Source\PSoC5/I2C_1_PM.c **** *
 144:.\Generated_Source\PSoC5/I2C_1_PM.c **** * Return:
 145:.\Generated_Source\PSoC5/I2C_1_PM.c **** *  None.
 146:.\Generated_Source\PSoC5/I2C_1_PM.c **** *
 147:.\Generated_Source\PSoC5/I2C_1_PM.c **** * Reentrant:
 148:.\Generated_Source\PSoC5/I2C_1_PM.c **** *  No.
 149:.\Generated_Source\PSoC5/I2C_1_PM.c **** *
 150:.\Generated_Source\PSoC5/I2C_1_PM.c **** *******************************************************************************/
 151:.\Generated_Source\PSoC5/I2C_1_PM.c **** void I2C_1_Sleep(void) 
 152:.\Generated_Source\PSoC5/I2C_1_PM.c **** {
  55              		.loc 1 152 0
  56              		.cfi_startproc
  57              		@ args = 0, pretend = 0, frame = 0
  58              		@ frame_needed = 0, uses_anonymous_args = 0
  59 0000 08B5     		push	{r3, lr}
  60              		.cfi_def_cfa_offset 8
  61              		.cfi_offset 3, -8
  62              		.cfi_offset 14, -4
 153:.\Generated_Source\PSoC5/I2C_1_PM.c **** #if (I2C_1_WAKEUP_ENABLED)
 154:.\Generated_Source\PSoC5/I2C_1_PM.c ****     /* Do not enable block after exit low power mode if it is wakeup source */
 155:.\Generated_Source\PSoC5/I2C_1_PM.c ****     I2C_1_backup.enableState = I2C_1_DISABLE;
 156:.\Generated_Source\PSoC5/I2C_1_PM.c **** 
 157:.\Generated_Source\PSoC5/I2C_1_PM.c ****     #if (I2C_1_TIMEOUT_ENABLED)
 158:.\Generated_Source\PSoC5/I2C_1_PM.c ****         I2C_1_TimeoutStop();
 159:.\Generated_Source\PSoC5/I2C_1_PM.c ****     #endif /* (I2C_1_TIMEOUT_ENABLED) */
 160:.\Generated_Source\PSoC5/I2C_1_PM.c **** 
 161:.\Generated_Source\PSoC5/I2C_1_PM.c **** #else
 162:.\Generated_Source\PSoC5/I2C_1_PM.c ****     /* Store enable state */
 163:.\Generated_Source\PSoC5/I2C_1_PM.c ****     I2C_1_backup.enableState = (uint8) I2C_1_IS_ENABLED;
  63              		.loc 1 163 0
  64 0002 064B     		ldr	r3, .L7
  65 0004 1B78     		ldrb	r3, [r3]	@ zero_extendqisi2
ARM GAS  C:\Users\Alex\AppData\Local\Temp\cccxcf9E.s 			page 5


  66 0006 C3F34003 		ubfx	r3, r3, #1, #1
  67 000a 054A     		ldr	r2, .L7+4
  68 000c 1370     		strb	r3, [r2]
 164:.\Generated_Source\PSoC5/I2C_1_PM.c **** 
 165:.\Generated_Source\PSoC5/I2C_1_PM.c ****     if (0u != I2C_1_backup.enableState)
  69              		.loc 1 165 0
  70 000e 0BB1     		cbz	r3, .L5
 166:.\Generated_Source\PSoC5/I2C_1_PM.c ****     {
 167:.\Generated_Source\PSoC5/I2C_1_PM.c ****         I2C_1_Stop();
  71              		.loc 1 167 0
  72 0010 FFF7FEFF 		bl	I2C_1_Stop
  73              	.LVL0:
  74              	.L5:
 168:.\Generated_Source\PSoC5/I2C_1_PM.c ****     }
 169:.\Generated_Source\PSoC5/I2C_1_PM.c **** #endif /* (I2C_1_WAKEUP_ENABLED) */
 170:.\Generated_Source\PSoC5/I2C_1_PM.c **** 
 171:.\Generated_Source\PSoC5/I2C_1_PM.c ****     I2C_1_SaveConfig();
  75              		.loc 1 171 0
  76 0014 FFF7FEFF 		bl	I2C_1_SaveConfig
  77              	.LVL1:
  78 0018 08BD     		pop	{r3, pc}
  79              	.L8:
  80 001a 00BF     		.align	2
  81              	.L7:
  82 001c 77640040 		.word	1073767543
  83 0020 00000000 		.word	.LANCHOR0
  84              		.cfi_endproc
  85              	.LFE1:
  86              		.size	I2C_1_Sleep, .-I2C_1_Sleep
  87              		.section	.text.I2C_1_RestoreConfig,"ax",%progbits
  88              		.align	2
  89              		.global	I2C_1_RestoreConfig
  90              		.thumb
  91              		.thumb_func
  92              		.type	I2C_1_RestoreConfig, %function
  93              	I2C_1_RestoreConfig:
  94              	.LFB2:
 172:.\Generated_Source\PSoC5/I2C_1_PM.c **** }
 173:.\Generated_Source\PSoC5/I2C_1_PM.c **** 
 174:.\Generated_Source\PSoC5/I2C_1_PM.c **** 
 175:.\Generated_Source\PSoC5/I2C_1_PM.c **** /*******************************************************************************
 176:.\Generated_Source\PSoC5/I2C_1_PM.c **** * Function Name: I2C_1_RestoreConfig
 177:.\Generated_Source\PSoC5/I2C_1_PM.c **** ********************************************************************************
 178:.\Generated_Source\PSoC5/I2C_1_PM.c **** *
 179:.\Generated_Source\PSoC5/I2C_1_PM.c **** * Summary:
 180:.\Generated_Source\PSoC5/I2C_1_PM.c **** *  The Enable wakeup from Sleep Mode selection influences this function
 181:.\Generated_Source\PSoC5/I2C_1_PM.c **** *  implementation:
 182:.\Generated_Source\PSoC5/I2C_1_PM.c **** *   Unchecked: Restores the component non-retention configuration registers
 183:.\Generated_Source\PSoC5/I2C_1_PM.c **** *              to the state they were in before I2C_Sleep() or I2C_SaveConfig()
 184:.\Generated_Source\PSoC5/I2C_1_PM.c **** *              was called.
 185:.\Generated_Source\PSoC5/I2C_1_PM.c **** *   Checked:   Disables the backup regulator of the I2C hardware. Sets up the
 186:.\Generated_Source\PSoC5/I2C_1_PM.c **** *              regular component interrupt handler and generates the component
 187:.\Generated_Source\PSoC5/I2C_1_PM.c **** *              interrupt if it was wake up source to release the bus and
 188:.\Generated_Source\PSoC5/I2C_1_PM.c **** *              continue in-coming I2C transaction.
 189:.\Generated_Source\PSoC5/I2C_1_PM.c **** *
 190:.\Generated_Source\PSoC5/I2C_1_PM.c **** * Parameters:
 191:.\Generated_Source\PSoC5/I2C_1_PM.c **** *  None.
ARM GAS  C:\Users\Alex\AppData\Local\Temp\cccxcf9E.s 			page 6


 192:.\Generated_Source\PSoC5/I2C_1_PM.c **** *
 193:.\Generated_Source\PSoC5/I2C_1_PM.c **** * Return:
 194:.\Generated_Source\PSoC5/I2C_1_PM.c **** *  None.
 195:.\Generated_Source\PSoC5/I2C_1_PM.c **** *
 196:.\Generated_Source\PSoC5/I2C_1_PM.c **** * Global Variables:
 197:.\Generated_Source\PSoC5/I2C_1_PM.c **** *  I2C_1_backup - The global variable used to save the component
 198:.\Generated_Source\PSoC5/I2C_1_PM.c **** *                            configuration and non-retention registers before
 199:.\Generated_Source\PSoC5/I2C_1_PM.c **** *                            exiting the sleep mode.
 200:.\Generated_Source\PSoC5/I2C_1_PM.c **** *
 201:.\Generated_Source\PSoC5/I2C_1_PM.c **** * Reentrant:
 202:.\Generated_Source\PSoC5/I2C_1_PM.c **** *  No.
 203:.\Generated_Source\PSoC5/I2C_1_PM.c **** *
 204:.\Generated_Source\PSoC5/I2C_1_PM.c **** * Side Effects:
 205:.\Generated_Source\PSoC5/I2C_1_PM.c **** *  Calling this function before I2C_1_SaveConfig() or
 206:.\Generated_Source\PSoC5/I2C_1_PM.c **** *  I2C_1_Sleep() will lead to unpredictable results.
 207:.\Generated_Source\PSoC5/I2C_1_PM.c **** *
 208:.\Generated_Source\PSoC5/I2C_1_PM.c **** *******************************************************************************/
 209:.\Generated_Source\PSoC5/I2C_1_PM.c **** void I2C_1_RestoreConfig(void) 
 210:.\Generated_Source\PSoC5/I2C_1_PM.c **** {
  95              		.loc 1 210 0
  96              		.cfi_startproc
  97              		@ args = 0, pretend = 0, frame = 0
  98              		@ frame_needed = 0, uses_anonymous_args = 0
  99              		@ link register save eliminated.
 211:.\Generated_Source\PSoC5/I2C_1_PM.c **** #if (I2C_1_FF_IMPLEMENTED)
 212:.\Generated_Source\PSoC5/I2C_1_PM.c ****     uint8 intState;
 213:.\Generated_Source\PSoC5/I2C_1_PM.c **** 
 214:.\Generated_Source\PSoC5/I2C_1_PM.c ****     if (I2C_1_CHECK_PWRSYS_I2C_BACKUP)
 215:.\Generated_Source\PSoC5/I2C_1_PM.c ****     /* Low power mode was Sleep - backup regulator is enabled */
 216:.\Generated_Source\PSoC5/I2C_1_PM.c ****     {
 217:.\Generated_Source\PSoC5/I2C_1_PM.c ****         /* Enable backup regulator in active mode */
 218:.\Generated_Source\PSoC5/I2C_1_PM.c ****         intState = CyEnterCriticalSection();
 219:.\Generated_Source\PSoC5/I2C_1_PM.c ****         I2C_1_PWRSYS_CR1_REG &= (uint8) ~I2C_1_PWRSYS_CR1_I2C_REG_BACKUP;
 220:.\Generated_Source\PSoC5/I2C_1_PM.c ****         CyExitCriticalSection(intState);
 221:.\Generated_Source\PSoC5/I2C_1_PM.c **** 
 222:.\Generated_Source\PSoC5/I2C_1_PM.c ****         /* Restore master */
 223:.\Generated_Source\PSoC5/I2C_1_PM.c ****         I2C_1_CFG_REG = I2C_1_backup.cfg;
 224:.\Generated_Source\PSoC5/I2C_1_PM.c ****     }
 225:.\Generated_Source\PSoC5/I2C_1_PM.c ****     else
 226:.\Generated_Source\PSoC5/I2C_1_PM.c ****     /* Low power mode was Hibernate - backup regulator is disabled. All registers are cleared */
 227:.\Generated_Source\PSoC5/I2C_1_PM.c ****     {
 228:.\Generated_Source\PSoC5/I2C_1_PM.c ****     #if (I2C_1_WAKEUP_ENABLED)
 229:.\Generated_Source\PSoC5/I2C_1_PM.c ****         /* Disable power to block before register restore */
 230:.\Generated_Source\PSoC5/I2C_1_PM.c ****         intState = CyEnterCriticalSection();
 231:.\Generated_Source\PSoC5/I2C_1_PM.c ****         I2C_1_ACT_PWRMGR_REG  &= (uint8) ~I2C_1_ACT_PWR_EN;
 232:.\Generated_Source\PSoC5/I2C_1_PM.c ****         I2C_1_STBY_PWRMGR_REG &= (uint8) ~I2C_1_STBY_PWR_EN;
 233:.\Generated_Source\PSoC5/I2C_1_PM.c ****         CyExitCriticalSection(intState);
 234:.\Generated_Source\PSoC5/I2C_1_PM.c **** 
 235:.\Generated_Source\PSoC5/I2C_1_PM.c ****         /* Enable component in I2C_Wakeup() after register restore */
 236:.\Generated_Source\PSoC5/I2C_1_PM.c ****         I2C_1_backup.enableState = I2C_1_ENABLE;
 237:.\Generated_Source\PSoC5/I2C_1_PM.c ****     #endif /* (I2C_1_WAKEUP_ENABLED) */
 238:.\Generated_Source\PSoC5/I2C_1_PM.c **** 
 239:.\Generated_Source\PSoC5/I2C_1_PM.c ****         /* Restore component registers after Hibernate */
 240:.\Generated_Source\PSoC5/I2C_1_PM.c ****         I2C_1_XCFG_REG    = I2C_1_backup.xcfg;
 241:.\Generated_Source\PSoC5/I2C_1_PM.c ****         I2C_1_CFG_REG     = I2C_1_backup.cfg;
 242:.\Generated_Source\PSoC5/I2C_1_PM.c ****         I2C_1_ADDR_REG    = I2C_1_backup.addr;
 243:.\Generated_Source\PSoC5/I2C_1_PM.c ****         I2C_1_CLKDIV1_REG = I2C_1_backup.clkDiv1;
ARM GAS  C:\Users\Alex\AppData\Local\Temp\cccxcf9E.s 			page 7


 244:.\Generated_Source\PSoC5/I2C_1_PM.c ****         I2C_1_CLKDIV2_REG = I2C_1_backup.clkDiv2;
 245:.\Generated_Source\PSoC5/I2C_1_PM.c ****     }
 246:.\Generated_Source\PSoC5/I2C_1_PM.c **** 
 247:.\Generated_Source\PSoC5/I2C_1_PM.c **** #if (I2C_1_WAKEUP_ENABLED)
 248:.\Generated_Source\PSoC5/I2C_1_PM.c ****     I2C_1_DisableInt();
 249:.\Generated_Source\PSoC5/I2C_1_PM.c ****     (void) CyIntSetVector(I2C_1_ISR_NUMBER, &I2C_1_ISR);
 250:.\Generated_Source\PSoC5/I2C_1_PM.c ****     if (0u != I2C_1_wakeupSource)
 251:.\Generated_Source\PSoC5/I2C_1_PM.c ****     {
 252:.\Generated_Source\PSoC5/I2C_1_PM.c ****         /* Generate interrupt to process incoming transaction */
 253:.\Generated_Source\PSoC5/I2C_1_PM.c ****         I2C_1_SetPendingInt();
 254:.\Generated_Source\PSoC5/I2C_1_PM.c ****     }
 255:.\Generated_Source\PSoC5/I2C_1_PM.c ****     I2C_1_EnableInt();
 256:.\Generated_Source\PSoC5/I2C_1_PM.c **** #endif /* (I2C_1_WAKEUP_ENABLED) */
 257:.\Generated_Source\PSoC5/I2C_1_PM.c **** 
 258:.\Generated_Source\PSoC5/I2C_1_PM.c **** #else
 259:.\Generated_Source\PSoC5/I2C_1_PM.c ****     I2C_1_CFG_REG = I2C_1_backup.control;
 100              		.loc 1 259 0
 101 0000 024B     		ldr	r3, .L10
 102 0002 5A78     		ldrb	r2, [r3, #1]	@ zero_extendqisi2
 103 0004 024B     		ldr	r3, .L10+4
 104 0006 1A70     		strb	r2, [r3]
 105 0008 7047     		bx	lr
 106              	.L11:
 107 000a 00BF     		.align	2
 108              	.L10:
 109 000c 00000000 		.word	.LANCHOR0
 110 0010 77640040 		.word	1073767543
 111              		.cfi_endproc
 112              	.LFE2:
 113              		.size	I2C_1_RestoreConfig, .-I2C_1_RestoreConfig
 114              		.section	.text.I2C_1_Wakeup,"ax",%progbits
 115              		.align	2
 116              		.global	I2C_1_Wakeup
 117              		.thumb
 118              		.thumb_func
 119              		.type	I2C_1_Wakeup, %function
 120              	I2C_1_Wakeup:
 121              	.LFB3:
 260:.\Generated_Source\PSoC5/I2C_1_PM.c **** #endif /* (I2C_1_FF_IMPLEMENTED) */
 261:.\Generated_Source\PSoC5/I2C_1_PM.c **** 
 262:.\Generated_Source\PSoC5/I2C_1_PM.c **** #if (I2C_1_TIMEOUT_ENABLED)
 263:.\Generated_Source\PSoC5/I2C_1_PM.c ****     I2C_1_TimeoutRestoreConfig();
 264:.\Generated_Source\PSoC5/I2C_1_PM.c **** #endif /* (I2C_1_TIMEOUT_ENABLED) */
 265:.\Generated_Source\PSoC5/I2C_1_PM.c **** }
 266:.\Generated_Source\PSoC5/I2C_1_PM.c **** 
 267:.\Generated_Source\PSoC5/I2C_1_PM.c **** 
 268:.\Generated_Source\PSoC5/I2C_1_PM.c **** /*******************************************************************************
 269:.\Generated_Source\PSoC5/I2C_1_PM.c **** * Function Name: I2C_1_Wakeup
 270:.\Generated_Source\PSoC5/I2C_1_PM.c **** ********************************************************************************
 271:.\Generated_Source\PSoC5/I2C_1_PM.c **** *
 272:.\Generated_Source\PSoC5/I2C_1_PM.c **** * Summary:
 273:.\Generated_Source\PSoC5/I2C_1_PM.c **** *  This is the preferred method to prepare the component for active mode
 274:.\Generated_Source\PSoC5/I2C_1_PM.c **** *  operation (when device exits sleep mode). The Enable wakeup from Sleep Mode
 275:.\Generated_Source\PSoC5/I2C_1_PM.c **** *  selection influences this function implementation:
 276:.\Generated_Source\PSoC5/I2C_1_PM.c **** *   Unchecked: Restores the component non-retention configuration registers
 277:.\Generated_Source\PSoC5/I2C_1_PM.c **** *              by calling I2C_RestoreConfig(). If the component was enabled
 278:.\Generated_Source\PSoC5/I2C_1_PM.c **** *              before the I2C_Sleep() function was called, I2C_Wakeup()
ARM GAS  C:\Users\Alex\AppData\Local\Temp\cccxcf9E.s 			page 8


 279:.\Generated_Source\PSoC5/I2C_1_PM.c **** *              re-enables it.
 280:.\Generated_Source\PSoC5/I2C_1_PM.c **** *   Checked:   Enables  master functionality if it was enabled before sleep,
 281:.\Generated_Source\PSoC5/I2C_1_PM.c **** *              and disables the backup regulator of the I2C hardware.
 282:.\Generated_Source\PSoC5/I2C_1_PM.c **** *              The incoming transaction continues as soon as the regular
 283:.\Generated_Source\PSoC5/I2C_1_PM.c **** *              I2C interrupt handler is set up (global interrupts has to be
 284:.\Generated_Source\PSoC5/I2C_1_PM.c **** *              enabled to service I2C component interrupt).
 285:.\Generated_Source\PSoC5/I2C_1_PM.c **** *
 286:.\Generated_Source\PSoC5/I2C_1_PM.c **** * Parameters:
 287:.\Generated_Source\PSoC5/I2C_1_PM.c **** *  None.
 288:.\Generated_Source\PSoC5/I2C_1_PM.c **** *
 289:.\Generated_Source\PSoC5/I2C_1_PM.c **** * Return:
 290:.\Generated_Source\PSoC5/I2C_1_PM.c **** *  None.
 291:.\Generated_Source\PSoC5/I2C_1_PM.c **** *
 292:.\Generated_Source\PSoC5/I2C_1_PM.c **** * Reentrant:
 293:.\Generated_Source\PSoC5/I2C_1_PM.c **** *  No.
 294:.\Generated_Source\PSoC5/I2C_1_PM.c **** *
 295:.\Generated_Source\PSoC5/I2C_1_PM.c **** * Side Effects:
 296:.\Generated_Source\PSoC5/I2C_1_PM.c **** *  Calling this function before I2C_1_SaveConfig() or
 297:.\Generated_Source\PSoC5/I2C_1_PM.c **** *  I2C_1_Sleep() will lead to unpredictable results.
 298:.\Generated_Source\PSoC5/I2C_1_PM.c **** *
 299:.\Generated_Source\PSoC5/I2C_1_PM.c **** *******************************************************************************/
 300:.\Generated_Source\PSoC5/I2C_1_PM.c **** void I2C_1_Wakeup(void) 
 301:.\Generated_Source\PSoC5/I2C_1_PM.c **** {
 122              		.loc 1 301 0
 123              		.cfi_startproc
 124              		@ args = 0, pretend = 0, frame = 0
 125              		@ frame_needed = 0, uses_anonymous_args = 0
 126 0000 08B5     		push	{r3, lr}
 127              		.cfi_def_cfa_offset 8
 128              		.cfi_offset 3, -8
 129              		.cfi_offset 14, -4
 302:.\Generated_Source\PSoC5/I2C_1_PM.c ****     I2C_1_RestoreConfig();
 130              		.loc 1 302 0
 131 0002 FFF7FEFF 		bl	I2C_1_RestoreConfig
 132              	.LVL2:
 303:.\Generated_Source\PSoC5/I2C_1_PM.c **** 
 304:.\Generated_Source\PSoC5/I2C_1_PM.c ****     /* Restore component enable state */
 305:.\Generated_Source\PSoC5/I2C_1_PM.c ****     if (0u != I2C_1_backup.enableState)
 133              		.loc 1 305 0
 134 0006 044B     		ldr	r3, .L15
 135 0008 1B78     		ldrb	r3, [r3]	@ zero_extendqisi2
 136 000a 23B1     		cbz	r3, .L12
 306:.\Generated_Source\PSoC5/I2C_1_PM.c ****     {
 307:.\Generated_Source\PSoC5/I2C_1_PM.c ****         I2C_1_Enable();
 137              		.loc 1 307 0
 138 000c FFF7FEFF 		bl	I2C_1_Enable
 139              	.LVL3:
 308:.\Generated_Source\PSoC5/I2C_1_PM.c ****         I2C_1_EnableInt();
 140              		.loc 1 308 0
 141 0010 0422     		movs	r2, #4
 142 0012 024B     		ldr	r3, .L15+4
 143 0014 1A60     		str	r2, [r3]
 144              	.L12:
 145 0016 08BD     		pop	{r3, pc}
 146              	.L16:
 147              		.align	2
 148              	.L15:
ARM GAS  C:\Users\Alex\AppData\Local\Temp\cccxcf9E.s 			page 9


 149 0018 00000000 		.word	.LANCHOR0
 150 001c 00E100E0 		.word	-536813312
 151              		.cfi_endproc
 152              	.LFE3:
 153              		.size	I2C_1_Wakeup, .-I2C_1_Wakeup
 154              		.global	I2C_1_backup
 155              		.bss
 156              		.align	2
 157              		.set	.LANCHOR0,. + 0
 158              		.type	I2C_1_backup, %object
 159              		.size	I2C_1_backup, 2
 160              	I2C_1_backup:
 161 0000 0000     		.space	2
 162 0002 0000     		.text
 163              	.Letext0:
 164              		.file 2 ".\\Generated_Source\\PSoC5\\cytypes.h"
 165              		.file 3 ".\\Generated_Source\\PSoC5\\I2C_1.h"