ARM GAS  C:\Users\Alex\AppData\Local\Temp\ccvkehwq.s 			page 1


   1              		.syntax unified
   2              		.cpu cortex-m3
   3              		.fpu softvfp
   4              		.eabi_attribute 20, 1
   5              		.eabi_attribute 21, 1
   6              		.eabi_attribute 23, 3
   7              		.eabi_attribute 24, 1
   8              		.eabi_attribute 25, 1
   9              		.eabi_attribute 26, 1
  10              		.eabi_attribute 30, 1
  11              		.eabi_attribute 34, 1
  12              		.eabi_attribute 18, 4
  13              		.thumb
  14              		.file	"isr_callbacks.c"
  15              		.text
  16              	.Ltext0:
  17              		.cfi_sections	.debug_frame
  18              		.global _printf_float
  19              		.thumb
  20              		.section	.text.isr_t1_Interrupt_InterruptCallback,"ax",%progbits
  21              		.align	2
  22              		.global	isr_t1_Interrupt_InterruptCallback
  23              		.thumb
  24              		.thumb_func
  25              		.type	isr_t1_Interrupt_InterruptCallback, %function
  26              	isr_t1_Interrupt_InterruptCallback:
  27              	.LFB63:
  28              		.file 1 "..\\src\\isr_callbacks.c"
   1:..\src/isr_callbacks.c **** //****************************************************************************
   2:..\src/isr_callbacks.c **** // MIT Media Lab - Biomechatronics
   3:..\src/isr_callbacks.c **** // Jean-Francois (Jeff) Duval
   4:..\src/isr_callbacks.c **** // jfduval@media.mit.edu
   5:..\src/isr_callbacks.c **** // 02/2016
   6:..\src/isr_callbacks.c **** //****************************************************************************
   7:..\src/isr_callbacks.c **** // isr_callbacks: Implementation of the ISR functions
   8:..\src/isr_callbacks.c **** //****************************************************************************
   9:..\src/isr_callbacks.c **** 
  10:..\src/isr_callbacks.c **** //Important: this files goes with "cyapicallbacks.h". PSoC Creator 3.3 doesn't 
  11:..\src/isr_callbacks.c **** //include "cyapicallbacks.h" if I place it in /inc/... or I'm doing something
  12:..\src/isr_callbacks.c **** //wrong. Solution was to place it in /execute_1_0.cydsn/.
  13:..\src/isr_callbacks.c **** 
  14:..\src/isr_callbacks.c **** //****************************************************************************
  15:..\src/isr_callbacks.c **** // Include(s)
  16:..\src/isr_callbacks.c **** //****************************************************************************
  17:..\src/isr_callbacks.c **** 
  18:..\src/isr_callbacks.c **** #include "main.h"
  19:..\src/isr_callbacks.c **** #include "cyapicallbacks.h"
  20:..\src/isr_callbacks.c **** 
  21:..\src/isr_callbacks.c **** //****************************************************************************
  22:..\src/isr_callbacks.c **** // Public Function(s)
  23:..\src/isr_callbacks.c **** //****************************************************************************
  24:..\src/isr_callbacks.c **** 
  25:..\src/isr_callbacks.c **** void isr_t1_Interrupt_InterruptCallback()
  26:..\src/isr_callbacks.c **** {
  29              		.loc 1 26 0
  30              		.cfi_startproc
  31              		@ args = 0, pretend = 0, frame = 0
ARM GAS  C:\Users\Alex\AppData\Local\Temp\ccvkehwq.s 			page 2


  32              		@ frame_needed = 0, uses_anonymous_args = 0
  33 0000 08B5     		push	{r3, lr}
  34              		.cfi_def_cfa_offset 8
  35              		.cfi_offset 3, -8
  36              		.cfi_offset 14, -4
  27:..\src/isr_callbacks.c **** 	//Timer 1: 100us
  28:..\src/isr_callbacks.c **** 	
  29:..\src/isr_callbacks.c **** 	//Clear interrupt
  30:..\src/isr_callbacks.c **** 	Timer_1_ReadStatusRegister();
  37              		.loc 1 30 0
  38 0002 FFF7FEFF 		bl	Timer_1_ReadStatusRegister
  39              	.LVL0:
  31:..\src/isr_callbacks.c **** 	isr_t1_ClearPending();
  40              		.loc 1 31 0
  41 0006 FFF7FEFF 		bl	isr_t1_ClearPending
  42              	.LVL1:
  32:..\src/isr_callbacks.c **** 	
  33:..\src/isr_callbacks.c **** 	//All the timings are based on 100us slots
  34:..\src/isr_callbacks.c **** 	//10 slots form the original 1ms timebase
  35:..\src/isr_callbacks.c **** 	//'t1_time_share' is from 0 to 9, it controls the main FSM
  36:..\src/isr_callbacks.c **** 	
  37:..\src/isr_callbacks.c **** 	//Increment value, limits to 0-9
  38:..\src/isr_callbacks.c **** 	t1_time_share++;
  43              		.loc 1 38 0
  44 000a 0B49     		ldr	r1, .L3
  45 000c 0B78     		ldrb	r3, [r1]	@ zero_extendqisi2
  46 000e 0133     		adds	r3, r3, #1
  47 0010 DBB2     		uxtb	r3, r3
  48 0012 0B70     		strb	r3, [r1]
  39:..\src/isr_callbacks.c **** 	t1_time_share %= 10;
  49              		.loc 1 39 0
  50 0014 0A78     		ldrb	r2, [r1]	@ zero_extendqisi2
  51 0016 D2B2     		uxtb	r2, r2
  52 0018 084B     		ldr	r3, .L3+4
  53 001a A3FB0203 		umull	r0, r3, r3, r2
  54 001e DB08     		lsrs	r3, r3, #3
  55 0020 03EB8303 		add	r3, r3, r3, lsl #2
  56 0024 5B00     		lsls	r3, r3, #1
  57 0026 D31A     		subs	r3, r2, r3
  58 0028 DBB2     		uxtb	r3, r3
  59 002a 0B70     		strb	r3, [r1]
  40:..\src/isr_callbacks.c **** 	t1_new_value = 1;
  60              		.loc 1 40 0
  61 002c 0123     		movs	r3, #1
  62 002e 044A     		ldr	r2, .L3+8
  63 0030 1370     		strb	r3, [r2]
  41:..\src/isr_callbacks.c **** 	
  42:..\src/isr_callbacks.c **** 	//Flag for the main code
  43:..\src/isr_callbacks.c **** 	t1_100us_flag = 1;	
  64              		.loc 1 43 0
  65 0032 044A     		ldr	r2, .L3+12
  66 0034 1370     		strb	r3, [r2]
  67 0036 08BD     		pop	{r3, pc}
  68              	.L4:
  69              		.align	2
  70              	.L3:
  71 0038 00000000 		.word	t1_time_share
ARM GAS  C:\Users\Alex\AppData\Local\Temp\ccvkehwq.s 			page 3


  72 003c CDCCCCCC 		.word	-858993459
  73 0040 00000000 		.word	t1_new_value
  74 0044 00000000 		.word	t1_100us_flag
  75              		.cfi_endproc
  76              	.LFE63:
  77              		.size	isr_t1_Interrupt_InterruptCallback, .-isr_t1_Interrupt_InterruptCallback
  78              		.section	.text.isr_t2_Interrupt_InterruptCallback,"ax",%progbits
  79              		.align	2
  80              		.global	isr_t2_Interrupt_InterruptCallback
  81              		.thumb
  82              		.thumb_func
  83              		.type	isr_t2_Interrupt_InterruptCallback, %function
  84              	isr_t2_Interrupt_InterruptCallback:
  85              	.LFB64:
  44:..\src/isr_callbacks.c **** }
  45:..\src/isr_callbacks.c **** 
  46:..\src/isr_callbacks.c **** void isr_t2_Interrupt_InterruptCallback()
  47:..\src/isr_callbacks.c **** {
  86              		.loc 1 47 0
  87              		.cfi_startproc
  88              		@ args = 0, pretend = 0, frame = 0
  89              		@ frame_needed = 0, uses_anonymous_args = 0
  90 0000 08B5     		push	{r3, lr}
  91              		.cfi_def_cfa_offset 8
  92              		.cfi_offset 3, -8
  93              		.cfi_offset 14, -4
  48:..\src/isr_callbacks.c **** 	//Timer 2: 10us delay. RS-485 transceiver.
  49:..\src/isr_callbacks.c **** 	
  50:..\src/isr_callbacks.c **** 	//Clear interrupt
  51:..\src/isr_callbacks.c **** 	Timer_2_ReadStatusRegister();
  94              		.loc 1 51 0
  95 0002 FFF7FEFF 		bl	Timer_2_ReadStatusRegister
  96              	.LVL2:
  52:..\src/isr_callbacks.c **** 	isr_t2_ClearPending();	
  97              		.loc 1 52 0
  98 0006 FFF7FEFF 		bl	isr_t2_ClearPending
  99              	.LVL3:
  53:..\src/isr_callbacks.c **** 	
  54:..\src/isr_callbacks.c **** 	//Transfer is over, enable Receiver & disable Emitter
  55:..\src/isr_callbacks.c **** 	UART_DMA_XMIT_Write(0);		//No transmission
 100              		.loc 1 55 0
 101 000a 0020     		movs	r0, #0
 102 000c FFF7FEFF 		bl	UART_DMA_XMIT_Write
 103              	.LVL4:
  56:..\src/isr_callbacks.c **** 	DE_Write(0);
 104              		.loc 1 56 0
 105 0010 0020     		movs	r0, #0
 106 0012 FFF7FEFF 		bl	DE_Write
 107              	.LVL5:
  57:..\src/isr_callbacks.c **** 	//CyDelayUs(1);
  58:..\src/isr_callbacks.c **** 	NOT_RE_Write(0);
 108              		.loc 1 58 0
 109 0016 0020     		movs	r0, #0
 110 0018 FFF7FEFF 		bl	NOT_RE_Write
 111              	.LVL6:
  59:..\src/isr_callbacks.c **** 	
  60:..\src/isr_callbacks.c **** 	T2_RESET_Write(1);	
ARM GAS  C:\Users\Alex\AppData\Local\Temp\ccvkehwq.s 			page 4


 112              		.loc 1 60 0
 113 001c 0120     		movs	r0, #1
 114 001e FFF7FEFF 		bl	T2_RESET_Write
 115              	.LVL7:
 116 0022 08BD     		pop	{r3, pc}
 117              		.cfi_endproc
 118              	.LFE64:
 119              		.size	isr_t2_Interrupt_InterruptCallback, .-isr_t2_Interrupt_InterruptCallback
 120              		.section	.text.isr_sar1_dma_Interrupt_InterruptCallback,"ax",%progbits
 121              		.align	2
 122              		.global	isr_sar1_dma_Interrupt_InterruptCallback
 123              		.thumb
 124              		.thumb_func
 125              		.type	isr_sar1_dma_Interrupt_InterruptCallback, %function
 126              	isr_sar1_dma_Interrupt_InterruptCallback:
 127              	.LFB65:
  61:..\src/isr_callbacks.c **** }
  62:..\src/isr_callbacks.c **** 
  63:..\src/isr_callbacks.c **** //General ADC - we get here after 8 samples have been taken
  64:..\src/isr_callbacks.c **** void isr_sar1_dma_Interrupt_InterruptCallback()
  65:..\src/isr_callbacks.c **** {
 128              		.loc 1 65 0
 129              		.cfi_startproc
 130              		@ args = 0, pretend = 0, frame = 0
 131              		@ frame_needed = 0, uses_anonymous_args = 0
 132 0000 08B5     		push	{r3, lr}
 133              		.cfi_def_cfa_offset 8
 134              		.cfi_offset 3, -8
 135              		.cfi_offset 14, -4
 136              	.LVL8:
  66:..\src/isr_callbacks.c **** 	static unsigned char ch = 0;
  67:..\src/isr_callbacks.c **** 	int i = 0;
  68:..\src/isr_callbacks.c **** 	
  69:..\src/isr_callbacks.c **** 	//Stop conversion
  70:..\src/isr_callbacks.c **** 	ADC_SAR_1_StopConvert();
 137              		.loc 1 70 0
 138 0002 FFF7FEFF 		bl	ADC_SAR_1_StopConvert
 139              	.LVL9:
  71:..\src/isr_callbacks.c **** 
  72:..\src/isr_callbacks.c **** 	//Copy the last DMA buffer to our 2D array:
  73:..\src/isr_callbacks.c **** 	for(i = 0; i < ADC1_BUF_LEN; i++)
 140              		.loc 1 73 0
 141 0006 0023     		movs	r3, #0
 142 0008 0BE0     		b	.L8
 143              	.LVL10:
 144              	.L9:
  74:..\src/isr_callbacks.c **** 	{
  75:..\src/isr_callbacks.c **** 		adc1_res[ch][i] = adc_sar1_dma_array[i+1];
 145              		.loc 1 75 0 discriminator 3
 146 000a 154A     		ldr	r2, .L12
 147 000c 1178     		ldrb	r1, [r2]	@ zero_extendqisi2
 148 000e 5A1C     		adds	r2, r3, #1
 149 0010 1448     		ldr	r0, .L12+4
 150 0012 30F81200 		ldrh	r0, [r0, r2, lsl #1]
 151 0016 03EBC103 		add	r3, r3, r1, lsl #3
 152              	.LVL11:
 153 001a 1349     		ldr	r1, .L12+8
ARM GAS  C:\Users\Alex\AppData\Local\Temp\ccvkehwq.s 			page 5


 154 001c 21F81300 		strh	r0, [r1, r3, lsl #1]	@ movhi
 155              	.LVL12:
  73:..\src/isr_callbacks.c **** 	{
 156              		.loc 1 73 0 discriminator 3
 157 0020 1346     		mov	r3, r2
 158              	.LVL13:
 159              	.L8:
  73:..\src/isr_callbacks.c **** 	{
 160              		.loc 1 73 0 is_stmt 0 discriminator 1
 161 0022 072B     		cmp	r3, #7
 162 0024 F1DD     		ble	.L9
  76:..\src/isr_callbacks.c **** 	}	
  77:..\src/isr_callbacks.c **** 
  78:..\src/isr_callbacks.c **** 	//Next channel:
  79:..\src/isr_callbacks.c **** 	ch++;
 163              		.loc 1 79 0 is_stmt 1
 164 0026 0E49     		ldr	r1, .L12
 165 0028 0B78     		ldrb	r3, [r1]	@ zero_extendqisi2
 166              	.LVL14:
 167 002a 0133     		adds	r3, r3, #1
 168 002c DBB2     		uxtb	r3, r3
  80:..\src/isr_callbacks.c **** 	ch %= ADC1_CHANNELS;
 169              		.loc 1 80 0
 170 002e 0F4A     		ldr	r2, .L12+12
 171 0030 A2FB0302 		umull	r0, r2, r2, r3
 172 0034 9208     		lsrs	r2, r2, #2
 173 0036 02EB4202 		add	r2, r2, r2, lsl #1
 174 003a A3EB4203 		sub	r3, r3, r2, lsl #1
 175 003e 0B70     		strb	r3, [r1]
  81:..\src/isr_callbacks.c **** 	
  82:..\src/isr_callbacks.c **** 	//Once we have all the channels we copy the buffer:
  83:..\src/isr_callbacks.c **** 	if(!adc_sar1_flag)
 176              		.loc 1 83 0
 177 0040 0B4B     		ldr	r3, .L12+16
 178 0042 1B78     		ldrb	r3, [r3]	@ zero_extendqisi2
 179 0044 0BB9     		cbnz	r3, .L10
  84:..\src/isr_callbacks.c **** 	{
  85:..\src/isr_callbacks.c **** 		double_buffer_adc();
 180              		.loc 1 85 0
 181 0046 FFF7FEFF 		bl	double_buffer_adc
 182              	.LVL15:
 183              	.L10:
  86:..\src/isr_callbacks.c **** 	}
  87:..\src/isr_callbacks.c **** 	adc_sar1_flag = 1;
 184              		.loc 1 87 0
 185 004a 0122     		movs	r2, #1
 186 004c 084B     		ldr	r3, .L12+16
 187 004e 1A70     		strb	r2, [r3]
  88:..\src/isr_callbacks.c **** 
  89:..\src/isr_callbacks.c **** 	//Refresh MUX:
  90:..\src/isr_callbacks.c **** 	AMux_1_Select(ch);	
 188              		.loc 1 90 0
 189 0050 034B     		ldr	r3, .L12
 190 0052 1878     		ldrb	r0, [r3]	@ zero_extendqisi2
 191 0054 FFF7FEFF 		bl	AMux_1_Select
 192              	.LVL16:
  91:..\src/isr_callbacks.c **** 	
ARM GAS  C:\Users\Alex\AppData\Local\Temp\ccvkehwq.s 			page 6


  92:..\src/isr_callbacks.c **** 	ADC_SAR_1_StartConvert();		
 193              		.loc 1 92 0
 194 0058 FFF7FEFF 		bl	ADC_SAR_1_StartConvert
 195              	.LVL17:
 196 005c 08BD     		pop	{r3, pc}
 197              	.L13:
 198 005e 00BF     		.align	2
 199              	.L12:
 200 0060 00000000 		.word	.LANCHOR0
 201 0064 00000000 		.word	adc_sar1_dma_array
 202 0068 00000000 		.word	adc1_res
 203 006c ABAAAAAA 		.word	-1431655765
 204 0070 00000000 		.word	adc_sar1_flag
 205              		.cfi_endproc
 206              	.LFE65:
 207              		.size	isr_sar1_dma_Interrupt_InterruptCallback, .-isr_sar1_dma_Interrupt_InterruptCallback
 208              		.section	.text.isr_sar2_dma_Interrupt_InterruptCallback,"ax",%progbits
 209              		.align	2
 210              		.global	isr_sar2_dma_Interrupt_InterruptCallback
 211              		.thumb
 212              		.thumb_func
 213              		.type	isr_sar2_dma_Interrupt_InterruptCallback, %function
 214              	isr_sar2_dma_Interrupt_InterruptCallback:
 215              	.LFB66:
  93:..\src/isr_callbacks.c **** }
  94:..\src/isr_callbacks.c **** 
  95:..\src/isr_callbacks.c **** //Current sensing:
  96:..\src/isr_callbacks.c **** void isr_sar2_dma_Interrupt_InterruptCallback()
  97:..\src/isr_callbacks.c **** {
 216              		.loc 1 97 0
 217              		.cfi_startproc
 218              		@ args = 0, pretend = 0, frame = 8
 219              		@ frame_needed = 0, uses_anonymous_args = 0
 220 0000 00B5     		push	{lr}
 221              		.cfi_def_cfa_offset 4
 222              		.cfi_offset 14, -4
 223 0002 83B0     		sub	sp, sp, #12
 224              		.cfi_def_cfa_offset 16
  98:..\src/isr_callbacks.c **** 	volatile int32 adc_sum = 0;
 225              		.loc 1 98 0
 226 0004 0023     		movs	r3, #0
 227 0006 0193     		str	r3, [sp, #4]
  99:..\src/isr_callbacks.c **** 	volatile int32 adc_avg = 0;
 228              		.loc 1 99 0
 229 0008 0093     		str	r3, [sp]
 100:..\src/isr_callbacks.c **** 	
 101:..\src/isr_callbacks.c **** 	//Read last ADC value
 102:..\src/isr_callbacks.c **** 	adc_sum = (int32)(adc_dma_array[0] + adc_dma_array[1] + adc_dma_array[2] + \
 230              		.loc 1 102 0
 231 000a 164B     		ldr	r3, .L18
 232 000c B3F90010 		ldrsh	r1, [r3]
 233 0010 B3F90220 		ldrsh	r2, [r3, #2]
 234 0014 0A44     		add	r2, r2, r1
 235 0016 B3F90410 		ldrsh	r1, [r3, #4]
 236 001a 1144     		add	r1, r1, r2
 237 001c B3F90620 		ldrsh	r2, [r3, #6]
 238 0020 0A44     		add	r2, r2, r1
ARM GAS  C:\Users\Alex\AppData\Local\Temp\ccvkehwq.s 			page 7


 239 0022 B3F90830 		ldrsh	r3, [r3, #8]
 103:..\src/isr_callbacks.c **** 				adc_dma_array[3] + adc_dma_array[4]);
 240              		.loc 1 103 0
 241 0026 1344     		add	r3, r3, r2
 102:..\src/isr_callbacks.c **** 				adc_dma_array[3] + adc_dma_array[4]);
 242              		.loc 1 102 0
 243 0028 0193     		str	r3, [sp, #4]
 104:..\src/isr_callbacks.c **** 	adc_avg = (adc_sum / 5);
 244              		.loc 1 104 0
 245 002a 019B     		ldr	r3, [sp, #4]
 246 002c 0E4A     		ldr	r2, .L18+4
 247 002e 82FB0312 		smull	r1, r2, r2, r3
 248 0032 DB17     		asrs	r3, r3, #31
 249 0034 C3EB6203 		rsb	r3, r3, r2, asr #1
 250 0038 0093     		str	r3, [sp]
 105:..\src/isr_callbacks.c **** 	
 106:..\src/isr_callbacks.c **** 	ctrl.current.actual_val = (int32)(adc_avg - CURRENT_ZERO);	
 251              		.loc 1 106 0
 252 003a 009B     		ldr	r3, [sp]
 253 003c A3F61B03 		subw	r3, r3, #2075
 254 0040 0A4A     		ldr	r2, .L18+8
 255 0042 5363     		str	r3, [r2, #52]
 107:..\src/isr_callbacks.c **** 	//Used by the current controller, 0 centered.
 108:..\src/isr_callbacks.c **** 		
 109:..\src/isr_callbacks.c **** 	if((ctrl.active_ctrl == CTRL_CURRENT) || (ctrl.active_ctrl == CTRL_IMPEDANCE))
 256              		.loc 1 109 0
 257 0044 1378     		ldrb	r3, [r2]	@ zero_extendqisi2
 258 0046 DBB2     		uxtb	r3, r3
 259 0048 032B     		cmp	r3, #3
 260 004a 03D0     		beq	.L15
 261              		.loc 1 109 0 is_stmt 0 discriminator 1
 262 004c 1378     		ldrb	r3, [r2]	@ zero_extendqisi2
 263 004e DBB2     		uxtb	r3, r3
 264 0050 042B     		cmp	r3, #4
 265 0052 04D1     		bne	.L14
 266              	.L15:
 110:..\src/isr_callbacks.c **** 	{
 111:..\src/isr_callbacks.c **** 		//Current controller
 112:..\src/isr_callbacks.c **** 		motor_current_pid_2(ctrl.current.setpoint_val, ctrl.current.actual_val);
 267              		.loc 1 112 0 is_stmt 1
 268 0054 054B     		ldr	r3, .L18+8
 269 0056 986B     		ldr	r0, [r3, #56]
 270 0058 596B     		ldr	r1, [r3, #52]
 271 005a FFF7FEFF 		bl	motor_current_pid_2
 272              	.LVL18:
 273              	.L14:
 113:..\src/isr_callbacks.c **** 	}
 114:..\src/isr_callbacks.c **** }
 274              		.loc 1 114 0
 275 005e 03B0     		add	sp, sp, #12
 276              		.cfi_def_cfa_offset 4
 277              		@ sp needed
 278 0060 5DF804FB 		ldr	pc, [sp], #4
 279              	.L19:
 280              		.align	2
 281              	.L18:
 282 0064 00000000 		.word	adc_dma_array
ARM GAS  C:\Users\Alex\AppData\Local\Temp\ccvkehwq.s 			page 8


 283 0068 67666666 		.word	1717986919
 284 006c 00000000 		.word	ctrl
 285              		.cfi_endproc
 286              	.LFE66:
 287              		.size	isr_sar2_dma_Interrupt_InterruptCallback, .-isr_sar2_dma_Interrupt_InterruptCallback
 288              		.section	.text.isr_dma_uart_rx_Interrupt_InterruptCallback,"ax",%progbits
 289              		.align	2
 290              		.global	isr_dma_uart_rx_Interrupt_InterruptCallback
 291              		.thumb
 292              		.thumb_func
 293              		.type	isr_dma_uart_rx_Interrupt_InterruptCallback, %function
 294              	isr_dma_uart_rx_Interrupt_InterruptCallback:
 295              	.LFB67:
 115:..\src/isr_callbacks.c **** 
 116:..\src/isr_callbacks.c **** void isr_dma_uart_rx_Interrupt_InterruptCallback()
 117:..\src/isr_callbacks.c **** {
 296              		.loc 1 117 0
 297              		.cfi_startproc
 298              		@ args = 0, pretend = 0, frame = 0
 299              		@ frame_needed = 0, uses_anonymous_args = 0
 300 0000 10B5     		push	{r4, lr}
 301              		.cfi_def_cfa_offset 8
 302              		.cfi_offset 4, -8
 303              		.cfi_offset 14, -4
 118:..\src/isr_callbacks.c **** 	//static uint8 toggle = 0;
 119:..\src/isr_callbacks.c **** 	
 120:..\src/isr_callbacks.c **** 	//Update rx_buf with the latest DMA data:
 121:..\src/isr_callbacks.c **** 	unwrap_buffer(uart_dma_rx_buf, uart_dma_rx_buf_unwrapped, 48);
 304              		.loc 1 121 0
 305 0002 084C     		ldr	r4, .L22
 306 0004 0848     		ldr	r0, .L22+4
 307 0006 2146     		mov	r1, r4
 308 0008 3022     		movs	r2, #48
 309 000a FFF7FEFF 		bl	unwrap_buffer
 310              	.LVL19:
 122:..\src/isr_callbacks.c **** 	update_rx_buf_array_485(uart_dma_rx_buf_unwrapped, 48);		//ToDo shouldn't be harcoded. Buffer name
 311              		.loc 1 122 0
 312 000e 2046     		mov	r0, r4
 313 0010 3021     		movs	r1, #48
 314 0012 FFF7FEFF 		bl	update_rx_buf_array_1
 315              	.LVL20:
 123:..\src/isr_callbacks.c **** 	data_ready_485++;
 316              		.loc 1 123 0
 317 0016 054A     		ldr	r2, .L22+8
 318 0018 1378     		ldrb	r3, [r2]	@ zero_extendqisi2
 319 001a 0133     		adds	r3, r3, #1
 320 001c DBB2     		uxtb	r3, r3
 321 001e 1370     		strb	r3, [r2]
 322 0020 10BD     		pop	{r4, pc}
 323              	.L23:
 324 0022 00BF     		.align	2
 325              	.L22:
 326 0024 00000000 		.word	uart_dma_rx_buf_unwrapped
 327 0028 00000000 		.word	uart_dma_rx_buf
 328 002c 00000000 		.word	data_ready_485
 329              		.cfi_endproc
 330              	.LFE67:
ARM GAS  C:\Users\Alex\AppData\Local\Temp\ccvkehwq.s 			page 9


 331              		.size	isr_dma_uart_rx_Interrupt_InterruptCallback, .-isr_dma_uart_rx_Interrupt_InterruptCallback
 332              		.section	.text.isr_dma_uart_tx_Interrupt_InterruptCallback,"ax",%progbits
 333              		.align	2
 334              		.global	isr_dma_uart_tx_Interrupt_InterruptCallback
 335              		.thumb
 336              		.thumb_func
 337              		.type	isr_dma_uart_tx_Interrupt_InterruptCallback, %function
 338              	isr_dma_uart_tx_Interrupt_InterruptCallback:
 339              	.LFB68:
 124:..\src/isr_callbacks.c **** 	
 125:..\src/isr_callbacks.c **** 	//toggle ^= 1;
 126:..\src/isr_callbacks.c **** 	//EXP10_Write(toggle);	
 127:..\src/isr_callbacks.c **** }
 128:..\src/isr_callbacks.c **** 
 129:..\src/isr_callbacks.c **** void isr_dma_uart_tx_Interrupt_InterruptCallback()
 130:..\src/isr_callbacks.c **** {
 340              		.loc 1 130 0
 341              		.cfi_startproc
 342              		@ args = 0, pretend = 0, frame = 0
 343              		@ frame_needed = 0, uses_anonymous_args = 0
 344 0000 08B5     		push	{r3, lr}
 345              		.cfi_def_cfa_offset 8
 346              		.cfi_offset 3, -8
 347              		.cfi_offset 14, -4
 131:..\src/isr_callbacks.c **** 	T2_RESET_Write(0);
 348              		.loc 1 131 0
 349 0002 0020     		movs	r0, #0
 350 0004 FFF7FEFF 		bl	T2_RESET_Write
 351              	.LVL21:
 132:..\src/isr_callbacks.c **** 	Timer_2_Start();		
 352              		.loc 1 132 0
 353 0008 FFF7FEFF 		bl	Timer_2_Start
 354              	.LVL22:
 355 000c 08BD     		pop	{r3, pc}
 356              		.cfi_endproc
 357              	.LFE68:
 358              		.size	isr_dma_uart_tx_Interrupt_InterruptCallback, .-isr_dma_uart_tx_Interrupt_InterruptCallback
 359 000e 00BF     		.section	.text.isr_delsig_Interrupt_InterruptCallback,"ax",%progbits
 360              		.align	2
 361              		.global	isr_delsig_Interrupt_InterruptCallback
 362              		.thumb
 363              		.thumb_func
 364              		.type	isr_delsig_Interrupt_InterruptCallback, %function
 365              	isr_delsig_Interrupt_InterruptCallback:
 366              	.LFB69:
 133:..\src/isr_callbacks.c **** }
 134:..\src/isr_callbacks.c **** 
 135:..\src/isr_callbacks.c **** void isr_delsig_Interrupt_InterruptCallback()
 136:..\src/isr_callbacks.c **** {
 367              		.loc 1 136 0
 368              		.cfi_startproc
 369              		@ args = 0, pretend = 0, frame = 0
 370              		@ frame_needed = 0, uses_anonymous_args = 0
 371 0000 08B5     		push	{r3, lr}
 372              		.cfi_def_cfa_offset 8
 373              		.cfi_offset 3, -8
 374              		.cfi_offset 14, -4
ARM GAS  C:\Users\Alex\AppData\Local\Temp\ccvkehwq.s 			page 10


 137:..\src/isr_callbacks.c **** 	ADC_DelSig_1_StopConvert();
 375              		.loc 1 137 0
 376 0002 FFF7FEFF 		bl	ADC_DelSig_1_StopConvert
 377              	.LVL23:
 138:..\src/isr_callbacks.c **** 	adc_delsig_flag = 1;	
 378              		.loc 1 138 0
 379 0006 0122     		movs	r2, #1
 380 0008 014B     		ldr	r3, .L28
 381 000a 1A70     		strb	r2, [r3]
 382 000c 08BD     		pop	{r3, pc}
 383              	.L29:
 384 000e 00BF     		.align	2
 385              	.L28:
 386 0010 00000000 		.word	adc_delsig_flag
 387              		.cfi_endproc
 388              	.LFE69:
 389              		.size	isr_delsig_Interrupt_InterruptCallback, .-isr_delsig_Interrupt_InterruptCallback
 390              		.section	.text.ADC_SAR_1_ISR_InterruptCallback,"ax",%progbits
 391              		.align	2
 392              		.global	ADC_SAR_1_ISR_InterruptCallback
 393              		.thumb
 394              		.thumb_func
 395              		.type	ADC_SAR_1_ISR_InterruptCallback, %function
 396              	ADC_SAR_1_ISR_InterruptCallback:
 397              	.LFB70:
 139:..\src/isr_callbacks.c **** }
 140:..\src/isr_callbacks.c **** 
 141:..\src/isr_callbacks.c **** void ADC_SAR_1_ISR_InterruptCallback()
 142:..\src/isr_callbacks.c **** {
 398              		.loc 1 142 0
 399              		.cfi_startproc
 400              		@ args = 0, pretend = 0, frame = 0
 401              		@ frame_needed = 0, uses_anonymous_args = 0
 402              		@ link register save eliminated.
 403 0000 7047     		bx	lr
 404              		.cfi_endproc
 405              	.LFE70:
 406              		.size	ADC_SAR_1_ISR_InterruptCallback, .-ADC_SAR_1_ISR_InterruptCallback
 407 0002 00BF     		.bss
 408              		.set	.LANCHOR0,. + 0
 409              		.type	ch.10482, %object
 410              		.size	ch.10482, 1
 411              	ch.10482:
 412 0000 00       		.space	1
 413              		.text
 414              	.Letext0:
 415              		.file 2 "c:\\program files (x86)\\cypress\\psoc creator\\3.3\\psoc creator\\import\\gnu\\arm\\4.9.
 416              		.file 3 "c:\\program files (x86)\\cypress\\psoc creator\\3.3\\psoc creator\\import\\gnu\\arm\\4.9.
 417              		.file 4 "Generated_Source\\PSoC5/cytypes.h"
 418              		.file 5 "..\\inc/../../flexsea-system/inc/flexsea_cmd_control.h"
 419              		.file 6 "Generated_Source\\PSoC5/core_cm3.h"
 420              		.file 7 "..\\inc/peripherals.h"
 421              		.file 8 "..\\inc/misc.h"
 422              		.file 9 "..\\inc/analog.h"
 423              		.file 10 "..\\inc/control.h"
 424              		.file 11 "Generated_Source\\PSoC5/Timer_1.h"
 425              		.file 12 "Generated_Source\\PSoC5/Timer_2.h"
ARM GAS  C:\Users\Alex\AppData\Local\Temp\ccvkehwq.s 			page 11


 426              		.file 13 "Generated_Source\\PSoC5/isr_t1.h"
 427              		.file 14 "Generated_Source\\PSoC5/isr_t2.h"
 428              		.file 15 "Generated_Source\\PSoC5/UART_DMA_XMIT.h"
 429              		.file 16 "Generated_Source\\PSoC5/DE.h"
 430              		.file 17 "Generated_Source\\PSoC5/NOT_RE.h"
 431              		.file 18 "Generated_Source\\PSoC5/T2_RESET.h"
 432              		.file 19 "Generated_Source\\PSoC5/ADC_SAR_1.h"
 433              		.file 20 "Generated_Source\\PSoC5/AMux_1.h"
 434              		.file 21 "c:\\flexsea_alx87grd\\flexsea-comm\\inc\\flexsea_buffers.h"
 435              		.file 22 "Generated_Source\\PSoC5/ADC_DelSig_1.h"