ARM GAS  C:\Users\Alex\AppData\Local\Temp\ccrguawU.s 			page 1


   1              		.syntax unified
   2              		.cpu cortex-m3
   3              		.fpu softvfp
   4              		.eabi_attribute 20, 1
   5              		.eabi_attribute 21, 1
   6              		.eabi_attribute 23, 3
   7              		.eabi_attribute 24, 1
   8              		.eabi_attribute 25, 1
   9              		.eabi_attribute 26, 1
  10              		.eabi_attribute 30, 1
  11              		.eabi_attribute 34, 1
  12              		.eabi_attribute 18, 4
  13              		.thumb
  14              		.file	"isr_dma_uart_tx.c"
  15              		.text
  16              	.Ltext0:
  17              		.cfi_sections	.debug_frame
  18              		.section	.text.isr_dma_uart_tx_Interrupt,"ax",%progbits
  19              		.align	2
  20              		.global	isr_dma_uart_tx_Interrupt
  21              		.thumb
  22              		.thumb_func
  23              		.type	isr_dma_uart_tx_Interrupt, %function
  24              	isr_dma_uart_tx_Interrupt:
  25              	.LFB3:
  26              		.file 1 ".\\Generated_Source\\PSoC5\\isr_dma_uart_tx.c"
   1:.\Generated_Source\PSoC5/isr_dma_uart_tx.c **** /*******************************************************************************
   2:.\Generated_Source\PSoC5/isr_dma_uart_tx.c **** * File Name: isr_dma_uart_tx.c  
   3:.\Generated_Source\PSoC5/isr_dma_uart_tx.c **** * Version 1.70
   4:.\Generated_Source\PSoC5/isr_dma_uart_tx.c **** *
   5:.\Generated_Source\PSoC5/isr_dma_uart_tx.c **** *  Description:
   6:.\Generated_Source\PSoC5/isr_dma_uart_tx.c **** *   API for controlling the state of an interrupt.
   7:.\Generated_Source\PSoC5/isr_dma_uart_tx.c **** *
   8:.\Generated_Source\PSoC5/isr_dma_uart_tx.c **** *
   9:.\Generated_Source\PSoC5/isr_dma_uart_tx.c **** *  Note:
  10:.\Generated_Source\PSoC5/isr_dma_uart_tx.c **** *
  11:.\Generated_Source\PSoC5/isr_dma_uart_tx.c **** ********************************************************************************
  12:.\Generated_Source\PSoC5/isr_dma_uart_tx.c **** * Copyright 2008-2015, Cypress Semiconductor Corporation.  All rights reserved.
  13:.\Generated_Source\PSoC5/isr_dma_uart_tx.c **** * You may use this file only in accordance with the license, terms, conditions, 
  14:.\Generated_Source\PSoC5/isr_dma_uart_tx.c **** * disclaimers, and limitations in the end user license agreement accompanying 
  15:.\Generated_Source\PSoC5/isr_dma_uart_tx.c **** * the software package with which this file was provided.
  16:.\Generated_Source\PSoC5/isr_dma_uart_tx.c **** *******************************************************************************/
  17:.\Generated_Source\PSoC5/isr_dma_uart_tx.c **** 
  18:.\Generated_Source\PSoC5/isr_dma_uart_tx.c **** 
  19:.\Generated_Source\PSoC5/isr_dma_uart_tx.c **** #include <cydevice_trm.h>
  20:.\Generated_Source\PSoC5/isr_dma_uart_tx.c **** #include <CyLib.h>
  21:.\Generated_Source\PSoC5/isr_dma_uart_tx.c **** #include <isr_dma_uart_tx.h>
  22:.\Generated_Source\PSoC5/isr_dma_uart_tx.c **** #include "cyapicallbacks.h"
  23:.\Generated_Source\PSoC5/isr_dma_uart_tx.c **** 
  24:.\Generated_Source\PSoC5/isr_dma_uart_tx.c **** #if !defined(isr_dma_uart_tx__REMOVED) /* Check for removal by optimization */
  25:.\Generated_Source\PSoC5/isr_dma_uart_tx.c **** 
  26:.\Generated_Source\PSoC5/isr_dma_uart_tx.c **** /*******************************************************************************
  27:.\Generated_Source\PSoC5/isr_dma_uart_tx.c **** *  Place your includes, defines and code here 
  28:.\Generated_Source\PSoC5/isr_dma_uart_tx.c **** ********************************************************************************/
  29:.\Generated_Source\PSoC5/isr_dma_uart_tx.c **** /* `#START isr_dma_uart_tx_intc` */
  30:.\Generated_Source\PSoC5/isr_dma_uart_tx.c **** 
  31:.\Generated_Source\PSoC5/isr_dma_uart_tx.c **** /* `#END` */
ARM GAS  C:\Users\Alex\AppData\Local\Temp\ccrguawU.s 			page 2


  32:.\Generated_Source\PSoC5/isr_dma_uart_tx.c **** 
  33:.\Generated_Source\PSoC5/isr_dma_uart_tx.c **** #ifndef CYINT_IRQ_BASE
  34:.\Generated_Source\PSoC5/isr_dma_uart_tx.c **** #define CYINT_IRQ_BASE      16
  35:.\Generated_Source\PSoC5/isr_dma_uart_tx.c **** #endif /* CYINT_IRQ_BASE */
  36:.\Generated_Source\PSoC5/isr_dma_uart_tx.c **** #ifndef CYINT_VECT_TABLE
  37:.\Generated_Source\PSoC5/isr_dma_uart_tx.c **** #define CYINT_VECT_TABLE    ((cyisraddress **) CYREG_NVIC_VECT_OFFSET)
  38:.\Generated_Source\PSoC5/isr_dma_uart_tx.c **** #endif /* CYINT_VECT_TABLE */
  39:.\Generated_Source\PSoC5/isr_dma_uart_tx.c **** 
  40:.\Generated_Source\PSoC5/isr_dma_uart_tx.c **** /* Declared in startup, used to set unused interrupts to. */
  41:.\Generated_Source\PSoC5/isr_dma_uart_tx.c **** CY_ISR_PROTO(IntDefaultHandler);
  42:.\Generated_Source\PSoC5/isr_dma_uart_tx.c **** 
  43:.\Generated_Source\PSoC5/isr_dma_uart_tx.c **** 
  44:.\Generated_Source\PSoC5/isr_dma_uart_tx.c **** /*******************************************************************************
  45:.\Generated_Source\PSoC5/isr_dma_uart_tx.c **** * Function Name: isr_dma_uart_tx_Start
  46:.\Generated_Source\PSoC5/isr_dma_uart_tx.c **** ********************************************************************************
  47:.\Generated_Source\PSoC5/isr_dma_uart_tx.c **** *
  48:.\Generated_Source\PSoC5/isr_dma_uart_tx.c **** * Summary:
  49:.\Generated_Source\PSoC5/isr_dma_uart_tx.c **** *  Set up the interrupt and enable it. This function disables the interrupt, 
  50:.\Generated_Source\PSoC5/isr_dma_uart_tx.c **** *  sets the default interrupt vector, sets the priority from the value in the
  51:.\Generated_Source\PSoC5/isr_dma_uart_tx.c **** *  Design Wide Resources Interrupt Editor, then enables the interrupt to the 
  52:.\Generated_Source\PSoC5/isr_dma_uart_tx.c **** *  interrupt controller.
  53:.\Generated_Source\PSoC5/isr_dma_uart_tx.c **** *
  54:.\Generated_Source\PSoC5/isr_dma_uart_tx.c **** * Parameters:  
  55:.\Generated_Source\PSoC5/isr_dma_uart_tx.c **** *   None
  56:.\Generated_Source\PSoC5/isr_dma_uart_tx.c **** *
  57:.\Generated_Source\PSoC5/isr_dma_uart_tx.c **** * Return:
  58:.\Generated_Source\PSoC5/isr_dma_uart_tx.c **** *   None
  59:.\Generated_Source\PSoC5/isr_dma_uart_tx.c **** *
  60:.\Generated_Source\PSoC5/isr_dma_uart_tx.c **** *******************************************************************************/
  61:.\Generated_Source\PSoC5/isr_dma_uart_tx.c **** void isr_dma_uart_tx_Start(void)
  62:.\Generated_Source\PSoC5/isr_dma_uart_tx.c **** {
  63:.\Generated_Source\PSoC5/isr_dma_uart_tx.c ****     /* For all we know the interrupt is active. */
  64:.\Generated_Source\PSoC5/isr_dma_uart_tx.c ****     isr_dma_uart_tx_Disable();
  65:.\Generated_Source\PSoC5/isr_dma_uart_tx.c **** 
  66:.\Generated_Source\PSoC5/isr_dma_uart_tx.c ****     /* Set the ISR to point to the isr_dma_uart_tx Interrupt. */
  67:.\Generated_Source\PSoC5/isr_dma_uart_tx.c ****     isr_dma_uart_tx_SetVector(&isr_dma_uart_tx_Interrupt);
  68:.\Generated_Source\PSoC5/isr_dma_uart_tx.c **** 
  69:.\Generated_Source\PSoC5/isr_dma_uart_tx.c ****     /* Set the priority. */
  70:.\Generated_Source\PSoC5/isr_dma_uart_tx.c ****     isr_dma_uart_tx_SetPriority((uint8)isr_dma_uart_tx_INTC_PRIOR_NUMBER);
  71:.\Generated_Source\PSoC5/isr_dma_uart_tx.c **** 
  72:.\Generated_Source\PSoC5/isr_dma_uart_tx.c ****     /* Enable it. */
  73:.\Generated_Source\PSoC5/isr_dma_uart_tx.c ****     isr_dma_uart_tx_Enable();
  74:.\Generated_Source\PSoC5/isr_dma_uart_tx.c **** }
  75:.\Generated_Source\PSoC5/isr_dma_uart_tx.c **** 
  76:.\Generated_Source\PSoC5/isr_dma_uart_tx.c **** 
  77:.\Generated_Source\PSoC5/isr_dma_uart_tx.c **** /*******************************************************************************
  78:.\Generated_Source\PSoC5/isr_dma_uart_tx.c **** * Function Name: isr_dma_uart_tx_StartEx
  79:.\Generated_Source\PSoC5/isr_dma_uart_tx.c **** ********************************************************************************
  80:.\Generated_Source\PSoC5/isr_dma_uart_tx.c **** *
  81:.\Generated_Source\PSoC5/isr_dma_uart_tx.c **** * Summary:
  82:.\Generated_Source\PSoC5/isr_dma_uart_tx.c **** *  Sets up the interrupt and enables it. This function disables the interrupt,
  83:.\Generated_Source\PSoC5/isr_dma_uart_tx.c **** *  sets the interrupt vector based on the address passed in, sets the priority 
  84:.\Generated_Source\PSoC5/isr_dma_uart_tx.c **** *  from the value in the Design Wide Resources Interrupt Editor, then enables 
  85:.\Generated_Source\PSoC5/isr_dma_uart_tx.c **** *  the interrupt to the interrupt controller.
  86:.\Generated_Source\PSoC5/isr_dma_uart_tx.c **** *  
  87:.\Generated_Source\PSoC5/isr_dma_uart_tx.c **** *  When defining ISR functions, the CY_ISR and CY_ISR_PROTO macros should be 
  88:.\Generated_Source\PSoC5/isr_dma_uart_tx.c **** *  used to provide consistent definition across compilers:
ARM GAS  C:\Users\Alex\AppData\Local\Temp\ccrguawU.s 			page 3


  89:.\Generated_Source\PSoC5/isr_dma_uart_tx.c **** *  
  90:.\Generated_Source\PSoC5/isr_dma_uart_tx.c **** *  Function definition example:
  91:.\Generated_Source\PSoC5/isr_dma_uart_tx.c **** *   CY_ISR(MyISR)
  92:.\Generated_Source\PSoC5/isr_dma_uart_tx.c **** *   {
  93:.\Generated_Source\PSoC5/isr_dma_uart_tx.c **** *   }
  94:.\Generated_Source\PSoC5/isr_dma_uart_tx.c **** *   Function prototype example:
  95:.\Generated_Source\PSoC5/isr_dma_uart_tx.c **** *   CY_ISR_PROTO(MyISR);
  96:.\Generated_Source\PSoC5/isr_dma_uart_tx.c **** *
  97:.\Generated_Source\PSoC5/isr_dma_uart_tx.c **** * Parameters:  
  98:.\Generated_Source\PSoC5/isr_dma_uart_tx.c **** *   address: Address of the ISR to set in the interrupt vector table.
  99:.\Generated_Source\PSoC5/isr_dma_uart_tx.c **** *
 100:.\Generated_Source\PSoC5/isr_dma_uart_tx.c **** * Return:
 101:.\Generated_Source\PSoC5/isr_dma_uart_tx.c **** *   None
 102:.\Generated_Source\PSoC5/isr_dma_uart_tx.c **** *
 103:.\Generated_Source\PSoC5/isr_dma_uart_tx.c **** *******************************************************************************/
 104:.\Generated_Source\PSoC5/isr_dma_uart_tx.c **** void isr_dma_uart_tx_StartEx(cyisraddress address)
 105:.\Generated_Source\PSoC5/isr_dma_uart_tx.c **** {
 106:.\Generated_Source\PSoC5/isr_dma_uart_tx.c ****     /* For all we know the interrupt is active. */
 107:.\Generated_Source\PSoC5/isr_dma_uart_tx.c ****     isr_dma_uart_tx_Disable();
 108:.\Generated_Source\PSoC5/isr_dma_uart_tx.c **** 
 109:.\Generated_Source\PSoC5/isr_dma_uart_tx.c ****     /* Set the ISR to point to the isr_dma_uart_tx Interrupt. */
 110:.\Generated_Source\PSoC5/isr_dma_uart_tx.c ****     isr_dma_uart_tx_SetVector(address);
 111:.\Generated_Source\PSoC5/isr_dma_uart_tx.c **** 
 112:.\Generated_Source\PSoC5/isr_dma_uart_tx.c ****     /* Set the priority. */
 113:.\Generated_Source\PSoC5/isr_dma_uart_tx.c ****     isr_dma_uart_tx_SetPriority((uint8)isr_dma_uart_tx_INTC_PRIOR_NUMBER);
 114:.\Generated_Source\PSoC5/isr_dma_uart_tx.c **** 
 115:.\Generated_Source\PSoC5/isr_dma_uart_tx.c ****     /* Enable it. */
 116:.\Generated_Source\PSoC5/isr_dma_uart_tx.c ****     isr_dma_uart_tx_Enable();
 117:.\Generated_Source\PSoC5/isr_dma_uart_tx.c **** }
 118:.\Generated_Source\PSoC5/isr_dma_uart_tx.c **** 
 119:.\Generated_Source\PSoC5/isr_dma_uart_tx.c **** 
 120:.\Generated_Source\PSoC5/isr_dma_uart_tx.c **** /*******************************************************************************
 121:.\Generated_Source\PSoC5/isr_dma_uart_tx.c **** * Function Name: isr_dma_uart_tx_Stop
 122:.\Generated_Source\PSoC5/isr_dma_uart_tx.c **** ********************************************************************************
 123:.\Generated_Source\PSoC5/isr_dma_uart_tx.c **** *
 124:.\Generated_Source\PSoC5/isr_dma_uart_tx.c **** * Summary:
 125:.\Generated_Source\PSoC5/isr_dma_uart_tx.c **** *   Disables and removes the interrupt.
 126:.\Generated_Source\PSoC5/isr_dma_uart_tx.c **** *
 127:.\Generated_Source\PSoC5/isr_dma_uart_tx.c **** * Parameters:  
 128:.\Generated_Source\PSoC5/isr_dma_uart_tx.c **** *   None
 129:.\Generated_Source\PSoC5/isr_dma_uart_tx.c **** *
 130:.\Generated_Source\PSoC5/isr_dma_uart_tx.c **** * Return:
 131:.\Generated_Source\PSoC5/isr_dma_uart_tx.c **** *   None
 132:.\Generated_Source\PSoC5/isr_dma_uart_tx.c **** *
 133:.\Generated_Source\PSoC5/isr_dma_uart_tx.c **** *******************************************************************************/
 134:.\Generated_Source\PSoC5/isr_dma_uart_tx.c **** void isr_dma_uart_tx_Stop(void)
 135:.\Generated_Source\PSoC5/isr_dma_uart_tx.c **** {
 136:.\Generated_Source\PSoC5/isr_dma_uart_tx.c ****     /* Disable this interrupt. */
 137:.\Generated_Source\PSoC5/isr_dma_uart_tx.c ****     isr_dma_uart_tx_Disable();
 138:.\Generated_Source\PSoC5/isr_dma_uart_tx.c **** 
 139:.\Generated_Source\PSoC5/isr_dma_uart_tx.c ****     /* Set the ISR to point to the passive one. */
 140:.\Generated_Source\PSoC5/isr_dma_uart_tx.c ****     isr_dma_uart_tx_SetVector(&IntDefaultHandler);
 141:.\Generated_Source\PSoC5/isr_dma_uart_tx.c **** }
 142:.\Generated_Source\PSoC5/isr_dma_uart_tx.c **** 
 143:.\Generated_Source\PSoC5/isr_dma_uart_tx.c **** 
 144:.\Generated_Source\PSoC5/isr_dma_uart_tx.c **** /*******************************************************************************
 145:.\Generated_Source\PSoC5/isr_dma_uart_tx.c **** * Function Name: isr_dma_uart_tx_Interrupt
ARM GAS  C:\Users\Alex\AppData\Local\Temp\ccrguawU.s 			page 4


 146:.\Generated_Source\PSoC5/isr_dma_uart_tx.c **** ********************************************************************************
 147:.\Generated_Source\PSoC5/isr_dma_uart_tx.c **** *
 148:.\Generated_Source\PSoC5/isr_dma_uart_tx.c **** * Summary:
 149:.\Generated_Source\PSoC5/isr_dma_uart_tx.c **** *   The default Interrupt Service Routine for isr_dma_uart_tx.
 150:.\Generated_Source\PSoC5/isr_dma_uart_tx.c **** *
 151:.\Generated_Source\PSoC5/isr_dma_uart_tx.c **** *   Add custom code between the coments to keep the next version of this file
 152:.\Generated_Source\PSoC5/isr_dma_uart_tx.c **** *   from over writting your code.
 153:.\Generated_Source\PSoC5/isr_dma_uart_tx.c **** *
 154:.\Generated_Source\PSoC5/isr_dma_uart_tx.c **** * Parameters:  
 155:.\Generated_Source\PSoC5/isr_dma_uart_tx.c **** *
 156:.\Generated_Source\PSoC5/isr_dma_uart_tx.c **** * Return:
 157:.\Generated_Source\PSoC5/isr_dma_uart_tx.c **** *   None
 158:.\Generated_Source\PSoC5/isr_dma_uart_tx.c **** *
 159:.\Generated_Source\PSoC5/isr_dma_uart_tx.c **** *******************************************************************************/
 160:.\Generated_Source\PSoC5/isr_dma_uart_tx.c **** CY_ISR(isr_dma_uart_tx_Interrupt)
 161:.\Generated_Source\PSoC5/isr_dma_uart_tx.c **** {
  27              		.loc 1 161 0
  28              		.cfi_startproc
  29              		@ args = 0, pretend = 0, frame = 0
  30              		@ frame_needed = 0, uses_anonymous_args = 0
  31 0000 08B5     		push	{r3, lr}
  32              		.cfi_def_cfa_offset 8
  33              		.cfi_offset 3, -8
  34              		.cfi_offset 14, -4
 162:.\Generated_Source\PSoC5/isr_dma_uart_tx.c ****     #ifdef isr_dma_uart_tx_INTERRUPT_INTERRUPT_CALLBACK
 163:.\Generated_Source\PSoC5/isr_dma_uart_tx.c ****         isr_dma_uart_tx_Interrupt_InterruptCallback();
  35              		.loc 1 163 0
  36 0002 FFF7FEFF 		bl	isr_dma_uart_tx_Interrupt_InterruptCallback
  37              	.LVL0:
  38 0006 08BD     		pop	{r3, pc}
  39              		.cfi_endproc
  40              	.LFE3:
  41              		.size	isr_dma_uart_tx_Interrupt, .-isr_dma_uart_tx_Interrupt
  42              		.section	.text.isr_dma_uart_tx_SetVector,"ax",%progbits
  43              		.align	2
  44              		.global	isr_dma_uart_tx_SetVector
  45              		.thumb
  46              		.thumb_func
  47              		.type	isr_dma_uart_tx_SetVector, %function
  48              	isr_dma_uart_tx_SetVector:
  49              	.LFB4:
 164:.\Generated_Source\PSoC5/isr_dma_uart_tx.c ****     #endif /* isr_dma_uart_tx_INTERRUPT_INTERRUPT_CALLBACK */ 
 165:.\Generated_Source\PSoC5/isr_dma_uart_tx.c **** 
 166:.\Generated_Source\PSoC5/isr_dma_uart_tx.c ****     /*  Place your Interrupt code here. */
 167:.\Generated_Source\PSoC5/isr_dma_uart_tx.c ****     /* `#START isr_dma_uart_tx_Interrupt` */
 168:.\Generated_Source\PSoC5/isr_dma_uart_tx.c **** 
 169:.\Generated_Source\PSoC5/isr_dma_uart_tx.c ****     /* `#END` */
 170:.\Generated_Source\PSoC5/isr_dma_uart_tx.c **** }
 171:.\Generated_Source\PSoC5/isr_dma_uart_tx.c **** 
 172:.\Generated_Source\PSoC5/isr_dma_uart_tx.c **** 
 173:.\Generated_Source\PSoC5/isr_dma_uart_tx.c **** /*******************************************************************************
 174:.\Generated_Source\PSoC5/isr_dma_uart_tx.c **** * Function Name: isr_dma_uart_tx_SetVector
 175:.\Generated_Source\PSoC5/isr_dma_uart_tx.c **** ********************************************************************************
 176:.\Generated_Source\PSoC5/isr_dma_uart_tx.c **** *
 177:.\Generated_Source\PSoC5/isr_dma_uart_tx.c **** * Summary:
 178:.\Generated_Source\PSoC5/isr_dma_uart_tx.c **** *   Change the ISR vector for the Interrupt. Note calling isr_dma_uart_tx_Start
 179:.\Generated_Source\PSoC5/isr_dma_uart_tx.c **** *   will override any effect this method would have had. To set the vector 
ARM GAS  C:\Users\Alex\AppData\Local\Temp\ccrguawU.s 			page 5


 180:.\Generated_Source\PSoC5/isr_dma_uart_tx.c **** *   before the component has been started use isr_dma_uart_tx_StartEx instead.
 181:.\Generated_Source\PSoC5/isr_dma_uart_tx.c **** * 
 182:.\Generated_Source\PSoC5/isr_dma_uart_tx.c **** *   When defining ISR functions, the CY_ISR and CY_ISR_PROTO macros should be 
 183:.\Generated_Source\PSoC5/isr_dma_uart_tx.c **** *   used to provide consistent definition across compilers:
 184:.\Generated_Source\PSoC5/isr_dma_uart_tx.c **** *
 185:.\Generated_Source\PSoC5/isr_dma_uart_tx.c **** *   Function definition example:
 186:.\Generated_Source\PSoC5/isr_dma_uart_tx.c **** *   CY_ISR(MyISR)
 187:.\Generated_Source\PSoC5/isr_dma_uart_tx.c **** *   {
 188:.\Generated_Source\PSoC5/isr_dma_uart_tx.c **** *   }
 189:.\Generated_Source\PSoC5/isr_dma_uart_tx.c **** *
 190:.\Generated_Source\PSoC5/isr_dma_uart_tx.c **** *   Function prototype example:
 191:.\Generated_Source\PSoC5/isr_dma_uart_tx.c **** *     CY_ISR_PROTO(MyISR);
 192:.\Generated_Source\PSoC5/isr_dma_uart_tx.c **** *
 193:.\Generated_Source\PSoC5/isr_dma_uart_tx.c **** * Parameters:
 194:.\Generated_Source\PSoC5/isr_dma_uart_tx.c **** *   address: Address of the ISR to set in the interrupt vector table.
 195:.\Generated_Source\PSoC5/isr_dma_uart_tx.c **** *
 196:.\Generated_Source\PSoC5/isr_dma_uart_tx.c **** * Return:
 197:.\Generated_Source\PSoC5/isr_dma_uart_tx.c **** *   None
 198:.\Generated_Source\PSoC5/isr_dma_uart_tx.c **** *
 199:.\Generated_Source\PSoC5/isr_dma_uart_tx.c **** *******************************************************************************/
 200:.\Generated_Source\PSoC5/isr_dma_uart_tx.c **** void isr_dma_uart_tx_SetVector(cyisraddress address)
 201:.\Generated_Source\PSoC5/isr_dma_uart_tx.c **** {
  50              		.loc 1 201 0
  51              		.cfi_startproc
  52              		@ args = 0, pretend = 0, frame = 0
  53              		@ frame_needed = 0, uses_anonymous_args = 0
  54              		@ link register save eliminated.
  55              	.LVL1:
 202:.\Generated_Source\PSoC5/isr_dma_uart_tx.c ****     cyisraddress * ramVectorTable;
 203:.\Generated_Source\PSoC5/isr_dma_uart_tx.c **** 
 204:.\Generated_Source\PSoC5/isr_dma_uart_tx.c ****     ramVectorTable = (cyisraddress *) *CYINT_VECT_TABLE;
  56              		.loc 1 204 0
  57 0000 014B     		ldr	r3, .L4
  58 0002 1B68     		ldr	r3, [r3]
  59              	.LVL2:
 205:.\Generated_Source\PSoC5/isr_dma_uart_tx.c **** 
 206:.\Generated_Source\PSoC5/isr_dma_uart_tx.c ****     ramVectorTable[CYINT_IRQ_BASE + (uint32)isr_dma_uart_tx__INTC_NUMBER] = address;
  60              		.loc 1 206 0
  61 0004 5866     		str	r0, [r3, #100]
  62 0006 7047     		bx	lr
  63              	.L5:
  64              		.align	2
  65              	.L4:
  66 0008 08ED00E0 		.word	-536810232
  67              		.cfi_endproc
  68              	.LFE4:
  69              		.size	isr_dma_uart_tx_SetVector, .-isr_dma_uart_tx_SetVector
  70              		.section	.text.isr_dma_uart_tx_GetVector,"ax",%progbits
  71              		.align	2
  72              		.global	isr_dma_uart_tx_GetVector
  73              		.thumb
  74              		.thumb_func
  75              		.type	isr_dma_uart_tx_GetVector, %function
  76              	isr_dma_uart_tx_GetVector:
  77              	.LFB5:
 207:.\Generated_Source\PSoC5/isr_dma_uart_tx.c **** }
 208:.\Generated_Source\PSoC5/isr_dma_uart_tx.c **** 
ARM GAS  C:\Users\Alex\AppData\Local\Temp\ccrguawU.s 			page 6


 209:.\Generated_Source\PSoC5/isr_dma_uart_tx.c **** 
 210:.\Generated_Source\PSoC5/isr_dma_uart_tx.c **** /*******************************************************************************
 211:.\Generated_Source\PSoC5/isr_dma_uart_tx.c **** * Function Name: isr_dma_uart_tx_GetVector
 212:.\Generated_Source\PSoC5/isr_dma_uart_tx.c **** ********************************************************************************
 213:.\Generated_Source\PSoC5/isr_dma_uart_tx.c **** *
 214:.\Generated_Source\PSoC5/isr_dma_uart_tx.c **** * Summary:
 215:.\Generated_Source\PSoC5/isr_dma_uart_tx.c **** *   Gets the "address" of the current ISR vector for the Interrupt.
 216:.\Generated_Source\PSoC5/isr_dma_uart_tx.c **** *
 217:.\Generated_Source\PSoC5/isr_dma_uart_tx.c **** * Parameters:
 218:.\Generated_Source\PSoC5/isr_dma_uart_tx.c **** *   None
 219:.\Generated_Source\PSoC5/isr_dma_uart_tx.c **** *
 220:.\Generated_Source\PSoC5/isr_dma_uart_tx.c **** * Return:
 221:.\Generated_Source\PSoC5/isr_dma_uart_tx.c **** *   Address of the ISR in the interrupt vector table.
 222:.\Generated_Source\PSoC5/isr_dma_uart_tx.c **** *
 223:.\Generated_Source\PSoC5/isr_dma_uart_tx.c **** *******************************************************************************/
 224:.\Generated_Source\PSoC5/isr_dma_uart_tx.c **** cyisraddress isr_dma_uart_tx_GetVector(void)
 225:.\Generated_Source\PSoC5/isr_dma_uart_tx.c **** {
  78              		.loc 1 225 0
  79              		.cfi_startproc
  80              		@ args = 0, pretend = 0, frame = 0
  81              		@ frame_needed = 0, uses_anonymous_args = 0
  82              		@ link register save eliminated.
 226:.\Generated_Source\PSoC5/isr_dma_uart_tx.c ****     cyisraddress * ramVectorTable;
 227:.\Generated_Source\PSoC5/isr_dma_uart_tx.c **** 
 228:.\Generated_Source\PSoC5/isr_dma_uart_tx.c ****     ramVectorTable = (cyisraddress *) *CYINT_VECT_TABLE;
  83              		.loc 1 228 0
  84 0000 014B     		ldr	r3, .L7
  85 0002 1B68     		ldr	r3, [r3]
  86              	.LVL3:
 229:.\Generated_Source\PSoC5/isr_dma_uart_tx.c **** 
 230:.\Generated_Source\PSoC5/isr_dma_uart_tx.c ****     return ramVectorTable[CYINT_IRQ_BASE + (uint32)isr_dma_uart_tx__INTC_NUMBER];
 231:.\Generated_Source\PSoC5/isr_dma_uart_tx.c **** }
  87              		.loc 1 231 0
  88 0004 586E     		ldr	r0, [r3, #100]
  89 0006 7047     		bx	lr
  90              	.L8:
  91              		.align	2
  92              	.L7:
  93 0008 08ED00E0 		.word	-536810232
  94              		.cfi_endproc
  95              	.LFE5:
  96              		.size	isr_dma_uart_tx_GetVector, .-isr_dma_uart_tx_GetVector
  97              		.section	.text.isr_dma_uart_tx_SetPriority,"ax",%progbits
  98              		.align	2
  99              		.global	isr_dma_uart_tx_SetPriority
 100              		.thumb
 101              		.thumb_func
 102              		.type	isr_dma_uart_tx_SetPriority, %function
 103              	isr_dma_uart_tx_SetPriority:
 104              	.LFB6:
 232:.\Generated_Source\PSoC5/isr_dma_uart_tx.c **** 
 233:.\Generated_Source\PSoC5/isr_dma_uart_tx.c **** 
 234:.\Generated_Source\PSoC5/isr_dma_uart_tx.c **** /*******************************************************************************
 235:.\Generated_Source\PSoC5/isr_dma_uart_tx.c **** * Function Name: isr_dma_uart_tx_SetPriority
 236:.\Generated_Source\PSoC5/isr_dma_uart_tx.c **** ********************************************************************************
 237:.\Generated_Source\PSoC5/isr_dma_uart_tx.c **** *
 238:.\Generated_Source\PSoC5/isr_dma_uart_tx.c **** * Summary:
ARM GAS  C:\Users\Alex\AppData\Local\Temp\ccrguawU.s 			page 7


 239:.\Generated_Source\PSoC5/isr_dma_uart_tx.c **** *   Sets the Priority of the Interrupt. 
 240:.\Generated_Source\PSoC5/isr_dma_uart_tx.c **** *
 241:.\Generated_Source\PSoC5/isr_dma_uart_tx.c **** *   Note calling isr_dma_uart_tx_Start or isr_dma_uart_tx_StartEx will 
 242:.\Generated_Source\PSoC5/isr_dma_uart_tx.c **** *   override any effect this API would have had. This API should only be called
 243:.\Generated_Source\PSoC5/isr_dma_uart_tx.c **** *   after isr_dma_uart_tx_Start or isr_dma_uart_tx_StartEx has been called. 
 244:.\Generated_Source\PSoC5/isr_dma_uart_tx.c **** *   To set the initial priority for the component, use the Design-Wide Resources
 245:.\Generated_Source\PSoC5/isr_dma_uart_tx.c **** *   Interrupt Editor.
 246:.\Generated_Source\PSoC5/isr_dma_uart_tx.c **** *
 247:.\Generated_Source\PSoC5/isr_dma_uart_tx.c **** *   Note This API has no effect on Non-maskable interrupt NMI).
 248:.\Generated_Source\PSoC5/isr_dma_uart_tx.c **** *
 249:.\Generated_Source\PSoC5/isr_dma_uart_tx.c **** * Parameters:
 250:.\Generated_Source\PSoC5/isr_dma_uart_tx.c **** *   priority: Priority of the interrupt, 0 being the highest priority
 251:.\Generated_Source\PSoC5/isr_dma_uart_tx.c **** *             PSoC 3 and PSoC 5LP: Priority is from 0 to 7.
 252:.\Generated_Source\PSoC5/isr_dma_uart_tx.c **** *             PSoC 4: Priority is from 0 to 3.
 253:.\Generated_Source\PSoC5/isr_dma_uart_tx.c **** *
 254:.\Generated_Source\PSoC5/isr_dma_uart_tx.c **** * Return:
 255:.\Generated_Source\PSoC5/isr_dma_uart_tx.c **** *   None
 256:.\Generated_Source\PSoC5/isr_dma_uart_tx.c **** *
 257:.\Generated_Source\PSoC5/isr_dma_uart_tx.c **** *******************************************************************************/
 258:.\Generated_Source\PSoC5/isr_dma_uart_tx.c **** void isr_dma_uart_tx_SetPriority(uint8 priority)
 259:.\Generated_Source\PSoC5/isr_dma_uart_tx.c **** {
 105              		.loc 1 259 0
 106              		.cfi_startproc
 107              		@ args = 0, pretend = 0, frame = 0
 108              		@ frame_needed = 0, uses_anonymous_args = 0
 109              		@ link register save eliminated.
 110              	.LVL4:
 260:.\Generated_Source\PSoC5/isr_dma_uart_tx.c ****     *isr_dma_uart_tx_INTC_PRIOR = priority << 5;
 111              		.loc 1 260 0
 112 0000 4001     		lsls	r0, r0, #5
 113              	.LVL5:
 114 0002 C0B2     		uxtb	r0, r0
 115 0004 014B     		ldr	r3, .L10
 116 0006 1870     		strb	r0, [r3]
 117 0008 7047     		bx	lr
 118              	.L11:
 119 000a 00BF     		.align	2
 120              	.L10:
 121 000c 09E400E0 		.word	-536812535
 122              		.cfi_endproc
 123              	.LFE6:
 124              		.size	isr_dma_uart_tx_SetPriority, .-isr_dma_uart_tx_SetPriority
 125              		.section	.text.isr_dma_uart_tx_GetPriority,"ax",%progbits
 126              		.align	2
 127              		.global	isr_dma_uart_tx_GetPriority
 128              		.thumb
 129              		.thumb_func
 130              		.type	isr_dma_uart_tx_GetPriority, %function
 131              	isr_dma_uart_tx_GetPriority:
 132              	.LFB7:
 261:.\Generated_Source\PSoC5/isr_dma_uart_tx.c **** }
 262:.\Generated_Source\PSoC5/isr_dma_uart_tx.c **** 
 263:.\Generated_Source\PSoC5/isr_dma_uart_tx.c **** 
 264:.\Generated_Source\PSoC5/isr_dma_uart_tx.c **** /*******************************************************************************
 265:.\Generated_Source\PSoC5/isr_dma_uart_tx.c **** * Function Name: isr_dma_uart_tx_GetPriority
 266:.\Generated_Source\PSoC5/isr_dma_uart_tx.c **** ********************************************************************************
 267:.\Generated_Source\PSoC5/isr_dma_uart_tx.c **** *
ARM GAS  C:\Users\Alex\AppData\Local\Temp\ccrguawU.s 			page 8


 268:.\Generated_Source\PSoC5/isr_dma_uart_tx.c **** * Summary:
 269:.\Generated_Source\PSoC5/isr_dma_uart_tx.c **** *   Gets the Priority of the Interrupt.
 270:.\Generated_Source\PSoC5/isr_dma_uart_tx.c **** *
 271:.\Generated_Source\PSoC5/isr_dma_uart_tx.c **** * Parameters:
 272:.\Generated_Source\PSoC5/isr_dma_uart_tx.c **** *   None
 273:.\Generated_Source\PSoC5/isr_dma_uart_tx.c **** *
 274:.\Generated_Source\PSoC5/isr_dma_uart_tx.c **** * Return:
 275:.\Generated_Source\PSoC5/isr_dma_uart_tx.c **** *   Priority of the interrupt, 0 being the highest priority
 276:.\Generated_Source\PSoC5/isr_dma_uart_tx.c **** *    PSoC 3 and PSoC 5LP: Priority is from 0 to 7.
 277:.\Generated_Source\PSoC5/isr_dma_uart_tx.c **** *    PSoC 4: Priority is from 0 to 3.
 278:.\Generated_Source\PSoC5/isr_dma_uart_tx.c **** *
 279:.\Generated_Source\PSoC5/isr_dma_uart_tx.c **** *******************************************************************************/
 280:.\Generated_Source\PSoC5/isr_dma_uart_tx.c **** uint8 isr_dma_uart_tx_GetPriority(void)
 281:.\Generated_Source\PSoC5/isr_dma_uart_tx.c **** {
 133              		.loc 1 281 0
 134              		.cfi_startproc
 135              		@ args = 0, pretend = 0, frame = 0
 136              		@ frame_needed = 0, uses_anonymous_args = 0
 137              		@ link register save eliminated.
 282:.\Generated_Source\PSoC5/isr_dma_uart_tx.c ****     uint8 priority;
 283:.\Generated_Source\PSoC5/isr_dma_uart_tx.c **** 
 284:.\Generated_Source\PSoC5/isr_dma_uart_tx.c **** 
 285:.\Generated_Source\PSoC5/isr_dma_uart_tx.c ****     priority = *isr_dma_uart_tx_INTC_PRIOR >> 5;
 138              		.loc 1 285 0
 139 0000 014B     		ldr	r3, .L13
 140 0002 1878     		ldrb	r0, [r3]	@ zero_extendqisi2
 141              	.LVL6:
 286:.\Generated_Source\PSoC5/isr_dma_uart_tx.c **** 
 287:.\Generated_Source\PSoC5/isr_dma_uart_tx.c ****     return priority;
 288:.\Generated_Source\PSoC5/isr_dma_uart_tx.c **** }
 142              		.loc 1 288 0
 143 0004 4009     		lsrs	r0, r0, #5
 144              	.LVL7:
 145 0006 7047     		bx	lr
 146              	.L14:
 147              		.align	2
 148              	.L13:
 149 0008 09E400E0 		.word	-536812535
 150              		.cfi_endproc
 151              	.LFE7:
 152              		.size	isr_dma_uart_tx_GetPriority, .-isr_dma_uart_tx_GetPriority
 153              		.section	.text.isr_dma_uart_tx_Enable,"ax",%progbits
 154              		.align	2
 155              		.global	isr_dma_uart_tx_Enable
 156              		.thumb
 157              		.thumb_func
 158              		.type	isr_dma_uart_tx_Enable, %function
 159              	isr_dma_uart_tx_Enable:
 160              	.LFB8:
 289:.\Generated_Source\PSoC5/isr_dma_uart_tx.c **** 
 290:.\Generated_Source\PSoC5/isr_dma_uart_tx.c **** 
 291:.\Generated_Source\PSoC5/isr_dma_uart_tx.c **** /*******************************************************************************
 292:.\Generated_Source\PSoC5/isr_dma_uart_tx.c **** * Function Name: isr_dma_uart_tx_Enable
 293:.\Generated_Source\PSoC5/isr_dma_uart_tx.c **** ********************************************************************************
 294:.\Generated_Source\PSoC5/isr_dma_uart_tx.c **** *
 295:.\Generated_Source\PSoC5/isr_dma_uart_tx.c **** * Summary:
 296:.\Generated_Source\PSoC5/isr_dma_uart_tx.c **** *   Enables the interrupt to the interrupt controller. Do not call this function
ARM GAS  C:\Users\Alex\AppData\Local\Temp\ccrguawU.s 			page 9


 297:.\Generated_Source\PSoC5/isr_dma_uart_tx.c **** *   unless ISR_Start() has been called or the functionality of the ISR_Start() 
 298:.\Generated_Source\PSoC5/isr_dma_uart_tx.c **** *   function, which sets the vector and the priority, has been called.
 299:.\Generated_Source\PSoC5/isr_dma_uart_tx.c **** *
 300:.\Generated_Source\PSoC5/isr_dma_uart_tx.c **** * Parameters:
 301:.\Generated_Source\PSoC5/isr_dma_uart_tx.c **** *   None
 302:.\Generated_Source\PSoC5/isr_dma_uart_tx.c **** *
 303:.\Generated_Source\PSoC5/isr_dma_uart_tx.c **** * Return:
 304:.\Generated_Source\PSoC5/isr_dma_uart_tx.c **** *   None
 305:.\Generated_Source\PSoC5/isr_dma_uart_tx.c **** *
 306:.\Generated_Source\PSoC5/isr_dma_uart_tx.c **** *******************************************************************************/
 307:.\Generated_Source\PSoC5/isr_dma_uart_tx.c **** void isr_dma_uart_tx_Enable(void)
 308:.\Generated_Source\PSoC5/isr_dma_uart_tx.c **** {
 161              		.loc 1 308 0
 162              		.cfi_startproc
 163              		@ args = 0, pretend = 0, frame = 0
 164              		@ frame_needed = 0, uses_anonymous_args = 0
 165              		@ link register save eliminated.
 309:.\Generated_Source\PSoC5/isr_dma_uart_tx.c ****     /* Enable the general interrupt. */
 310:.\Generated_Source\PSoC5/isr_dma_uart_tx.c ****     *isr_dma_uart_tx_INTC_SET_EN = isr_dma_uart_tx__INTC_MASK;
 166              		.loc 1 310 0
 167 0000 4FF40072 		mov	r2, #512
 168 0004 014B     		ldr	r3, .L16
 169 0006 1A60     		str	r2, [r3]
 170 0008 7047     		bx	lr
 171              	.L17:
 172 000a 00BF     		.align	2
 173              	.L16:
 174 000c 00E100E0 		.word	-536813312
 175              		.cfi_endproc
 176              	.LFE8:
 177              		.size	isr_dma_uart_tx_Enable, .-isr_dma_uart_tx_Enable
 178              		.section	.text.isr_dma_uart_tx_GetState,"ax",%progbits
 179              		.align	2
 180              		.global	isr_dma_uart_tx_GetState
 181              		.thumb
 182              		.thumb_func
 183              		.type	isr_dma_uart_tx_GetState, %function
 184              	isr_dma_uart_tx_GetState:
 185              	.LFB9:
 311:.\Generated_Source\PSoC5/isr_dma_uart_tx.c **** }
 312:.\Generated_Source\PSoC5/isr_dma_uart_tx.c **** 
 313:.\Generated_Source\PSoC5/isr_dma_uart_tx.c **** 
 314:.\Generated_Source\PSoC5/isr_dma_uart_tx.c **** /*******************************************************************************
 315:.\Generated_Source\PSoC5/isr_dma_uart_tx.c **** * Function Name: isr_dma_uart_tx_GetState
 316:.\Generated_Source\PSoC5/isr_dma_uart_tx.c **** ********************************************************************************
 317:.\Generated_Source\PSoC5/isr_dma_uart_tx.c **** *
 318:.\Generated_Source\PSoC5/isr_dma_uart_tx.c **** * Summary:
 319:.\Generated_Source\PSoC5/isr_dma_uart_tx.c **** *   Gets the state (enabled, disabled) of the Interrupt.
 320:.\Generated_Source\PSoC5/isr_dma_uart_tx.c **** *
 321:.\Generated_Source\PSoC5/isr_dma_uart_tx.c **** * Parameters:
 322:.\Generated_Source\PSoC5/isr_dma_uart_tx.c **** *   None
 323:.\Generated_Source\PSoC5/isr_dma_uart_tx.c **** *
 324:.\Generated_Source\PSoC5/isr_dma_uart_tx.c **** * Return:
 325:.\Generated_Source\PSoC5/isr_dma_uart_tx.c **** *   1 if enabled, 0 if disabled.
 326:.\Generated_Source\PSoC5/isr_dma_uart_tx.c **** *
 327:.\Generated_Source\PSoC5/isr_dma_uart_tx.c **** *******************************************************************************/
 328:.\Generated_Source\PSoC5/isr_dma_uart_tx.c **** uint8 isr_dma_uart_tx_GetState(void)
ARM GAS  C:\Users\Alex\AppData\Local\Temp\ccrguawU.s 			page 10


 329:.\Generated_Source\PSoC5/isr_dma_uart_tx.c **** {
 186              		.loc 1 329 0
 187              		.cfi_startproc
 188              		@ args = 0, pretend = 0, frame = 0
 189              		@ frame_needed = 0, uses_anonymous_args = 0
 190              		@ link register save eliminated.
 330:.\Generated_Source\PSoC5/isr_dma_uart_tx.c ****     /* Get the state of the general interrupt. */
 331:.\Generated_Source\PSoC5/isr_dma_uart_tx.c ****     return ((*isr_dma_uart_tx_INTC_SET_EN & (uint32)isr_dma_uart_tx__INTC_MASK) != 0u) ? 1u:0u;
 191              		.loc 1 331 0
 192 0000 044B     		ldr	r3, .L21
 193 0002 1B68     		ldr	r3, [r3]
 194 0004 13F4007F 		tst	r3, #512
 195 0008 01D0     		beq	.L20
 196 000a 0120     		movs	r0, #1
 197 000c 7047     		bx	lr
 198              	.L20:
 199 000e 0020     		movs	r0, #0
 332:.\Generated_Source\PSoC5/isr_dma_uart_tx.c **** }
 200              		.loc 1 332 0
 201 0010 7047     		bx	lr
 202              	.L22:
 203 0012 00BF     		.align	2
 204              	.L21:
 205 0014 00E100E0 		.word	-536813312
 206              		.cfi_endproc
 207              	.LFE9:
 208              		.size	isr_dma_uart_tx_GetState, .-isr_dma_uart_tx_GetState
 209              		.section	.text.isr_dma_uart_tx_Disable,"ax",%progbits
 210              		.align	2
 211              		.global	isr_dma_uart_tx_Disable
 212              		.thumb
 213              		.thumb_func
 214              		.type	isr_dma_uart_tx_Disable, %function
 215              	isr_dma_uart_tx_Disable:
 216              	.LFB10:
 333:.\Generated_Source\PSoC5/isr_dma_uart_tx.c **** 
 334:.\Generated_Source\PSoC5/isr_dma_uart_tx.c **** 
 335:.\Generated_Source\PSoC5/isr_dma_uart_tx.c **** /*******************************************************************************
 336:.\Generated_Source\PSoC5/isr_dma_uart_tx.c **** * Function Name: isr_dma_uart_tx_Disable
 337:.\Generated_Source\PSoC5/isr_dma_uart_tx.c **** ********************************************************************************
 338:.\Generated_Source\PSoC5/isr_dma_uart_tx.c **** *
 339:.\Generated_Source\PSoC5/isr_dma_uart_tx.c **** * Summary:
 340:.\Generated_Source\PSoC5/isr_dma_uart_tx.c **** *   Disables the Interrupt in the interrupt controller.
 341:.\Generated_Source\PSoC5/isr_dma_uart_tx.c **** *
 342:.\Generated_Source\PSoC5/isr_dma_uart_tx.c **** * Parameters:
 343:.\Generated_Source\PSoC5/isr_dma_uart_tx.c **** *   None
 344:.\Generated_Source\PSoC5/isr_dma_uart_tx.c **** *
 345:.\Generated_Source\PSoC5/isr_dma_uart_tx.c **** * Return:
 346:.\Generated_Source\PSoC5/isr_dma_uart_tx.c **** *   None
 347:.\Generated_Source\PSoC5/isr_dma_uart_tx.c **** *
 348:.\Generated_Source\PSoC5/isr_dma_uart_tx.c **** *******************************************************************************/
 349:.\Generated_Source\PSoC5/isr_dma_uart_tx.c **** void isr_dma_uart_tx_Disable(void)
 350:.\Generated_Source\PSoC5/isr_dma_uart_tx.c **** {
 217              		.loc 1 350 0
 218              		.cfi_startproc
 219              		@ args = 0, pretend = 0, frame = 0
 220              		@ frame_needed = 0, uses_anonymous_args = 0
ARM GAS  C:\Users\Alex\AppData\Local\Temp\ccrguawU.s 			page 11


 221              		@ link register save eliminated.
 351:.\Generated_Source\PSoC5/isr_dma_uart_tx.c ****     /* Disable the general interrupt. */
 352:.\Generated_Source\PSoC5/isr_dma_uart_tx.c ****     *isr_dma_uart_tx_INTC_CLR_EN = isr_dma_uart_tx__INTC_MASK;
 222              		.loc 1 352 0
 223 0000 4FF40072 		mov	r2, #512
 224 0004 014B     		ldr	r3, .L24
 225 0006 1A60     		str	r2, [r3]
 226 0008 7047     		bx	lr
 227              	.L25:
 228 000a 00BF     		.align	2
 229              	.L24:
 230 000c 80E100E0 		.word	-536813184
 231              		.cfi_endproc
 232              	.LFE10:
 233              		.size	isr_dma_uart_tx_Disable, .-isr_dma_uart_tx_Disable
 234              		.section	.text.isr_dma_uart_tx_Start,"ax",%progbits
 235              		.align	2
 236              		.global	isr_dma_uart_tx_Start
 237              		.thumb
 238              		.thumb_func
 239              		.type	isr_dma_uart_tx_Start, %function
 240              	isr_dma_uart_tx_Start:
 241              	.LFB0:
  62:.\Generated_Source\PSoC5/isr_dma_uart_tx.c ****     /* For all we know the interrupt is active. */
 242              		.loc 1 62 0
 243              		.cfi_startproc
 244              		@ args = 0, pretend = 0, frame = 0
 245              		@ frame_needed = 0, uses_anonymous_args = 0
 246 0000 08B5     		push	{r3, lr}
 247              		.cfi_def_cfa_offset 8
 248              		.cfi_offset 3, -8
 249              		.cfi_offset 14, -4
  64:.\Generated_Source\PSoC5/isr_dma_uart_tx.c **** 
 250              		.loc 1 64 0
 251 0002 FFF7FEFF 		bl	isr_dma_uart_tx_Disable
 252              	.LVL8:
  67:.\Generated_Source\PSoC5/isr_dma_uart_tx.c **** 
 253              		.loc 1 67 0
 254 0006 0448     		ldr	r0, .L28
 255 0008 FFF7FEFF 		bl	isr_dma_uart_tx_SetVector
 256              	.LVL9:
  70:.\Generated_Source\PSoC5/isr_dma_uart_tx.c **** 
 257              		.loc 1 70 0
 258 000c 0720     		movs	r0, #7
 259 000e FFF7FEFF 		bl	isr_dma_uart_tx_SetPriority
 260              	.LVL10:
  73:.\Generated_Source\PSoC5/isr_dma_uart_tx.c **** }
 261              		.loc 1 73 0
 262 0012 FFF7FEFF 		bl	isr_dma_uart_tx_Enable
 263              	.LVL11:
 264 0016 08BD     		pop	{r3, pc}
 265              	.L29:
 266              		.align	2
 267              	.L28:
 268 0018 00000000 		.word	isr_dma_uart_tx_Interrupt
 269              		.cfi_endproc
 270              	.LFE0:
ARM GAS  C:\Users\Alex\AppData\Local\Temp\ccrguawU.s 			page 12


 271              		.size	isr_dma_uart_tx_Start, .-isr_dma_uart_tx_Start
 272              		.section	.text.isr_dma_uart_tx_StartEx,"ax",%progbits
 273              		.align	2
 274              		.global	isr_dma_uart_tx_StartEx
 275              		.thumb
 276              		.thumb_func
 277              		.type	isr_dma_uart_tx_StartEx, %function
 278              	isr_dma_uart_tx_StartEx:
 279              	.LFB1:
 105:.\Generated_Source\PSoC5/isr_dma_uart_tx.c ****     /* For all we know the interrupt is active. */
 280              		.loc 1 105 0
 281              		.cfi_startproc
 282              		@ args = 0, pretend = 0, frame = 0
 283              		@ frame_needed = 0, uses_anonymous_args = 0
 284              	.LVL12:
 285 0000 10B5     		push	{r4, lr}
 286              		.cfi_def_cfa_offset 8
 287              		.cfi_offset 4, -8
 288              		.cfi_offset 14, -4
 289 0002 0446     		mov	r4, r0
 107:.\Generated_Source\PSoC5/isr_dma_uart_tx.c **** 
 290              		.loc 1 107 0
 291 0004 FFF7FEFF 		bl	isr_dma_uart_tx_Disable
 292              	.LVL13:
 110:.\Generated_Source\PSoC5/isr_dma_uart_tx.c **** 
 293              		.loc 1 110 0
 294 0008 2046     		mov	r0, r4
 295 000a FFF7FEFF 		bl	isr_dma_uart_tx_SetVector
 296              	.LVL14:
 113:.\Generated_Source\PSoC5/isr_dma_uart_tx.c **** 
 297              		.loc 1 113 0
 298 000e 0720     		movs	r0, #7
 299 0010 FFF7FEFF 		bl	isr_dma_uart_tx_SetPriority
 300              	.LVL15:
 116:.\Generated_Source\PSoC5/isr_dma_uart_tx.c **** }
 301              		.loc 1 116 0
 302 0014 FFF7FEFF 		bl	isr_dma_uart_tx_Enable
 303              	.LVL16:
 304 0018 10BD     		pop	{r4, pc}
 305              		.cfi_endproc
 306              	.LFE1:
 307              		.size	isr_dma_uart_tx_StartEx, .-isr_dma_uart_tx_StartEx
 308 001a 00BF     		.section	.text.isr_dma_uart_tx_Stop,"ax",%progbits
 309              		.align	2
 310              		.global	isr_dma_uart_tx_Stop
 311              		.thumb
 312              		.thumb_func
 313              		.type	isr_dma_uart_tx_Stop, %function
 314              	isr_dma_uart_tx_Stop:
 315              	.LFB2:
 135:.\Generated_Source\PSoC5/isr_dma_uart_tx.c ****     /* Disable this interrupt. */
 316              		.loc 1 135 0
 317              		.cfi_startproc
 318              		@ args = 0, pretend = 0, frame = 0
 319              		@ frame_needed = 0, uses_anonymous_args = 0
 320 0000 08B5     		push	{r3, lr}
 321              		.cfi_def_cfa_offset 8
ARM GAS  C:\Users\Alex\AppData\Local\Temp\ccrguawU.s 			page 13


 322              		.cfi_offset 3, -8
 323              		.cfi_offset 14, -4
 137:.\Generated_Source\PSoC5/isr_dma_uart_tx.c **** 
 324              		.loc 1 137 0
 325 0002 FFF7FEFF 		bl	isr_dma_uart_tx_Disable
 326              	.LVL17:
 140:.\Generated_Source\PSoC5/isr_dma_uart_tx.c **** }
 327              		.loc 1 140 0
 328 0006 0248     		ldr	r0, .L34
 329 0008 FFF7FEFF 		bl	isr_dma_uart_tx_SetVector
 330              	.LVL18:
 331 000c 08BD     		pop	{r3, pc}
 332              	.L35:
 333 000e 00BF     		.align	2
 334              	.L34:
 335 0010 00000000 		.word	IntDefaultHandler
 336              		.cfi_endproc
 337              	.LFE2:
 338              		.size	isr_dma_uart_tx_Stop, .-isr_dma_uart_tx_Stop
 339              		.section	.text.isr_dma_uart_tx_SetPending,"ax",%progbits
 340              		.align	2
 341              		.global	isr_dma_uart_tx_SetPending
 342              		.thumb
 343              		.thumb_func
 344              		.type	isr_dma_uart_tx_SetPending, %function
 345              	isr_dma_uart_tx_SetPending:
 346              	.LFB11:
 353:.\Generated_Source\PSoC5/isr_dma_uart_tx.c **** }
 354:.\Generated_Source\PSoC5/isr_dma_uart_tx.c **** 
 355:.\Generated_Source\PSoC5/isr_dma_uart_tx.c **** 
 356:.\Generated_Source\PSoC5/isr_dma_uart_tx.c **** /*******************************************************************************
 357:.\Generated_Source\PSoC5/isr_dma_uart_tx.c **** * Function Name: isr_dma_uart_tx_SetPending
 358:.\Generated_Source\PSoC5/isr_dma_uart_tx.c **** ********************************************************************************
 359:.\Generated_Source\PSoC5/isr_dma_uart_tx.c **** *
 360:.\Generated_Source\PSoC5/isr_dma_uart_tx.c **** * Summary:
 361:.\Generated_Source\PSoC5/isr_dma_uart_tx.c **** *   Causes the Interrupt to enter the pending state, a software method of
 362:.\Generated_Source\PSoC5/isr_dma_uart_tx.c **** *   generating the interrupt.
 363:.\Generated_Source\PSoC5/isr_dma_uart_tx.c **** *
 364:.\Generated_Source\PSoC5/isr_dma_uart_tx.c **** * Parameters:
 365:.\Generated_Source\PSoC5/isr_dma_uart_tx.c **** *   None
 366:.\Generated_Source\PSoC5/isr_dma_uart_tx.c **** *
 367:.\Generated_Source\PSoC5/isr_dma_uart_tx.c **** * Return:
 368:.\Generated_Source\PSoC5/isr_dma_uart_tx.c **** *   None
 369:.\Generated_Source\PSoC5/isr_dma_uart_tx.c **** *
 370:.\Generated_Source\PSoC5/isr_dma_uart_tx.c **** * Side Effects:
 371:.\Generated_Source\PSoC5/isr_dma_uart_tx.c **** *   If interrupts are enabled and the interrupt is set up properly, the ISR is
 372:.\Generated_Source\PSoC5/isr_dma_uart_tx.c **** *   entered (depending on the priority of this interrupt and other pending 
 373:.\Generated_Source\PSoC5/isr_dma_uart_tx.c **** *   interrupts).
 374:.\Generated_Source\PSoC5/isr_dma_uart_tx.c **** *
 375:.\Generated_Source\PSoC5/isr_dma_uart_tx.c **** *******************************************************************************/
 376:.\Generated_Source\PSoC5/isr_dma_uart_tx.c **** void isr_dma_uart_tx_SetPending(void)
 377:.\Generated_Source\PSoC5/isr_dma_uart_tx.c **** {
 347              		.loc 1 377 0
 348              		.cfi_startproc
 349              		@ args = 0, pretend = 0, frame = 0
 350              		@ frame_needed = 0, uses_anonymous_args = 0
 351              		@ link register save eliminated.
ARM GAS  C:\Users\Alex\AppData\Local\Temp\ccrguawU.s 			page 14


 378:.\Generated_Source\PSoC5/isr_dma_uart_tx.c ****     *isr_dma_uart_tx_INTC_SET_PD = isr_dma_uart_tx__INTC_MASK;
 352              		.loc 1 378 0
 353 0000 4FF40072 		mov	r2, #512
 354 0004 014B     		ldr	r3, .L37
 355 0006 1A60     		str	r2, [r3]
 356 0008 7047     		bx	lr
 357              	.L38:
 358 000a 00BF     		.align	2
 359              	.L37:
 360 000c 00E200E0 		.word	-536813056
 361              		.cfi_endproc
 362              	.LFE11:
 363              		.size	isr_dma_uart_tx_SetPending, .-isr_dma_uart_tx_SetPending
 364              		.section	.text.isr_dma_uart_tx_ClearPending,"ax",%progbits
 365              		.align	2
 366              		.global	isr_dma_uart_tx_ClearPending
 367              		.thumb
 368              		.thumb_func
 369              		.type	isr_dma_uart_tx_ClearPending, %function
 370              	isr_dma_uart_tx_ClearPending:
 371              	.LFB12:
 379:.\Generated_Source\PSoC5/isr_dma_uart_tx.c **** }
 380:.\Generated_Source\PSoC5/isr_dma_uart_tx.c **** 
 381:.\Generated_Source\PSoC5/isr_dma_uart_tx.c **** 
 382:.\Generated_Source\PSoC5/isr_dma_uart_tx.c **** /*******************************************************************************
 383:.\Generated_Source\PSoC5/isr_dma_uart_tx.c **** * Function Name: isr_dma_uart_tx_ClearPending
 384:.\Generated_Source\PSoC5/isr_dma_uart_tx.c **** ********************************************************************************
 385:.\Generated_Source\PSoC5/isr_dma_uart_tx.c **** *
 386:.\Generated_Source\PSoC5/isr_dma_uart_tx.c **** * Summary:
 387:.\Generated_Source\PSoC5/isr_dma_uart_tx.c **** *   Clears a pending interrupt in the interrupt controller.
 388:.\Generated_Source\PSoC5/isr_dma_uart_tx.c **** *
 389:.\Generated_Source\PSoC5/isr_dma_uart_tx.c **** *   Note Some interrupt sources are clear-on-read and require the block 
 390:.\Generated_Source\PSoC5/isr_dma_uart_tx.c **** *   interrupt/status register to be read/cleared with the appropriate block API 
 391:.\Generated_Source\PSoC5/isr_dma_uart_tx.c **** *   (GPIO, UART, and so on). Otherwise the ISR will continue to remain in 
 392:.\Generated_Source\PSoC5/isr_dma_uart_tx.c **** *   pending state even though the interrupt itself is cleared using this API.
 393:.\Generated_Source\PSoC5/isr_dma_uart_tx.c **** *
 394:.\Generated_Source\PSoC5/isr_dma_uart_tx.c **** * Parameters:
 395:.\Generated_Source\PSoC5/isr_dma_uart_tx.c **** *   None
 396:.\Generated_Source\PSoC5/isr_dma_uart_tx.c **** *
 397:.\Generated_Source\PSoC5/isr_dma_uart_tx.c **** * Return:
 398:.\Generated_Source\PSoC5/isr_dma_uart_tx.c **** *   None
 399:.\Generated_Source\PSoC5/isr_dma_uart_tx.c **** *
 400:.\Generated_Source\PSoC5/isr_dma_uart_tx.c **** *******************************************************************************/
 401:.\Generated_Source\PSoC5/isr_dma_uart_tx.c **** void isr_dma_uart_tx_ClearPending(void)
 402:.\Generated_Source\PSoC5/isr_dma_uart_tx.c **** {
 372              		.loc 1 402 0
 373              		.cfi_startproc
 374              		@ args = 0, pretend = 0, frame = 0
 375              		@ frame_needed = 0, uses_anonymous_args = 0
 376              		@ link register save eliminated.
 403:.\Generated_Source\PSoC5/isr_dma_uart_tx.c ****     *isr_dma_uart_tx_INTC_CLR_PD = isr_dma_uart_tx__INTC_MASK;
 377              		.loc 1 403 0
 378 0000 4FF40072 		mov	r2, #512
 379 0004 014B     		ldr	r3, .L40
 380 0006 1A60     		str	r2, [r3]
 381 0008 7047     		bx	lr
 382              	.L41:
ARM GAS  C:\Users\Alex\AppData\Local\Temp\ccrguawU.s 			page 15


 383 000a 00BF     		.align	2
 384              	.L40:
 385 000c 80E200E0 		.word	-536812928
 386              		.cfi_endproc
 387              	.LFE12:
 388              		.size	isr_dma_uart_tx_ClearPending, .-isr_dma_uart_tx_ClearPending
 389              		.text
 390              	.Letext0:
 391              		.file 2 "Generated_Source\\PSoC5/cytypes.h"
 392              		.file 3 "./cyapicallbacks.h"