ARM GAS  C:\Users\Alex\AppData\Local\Temp\ccp7RdNJ.s 			page 1


   1              		.syntax unified
   2              		.cpu cortex-m3
   3              		.fpu softvfp
   4              		.eabi_attribute 20, 1
   5              		.eabi_attribute 21, 1
   6              		.eabi_attribute 23, 3
   7              		.eabi_attribute 24, 1
   8              		.eabi_attribute 25, 1
   9              		.eabi_attribute 26, 1
  10              		.eabi_attribute 30, 1
  11              		.eabi_attribute 34, 1
  12              		.eabi_attribute 18, 4
  13              		.thumb
  14              		.file	"misc.c"
  15              		.text
  16              	.Ltext0:
  17              		.cfi_sections	.debug_frame
  18              		.global _printf_float
  19              		.thumb
  20              		.section	.text.timebase_1s,"ax",%progbits
  21              		.align	2
  22              		.global	timebase_1s
  23              		.thumb
  24              		.thumb_func
  25              		.type	timebase_1s, %function
  26              	timebase_1s:
  27              	.LFB63:
  28              		.file 1 "..\\src\\misc.c"
   1:..\src/misc.c **** //****************************************************************************
   2:..\src/misc.c **** // MIT Media Lab - Biomechatronics
   3:..\src/misc.c **** // Jean-Francois (Jeff) Duval
   4:..\src/misc.c **** // jfduval@mit.edu
   5:..\src/misc.c **** // 09/2015
   6:..\src/misc.c **** //****************************************************************************
   7:..\src/misc.c **** // misc: when it doesn't belong in any another file, it ends up here...
   8:..\src/misc.c **** //****************************************************************************
   9:..\src/misc.c **** 
  10:..\src/misc.c **** //Note: It's a sign that code is misplaced when this file gets long.
  11:..\src/misc.c **** 
  12:..\src/misc.c **** //****************************************************************************
  13:..\src/misc.c **** // Include(s)
  14:..\src/misc.c **** //****************************************************************************
  15:..\src/misc.c **** 
  16:..\src/misc.c **** #include "main.h"
  17:..\src/misc.c **** #include "misc.h"
  18:..\src/misc.c **** 
  19:..\src/misc.c **** //****************************************************************************
  20:..\src/misc.c **** // Variable(s)
  21:..\src/misc.c **** //****************************************************************************
  22:..\src/misc.c **** 
  23:..\src/misc.c **** //Timers:
  24:..\src/misc.c **** volatile uint8 t1_100us_flag = 0;
  25:..\src/misc.c **** volatile uint8 t1_time_share = 0, t1_new_value = 0;
  26:..\src/misc.c **** 
  27:..\src/misc.c **** //ADC:
  28:..\src/misc.c **** uint8 adc_sar1_flag = 0;
  29:..\src/misc.c **** volatile uint8 adc_delsig_flag = 0;
ARM GAS  C:\Users\Alex\AppData\Local\Temp\ccp7RdNJ.s 			page 2


  30:..\src/misc.c **** 
  31:..\src/misc.c **** //UART:
  32:..\src/misc.c **** volatile uint8 data_ready_485 = 0;
  33:..\src/misc.c **** 
  34:..\src/misc.c **** //USB:
  35:..\src/misc.c **** volatile uint8 data_ready_usb = 0;
  36:..\src/misc.c **** 
  37:..\src/misc.c **** //AS5047 Magnetic Encoder:
  38:..\src/misc.c **** uint16 last_as5047_word = 0;
  39:..\src/misc.c **** 
  40:..\src/misc.c **** //****************************************************************************
  41:..\src/misc.c **** // Private Function Prototype(s):
  42:..\src/misc.c **** //****************************************************************************
  43:..\src/misc.c **** 
  44:..\src/misc.c **** 
  45:..\src/misc.c **** //****************************************************************************
  46:..\src/misc.c **** // Public Function(s)
  47:..\src/misc.c **** //****************************************************************************
  48:..\src/misc.c **** 
  49:..\src/misc.c **** //Call this function in the 1kHz FSM. It will return 1 every second.
  50:..\src/misc.c **** uint8 timebase_1s(void)
  51:..\src/misc.c **** {
  29              		.loc 1 51 0
  30              		.cfi_startproc
  31              		@ args = 0, pretend = 0, frame = 0
  32              		@ frame_needed = 0, uses_anonymous_args = 0
  33              		@ link register save eliminated.
  52:..\src/misc.c **** 	static uint16 time = 0;
  53:..\src/misc.c **** 	
  54:..\src/misc.c **** 	time++;
  34              		.loc 1 54 0
  35 0000 074A     		ldr	r2, .L4
  36 0002 1388     		ldrh	r3, [r2]
  37 0004 0133     		adds	r3, r3, #1
  38 0006 9BB2     		uxth	r3, r3
  39 0008 1380     		strh	r3, [r2]	@ movhi
  55:..\src/misc.c **** 	if(time >= 999)
  40              		.loc 1 55 0
  41 000a 40F2E632 		movw	r2, #998
  42 000e 9342     		cmp	r3, r2
  43 0010 04D9     		bls	.L3
  56:..\src/misc.c **** 	{
  57:..\src/misc.c **** 		time = 0;
  44              		.loc 1 57 0
  45 0012 0022     		movs	r2, #0
  46 0014 024B     		ldr	r3, .L4
  47 0016 1A80     		strh	r2, [r3]	@ movhi
  58:..\src/misc.c **** 		return 1;
  48              		.loc 1 58 0
  49 0018 0120     		movs	r0, #1
  50 001a 7047     		bx	lr
  51              	.L3:
  59:..\src/misc.c **** 	}
  60:..\src/misc.c **** 	
  61:..\src/misc.c **** 	return 0;
  52              		.loc 1 61 0
  53 001c 0020     		movs	r0, #0
ARM GAS  C:\Users\Alex\AppData\Local\Temp\ccp7RdNJ.s 			page 3


  62:..\src/misc.c **** }
  54              		.loc 1 62 0
  55 001e 7047     		bx	lr
  56              	.L5:
  57              		.align	2
  58              	.L4:
  59 0020 00000000 		.word	.LANCHOR0
  60              		.cfi_endproc
  61              	.LFE63:
  62              		.size	timebase_1s, .-timebase_1s
  63              		.section	.text.test_code_blocking,"ax",%progbits
  64              		.align	2
  65              		.global	test_code_blocking
  66              		.thumb
  67              		.thumb_func
  68              		.type	test_code_blocking, %function
  69              	test_code_blocking:
  70              	.LFB64:
  63:..\src/misc.c **** 
  64:..\src/misc.c **** void test_code_blocking(void)
  65:..\src/misc.c **** {
  71              		.loc 1 65 0
  72              		.cfi_startproc
  73              		@ args = 0, pretend = 0, frame = 0
  74              		@ frame_needed = 0, uses_anonymous_args = 0
  75              		@ link register save eliminated.
  76 0000 7047     		bx	lr
  77              		.cfi_endproc
  78              	.LFE64:
  79              		.size	test_code_blocking, .-test_code_blocking
  80 0002 00BF     		.section	.text.test_code_non_blocking,"ax",%progbits
  81              		.align	2
  82              		.global	test_code_non_blocking
  83              		.thumb
  84              		.thumb_func
  85              		.type	test_code_non_blocking, %function
  86              	test_code_non_blocking:
  87              	.LFB65:
  66:..\src/misc.c **** 	//=-=-=-=-=-=-=-=-=-=-=-=-=-=-=-=-=-=-=-=-=-=-=-=-=-=-=-=-=-=-
  67:..\src/misc.c **** 	//Blocking Test code - enable one and only one for special 
  68:..\src/misc.c **** 	//debugging. Normal code WILL NOT EXECUTE when this is enabled!
  69:..\src/misc.c **** 	//=-=-=-=-=-=-=-=-=-=-=-=-=-=-=-=-=-=-=-=-=-=-=-=-=-=-=-=-=-=-=
  70:..\src/misc.c **** 	//strain_test_blocking();
  71:..\src/misc.c **** 	//safety_cop_comm_test_blocking();
  72:..\src/misc.c **** 	//imu_test_code_blocking();
  73:..\src/misc.c **** 	//motor_fixed_pwm_test_code_blocking(200);
  74:..\src/misc.c **** 	//wdclk_test_blocking();
  75:..\src/misc.c **** 	//timing_test_blocking();
  76:..\src/misc.c **** 	//test_current_tracking_blocking();
  77:..\src/misc.c **** 	//test_pwm_pulse_blocking();
  78:..\src/misc.c **** 	//test_uart_dma_xmit();
  79:..\src/misc.c **** 	//motor_cancel_damping_test_code_blocking();
  80:..\src/misc.c **** 	//csea_knee_up_down_test_demo();
  81:..\src/misc.c **** 	//motor_stepper_test_blocking_1(80);
  82:..\src/misc.c **** 	//test_pwro_output_blocking();
  83:..\src/misc.c **** 	//strain_amp_6ch_test_code_blocking();
  84:..\src/misc.c **** 	//as5047_test_code_blocking();
ARM GAS  C:\Users\Alex\AppData\Local\Temp\ccp7RdNJ.s 			page 4


  85:..\src/misc.c **** 	//as5048b_test_code_blocking();
  86:..\src/misc.c **** 	//=-=-=-=-=-=-=-=-=-=-=-=-=-=-=-=-=-=-=-=-=-=-=-=-=-=-=-=-=-=-=	
  87:..\src/misc.c **** }
  88:..\src/misc.c **** 
  89:..\src/misc.c **** void test_code_non_blocking(void)
  90:..\src/misc.c **** {
  88              		.loc 1 90 0
  89              		.cfi_startproc
  90              		@ args = 0, pretend = 0, frame = 0
  91              		@ frame_needed = 0, uses_anonymous_args = 0
  92              		@ link register save eliminated.
  93 0000 7047     		bx	lr
  94              		.cfi_endproc
  95              	.LFE65:
  96              		.size	test_code_non_blocking, .-test_code_non_blocking
  97 0002 00BF     		.section	.text.timing_test_blocking,"ax",%progbits
  98              		.align	2
  99              		.global	timing_test_blocking
 100              		.thumb
 101              		.thumb_func
 102              		.type	timing_test_blocking, %function
 103              	timing_test_blocking:
 104              	.LFB66:
  91:..\src/misc.c **** 	//=-=-=-=-=-=-=-=-=-=-=-=-=-=-=-=-=-=-=-=-=-=-=-=-=-=-=-=-=-=-=
  92:..\src/misc.c **** 	//Non-Blocking Test code
  93:..\src/misc.c **** 	//=-=-=-=-=-=-=-=-=-=-=-=-=-=-=-=-=-=-=-=-=-=-=-=-=-=-=-=-=-=-=
  94:..\src/misc.c **** 	#ifdef USE_SPI_COMMUT		
  95:..\src/misc.c **** 	motor_stepper_test_init(0);
  96:..\src/misc.c **** 	//Note: deadtime is 55, small PWM values won't make it move.
  97:..\src/misc.c **** 	//Starting at 0, GUI will change that when it wants.	
  98:..\src/misc.c **** 	#endif	//USE_SPI_COMMUT	
  99:..\src/misc.c **** 	//motor_fixed_pwm_test_code_non_blocking(125);
 100:..\src/misc.c **** 	//pwro_output(245);	
 101:..\src/misc.c **** 	//=-=-=-=-=-=-=-=-=-=-=-=-=-=-=-=-=-=-=-=-=-=-=-=-=-=-=-=-=-=-=		
 102:..\src/misc.c **** }
 103:..\src/misc.c **** 
 104:..\src/misc.c **** //****************************************************************************
 105:..\src/misc.c **** // Private Function(s)
 106:..\src/misc.c **** //****************************************************************************
 107:..\src/misc.c **** 
 108:..\src/misc.c **** //****************************************************************************
 109:..\src/misc.c **** // Test Function(s) - Use with care!
 110:..\src/misc.c **** //****************************************************************************
 111:..\src/misc.c **** 
 112:..\src/misc.c **** //****************************************************************************
 113:..\src/misc.c **** // Deprecated Function(s)
 114:..\src/misc.c **** //****************************************************************************
 115:..\src/misc.c **** 
 116:..\src/misc.c **** //Important: this code relies on external pins that are mapped to other functions!
 117:..\src/misc.c **** //rewrite or delete
 118:..\src/misc.c **** 
 119:..\src/misc.c **** //How long does it take to run X function? Use this code and a scope to find out.
 120:..\src/misc.c **** void timing_test_blocking(void)
 121:..\src/misc.c **** {
 105              		.loc 1 121 0
 106              		.cfi_startproc
 107              		@ Volatile: function does not return.
ARM GAS  C:\Users\Alex\AppData\Local\Temp\ccp7RdNJ.s 			page 5


 108              		@ args = 0, pretend = 0, frame = 0
 109              		@ frame_needed = 0, uses_anonymous_args = 0
 110              		.loc 1 121 0
 111 0000 08B5     		push	{r3, lr}
 112              		.cfi_def_cfa_offset 8
 113              		.cfi_offset 3, -8
 114              		.cfi_offset 14, -4
 122:..\src/misc.c **** 	//Disable Global Interrupts
 123:..\src/misc.c ****     CyGlobalIntDisable; 
 115              		.loc 1 123 0
 116              	@ 123 "..\src\misc.c" 1
 117 0002 72B6     		CPSID   i
 118              	@ 0 "" 2
 119              		.thumb
 120              	.L9:
 124:..\src/misc.c **** 	
 125:..\src/misc.c **** 	while(1)
 126:..\src/misc.c **** 	{
 127:..\src/misc.c **** 		//Synch sequence
 128:..\src/misc.c **** 		/*
 129:..\src/misc.c **** 		EXP9_Write(1);
 130:..\src/misc.c **** 		EXP8_Write(0);
 131:..\src/misc.c **** 		EXP8_Write(1);
 132:..\src/misc.c **** 		EXP8_Write(0);
 133:..\src/misc.c **** 		EXP8_Write(1);
 134:..\src/misc.c **** 		EXP8_Write(0);
 135:..\src/misc.c **** 		*/
 136:..\src/misc.c **** 		
 137:..\src/misc.c **** 		CyDelayUs(SDELAY);
 121              		.loc 1 137 0 discriminator 1
 122 0004 0520     		movs	r0, #5
 123 0006 FFF7FEFF 		bl	CyDelayUs
 124              	.LVL0:
 138:..\src/misc.c **** 		
 139:..\src/misc.c **** 		//Motor current PID
 140:..\src/misc.c **** 		//EXP8_Write(1);
 141:..\src/misc.c **** 		motor_current_pid(ctrl.current.setpoint_val, ctrl.current.actual_val);
 125              		.loc 1 141 0 discriminator 1
 126 000a 064C     		ldr	r4, .L11
 127 000c A06B     		ldr	r0, [r4, #56]
 128 000e 616B     		ldr	r1, [r4, #52]
 129 0010 FFF7FEFF 		bl	motor_current_pid
 130              	.LVL1:
 142:..\src/misc.c **** 		//EXP8_Write(0);
 143:..\src/misc.c **** 		
 144:..\src/misc.c **** 		//Motor current PID #2
 145:..\src/misc.c **** 		//EXP8_Write(1);
 146:..\src/misc.c **** 		motor_current_pid_2(ctrl.current.setpoint_val, ctrl.current.actual_val);
 131              		.loc 1 146 0 discriminator 1
 132 0014 A06B     		ldr	r0, [r4, #56]
 133 0016 616B     		ldr	r1, [r4, #52]
 134 0018 FFF7FEFF 		bl	motor_current_pid_2
 135              	.LVL2:
 147:..\src/misc.c **** 		//EXP8_Write(0);
 148:..\src/misc.c **** 		
 149:..\src/misc.c **** 		//Exit sequence:
 150:..\src/misc.c **** 		//EXP9_Write(0);
ARM GAS  C:\Users\Alex\AppData\Local\Temp\ccp7RdNJ.s 			page 6


 151:..\src/misc.c **** 		CyDelayUs(10*SDELAY);
 136              		.loc 1 151 0 discriminator 1
 137 001c 3220     		movs	r0, #50
 138 001e FFF7FEFF 		bl	CyDelayUs
 139              	.LVL3:
 152:..\src/misc.c **** 		
 153:..\src/misc.c **** 		/*
 154:..\src/misc.c **** 		
 155:..\src/misc.c **** 		//SAR ADC filter
 156:..\src/misc.c **** 		EXP8_Write(1);
 157:..\src/misc.c **** 		filter_adc();
 158:..\src/misc.c **** 		EXP8_Write(0);
 159:..\src/misc.c **** 		
 160:..\src/misc.c **** 		//DelSig ADC filter
 161:..\src/misc.c **** 		EXP8_Write(1);
 162:..\src/misc.c **** 		strain_filter_dma();
 163:..\src/misc.c **** 		EXP8_Write(0);
 164:..\src/misc.c **** 		
 165:..\src/misc.c **** 		//Unpack payload (no data in the buffer)
 166:..\src/misc.c **** 		EXP8_Write(1);
 167:..\src/misc.c **** 		unpack_payload_485_1();
 168:..\src/misc.c **** 		EXP8_Write(0);
 169:..\src/misc.c **** 		
 170:..\src/misc.c **** 		//Exit sequence:
 171:..\src/misc.c **** 		EXP9_Write(0);
 172:..\src/misc.c **** 		CyDelayUs(10*SDELAY);
 173:..\src/misc.c **** 		*/
 174:..\src/misc.c **** 		
 175:..\src/misc.c **** 		/*
 176:..\src/misc.c **** 		//Position controller
 177:..\src/misc.c **** 		EXP8_Write(1);
 178:..\src/misc.c **** 		motor_position_pid(ctrl.position.setpoint_val, ctrl.position.actual_val);
 179:..\src/misc.c **** 		EXP8_Write(0);
 180:..\src/misc.c **** 		
 181:..\src/misc.c **** 		CyDelayUs(SDELAY);
 182:..\src/misc.c **** 		
 183:..\src/misc.c **** 		//Impedance controller:
 184:..\src/misc.c **** 		EXP8_Write(1);
 185:..\src/misc.c **** 		motor_impedance_encoder(ctrl.impedance.setpoint_val, ctrl.impedance.actual_val);
 186:..\src/misc.c **** 		EXP8_Write(0);
 187:..\src/misc.c **** 		
 188:..\src/misc.c **** 		CyDelayUs(SDELAY);
 189:..\src/misc.c **** 		
 190:..\src/misc.c **** 		//RGB LED UI:
 191:..\src/misc.c **** 		EXP8_Write(1);
 192:..\src/misc.c **** 		rgb_led_ui(1, 1, 1, 1);
 193:..\src/misc.c **** 		EXP8_Write(0);
 194:..\src/misc.c **** 
 195:..\src/misc.c **** 		//Exit sequence:
 196:..\src/misc.c **** 		EXP9_Write(0);
 197:..\src/misc.c **** 		CyDelayUs(10*SDELAY);
 198:..\src/misc.c **** 		*/
 199:..\src/misc.c **** 		
 200:..\src/misc.c **** 		/*
 201:..\src/misc.c **** 		filter_adc();
 202:..\src/misc.c **** 		
 203:..\src/misc.c **** 		strain_filter_dma();
ARM GAS  C:\Users\Alex\AppData\Local\Temp\ccp7RdNJ.s 			page 7


 204:..\src/misc.c **** 		*/
 205:..\src/misc.c **** 		
 206:..\src/misc.c **** 		/*
 207:..\src/misc.c **** 		unpack_payload_485_1();
 208:..\src/misc.c **** 	
 209:..\src/misc.c **** 		//Valid communication from RS-485 #1?
 210:..\src/misc.c **** 		if(cmd_ready_485_1 != 0)
 211:..\src/misc.c **** 		{
 212:..\src/misc.c **** 			cmd_ready_485_1 = 0;
 213:..\src/misc.c **** 			
 214:..\src/misc.c **** 			//Cheap trick to get first line	//ToDo: support more than 1
 215:..\src/misc.c **** 			for(i = 0; i < PAYLOAD_BUF_LEN; i++)
 216:..\src/misc.c **** 			{
 217:..\src/misc.c **** 				tmp_rx_command_485_1[i] = rx_command_485_1[0][i];
 218:..\src/misc.c **** 			}
 219:..\src/misc.c **** 			
 220:..\src/misc.c **** 			//payload_parse_str() calls the functions (if valid)
 221:..\src/misc.c **** 			result = payload_parse_str(tmp_rx_command_485_1);
 222:..\src/misc.c **** 			
 223:..\src/misc.c **** 			//LED:
 224:..\src/misc.c **** 			new_cmd_led = 1;
 225:..\src/misc.c **** 		}
 226:..\src/misc.c **** 		*/
 227:..\src/misc.c **** 	}
 140              		.loc 1 227 0 discriminator 1
 141 0022 EFE7     		b	.L9
 142              	.L12:
 143              		.align	2
 144              	.L11:
 145 0024 00000000 		.word	ctrl
 146              		.cfi_endproc
 147              	.LFE66:
 148              		.size	timing_test_blocking, .-timing_test_blocking
 149              		.global	last_as5047_word
 150              		.global	data_ready_usb
 151              		.global	data_ready_485
 152              		.global	adc_delsig_flag
 153              		.global	adc_sar1_flag
 154              		.global	t1_new_value
 155              		.global	t1_time_share
 156              		.global	t1_100us_flag
 157              		.bss
 158              		.align	1
 159              		.set	.LANCHOR0,. + 0
 160              		.type	time.10479, %object
 161              		.size	time.10479, 2
 162              	time.10479:
 163 0000 0000     		.space	2
 164              		.type	last_as5047_word, %object
 165              		.size	last_as5047_word, 2
 166              	last_as5047_word:
 167 0002 0000     		.space	2
 168              		.type	data_ready_usb, %object
 169              		.size	data_ready_usb, 1
 170              	data_ready_usb:
 171 0004 00       		.space	1
 172              		.type	data_ready_485, %object
ARM GAS  C:\Users\Alex\AppData\Local\Temp\ccp7RdNJ.s 			page 8


 173              		.size	data_ready_485, 1
 174              	data_ready_485:
 175 0005 00       		.space	1
 176              		.type	adc_delsig_flag, %object
 177              		.size	adc_delsig_flag, 1
 178              	adc_delsig_flag:
 179 0006 00       		.space	1
 180              		.type	adc_sar1_flag, %object
 181              		.size	adc_sar1_flag, 1
 182              	adc_sar1_flag:
 183 0007 00       		.space	1
 184              		.type	t1_new_value, %object
 185              		.size	t1_new_value, 1
 186              	t1_new_value:
 187 0008 00       		.space	1
 188              		.type	t1_time_share, %object
 189              		.size	t1_time_share, 1
 190              	t1_time_share:
 191 0009 00       		.space	1
 192              		.type	t1_100us_flag, %object
 193              		.size	t1_100us_flag, 1
 194              	t1_100us_flag:
 195 000a 00       		.space	1
 196 000b 00       		.text
 197              	.Letext0:
 198              		.file 2 "c:\\program files (x86)\\cypress\\psoc creator\\3.3\\psoc creator\\import\\gnu\\arm\\4.9.
 199              		.file 3 "c:\\program files (x86)\\cypress\\psoc creator\\3.3\\psoc creator\\import\\gnu\\arm\\4.9.
 200              		.file 4 "Generated_Source\\PSoC5/cytypes.h"
 201              		.file 5 "..\\inc/../../flexsea-system/inc/flexsea_cmd_control.h"
 202              		.file 6 "Generated_Source\\PSoC5/core_cm3.h"
 203              		.file 7 "..\\inc/control.h"
 204              		.file 8 "Generated_Source\\PSoC5/CyLib.h"