ARM GAS  C:\Users\Alex\AppData\Local\Temp\ccNDsoZ7.s 			page 1


   1              		.syntax unified
   2              		.cpu cortex-m3
   3              		.fpu softvfp
   4              		.eabi_attribute 20, 1
   5              		.eabi_attribute 21, 1
   6              		.eabi_attribute 23, 3
   7              		.eabi_attribute 24, 1
   8              		.eabi_attribute 25, 1
   9              		.eabi_attribute 26, 1
  10              		.eabi_attribute 30, 1
  11              		.eabi_attribute 34, 1
  12              		.eabi_attribute 18, 4
  13              		.thumb
  14              		.file	"peripherals.c"
  15              		.text
  16              	.Ltext0:
  17              		.cfi_sections	.debug_frame
  18              		.global _printf_float
  19              		.thumb
  20              		.section	.text.init_tb_timers,"ax",%progbits
  21              		.align	2
  22              		.global	init_tb_timers
  23              		.thumb
  24              		.thumb_func
  25              		.type	init_tb_timers, %function
  26              	init_tb_timers:
  27              	.LFB64:
  28              		.file 1 "..\\src\\peripherals.c"
   1:..\src/peripherals.c **** //****************************************************************************
   2:..\src/peripherals.c **** // MIT Media Lab - Biomechatronics
   3:..\src/peripherals.c **** // Jean-Francois (Jeff) Duval
   4:..\src/peripherals.c **** // jfduval@mit.edu
   5:..\src/peripherals.c **** // 02/2015
   6:..\src/peripherals.c **** //****************************************************************************
   7:..\src/peripherals.c **** // peripherals: code for the general peripheral modules
   8:..\src/peripherals.c **** //****************************************************************************
   9:..\src/peripherals.c **** 
  10:..\src/peripherals.c **** //Note:  many init_x() functions are included in other files to keep a logical
  11:..\src/peripherals.c **** // organization. Place them here if they are not specific to one file.
  12:..\src/peripherals.c **** 
  13:..\src/peripherals.c **** //****************************************************************************
  14:..\src/peripherals.c **** // Include(s)
  15:..\src/peripherals.c **** //****************************************************************************
  16:..\src/peripherals.c **** 
  17:..\src/peripherals.c **** #include "main.h"
  18:..\src/peripherals.c **** #include "peripherals.h"
  19:..\src/peripherals.c **** 
  20:..\src/peripherals.c **** //****************************************************************************
  21:..\src/peripherals.c **** // Variable(s)
  22:..\src/peripherals.c **** //****************************************************************************
  23:..\src/peripherals.c **** 
  24:..\src/peripherals.c **** uint8 uart_dma_rx_buf[96];	//ToDo #define
  25:..\src/peripherals.c **** uint8 uart_dma_rx_buf_unwrapped[96];
  26:..\src/peripherals.c **** uint8 uart_dma_tx_buf[96];
  27:..\src/peripherals.c **** uint8 DMA_4_Chan;
  28:..\src/peripherals.c **** uint8 DMA_4_TD[1];
  29:..\src/peripherals.c **** uint8 gui_fsm_flag = DISABLED;
ARM GAS  C:\Users\Alex\AppData\Local\Temp\ccNDsoZ7.s 			page 2


  30:..\src/peripherals.c **** 
  31:..\src/peripherals.c **** //****************************************************************************
  32:..\src/peripherals.c **** // Function(s)
  33:..\src/peripherals.c **** //****************************************************************************
  34:..\src/peripherals.c **** 
  35:..\src/peripherals.c **** //Initialize and enables all the peripherals
  36:..\src/peripherals.c **** void init_peripherals(void)
  37:..\src/peripherals.c **** {
  38:..\src/peripherals.c **** 	//Motor control variables & peripherals:
  39:..\src/peripherals.c **** 	init_motor();
  40:..\src/peripherals.c **** 	
  41:..\src/peripherals.c **** 	//Init Control:
  42:..\src/peripherals.c **** 	init_ctrl_data_structure();
  43:..\src/peripherals.c **** 	
  44:..\src/peripherals.c **** 	//Timebases:
  45:..\src/peripherals.c **** 	init_tb_timers();
  46:..\src/peripherals.c **** 	
  47:..\src/peripherals.c **** 	//UART 2 - RS-485
  48:..\src/peripherals.c **** 	init_rs485();
  49:..\src/peripherals.c **** 	
  50:..\src/peripherals.c **** 	//Analog, expansion port:
  51:..\src/peripherals.c **** 	init_analog();
  52:..\src/peripherals.c **** 	
  53:..\src/peripherals.c **** 	//Clutch:
  54:..\src/peripherals.c **** 	init_pwro();
  55:..\src/peripherals.c **** 	
  56:..\src/peripherals.c **** 	//Hall sensor for commutation?
  57:..\src/peripherals.c **** 	#if(ENC_COMMUT == ENC_HALL)
  58:..\src/peripherals.c **** 		Use_Hall_Write(HALL_PHYSICAL);	//Use Hall sensors (Expansion connector)
  59:..\src/peripherals.c **** 	#else
  60:..\src/peripherals.c **** 		Use_Hall_Write(HALL_VIRTUAL);	//Do not use, or use software version
  61:..\src/peripherals.c **** 	#endif
  62:..\src/peripherals.c **** 	
  63:..\src/peripherals.c **** 	//Enable Global Interrupts
  64:..\src/peripherals.c ****     CyGlobalIntEnable; 
  65:..\src/peripherals.c **** 	
  66:..\src/peripherals.c **** 	//I2C0 - 3V3, IMU & Expansion
  67:..\src/peripherals.c **** 	#ifdef USE_I2C_0	
  68:..\src/peripherals.c **** 		
  69:..\src/peripherals.c **** 		init_i2c_0();
  70:..\src/peripherals.c **** 		
  71:..\src/peripherals.c **** 		//MPU-6500 IMU:
  72:..\src/peripherals.c **** 		#ifdef USE_IMU
  73:..\src/peripherals.c **** 			
  74:..\src/peripherals.c **** 		init_imu();
  75:..\src/peripherals.c **** 		CyDelay(25);
  76:..\src/peripherals.c **** 		init_imu();
  77:..\src/peripherals.c **** 		CyDelay(25);
  78:..\src/peripherals.c **** 		init_imu();
  79:..\src/peripherals.c **** 		CyDelay(25);
  80:..\src/peripherals.c **** 		
  81:..\src/peripherals.c **** 		#endif	//USE_IMU
  82:..\src/peripherals.c **** 		
  83:..\src/peripherals.c **** 		//External RGB LED:
  84:..\src/peripherals.c **** 		#ifdef USE_MINM_RGB
  85:..\src/peripherals.c **** 			
  86:..\src/peripherals.c **** 		//Set RGB LED - Starts Green
ARM GAS  C:\Users\Alex\AppData\Local\Temp\ccNDsoZ7.s 			page 3


  87:..\src/peripherals.c **** 		i2c_init_minm(MINM_GREEN);
  88:..\src/peripherals.c **** 		
  89:..\src/peripherals.c **** 		#endif 	//USE_MINM_RGB
  90:..\src/peripherals.c **** 	
  91:..\src/peripherals.c **** 	#endif	//USE_I2C_0
  92:..\src/peripherals.c **** 	
  93:..\src/peripherals.c **** 	//I2C1 - 5V, Safety-CoP & strain gauge pot
  94:..\src/peripherals.c **** 	#ifdef USE_I2C_1	
  95:..\src/peripherals.c **** 		
  96:..\src/peripherals.c **** 		//I2C1 peripheral:
  97:..\src/peripherals.c **** 		init_i2c_1();
  98:..\src/peripherals.c **** 		
  99:..\src/peripherals.c **** 		//Strain amplifier:
 100:..\src/peripherals.c **** 		#ifdef USE_STRAIN
 101:..\src/peripherals.c **** 			
 102:..\src/peripherals.c **** 		init_strain();
 103:..\src/peripherals.c **** 		
 104:..\src/peripherals.c **** 		#endif	//USE_STRAIN
 105:..\src/peripherals.c **** 		
 106:..\src/peripherals.c **** 	#endif	//USE_I2C_1	
 107:..\src/peripherals.c **** 	
 108:..\src/peripherals.c **** 	//Magnetic encoder:
 109:..\src/peripherals.c **** 	#ifdef USE_AS5047		
 110:..\src/peripherals.c **** 	
 111:..\src/peripherals.c **** 	init_as5047();
 112:..\src/peripherals.c **** 	
 113:..\src/peripherals.c **** 	#endif //USE_AS5047
 114:..\src/peripherals.c **** 	
 115:..\src/peripherals.c **** 	#ifdef USE_SPI_COMMUT
 116:..\src/peripherals.c **** 	//...	
 117:..\src/peripherals.c **** 	#endif 	//USE_SPI_COMMUT
 118:..\src/peripherals.c **** 	
 119:..\src/peripherals.c **** 	//Die temperatuire measurement
 120:..\src/peripherals.c **** 	#ifdef USE_DIETEMP	
 121:..\src/peripherals.c **** 	DieTemp_1_GetTemp(&temp);
 122:..\src/peripherals.c **** 	#endif
 123:..\src/peripherals.c **** 	
 124:..\src/peripherals.c **** 	//Special color when waiting for USB (Yellow):
 125:..\src/peripherals.c **** 	set_led_rgb(1, 1, 0);
 126:..\src/peripherals.c **** 	
 127:..\src/peripherals.c **** 	//USB CDC
 128:..\src/peripherals.c **** 	#ifdef USE_USB	
 129:..\src/peripherals.c **** 	init_usb();
 130:..\src/peripherals.c **** 	#endif	//USE_USB
 131:..\src/peripherals.c **** 	
 132:..\src/peripherals.c **** 	//Notify the GUI that a FSM is running:
 133:..\src/peripherals.c **** 	#if(RUNTIME_FSM == ENABLED)
 134:..\src/peripherals.c **** 	gui_fsm_flag = ENABLED;
 135:..\src/peripherals.c **** 	#endif	//(RUNTIME_FSM == ENABLED)
 136:..\src/peripherals.c **** 	
 137:..\src/peripherals.c **** 	//Start with an empty buffer
 138:..\src/peripherals.c **** 	flexsea_clear_slave_read_buffer();
 139:..\src/peripherals.c **** }
 140:..\src/peripherals.c **** 
 141:..\src/peripherals.c **** //Timebase timers init:
 142:..\src/peripherals.c **** void init_tb_timers(void)
 143:..\src/peripherals.c **** {
ARM GAS  C:\Users\Alex\AppData\Local\Temp\ccNDsoZ7.s 			page 4


  29              		.loc 1 143 0
  30              		.cfi_startproc
  31              		@ args = 0, pretend = 0, frame = 0
  32              		@ frame_needed = 0, uses_anonymous_args = 0
  33 0000 08B5     		push	{r3, lr}
  34              		.cfi_def_cfa_offset 8
  35              		.cfi_offset 3, -8
  36              		.cfi_offset 14, -4
 144:..\src/peripherals.c **** 	//Timer 1: 1ms (LEDs, PID)
 145:..\src/peripherals.c **** 	Timer_1_Init();
  37              		.loc 1 145 0
  38 0002 FFF7FEFF 		bl	Timer_1_Init
  39              	.LVL0:
 146:..\src/peripherals.c **** 	Timer_1_Start();
  40              		.loc 1 146 0
  41 0006 FFF7FEFF 		bl	Timer_1_Start
  42              	.LVL1:
 147:..\src/peripherals.c **** 	isr_t1_Start();
  43              		.loc 1 147 0
  44 000a FFF7FEFF 		bl	isr_t1_Start
  45              	.LVL2:
  46 000e 08BD     		pop	{r3, pc}
  47              		.cfi_endproc
  48              	.LFE64:
  49              		.size	init_tb_timers, .-init_tb_timers
  50              		.section	.text.init_peripherals,"ax",%progbits
  51              		.align	2
  52              		.global	init_peripherals
  53              		.thumb
  54              		.thumb_func
  55              		.type	init_peripherals, %function
  56              	init_peripherals:
  57              	.LFB63:
  37:..\src/peripherals.c **** 	//Motor control variables & peripherals:
  58              		.loc 1 37 0
  59              		.cfi_startproc
  60              		@ args = 0, pretend = 0, frame = 0
  61              		@ frame_needed = 0, uses_anonymous_args = 0
  62 0000 08B5     		push	{r3, lr}
  63              		.cfi_def_cfa_offset 8
  64              		.cfi_offset 3, -8
  65              		.cfi_offset 14, -4
  39:..\src/peripherals.c **** 	
  66              		.loc 1 39 0
  67 0002 FFF7FEFF 		bl	init_motor
  68              	.LVL3:
  42:..\src/peripherals.c **** 	
  69              		.loc 1 42 0
  70 0006 FFF7FEFF 		bl	init_ctrl_data_structure
  71              	.LVL4:
  45:..\src/peripherals.c **** 	
  72              		.loc 1 45 0
  73 000a FFF7FEFF 		bl	init_tb_timers
  74              	.LVL5:
  48:..\src/peripherals.c **** 	
  75              		.loc 1 48 0
  76 000e FFF7FEFF 		bl	init_rs485
ARM GAS  C:\Users\Alex\AppData\Local\Temp\ccNDsoZ7.s 			page 5


  77              	.LVL6:
  51:..\src/peripherals.c **** 	
  78              		.loc 1 51 0
  79 0012 FFF7FEFF 		bl	init_analog
  80              	.LVL7:
  54:..\src/peripherals.c **** 	
  81              		.loc 1 54 0
  82 0016 FFF7FEFF 		bl	init_pwro
  83              	.LVL8:
  60:..\src/peripherals.c **** 	#endif
  84              		.loc 1 60 0
  85 001a 0120     		movs	r0, #1
  86 001c FFF7FEFF 		bl	Use_Hall_Write
  87              	.LVL9:
  64:..\src/peripherals.c **** 	
  88              		.loc 1 64 0
  89              	@ 64 "..\src\peripherals.c" 1
  90 0020 62B6     		CPSIE   i
  91              	@ 0 "" 2
  69:..\src/peripherals.c **** 		
  92              		.loc 1 69 0
  93              		.thumb
  94 0022 FFF7FEFF 		bl	init_i2c_0
  95              	.LVL10:
  74:..\src/peripherals.c **** 		CyDelay(25);
  96              		.loc 1 74 0
  97 0026 FFF7FEFF 		bl	init_imu
  98              	.LVL11:
  75:..\src/peripherals.c **** 		init_imu();
  99              		.loc 1 75 0
 100 002a 1920     		movs	r0, #25
 101 002c FFF7FEFF 		bl	CyDelay
 102              	.LVL12:
  76:..\src/peripherals.c **** 		CyDelay(25);
 103              		.loc 1 76 0
 104 0030 FFF7FEFF 		bl	init_imu
 105              	.LVL13:
  77:..\src/peripherals.c **** 		init_imu();
 106              		.loc 1 77 0
 107 0034 1920     		movs	r0, #25
 108 0036 FFF7FEFF 		bl	CyDelay
 109              	.LVL14:
  78:..\src/peripherals.c **** 		CyDelay(25);
 110              		.loc 1 78 0
 111 003a FFF7FEFF 		bl	init_imu
 112              	.LVL15:
  79:..\src/peripherals.c **** 		
 113              		.loc 1 79 0
 114 003e 1920     		movs	r0, #25
 115 0040 FFF7FEFF 		bl	CyDelay
 116              	.LVL16:
  97:..\src/peripherals.c **** 		
 117              		.loc 1 97 0
 118 0044 FFF7FEFF 		bl	init_i2c_1
 119              	.LVL17:
 125:..\src/peripherals.c **** 	
 120              		.loc 1 125 0
ARM GAS  C:\Users\Alex\AppData\Local\Temp\ccNDsoZ7.s 			page 6


 121 0048 0120     		movs	r0, #1
 122 004a 0146     		mov	r1, r0
 123 004c 0022     		movs	r2, #0
 124 004e FFF7FEFF 		bl	set_led_rgb
 125              	.LVL18:
 129:..\src/peripherals.c **** 	#endif	//USE_USB
 126              		.loc 1 129 0
 127 0052 FFF7FEFF 		bl	init_usb
 128              	.LVL19:
 134:..\src/peripherals.c **** 	#endif	//(RUNTIME_FSM == ENABLED)
 129              		.loc 1 134 0
 130 0056 0122     		movs	r2, #1
 131 0058 024B     		ldr	r3, .L5
 132 005a 1A70     		strb	r2, [r3]
 138:..\src/peripherals.c **** }
 133              		.loc 1 138 0
 134 005c FFF7FEFF 		bl	flexsea_clear_slave_read_buffer
 135              	.LVL20:
 136 0060 08BD     		pop	{r3, pc}
 137              	.L6:
 138 0062 00BF     		.align	2
 139              	.L5:
 140 0064 00000000 		.word	.LANCHOR0
 141              		.cfi_endproc
 142              	.LFE63:
 143              		.size	init_peripherals, .-init_peripherals
 144              		.global	gui_fsm_flag
 145              		.comm	DMA_4_TD,1,4
 146              		.comm	DMA_4_Chan,1,1
 147              		.comm	uart_dma_tx_buf,96,4
 148              		.comm	uart_dma_rx_buf_unwrapped,96,4
 149              		.comm	uart_dma_rx_buf,96,4
 150              		.bss
 151              		.set	.LANCHOR0,. + 0
 152              		.type	gui_fsm_flag, %object
 153              		.size	gui_fsm_flag, 1
 154              	gui_fsm_flag:
 155 0000 00       		.space	1
 156              		.text
 157              	.Letext0:
 158              		.file 2 "c:\\program files (x86)\\cypress\\psoc creator\\3.3\\psoc creator\\import\\gnu\\arm\\4.9.
 159              		.file 3 "c:\\program files (x86)\\cypress\\psoc creator\\3.3\\psoc creator\\import\\gnu\\arm\\4.9.
 160              		.file 4 "Generated_Source\\PSoC5/cytypes.h"
 161              		.file 5 "Generated_Source\\PSoC5/core_cm3.h"
 162              		.file 6 "Generated_Source\\PSoC5/Timer_1.h"
 163              		.file 7 "Generated_Source\\PSoC5/isr_t1.h"
 164              		.file 8 "..\\inc/motor.h"
 165              		.file 9 "..\\inc/control.h"
 166              		.file 10 "..\\inc/serial.h"
 167              		.file 11 "..\\inc/analog.h"
 168              		.file 12 "..\\inc/ext_output.h"
 169              		.file 13 "..\\inc/i2c.h"
 170              		.file 14 "..\\inc/imu.h"
 171              		.file 15 "Generated_Source\\PSoC5/Use_Hall.h"
 172              		.file 16 "Generated_Source\\PSoC5/CyLib.h"
 173              		.file 17 "..\\inc/ui.h"
 174              		.file 18 "..\\inc/flexsea_board.h"
ARM GAS  C:\Users\Alex\AppData\Local\Temp\ccNDsoZ7.s 			page 7


 175              		.file 19 "..\\inc/usb.h"