ARM GAS  C:\Users\Alex\AppData\Local\Temp\cce9W0Dk.s 			page 1


   1              		.syntax unified
   2              		.cpu cortex-m3
   3              		.fpu softvfp
   4              		.eabi_attribute 20, 1
   5              		.eabi_attribute 21, 1
   6              		.eabi_attribute 23, 3
   7              		.eabi_attribute 24, 1
   8              		.eabi_attribute 25, 1
   9              		.eabi_attribute 26, 1
  10              		.eabi_attribute 30, 1
  11              		.eabi_attribute 34, 1
  12              		.eabi_attribute 18, 4
  13              		.thumb
  14              		.file	"sensor_commut.c"
  15              		.text
  16              	.Ltext0:
  17              		.cfi_sections	.debug_frame
  18              		.global _printf_float
  19              		.thumb
  20              		.section	.text.motor_stepper_test_blocking_1,"ax",%progbits
  21              		.align	2
  22              		.global	motor_stepper_test_blocking_1
  23              		.thumb
  24              		.thumb_func
  25              		.type	motor_stepper_test_blocking_1, %function
  26              	motor_stepper_test_blocking_1:
  27              	.LFB63:
  28              		.file 1 "..\\src\\sensor_commut.c"
   1:..\src/sensor_commut.c **** //****************************************************************************
   2:..\src/sensor_commut.c **** // MIT Media Lab - Biomechatronics
   3:..\src/sensor_commut.c **** // Jean-Francois (Jeff) Duval, Luke Mooney & Jake Mooney
   4:..\src/sensor_commut.c **** // jfduval@media.mit.edu, lmooney@mit.edu, mooneyj@mit.edu
   5:..\src/sensor_commut.c **** // 05/2016
   6:..\src/sensor_commut.c **** //****************************************************************************
   7:..\src/sensor_commut.c **** // sensor_commut: Angle Sensor Motor Commutation
   8:..\src/sensor_commut.c **** //****************************************************************************
   9:..\src/sensor_commut.c **** 
  10:..\src/sensor_commut.c **** //****************************************************************************
  11:..\src/sensor_commut.c **** // Include(s)
  12:..\src/sensor_commut.c **** //****************************************************************************
  13:..\src/sensor_commut.c **** 
  14:..\src/sensor_commut.c **** #include "main.h"
  15:..\src/sensor_commut.c **** #include "sensor_commut.h"
  16:..\src/sensor_commut.c **** 
  17:..\src/sensor_commut.c **** //****************************************************************************
  18:..\src/sensor_commut.c **** // Variable(s)
  19:..\src/sensor_commut.c **** //****************************************************************************
  20:..\src/sensor_commut.c **** 
  21:..\src/sensor_commut.c **** uint8 hall_conv[6] = {5,4,6,2,3,1};
  22:..\src/sensor_commut.c **** //uint16 anglemap[126] = {109,250,378,517,656,782,911,1045,1177,1306,1453,1580,1711,1846,1968,2101,
  23:..\src/sensor_commut.c **** //uint16 anglemap[126] = {5,109,252,385,510,637,765,928,1033,1174,1298,1432,1554,1681,1843,1944,208
  24:..\src/sensor_commut.c **** uint16 anglemap[126] = {53,164,305,436,561,690,814,969,1081,1221,1348,1478,1603,1727,1882,1991,2128
  25:..\src/sensor_commut.c **** uint16 polemap[126] = {4, 6, 2, 3, 1, 5, 4, 6, 2, 3, 1, 5, 4, 6, 2, 3, 1, 5, 4, 6, 2, 3, 1, 5, 4, 6
  26:..\src/sensor_commut.c **** uint8 hallmap_map2[6] = {2, 6, 4, 5, 1, 3};
  27:..\src/sensor_commut.c **** 
  28:..\src/sensor_commut.c **** uint8 hallmap_map[6] = {6, 4, 5, 1, 3, 2};
  29:..\src/sensor_commut.c **** uint8 findingpoles = 0;
ARM GAS  C:\Users\Alex\AppData\Local\Temp\cce9W0Dk.s 			page 2


  30:..\src/sensor_commut.c **** 
  31:..\src/sensor_commut.c **** //****************************************************************************
  32:..\src/sensor_commut.c **** // Private Function Prototype(s):
  33:..\src/sensor_commut.c **** //****************************************************************************	
  34:..\src/sensor_commut.c **** 
  35:..\src/sensor_commut.c **** 
  36:..\src/sensor_commut.c **** //****************************************************************************
  37:..\src/sensor_commut.c **** // Public Function(s)
  38:..\src/sensor_commut.c **** //****************************************************************************
  39:..\src/sensor_commut.c **** 
  40:..\src/sensor_commut.c **** //Use before main while() as a basic test
  41:..\src/sensor_commut.c **** void motor_stepper_test_blocking_1(int spd)
  42:..\src/sensor_commut.c **** {
  29              		.loc 1 42 0
  30              		.cfi_startproc
  31              		@ args = 0, pretend = 0, frame = 0
  32              		@ frame_needed = 0, uses_anonymous_args = 0
  33              	.LVL0:
  34 0000 38B5     		push	{r3, r4, r5, lr}
  35              		.cfi_def_cfa_offset 16
  36              		.cfi_offset 3, -16
  37              		.cfi_offset 4, -12
  38              		.cfi_offset 5, -8
  39              		.cfi_offset 14, -4
  40 0002 0446     		mov	r4, r0
  41              	.LVL1:
  43:..\src/sensor_commut.c **** 	uint8 hall_code_0 = 0, hall_code = 0;
  44:..\src/sensor_commut.c **** 	
  45:..\src/sensor_commut.c **** 	ctrl.active_ctrl = CTRL_OPEN;	
  42              		.loc 1 45 0
  43 0004 0120     		movs	r0, #1
  44              	.LVL2:
  45 0006 144B     		ldr	r3, .L4
  46 0008 1870     		strb	r0, [r3]
  46:..\src/sensor_commut.c **** 	Coast_Brake_Write(1);	//Brake
  47              		.loc 1 46 0
  48 000a FFF7FEFF 		bl	Coast_Brake_Write
  49              	.LVL3:
  47:..\src/sensor_commut.c **** 	motor_open_speed_1(spd);
  50              		.loc 1 47 0
  51 000e 20B2     		sxth	r0, r4
  52 0010 FFF7FEFF 		bl	motor_open_speed_1
  53              	.LVL4:
  43:..\src/sensor_commut.c **** 	uint8 hall_code_0 = 0, hall_code = 0;
  54              		.loc 1 43 0
  55 0014 0024     		movs	r4, #0
  56              	.LVL5:
  57              	.L2:
  48:..\src/sensor_commut.c **** 	
  49:..\src/sensor_commut.c **** 	while(1)
  50:..\src/sensor_commut.c **** 	{
  51:..\src/sensor_commut.c **** 		hall_code_0++;
  58              		.loc 1 51 0 discriminator 1
  59 0016 0134     		adds	r4, r4, #1
  60              	.LVL6:
  61 0018 E4B2     		uxtb	r4, r4
  62              	.LVL7:
ARM GAS  C:\Users\Alex\AppData\Local\Temp\cce9W0Dk.s 			page 3


  52:..\src/sensor_commut.c **** 		hall_code_0 %= 6;
  63              		.loc 1 52 0 discriminator 1
  64 001a 104B     		ldr	r3, .L4+4
  65 001c A3FB0423 		umull	r2, r3, r3, r4
  66 0020 9B08     		lsrs	r3, r3, #2
  67 0022 03EB4303 		add	r3, r3, r3, lsl #1
  68 0026 5B00     		lsls	r3, r3, #1
  69 0028 E41A     		subs	r4, r4, r3
  70              	.LVL8:
  71 002a E4B2     		uxtb	r4, r4
  72              	.LVL9:
  53:..\src/sensor_commut.c **** 		hall_code = hall_conv[hall_code_0];
  73              		.loc 1 53 0 discriminator 1
  74 002c 0C4B     		ldr	r3, .L4+8
  75 002e 1D5D     		ldrb	r5, [r3, r4]	@ zero_extendqisi2
  76              	.LVL10:
  54:..\src/sensor_commut.c **** 		
  55:..\src/sensor_commut.c **** 		Virtual_Hall_Write(hall_code);
  77              		.loc 1 55 0 discriminator 1
  78 0030 2846     		mov	r0, r5
  79 0032 FFF7FEFF 		bl	Virtual_Hall_Write
  80              	.LVL11:
  56:..\src/sensor_commut.c **** 
  57:..\src/sensor_commut.c **** 		
  58:..\src/sensor_commut.c **** 		LED_R_Write(hall_code & 0x01);
  81              		.loc 1 58 0 discriminator 1
  82 0036 05F00100 		and	r0, r5, #1
  83 003a FFF7FEFF 		bl	LED_R_Write
  84              	.LVL12:
  59:..\src/sensor_commut.c **** 		LED_G_Write((hall_code & 0x02)>>1);
  85              		.loc 1 59 0 discriminator 1
  86 003e C5F34000 		ubfx	r0, r5, #1, #1
  87 0042 FFF7FEFF 		bl	LED_G_Write
  88              	.LVL13:
  60:..\src/sensor_commut.c **** 		LED_B_Write((hall_code & 0x04)>>2);
  89              		.loc 1 60 0 discriminator 1
  90 0046 C5F38000 		ubfx	r0, r5, #2, #1
  91 004a FFF7FEFF 		bl	LED_B_Write
  92              	.LVL14:
  61:..\src/sensor_commut.c **** 		
  62:..\src/sensor_commut.c **** 		CyDelay(10);
  93              		.loc 1 62 0 discriminator 1
  94 004e 0A20     		movs	r0, #10
  95 0050 FFF7FEFF 		bl	CyDelay
  96              	.LVL15:
  63:..\src/sensor_commut.c **** 	}
  97              		.loc 1 63 0 discriminator 1
  98 0054 DFE7     		b	.L2
  99              	.L5:
 100 0056 00BF     		.align	2
 101              	.L4:
 102 0058 00000000 		.word	ctrl
 103 005c ABAAAAAA 		.word	-1431655765
 104 0060 00000000 		.word	.LANCHOR0
 105              		.cfi_endproc
 106              	.LFE63:
 107              		.size	motor_stepper_test_blocking_1, .-motor_stepper_test_blocking_1
ARM GAS  C:\Users\Alex\AppData\Local\Temp\cce9W0Dk.s 			page 4


 108              		.section	.text.motor_stepper_test_init,"ax",%progbits
 109              		.align	2
 110              		.global	motor_stepper_test_init
 111              		.thumb
 112              		.thumb_func
 113              		.type	motor_stepper_test_init, %function
 114              	motor_stepper_test_init:
 115              	.LFB64:
  64:..\src/sensor_commut.c **** }
  65:..\src/sensor_commut.c **** 
  66:..\src/sensor_commut.c **** //To test with the full stack, use this init...
  67:..\src/sensor_commut.c **** void motor_stepper_test_init(int spd)
  68:..\src/sensor_commut.c **** {
 116              		.loc 1 68 0
 117              		.cfi_startproc
 118              		@ args = 0, pretend = 0, frame = 0
 119              		@ frame_needed = 0, uses_anonymous_args = 0
 120              	.LVL16:
 121 0000 10B5     		push	{r4, lr}
 122              		.cfi_def_cfa_offset 8
 123              		.cfi_offset 4, -8
 124              		.cfi_offset 14, -4
 125 0002 0446     		mov	r4, r0
  69:..\src/sensor_commut.c **** 	ctrl.active_ctrl = CTRL_OPEN;	
 126              		.loc 1 69 0
 127 0004 0120     		movs	r0, #1
 128              	.LVL17:
 129 0006 044B     		ldr	r3, .L8
 130 0008 1870     		strb	r0, [r3]
  70:..\src/sensor_commut.c **** 	Coast_Brake_Write(1);	
 131              		.loc 1 70 0
 132 000a FFF7FEFF 		bl	Coast_Brake_Write
 133              	.LVL18:
  71:..\src/sensor_commut.c **** 	motor_open_speed_1(spd);	
 134              		.loc 1 71 0
 135 000e 20B2     		sxth	r0, r4
 136 0010 FFF7FEFF 		bl	motor_open_speed_1
 137              	.LVL19:
 138 0014 10BD     		pop	{r4, pc}
 139              	.LVL20:
 140              	.L9:
 141 0016 00BF     		.align	2
 142              	.L8:
 143 0018 00000000 		.word	ctrl
 144              		.cfi_endproc
 145              	.LFE64:
 146              		.size	motor_stepper_test_init, .-motor_stepper_test_init
 147              		.section	.text.motor_stepper_test_runtime,"ax",%progbits
 148              		.align	2
 149              		.global	motor_stepper_test_runtime
 150              		.thumb
 151              		.thumb_func
 152              		.type	motor_stepper_test_runtime, %function
 153              	motor_stepper_test_runtime:
 154              	.LFB65:
  72:..\src/sensor_commut.c **** }
  73:..\src/sensor_commut.c **** 
ARM GAS  C:\Users\Alex\AppData\Local\Temp\cce9W0Dk.s 			page 5


  74:..\src/sensor_commut.c **** //...and this runtime function
  75:..\src/sensor_commut.c **** void motor_stepper_test_runtime(int div)
  76:..\src/sensor_commut.c **** {
 155              		.loc 1 76 0
 156              		.cfi_startproc
 157              		@ args = 0, pretend = 0, frame = 0
 158              		@ frame_needed = 0, uses_anonymous_args = 0
 159              		@ link register save eliminated.
 160              	.LVL21:
  77:..\src/sensor_commut.c **** 	//Call this function at 1ms intervals. The divider will
  78:..\src/sensor_commut.c **** 	//allow longer delays between steps.
  79:..\src/sensor_commut.c **** 	
  80:..\src/sensor_commut.c **** 	static uint8 hall_code_0 = 0, hall_code = 0;
  81:..\src/sensor_commut.c **** 	static int delay_cnt = 0;
  82:..\src/sensor_commut.c **** 	
  83:..\src/sensor_commut.c **** 	delay_cnt++;
 161              		.loc 1 83 0
 162 0000 0D4A     		ldr	r2, .L12
 163 0002 1368     		ldr	r3, [r2]
 164 0004 0133     		adds	r3, r3, #1
 165 0006 1360     		str	r3, [r2]
  84:..\src/sensor_commut.c **** 	if(delay_cnt >= div)
 166              		.loc 1 84 0
 167 0008 8342     		cmp	r3, r0
 168 000a 13DB     		blt	.L10
  85:..\src/sensor_commut.c **** 	{
  86:..\src/sensor_commut.c **** 		delay_cnt = 0;
 169              		.loc 1 86 0
 170 000c 1146     		mov	r1, r2
 171 000e 0023     		movs	r3, #0
 172 0010 1360     		str	r3, [r2]
  87:..\src/sensor_commut.c **** 	
  88:..\src/sensor_commut.c **** 		hall_code_0++;
 173              		.loc 1 88 0
 174 0012 1279     		ldrb	r2, [r2, #4]	@ zero_extendqisi2
 175 0014 0132     		adds	r2, r2, #1
 176 0016 D2B2     		uxtb	r2, r2
  89:..\src/sensor_commut.c **** 		hall_code_0 %= 6;
 177              		.loc 1 89 0
 178 0018 A3F15533 		sub	r3, r3, #1431655765
 179 001c A3FB0203 		umull	r0, r3, r3, r2
 180              	.LVL22:
 181 0020 9B08     		lsrs	r3, r3, #2
 182 0022 03EB4303 		add	r3, r3, r3, lsl #1
 183 0026 A2EB4303 		sub	r3, r2, r3, lsl #1
 184 002a DBB2     		uxtb	r3, r3
 185 002c 0B71     		strb	r3, [r1, #4]
  90:..\src/sensor_commut.c **** 		hall_code = hall_conv[hall_code_0];
 186              		.loc 1 90 0
 187 002e 034A     		ldr	r2, .L12+4
 188 0030 D35C     		ldrb	r3, [r2, r3]	@ zero_extendqisi2
 189 0032 4B71     		strb	r3, [r1, #5]
 190              	.L10:
 191 0034 7047     		bx	lr
 192              	.L13:
 193 0036 00BF     		.align	2
 194              	.L12:
ARM GAS  C:\Users\Alex\AppData\Local\Temp\cce9W0Dk.s 			page 6


 195 0038 00000000 		.word	.LANCHOR1
 196 003c 00000000 		.word	.LANCHOR0
 197              		.cfi_endproc
 198              	.LFE65:
 199              		.size	motor_stepper_test_runtime, .-motor_stepper_test_runtime
 200              		.section	.text.motor_spi_block_commutation,"ax",%progbits
 201              		.align	2
 202              		.global	motor_spi_block_commutation
 203              		.thumb
 204              		.thumb_func
 205              		.type	motor_spi_block_commutation, %function
 206              	motor_spi_block_commutation:
 207              	.LFB66:
  91:..\src/sensor_commut.c **** 		
  92:..\src/sensor_commut.c **** 		//Hall_Write(hall_code);	//ToDo Enable
  93:..\src/sensor_commut.c **** 	}	
  94:..\src/sensor_commut.c **** }
  95:..\src/sensor_commut.c **** 
  96:..\src/sensor_commut.c **** //motor commutation with SPI encoder
  97:..\src/sensor_commut.c **** void motor_spi_block_commutation(int angle)
  98:..\src/sensor_commut.c **** {
 208              		.loc 1 98 0
 209              		.cfi_startproc
 210              		@ args = 0, pretend = 0, frame = 0
 211              		@ frame_needed = 0, uses_anonymous_args = 0
 212              	.LVL23:
 213 0000 70B5     		push	{r4, r5, r6, lr}
 214              		.cfi_def_cfa_offset 16
 215              		.cfi_offset 4, -16
 216              		.cfi_offset 5, -12
 217              		.cfi_offset 6, -8
 218              		.cfi_offset 14, -4
 219 0002 0446     		mov	r4, r0
 220              	.LVL24:
  99:..\src/sensor_commut.c ****     static int16 lastangle, lastcomindx=1;
 100:..\src/sensor_commut.c ****     int16 deadband = 10; 
 101:..\src/sensor_commut.c ****     int16 comindx,tempangle;
 102:..\src/sensor_commut.c ****     int16 offset;
 103:..\src/sensor_commut.c ****     
 104:..\src/sensor_commut.c ****     /*
 105:..\src/sensor_commut.c ****     //offset = deadband-anglemap[0];
 106:..\src/sensor_commut.c ****     //angle = angle+offset;
 107:..\src/sensor_commut.c ****     //angle = angle+(angle-lastangle)/5;
 108:..\src/sensor_commut.c ****     
 109:..\src/sensor_commut.c ****     if (lastcomindx==0)
 110:..\src/sensor_commut.c ****     {
 111:..\src/sensor_commut.c ****         //tempangle = angle;
 112:..\src/sensor_commut.c ****         //if (tempangle>16000)
 113:..\src/sensor_commut.c ****         //{
 114:..\src/sensor_commut.c ****         //    tempangle = tempangle-16384;
 115:..\src/sensor_commut.c ****         //}
 116:..\src/sensor_commut.c ****         if (angle>anglemap[0]+offset+deadband)
 117:..\src/sensor_commut.c ****         {comindx = 1;}
 118:..\src/sensor_commut.c ****         else if (angle<anglemap[125]-16384+offset-deadband)
 119:..\src/sensor_commut.c ****         {comindx = 5;}
 120:..\src/sensor_commut.c ****         else
 121:..\src/sensor_commut.c ****         {comindx = 0;}
ARM GAS  C:\Users\Alex\AppData\Local\Temp\cce9W0Dk.s 			page 7


 122:..\src/sensor_commut.c ****     }
 123:..\src/sensor_commut.c ****     else
 124:..\src/sensor_commut.c ****     {
 125:..\src/sensor_commut.c ****         int16 lo=0, hi = 126, mid=0;
 126:..\src/sensor_commut.c ****         while (lo<hi){
 127:..\src/sensor_commut.c ****             mid = (lo+hi)/2;
 128:..\src/sensor_commut.c ****             if (((anglemap[mid]+offset))>=angle)
 129:..\src/sensor_commut.c ****                 hi = mid;
 130:..\src/sensor_commut.c ****             else
 131:..\src/sensor_commut.c ****                 lo = mid+1;
 132:..\src/sensor_commut.c ****         }
 133:..\src/sensor_commut.c ****         comindx = lo%126;
 134:..\src/sensor_commut.c **** 
 135:..\src/sensor_commut.c ****         
 136:..\src/sensor_commut.c ****         //if (comindx>lastcomindx && angle<(anglemap[lastcomindx]+deadband))
 137:..\src/sensor_commut.c ****         //{comindx = lastcomindx;}
 138:..\src/sensor_commut.c ****         //else if (comindx<lastcomindx && angle>(anglemap[comindx]-deadband))
 139:..\src/sensor_commut.c ****         //{comindx = lastcomindx;}
 140:..\src/sensor_commut.c **** 
 141:..\src/sensor_commut.c ****     }
 142:..\src/sensor_commut.c ****     */
 143:..\src/sensor_commut.c ****     
 144:..\src/sensor_commut.c ****     
 145:..\src/sensor_commut.c ****     
 146:..\src/sensor_commut.c ****     
 147:..\src/sensor_commut.c ****     int16 lo=0, hi = 126, mid=0;
 221              		.loc 1 147 0
 222 0004 7E20     		movs	r0, #126
 223              	.LVL25:
 224 0006 0021     		movs	r1, #0
 148:..\src/sensor_commut.c ****     while (lo<hi){
 225              		.loc 1 148 0
 226 0008 12E0     		b	.L16
 227              	.LVL26:
 228              	.L17:
 149:..\src/sensor_commut.c ****         mid = (lo+hi)/2;
 229              		.loc 1 149 0
 230 000a 0BB2     		sxth	r3, r1
 231 000c 02B2     		sxth	r2, r0
 232 000e 1344     		add	r3, r3, r2
 233 0010 03EBD373 		add	r3, r3, r3, lsr #31
 234 0014 5B10     		asrs	r3, r3, #1
 235 0016 9DB2     		uxth	r5, r3
 236              	.LVL27:
 150:..\src/sensor_commut.c ****         if (((anglemap[mid]))>=angle)
 237              		.loc 1 150 0
 238 0018 2EB2     		sxth	r6, r5
 239 001a 5F4A     		ldr	r2, .L42
 240 001c 02EB4602 		add	r2, r2, r6, lsl #1
 241 0020 1289     		ldrh	r2, [r2, #8]
 242 0022 89B2     		uxth	r1, r1
 243 0024 A242     		cmp	r2, r4
 244 0026 02DA     		bge	.L29
 151:..\src/sensor_commut.c ****             hi = mid;
 152:..\src/sensor_commut.c ****         else
 153:..\src/sensor_commut.c ****             lo = mid+1;
 245              		.loc 1 153 0
ARM GAS  C:\Users\Alex\AppData\Local\Temp\cce9W0Dk.s 			page 8


 246 0028 0133     		adds	r3, r3, #1
 247 002a 99B2     		uxth	r1, r3
 248              	.LVL28:
 249 002c 00E0     		b	.L16
 250              	.L29:
 151:..\src/sensor_commut.c ****             hi = mid;
 251              		.loc 1 151 0
 252 002e 2846     		mov	r0, r5
 253              	.LVL29:
 254              	.L16:
 148:..\src/sensor_commut.c ****         mid = (lo+hi)/2;
 255              		.loc 1 148 0
 256 0030 0BB2     		sxth	r3, r1
 257 0032 02B2     		sxth	r2, r0
 258 0034 9342     		cmp	r3, r2
 259 0036 E8DB     		blt	.L17
 154:..\src/sensor_commut.c ****     }
 155:..\src/sensor_commut.c ****     comindx = lo%126;
 260              		.loc 1 155 0
 261 0038 5848     		ldr	r0, .L42+4
 262              	.LVL30:
 263 003a 83FB0001 		smull	r0, r1, r3, r0
 264 003e 5D18     		adds	r5, r3, r1
 265 0040 DA17     		asrs	r2, r3, #31
 266              	.LVL31:
 267 0042 C2EBA515 		rsb	r5, r2, r5, asr #6
 268 0046 C5EB8515 		rsb	r5, r5, r5, lsl #6
 269 004a 6D00     		lsls	r5, r5, #1
 270 004c 5B1B     		subs	r3, r3, r5
 271 004e 9DB2     		uxth	r5, r3
 272              	.LVL32:
 156:..\src/sensor_commut.c ****     
 157:..\src/sensor_commut.c ****     if (comindx!=lastcomindx)
 273              		.loc 1 157 0
 274 0050 514B     		ldr	r3, .L42
 275 0052 B3F80431 		ldrh	r3, [r3, #260]
 276 0056 29B2     		sxth	r1, r5
 277              	.LVL33:
 278 0058 1AB2     		sxth	r2, r3
 279 005a 9142     		cmp	r1, r2
 280 005c 7FD0     		beq	.L18
 158:..\src/sensor_commut.c ****     {
 159:..\src/sensor_commut.c ****         if (lastcomindx == 0)
 281              		.loc 1 159 0
 282 005e 5BB9     		cbnz	r3, .L19
 160:..\src/sensor_commut.c ****         {
 161:..\src/sensor_commut.c ****             if (angle<anglemap[0]+deadband)
 283              		.loc 1 161 0
 284 0060 4D4A     		ldr	r2, .L42
 285 0062 1289     		ldrh	r2, [r2, #8]
 286 0064 0A32     		adds	r2, r2, #10
 287 0066 A242     		cmp	r2, r4
 288 0068 66DC     		bgt	.L30
 162:..\src/sensor_commut.c ****             {
 163:..\src/sensor_commut.c ****                 comindx = 0;
 164:..\src/sensor_commut.c ****             }
 165:..\src/sensor_commut.c ****             else if (angle>anglemap[125]-deadband)
ARM GAS  C:\Users\Alex\AppData\Local\Temp\cce9W0Dk.s 			page 9


 289              		.loc 1 165 0
 290 006a 4B4A     		ldr	r2, .L42
 291 006c B2F80221 		ldrh	r2, [r2, #258]
 292 0070 0A3A     		subs	r2, r2, #10
 293 0072 A242     		cmp	r2, r4
 294 0074 62DB     		blt	.L31
 295 0076 72E0     		b	.L18
 296              	.L19:
 166:..\src/sensor_commut.c ****             {
 167:..\src/sensor_commut.c ****                 comindx = 0;
 168:..\src/sensor_commut.c ****             }
 169:..\src/sensor_commut.c ****             
 170:..\src/sensor_commut.c ****         }
 171:..\src/sensor_commut.c ****         else if (lastcomindx == 1)
 297              		.loc 1 171 0
 298 0078 1AB2     		sxth	r2, r3
 299 007a 012A     		cmp	r2, #1
 300 007c 24D1     		bne	.L20
 172:..\src/sensor_commut.c ****         {
 173:..\src/sensor_commut.c ****             if (comindx == 0)
 301              		.loc 1 173 0
 302 007e D5B9     		cbnz	r5, .L21
 174:..\src/sensor_commut.c ****             {
 175:..\src/sensor_commut.c ****                 if (angle<anglemap[1]+deadband)
 303              		.loc 1 175 0
 304 0080 454A     		ldr	r2, .L42
 305 0082 5289     		ldrh	r2, [r2, #10]
 306 0084 0A32     		adds	r2, r2, #10
 307 0086 A242     		cmp	r2, r4
 308 0088 00DD     		ble	.L22
 176:..\src/sensor_commut.c ****                 {
 177:..\src/sensor_commut.c ****                     comindx = 1;
 309              		.loc 1 177 0
 310 008a 1D46     		mov	r5, r3
 311              	.LVL34:
 312              	.L22:
 178:..\src/sensor_commut.c ****                 }
 179:..\src/sensor_commut.c ****                 if (angle >anglemap[124])
 313              		.loc 1 179 0
 314 008c 424A     		ldr	r2, .L42
 315 008e B2F80021 		ldrh	r2, [r2, #256]
 316 0092 A242     		cmp	r2, r4
 317 0094 08DA     		bge	.L23
 180:..\src/sensor_commut.c ****                 {
 181:..\src/sensor_commut.c ****                     if (angle-16384> (int16)anglemap[0]-deadband)
 318              		.loc 1 181 0
 319 0096 A4F58041 		sub	r1, r4, #16384
 320 009a 3F4A     		ldr	r2, .L42
 321 009c B2F90820 		ldrsh	r2, [r2, #8]
 322 00a0 0A3A     		subs	r2, r2, #10
 323 00a2 9142     		cmp	r1, r2
 324 00a4 4CDC     		bgt	.L33
 325 00a6 5AE0     		b	.L18
 326              	.L23:
 182:..\src/sensor_commut.c ****                     {comindx = 1;}
 183:..\src/sensor_commut.c ****                 }
 184:..\src/sensor_commut.c ****                 
ARM GAS  C:\Users\Alex\AppData\Local\Temp\cce9W0Dk.s 			page 10


 185:..\src/sensor_commut.c ****                 else
 186:..\src/sensor_commut.c ****                 {
 187:..\src/sensor_commut.c ****                     if (angle>(int16)anglemap[0]-deadband)
 327              		.loc 1 187 0
 328 00a8 3B4A     		ldr	r2, .L42
 329 00aa B2F90820 		ldrsh	r2, [r2, #8]
 330 00ae 0A3A     		subs	r2, r2, #10
 331 00b0 A242     		cmp	r2, r4
 332 00b2 47DB     		blt	.L34
 333 00b4 53E0     		b	.L18
 334              	.L21:
 188:..\src/sensor_commut.c ****                     {comindx = 1;}
 189:..\src/sensor_commut.c ****                 }
 190:..\src/sensor_commut.c ****             }
 191:..\src/sensor_commut.c ****             else if (comindx == 2 &&(angle<anglemap[1]+deadband))
 335              		.loc 1 191 0
 336 00b6 2AB2     		sxth	r2, r5
 337 00b8 022A     		cmp	r2, #2
 338 00ba 50D1     		bne	.L18
 339              		.loc 1 191 0 is_stmt 0 discriminator 1
 340 00bc 364A     		ldr	r2, .L42
 341 00be 5289     		ldrh	r2, [r2, #10]
 342 00c0 0A32     		adds	r2, r2, #10
 343 00c2 A242     		cmp	r2, r4
 344 00c4 40DC     		bgt	.L35
 345 00c6 4AE0     		b	.L18
 346              	.L20:
 192:..\src/sensor_commut.c ****             {
 193:..\src/sensor_commut.c ****                 comindx = 1;
 194:..\src/sensor_commut.c ****             }
 195:..\src/sensor_commut.c **** 
 196:..\src/sensor_commut.c ****         }
 197:..\src/sensor_commut.c ****         else if (lastcomindx == 125)
 347              		.loc 1 197 0 is_stmt 1
 348 00c8 1AB2     		sxth	r2, r3
 349 00ca 7D2A     		cmp	r2, #125
 350 00cc 1ED1     		bne	.L24
 198:..\src/sensor_commut.c ****         {
 199:..\src/sensor_commut.c ****             if (comindx == 0)
 351              		.loc 1 199 0
 352 00ce 9DB9     		cbnz	r5, .L25
 200:..\src/sensor_commut.c ****             {
 201:..\src/sensor_commut.c ****                 if (angle <= anglemap[0])
 353              		.loc 1 201 0
 354 00d0 314A     		ldr	r2, .L42
 355 00d2 1289     		ldrh	r2, [r2, #8]
 356 00d4 A242     		cmp	r2, r4
 357 00d6 08DB     		blt	.L26
 202:..\src/sensor_commut.c ****                 {
 203:..\src/sensor_commut.c ****                     if (angle+16384<anglemap[125]+deadband)
 358              		.loc 1 203 0
 359 00d8 04F58041 		add	r1, r4, #16384
 360 00dc 2E4A     		ldr	r2, .L42
 361 00de B2F80221 		ldrh	r2, [r2, #258]
 362 00e2 0A32     		adds	r2, r2, #10
 363 00e4 9142     		cmp	r1, r2
 364 00e6 31DB     		blt	.L36
ARM GAS  C:\Users\Alex\AppData\Local\Temp\cce9W0Dk.s 			page 11


 365 00e8 39E0     		b	.L18
 366              	.L26:
 204:..\src/sensor_commut.c ****                     {comindx = 125;}
 205:..\src/sensor_commut.c ****                 }
 206:..\src/sensor_commut.c ****                 else
 207:..\src/sensor_commut.c ****                 {
 208:..\src/sensor_commut.c ****                     if (angle < anglemap[125]+deadband)
 367              		.loc 1 208 0
 368 00ea 2B4A     		ldr	r2, .L42
 369 00ec B2F80221 		ldrh	r2, [r2, #258]
 370 00f0 0A32     		adds	r2, r2, #10
 371 00f2 A242     		cmp	r2, r4
 372 00f4 2CDC     		bgt	.L37
 373 00f6 32E0     		b	.L18
 374              	.L25:
 209:..\src/sensor_commut.c ****                     {comindx = 125;}
 210:..\src/sensor_commut.c ****                 }
 211:..\src/sensor_commut.c ****             }
 212:..\src/sensor_commut.c ****             else if (comindx == 124 &&(angle>anglemap[124]-deadband))
 375              		.loc 1 212 0
 376 00f8 2AB2     		sxth	r2, r5
 377 00fa 7C2A     		cmp	r2, #124
 378 00fc 2FD1     		bne	.L18
 379              		.loc 1 212 0 is_stmt 0 discriminator 1
 380 00fe 264A     		ldr	r2, .L42
 381 0100 B2F80021 		ldrh	r2, [r2, #256]
 382 0104 0A3A     		subs	r2, r2, #10
 383 0106 A242     		cmp	r2, r4
 384 0108 24DB     		blt	.L38
 385 010a 28E0     		b	.L18
 386              	.L24:
 213:..\src/sensor_commut.c ****             {
 214:..\src/sensor_commut.c ****                 comindx = 125;
 215:..\src/sensor_commut.c ****             }
 216:..\src/sensor_commut.c **** 
 217:..\src/sensor_commut.c ****         }
 218:..\src/sensor_commut.c ****         else
 219:..\src/sensor_commut.c ****         {
 220:..\src/sensor_commut.c ****             if (comindx>lastcomindx)
 387              		.loc 1 220 0 is_stmt 1
 388 010c 2AB2     		sxth	r2, r5
 389 010e 19B2     		sxth	r1, r3
 390 0110 8A42     		cmp	r2, r1
 391 0112 08DD     		ble	.L27
 221:..\src/sensor_commut.c ****             {
 222:..\src/sensor_commut.c ****                 if (angle<anglemap[lastcomindx]+deadband)
 392              		.loc 1 222 0
 393 0114 0A46     		mov	r2, r1
 394 0116 2049     		ldr	r1, .L42
 395 0118 01EB4202 		add	r2, r1, r2, lsl #1
 396 011c 1289     		ldrh	r2, [r2, #8]
 397 011e 0A32     		adds	r2, r2, #10
 398 0120 A242     		cmp	r2, r4
 399 0122 19DC     		bgt	.L39
 400 0124 1BE0     		b	.L18
 401              	.L27:
 223:..\src/sensor_commut.c ****                 {comindx = lastcomindx;}
ARM GAS  C:\Users\Alex\AppData\Local\Temp\cce9W0Dk.s 			page 12


 224:..\src/sensor_commut.c ****             }
 225:..\src/sensor_commut.c ****             else
 226:..\src/sensor_commut.c ****             {
 227:..\src/sensor_commut.c ****                 if (angle>anglemap[comindx]-deadband)
 402              		.loc 1 227 0
 403 0126 2AB2     		sxth	r2, r5
 404 0128 1B49     		ldr	r1, .L42
 405 012a 01EB4202 		add	r2, r1, r2, lsl #1
 406 012e 1289     		ldrh	r2, [r2, #8]
 407 0130 0A3A     		subs	r2, r2, #10
 408 0132 A242     		cmp	r2, r4
 409 0134 12DB     		blt	.L40
 410 0136 12E0     		b	.L18
 411              	.L30:
 163:..\src/sensor_commut.c ****             }
 412              		.loc 1 163 0
 413 0138 1D46     		mov	r5, r3
 414              	.LVL35:
 415 013a 10E0     		b	.L18
 416              	.LVL36:
 417              	.L31:
 167:..\src/sensor_commut.c ****             }
 418              		.loc 1 167 0
 419 013c 1D46     		mov	r5, r3
 420              	.LVL37:
 421 013e 0EE0     		b	.L18
 422              	.LVL38:
 423              	.L33:
 182:..\src/sensor_commut.c ****                 }
 424              		.loc 1 182 0
 425 0140 1D46     		mov	r5, r3
 426              	.LVL39:
 427 0142 0CE0     		b	.L18
 428              	.LVL40:
 429              	.L34:
 188:..\src/sensor_commut.c ****                 }
 430              		.loc 1 188 0
 431 0144 1D46     		mov	r5, r3
 432              	.LVL41:
 433 0146 0AE0     		b	.L18
 434              	.LVL42:
 435              	.L35:
 193:..\src/sensor_commut.c ****             }
 436              		.loc 1 193 0
 437 0148 1D46     		mov	r5, r3
 438              	.LVL43:
 439 014a 08E0     		b	.L18
 440              	.LVL44:
 441              	.L36:
 204:..\src/sensor_commut.c ****                 }
 442              		.loc 1 204 0
 443 014c 1D46     		mov	r5, r3
 444              	.LVL45:
 445 014e 06E0     		b	.L18
 446              	.LVL46:
 447              	.L37:
 209:..\src/sensor_commut.c ****                 }
ARM GAS  C:\Users\Alex\AppData\Local\Temp\cce9W0Dk.s 			page 13


 448              		.loc 1 209 0
 449 0150 1D46     		mov	r5, r3
 450              	.LVL47:
 451 0152 04E0     		b	.L18
 452              	.LVL48:
 453              	.L38:
 214:..\src/sensor_commut.c ****             }
 454              		.loc 1 214 0
 455 0154 1D46     		mov	r5, r3
 456              	.LVL49:
 457 0156 02E0     		b	.L18
 458              	.LVL50:
 459              	.L39:
 223:..\src/sensor_commut.c ****             }
 460              		.loc 1 223 0
 461 0158 1D46     		mov	r5, r3
 462              	.LVL51:
 463 015a 00E0     		b	.L18
 464              	.LVL52:
 465              	.L40:
 228:..\src/sensor_commut.c ****                 {comindx = lastcomindx;}
 466              		.loc 1 228 0
 467 015c 1D46     		mov	r5, r3
 468              	.LVL53:
 469              	.L18:
 229:..\src/sensor_commut.c ****             }
 230:..\src/sensor_commut.c ****         }
 231:..\src/sensor_commut.c ****     }
 232:..\src/sensor_commut.c ****         
 233:..\src/sensor_commut.c ****         
 234:..\src/sensor_commut.c ****     if (findingpoles == 0)
 470              		.loc 1 234 0
 471 015e 104B     		ldr	r3, .L42+8
 472 0160 9B79     		ldrb	r3, [r3, #6]	@ zero_extendqisi2
 473 0162 9BB9     		cbnz	r3, .L28
 235:..\src/sensor_commut.c ****     {Virtual_Hall_Write(hallmap_map2[comindx%6]);}
 474              		.loc 1 235 0
 475 0164 2AB2     		sxth	r2, r5
 476 0166 A3F15533 		sub	r3, r3, #1431655765
 477 016a 03F10043 		add	r3, r3, #-2147483648
 478 016e 83FB0213 		smull	r1, r3, r3, r2
 479 0172 A3EBE273 		sub	r3, r3, r2, asr #31
 480 0176 03EB4303 		add	r3, r3, r3, lsl #1
 481 017a 5B00     		lsls	r3, r3, #1
 482 017c D31A     		subs	r3, r2, r3
 483 017e 1BB2     		sxth	r3, r3
 484 0180 054A     		ldr	r2, .L42
 485 0182 1344     		add	r3, r3, r2
 486 0184 93F80801 		ldrb	r0, [r3, #264]	@ zero_extendqisi2
 487 0188 FFF7FEFF 		bl	Virtual_Hall_Write
 488              	.LVL54:
 489              	.L28:
 236:..\src/sensor_commut.c ****     
 237:..\src/sensor_commut.c ****     lastangle = angle; 
 490              		.loc 1 237 0
 491 018c 044B     		ldr	r3, .L42+8
 492 018e 1C81     		strh	r4, [r3, #8]	@ movhi
ARM GAS  C:\Users\Alex\AppData\Local\Temp\cce9W0Dk.s 			page 14


 238:..\src/sensor_commut.c ****     lastcomindx = comindx;
 493              		.loc 1 238 0
 494 0190 014B     		ldr	r3, .L42
 495 0192 A3F80451 		strh	r5, [r3, #260]	@ movhi
 496 0196 70BD     		pop	{r4, r5, r6, pc}
 497              	.LVL55:
 498              	.L43:
 499              		.align	2
 500              	.L42:
 501 0198 00000000 		.word	.LANCHOR0
 502 019c 83200882 		.word	-2113396605
 503 01a0 00000000 		.word	.LANCHOR1
 504              		.cfi_endproc
 505              	.LFE66:
 506              		.size	motor_spi_block_commutation, .-motor_spi_block_commutation
 507              		.section	.text.motor_spi_block_commutation_triangletest,"ax",%progbits
 508              		.align	2
 509              		.global	motor_spi_block_commutation_triangletest
 510              		.thumb
 511              		.thumb_func
 512              		.type	motor_spi_block_commutation_triangletest, %function
 513              	motor_spi_block_commutation_triangletest:
 514              	.LFB67:
 239:..\src/sensor_commut.c ****      
 240:..\src/sensor_commut.c **** }
 241:..\src/sensor_commut.c **** 
 242:..\src/sensor_commut.c **** void motor_spi_block_commutation_triangletest(){
 515              		.loc 1 242 0
 516              		.cfi_startproc
 517              		@ args = 0, pretend = 0, frame = 0
 518              		@ frame_needed = 0, uses_anonymous_args = 0
 519 0000 08B5     		push	{r3, lr}
 520              		.cfi_def_cfa_offset 8
 521              		.cfi_offset 3, -8
 522              		.cfi_offset 14, -4
 243:..\src/sensor_commut.c ****     static int32 offsetcount = 1;
 244:..\src/sensor_commut.c ****     //Swap between equation and mapping functions
 245:..\src/sensor_commut.c ****     static int16 switchmode = 0;
 246:..\src/sensor_commut.c ****     if (offsetcount%50000==0){
 523              		.loc 1 246 0
 524 0002 204B     		ldr	r3, .L51
 525 0004 D3F81031 		ldr	r3, [r3, #272]
 526 0008 1F4A     		ldr	r2, .L51+4
 527 000a 82FB0321 		smull	r2, r1, r2, r3
 528 000e DA17     		asrs	r2, r3, #31
 529 0010 C2EB2132 		rsb	r2, r2, r1, asr #12
 530 0014 4CF25031 		movw	r1, #50000
 531 0018 01FB1232 		mls	r2, r1, r2, r3
 532 001c 1AB9     		cbnz	r2, .L45
 247:..\src/sensor_commut.c ****         switchmode++;
 533              		.loc 1 247 0
 534 001e 1B49     		ldr	r1, .L51+8
 535 0020 4A89     		ldrh	r2, [r1, #10]
 536 0022 0132     		adds	r2, r2, #1
 537 0024 4A81     		strh	r2, [r1, #10]	@ movhi
 538              	.L45:
 248:..\src/sensor_commut.c ****     }
ARM GAS  C:\Users\Alex\AppData\Local\Temp\cce9W0Dk.s 			page 15


 249:..\src/sensor_commut.c **** 
 250:..\src/sensor_commut.c ****     //Triangle wave speed
 251:..\src/sensor_commut.c ****     static int16 comm_spd = 0;   
 252:..\src/sensor_commut.c ****     if (offsetcount%100 == 0)
 539              		.loc 1 252 0
 540 0026 1A4A     		ldr	r2, .L51+12
 541 0028 82FB0321 		smull	r2, r1, r2, r3
 542 002c DA17     		asrs	r2, r3, #31
 543 002e C2EB6112 		rsb	r2, r2, r1, asr #5
 544 0032 6421     		movs	r1, #100
 545 0034 01FB1232 		mls	r2, r1, r2, r3
 546 0038 C2B9     		cbnz	r2, .L46
 253:..\src/sensor_commut.c ****     {
 254:..\src/sensor_commut.c ****             if (switchmode%4 == 0 || switchmode%4 == 3){comm_spd++;}
 547              		.loc 1 254 0
 548 003a 144B     		ldr	r3, .L51+8
 549 003c 5B89     		ldrh	r3, [r3, #10]
 550 003e 13F0030F 		tst	r3, #3
 551 0042 0AD0     		beq	.L47
 552              		.loc 1 254 0 is_stmt 0 discriminator 2
 553 0044 1BB2     		sxth	r3, r3
 554 0046 134A     		ldr	r2, .L51+16
 555 0048 1340     		ands	r3, r3, r2
 556 004a 03D5     		bpl	.L48
 557 004c 013B     		subs	r3, r3, #1
 558 004e 63F00303 		orn	r3, r3, #3
 559 0052 0133     		adds	r3, r3, #1
 560              	.L48:
 561 0054 1BB2     		sxth	r3, r3
 562 0056 032B     		cmp	r3, #3
 563 0058 04D1     		bne	.L49
 564              	.L47:
 565              		.loc 1 254 0 discriminator 3
 566 005a 0C4A     		ldr	r2, .L51+8
 567 005c 9389     		ldrh	r3, [r2, #12]
 568 005e 0133     		adds	r3, r3, #1
 569 0060 9381     		strh	r3, [r2, #12]	@ movhi
 570 0062 03E0     		b	.L46
 571              	.L49:
 255:..\src/sensor_commut.c ****             else{comm_spd--;}
 572              		.loc 1 255 0 is_stmt 1
 573 0064 094A     		ldr	r2, .L51+8
 574 0066 9389     		ldrh	r3, [r2, #12]
 575 0068 013B     		subs	r3, r3, #1
 576 006a 9381     		strh	r3, [r2, #12]	@ movhi
 577              	.L46:
 256:..\src/sensor_commut.c ****     }   
 257:..\src/sensor_commut.c ****     motor_open_speed_1(comm_spd);
 578              		.loc 1 257 0
 579 006c 074B     		ldr	r3, .L51+8
 580 006e B3F90C00 		ldrsh	r0, [r3, #12]
 581 0072 FFF7FEFF 		bl	motor_open_speed_1
 582              	.LVL56:
 258:..\src/sensor_commut.c ****     offsetcount++;
 583              		.loc 1 258 0
 584 0076 034A     		ldr	r2, .L51
 585 0078 D2F81031 		ldr	r3, [r2, #272]
ARM GAS  C:\Users\Alex\AppData\Local\Temp\cce9W0Dk.s 			page 16


 586 007c 0133     		adds	r3, r3, #1
 587 007e C2F81031 		str	r3, [r2, #272]
 588 0082 08BD     		pop	{r3, pc}
 589              	.L52:
 590              		.align	2
 591              	.L51:
 592 0084 00000000 		.word	.LANCHOR0
 593 0088 89B5F814 		.word	351843721
 594 008c 00000000 		.word	.LANCHOR1
 595 0090 1F85EB51 		.word	1374389535
 596 0094 03000080 		.word	-2147483645
 597              		.cfi_endproc
 598              	.LFE67:
 599              		.size	motor_spi_block_commutation_triangletest, .-motor_spi_block_commutation_triangletest
 600              		.section	.text.motor_spi_findpoles,"ax",%progbits
 601              		.align	2
 602              		.global	motor_spi_findpoles
 603              		.thumb
 604              		.thumb_func
 605              		.type	motor_spi_findpoles, %function
 606              	motor_spi_findpoles:
 607              	.LFB68:
 259:..\src/sensor_commut.c **** }
 260:..\src/sensor_commut.c **** 
 261:..\src/sensor_commut.c **** //Stepper code to map all of the pole positions run at 10000 Hz
 262:..\src/sensor_commut.c **** void motor_spi_findpoles(int angle){   
 608              		.loc 1 262 0
 609              		.cfi_startproc
 610              		@ args = 0, pretend = 0, frame = 0
 611              		@ frame_needed = 0, uses_anonymous_args = 0
 612              	.LVL57:
 613 0000 2DE9F843 		push	{r3, r4, r5, r6, r7, r8, r9, lr}
 614              		.cfi_def_cfa_offset 32
 615              		.cfi_offset 3, -32
 616              		.cfi_offset 4, -28
 617              		.cfi_offset 5, -24
 618              		.cfi_offset 6, -20
 619              		.cfi_offset 7, -16
 620              		.cfi_offset 8, -12
 621              		.cfi_offset 9, -8
 622              		.cfi_offset 14, -4
 263:..\src/sensor_commut.c ****     static int32 curangle = 0, offsetcount = 1;
 264:..\src/sensor_commut.c ****     static int16 polecounter = 0; 
 265:..\src/sensor_commut.c ****     static int16 mincomang = 30000, mincomangindx = -1;
 266:..\src/sensor_commut.c ****     static int32 stepperiod = 4000, numavgsamples = 1000, actnumsamples = 0, lsamp = 0, hsamp = 0, 
 267:..\src/sensor_commut.c ****     if (polecounter<130)
 623              		.loc 1 267 0
 624 0004 A94B     		ldr	r3, .L69
 625 0006 DB89     		ldrh	r3, [r3, #14]
 626 0008 1AB2     		sxth	r2, r3
 627 000a 812A     		cmp	r2, #129
 628 000c 00F3B880 		bgt	.L54
 629 0010 0446     		mov	r4, r0
 268:..\src/sensor_commut.c ****     {
 269:..\src/sensor_commut.c ****         findingpoles = 1;
 630              		.loc 1 269 0
 631 0012 A64D     		ldr	r5, .L69
ARM GAS  C:\Users\Alex\AppData\Local\Temp\cce9W0Dk.s 			page 17


 632 0014 0123     		movs	r3, #1
 633 0016 AB71     		strb	r3, [r5, #6]
 270:..\src/sensor_commut.c ****         motor_open_speed_1(100);
 634              		.loc 1 270 0
 635 0018 6420     		movs	r0, #100
 636              	.LVL58:
 637 001a FFF7FEFF 		bl	motor_open_speed_1
 638              	.LVL59:
 271:..\src/sensor_commut.c ****         Virtual_Hall_Write(hallmap_map[polecounter%6]);
 639              		.loc 1 271 0
 640 001e B5F90E20 		ldrsh	r2, [r5, #14]
 641 0022 A34B     		ldr	r3, .L69+4
 642 0024 83FB0213 		smull	r1, r3, r3, r2
 643 0028 A3EBE273 		sub	r3, r3, r2, asr #31
 644 002c 03EB4303 		add	r3, r3, r3, lsl #1
 645 0030 5B00     		lsls	r3, r3, #1
 646 0032 D31A     		subs	r3, r2, r3
 647 0034 1BB2     		sxth	r3, r3
 648 0036 9F4D     		ldr	r5, .L69+8
 649 0038 2B44     		add	r3, r3, r5
 650 003a 93F81401 		ldrb	r0, [r3, #276]	@ zero_extendqisi2
 651 003e FFF7FEFF 		bl	Virtual_Hall_Write
 652              	.LVL60:
 272:..\src/sensor_commut.c ****         if (offsetcount%stepperiod == 0)
 653              		.loc 1 272 0
 654 0042 D5F81C21 		ldr	r2, [r5, #284]
 655 0046 9C4B     		ldr	r3, .L69+12
 656 0048 83FB0213 		smull	r1, r3, r3, r2
 657 004c D117     		asrs	r1, r2, #31
 658 004e C1EB2323 		rsb	r3, r1, r3, asr #8
 659 0052 4FF47A61 		mov	r1, #4000
 660 0056 01FB1323 		mls	r3, r1, r3, r2
 661 005a 002B     		cmp	r3, #0
 662 005c 6DD1     		bne	.L55
 273:..\src/sensor_commut.c ****         {
 274:..\src/sensor_commut.c ****             if (hsamp == 0 || lsamp || 0)
 663              		.loc 1 274 0
 664 005e 934A     		ldr	r2, .L69
 665 0060 1269     		ldr	r2, [r2, #16]
 666 0062 12B1     		cbz	r2, .L56
 667              		.loc 1 274 0 is_stmt 0 discriminator 1
 668 0064 9149     		ldr	r1, .L69
 669 0066 4D69     		ldr	r5, [r1, #20]
 670 0068 C5B1     		cbz	r5, .L57
 671              	.L56:
 275:..\src/sensor_commut.c ****             {
 276:..\src/sensor_commut.c ****                 polemap[polecounter%126] = (uint16)(curangle/actnumsamples);
 672              		.loc 1 276 0 is_stmt 1
 673 006a 9048     		ldr	r0, .L69
 674 006c B0F90E20 		ldrsh	r2, [r0, #14]
 675 0070 924E     		ldr	r6, .L69+16
 676 0072 82FB0667 		smull	r6, r7, r2, r6
 677 0076 D519     		adds	r5, r2, r7
 678 0078 D117     		asrs	r1, r2, #31
 679 007a C1EBA511 		rsb	r1, r1, r5, asr #6
 680 007e C1EB8111 		rsb	r1, r1, r1, lsl #6
 681 0082 4900     		lsls	r1, r1, #1
ARM GAS  C:\Users\Alex\AppData\Local\Temp\cce9W0Dk.s 			page 18


 682 0084 521A     		subs	r2, r2, r1
 683 0086 12B2     		sxth	r2, r2
 684 0088 8169     		ldr	r1, [r0, #24]
 685 008a C069     		ldr	r0, [r0, #28]
 686 008c 91FBF0F0 		sdiv	r0, r1, r0
 687 0090 8849     		ldr	r1, .L69+8
 688 0092 01EB4202 		add	r2, r1, r2, lsl #1
 689 0096 A2F82001 		strh	r0, [r2, #288]	@ movhi
 690 009a 26E0     		b	.L58
 691              	.L57:
 277:..\src/sensor_commut.c ****             }
 278:..\src/sensor_commut.c ****             else
 279:..\src/sensor_commut.c ****             {
 280:..\src/sensor_commut.c ****                 polemap[polecounter%126] = (uint16)(((lang+16384*lsamp+hang)/(lsamp+hsamp))%16384);
 692              		.loc 1 280 0
 693 009c 834F     		ldr	r7, .L69
 694 009e B7F90E00 		ldrsh	r0, [r7, #14]
 695 00a2 8649     		ldr	r1, .L69+16
 696 00a4 80FB0189 		smull	r8, r9, r0, r1
 697 00a8 00EB0906 		add	r6, r0, r9
 698 00ac C117     		asrs	r1, r0, #31
 699 00ae C1EBA611 		rsb	r1, r1, r6, asr #6
 700 00b2 C1EB8111 		rsb	r1, r1, r1, lsl #6
 701 00b6 4900     		lsls	r1, r1, #1
 702 00b8 411A     		subs	r1, r0, r1
 703 00ba 09B2     		sxth	r1, r1
 704 00bc 386A     		ldr	r0, [r7, #32]
 705 00be 00EB8536 		add	r6, r0, r5, lsl #14
 706 00c2 786A     		ldr	r0, [r7, #36]
 707 00c4 3044     		add	r0, r0, r6
 708 00c6 2A44     		add	r2, r2, r5
 709 00c8 90FBF2F2 		sdiv	r2, r0, r2
 710 00cc 7C48     		ldr	r0, .L69+20
 711 00ce 1040     		ands	r0, r0, r2
 712 00d0 0028     		cmp	r0, #0
 713 00d2 05DA     		bge	.L59
 714 00d4 0138     		subs	r0, r0, #1
 715 00d6 6FEA8040 		mvn	r0, r0, lsl #18
 716 00da 6FEA9040 		mvn	r0, r0, lsr #18
 717 00de 0130     		adds	r0, r0, #1
 718              	.L59:
 719 00e0 744A     		ldr	r2, .L69+8
 720 00e2 02EB4101 		add	r1, r2, r1, lsl #1
 721 00e6 A1F82001 		strh	r0, [r1, #288]	@ movhi
 722              	.L58:
 281:..\src/sensor_commut.c ****             }
 282:..\src/sensor_commut.c ****             if (polemap[polecounter%126]<mincomang)
 723              		.loc 1 282 0
 724 00ea 704A     		ldr	r2, .L69
 725 00ec D089     		ldrh	r0, [r2, #14]
 726 00ee 02B2     		sxth	r2, r0
 727 00f0 724E     		ldr	r6, .L69+16
 728 00f2 82FB0667 		smull	r6, r7, r2, r6
 729 00f6 D519     		adds	r5, r2, r7
 730 00f8 D117     		asrs	r1, r2, #31
 731 00fa C1EBA511 		rsb	r1, r1, r5, asr #6
 732 00fe C1EB8111 		rsb	r1, r1, r1, lsl #6
ARM GAS  C:\Users\Alex\AppData\Local\Temp\cce9W0Dk.s 			page 19


 733 0102 4900     		lsls	r1, r1, #1
 734 0104 521A     		subs	r2, r2, r1
 735 0106 92B2     		uxth	r2, r2
 736 0108 11B2     		sxth	r1, r2
 737 010a 6A4D     		ldr	r5, .L69+8
 738 010c 05EB4101 		add	r1, r5, r1, lsl #1
 739 0110 B1F82011 		ldrh	r1, [r1, #288]
 740 0114 B5F91C52 		ldrsh	r5, [r5, #540]
 741 0118 A942     		cmp	r1, r5
 742 011a 04DA     		bge	.L60
 283:..\src/sensor_commut.c ****             {
 284:..\src/sensor_commut.c ****                 mincomang = polemap[polecounter%126];
 743              		.loc 1 284 0
 744 011c 654D     		ldr	r5, .L69+8
 745 011e A5F81C12 		strh	r1, [r5, #540]	@ movhi
 285:..\src/sensor_commut.c ****                 mincomangindx = polecounter%126;
 746              		.loc 1 285 0
 747 0122 A5F81E22 		strh	r2, [r5, #542]	@ movhi
 748              	.L60:
 286:..\src/sensor_commut.c ****             }
 287:..\src/sensor_commut.c ****             polecounter++;
 749              		.loc 1 287 0
 750 0126 614A     		ldr	r2, .L69
 751 0128 0130     		adds	r0, r0, #1
 752 012a D081     		strh	r0, [r2, #14]	@ movhi
 288:..\src/sensor_commut.c ****             curangle = 0;
 753              		.loc 1 288 0
 754 012c 0021     		movs	r1, #0
 755 012e 9161     		str	r1, [r2, #24]
 289:..\src/sensor_commut.c ****             actnumsamples = 0;
 756              		.loc 1 289 0
 757 0130 D161     		str	r1, [r2, #28]
 290:..\src/sensor_commut.c ****             lsamp = 0;
 758              		.loc 1 290 0
 759 0132 5161     		str	r1, [r2, #20]
 291:..\src/sensor_commut.c ****             hsamp = 0;
 760              		.loc 1 291 0
 761 0134 1161     		str	r1, [r2, #16]
 292:..\src/sensor_commut.c ****             lang = 0;
 762              		.loc 1 292 0
 763 0136 1162     		str	r1, [r2, #32]
 293:..\src/sensor_commut.c ****             hang = 0;
 764              		.loc 1 293 0
 765 0138 5162     		str	r1, [r2, #36]
 766              	.L55:
 294:..\src/sensor_commut.c ****         }
 295:..\src/sensor_commut.c ****         
 296:..\src/sensor_commut.c ****         if (offsetcount%stepperiod >= stepperiod-numavgsamples)
 767              		.loc 1 296 0
 768 013a 40F6B732 		movw	r2, #2999
 769 013e 9342     		cmp	r3, r2
 770 0140 40F3AB80 		ble	.L61
 297:..\src/sensor_commut.c ****         {
 298:..\src/sensor_commut.c ****             curangle = curangle+(int32)angle;
 771              		.loc 1 298 0
 772 0144 594B     		ldr	r3, .L69
 773 0146 9A69     		ldr	r2, [r3, #24]
ARM GAS  C:\Users\Alex\AppData\Local\Temp\cce9W0Dk.s 			page 20


 774 0148 2244     		add	r2, r2, r4
 775 014a 9A61     		str	r2, [r3, #24]
 299:..\src/sensor_commut.c ****             actnumsamples++;
 776              		.loc 1 299 0
 777 014c DA69     		ldr	r2, [r3, #28]
 778 014e 0132     		adds	r2, r2, #1
 779 0150 DA61     		str	r2, [r3, #28]
 300:..\src/sensor_commut.c ****             
 301:..\src/sensor_commut.c ****             if (angle<1000)
 780              		.loc 1 301 0
 781 0152 B4F57A7F 		cmp	r4, #1000
 782 0156 06DA     		bge	.L62
 302:..\src/sensor_commut.c ****             {
 303:..\src/sensor_commut.c ****                 lsamp++;
 783              		.loc 1 303 0
 784 0158 5A69     		ldr	r2, [r3, #20]
 785 015a 0132     		adds	r2, r2, #1
 786 015c 5A61     		str	r2, [r3, #20]
 304:..\src/sensor_commut.c ****                 lang = lang+(int32)angle;
 787              		.loc 1 304 0
 788 015e 1A6A     		ldr	r2, [r3, #32]
 789 0160 1444     		add	r4, r4, r2
 790              	.LVL61:
 791 0162 1C62     		str	r4, [r3, #32]
 792 0164 99E0     		b	.L61
 793              	.LVL62:
 794              	.L62:
 305:..\src/sensor_commut.c ****             }
 306:..\src/sensor_commut.c ****             else if (angle>15000)
 795              		.loc 1 306 0
 796 0166 43F69823 		movw	r3, #15000
 797 016a 9C42     		cmp	r4, r3
 798 016c 40F39580 		ble	.L61
 307:..\src/sensor_commut.c ****             {
 308:..\src/sensor_commut.c ****                 hsamp++;
 799              		.loc 1 308 0
 800 0170 4E4B     		ldr	r3, .L69
 801 0172 1A69     		ldr	r2, [r3, #16]
 802 0174 0132     		adds	r2, r2, #1
 803 0176 1A61     		str	r2, [r3, #16]
 309:..\src/sensor_commut.c ****                 hang = hang+(int32)angle;
 804              		.loc 1 309 0
 805 0178 5A6A     		ldr	r2, [r3, #36]
 806 017a 2244     		add	r2, r2, r4
 807 017c 5A62     		str	r2, [r3, #36]
 808 017e 8CE0     		b	.L61
 809              	.LVL63:
 810              	.L54:
 310:..\src/sensor_commut.c ****             }
 311:..\src/sensor_commut.c ****         }
 312:..\src/sensor_commut.c ****     }
 313:..\src/sensor_commut.c ****     else if (polecounter == 130)
 811              		.loc 1 313 0
 812 0180 1AB2     		sxth	r2, r3
 813 0182 822A     		cmp	r2, #130
 814 0184 40F08480 		bne	.L63
 815              	.LBB2:
ARM GAS  C:\Users\Alex\AppData\Local\Temp\cce9W0Dk.s 			page 21


 314:..\src/sensor_commut.c ****     {
 315:..\src/sensor_commut.c ****         polecounter++;
 816              		.loc 1 315 0
 817 0188 0133     		adds	r3, r3, #1
 818 018a 484A     		ldr	r2, .L69
 819 018c D381     		strh	r3, [r2, #14]	@ movhi
 316:..\src/sensor_commut.c ****         int16 polemapindx = mincomangindx;
 820              		.loc 1 316 0
 821 018e 4948     		ldr	r0, .L69+8
 822              	.LVL64:
 823 0190 B0F81E22 		ldrh	r2, [r0, #542]
 824              	.LVL65:
 317:..\src/sensor_commut.c ****         int16 anglemapindx = 0;
 318:..\src/sensor_commut.c ****         
 319:..\src/sensor_commut.c ****         int16 hallmapindx = (mincomangindx-2)%6;
 825              		.loc 1 319 0
 826 0194 14B2     		sxth	r4, r2
 827 0196 023C     		subs	r4, r4, #2
 828 0198 4549     		ldr	r1, .L69+4
 829 019a 81FB0453 		smull	r5, r3, r1, r4
 830 019e A3EBE473 		sub	r3, r3, r4, asr #31
 831 01a2 03EB4303 		add	r3, r3, r3, lsl #1
 832 01a6 5B00     		lsls	r3, r3, #1
 833 01a8 E31A     		subs	r3, r4, r3
 834              	.LVL66:
 320:..\src/sensor_commut.c ****         hallmap_map2[0] = hallmap_map[hallmapindx];
 835              		.loc 1 320 0
 836 01aa 1BB2     		sxth	r3, r3
 837 01ac C418     		adds	r4, r0, r3
 838 01ae 94F81441 		ldrb	r4, [r4, #276]	@ zero_extendqisi2
 839 01b2 80F80841 		strb	r4, [r0, #264]
 321:..\src/sensor_commut.c ****         hallmap_map2[1] = hallmap_map[(hallmapindx+1)%6];
 840              		.loc 1 321 0
 841 01b6 5D1C     		adds	r5, r3, #1
 842 01b8 81FB0564 		smull	r6, r4, r1, r5
 843 01bc A4EBE574 		sub	r4, r4, r5, asr #31
 844 01c0 04EB4404 		add	r4, r4, r4, lsl #1
 845 01c4 6400     		lsls	r4, r4, #1
 846 01c6 2C1B     		subs	r4, r5, r4
 847 01c8 0444     		add	r4, r4, r0
 848 01ca 94F81441 		ldrb	r4, [r4, #276]	@ zero_extendqisi2
 849 01ce 80F80941 		strb	r4, [r0, #265]
 322:..\src/sensor_commut.c ****         hallmap_map2[2] = hallmap_map[(hallmapindx+2)%6];
 850              		.loc 1 322 0
 851 01d2 9D1C     		adds	r5, r3, #2
 852 01d4 81FB0564 		smull	r6, r4, r1, r5
 853 01d8 A4EBE574 		sub	r4, r4, r5, asr #31
 854 01dc 04EB4404 		add	r4, r4, r4, lsl #1
 855 01e0 6400     		lsls	r4, r4, #1
 856 01e2 2C1B     		subs	r4, r5, r4
 857 01e4 0444     		add	r4, r4, r0
 858 01e6 94F81441 		ldrb	r4, [r4, #276]	@ zero_extendqisi2
 859 01ea 80F80A41 		strb	r4, [r0, #266]
 323:..\src/sensor_commut.c ****         hallmap_map2[3] = hallmap_map[(hallmapindx+3)%6];
 860              		.loc 1 323 0
 861 01ee DD1C     		adds	r5, r3, #3
 862 01f0 81FB0564 		smull	r6, r4, r1, r5
ARM GAS  C:\Users\Alex\AppData\Local\Temp\cce9W0Dk.s 			page 22


 863 01f4 A4EBE574 		sub	r4, r4, r5, asr #31
 864 01f8 04EB4404 		add	r4, r4, r4, lsl #1
 865 01fc 6400     		lsls	r4, r4, #1
 866 01fe 2C1B     		subs	r4, r5, r4
 867 0200 0444     		add	r4, r4, r0
 868 0202 94F81441 		ldrb	r4, [r4, #276]	@ zero_extendqisi2
 869 0206 80F80B41 		strb	r4, [r0, #267]
 324:..\src/sensor_commut.c ****         hallmap_map2[4] = hallmap_map[(hallmapindx+4)%6];
 870              		.loc 1 324 0
 871 020a 1D1D     		adds	r5, r3, #4
 872 020c 81FB0564 		smull	r6, r4, r1, r5
 873 0210 A4EBE574 		sub	r4, r4, r5, asr #31
 874 0214 04EB4404 		add	r4, r4, r4, lsl #1
 875 0218 6400     		lsls	r4, r4, #1
 876 021a 2C1B     		subs	r4, r5, r4
 877 021c 0444     		add	r4, r4, r0
 878 021e 94F81441 		ldrb	r4, [r4, #276]	@ zero_extendqisi2
 879 0222 80F80C41 		strb	r4, [r0, #268]
 325:..\src/sensor_commut.c ****         hallmap_map2[5] = hallmap_map[(hallmapindx+5)%6];
 880              		.loc 1 325 0
 881 0226 0533     		adds	r3, r3, #5
 882              	.LVL67:
 883 0228 81FB0341 		smull	r4, r1, r1, r3
 884 022c A1EBE371 		sub	r1, r1, r3, asr #31
 885 0230 01EB4101 		add	r1, r1, r1, lsl #1
 886 0234 4900     		lsls	r1, r1, #1
 887 0236 591A     		subs	r1, r3, r1
 888 0238 0144     		add	r1, r1, r0
 889 023a 91F81431 		ldrb	r3, [r1, #276]	@ zero_extendqisi2
 890              	.LVL68:
 891 023e 80F80D31 		strb	r3, [r0, #269]
 317:..\src/sensor_commut.c ****         
 892              		.loc 1 317 0
 893 0242 0023     		movs	r3, #0
 326:..\src/sensor_commut.c ****         
 327:..\src/sensor_commut.c ****         while (polemapindx <126)
 894              		.loc 1 327 0
 895 0244 0DE0     		b	.L64
 896              	.LVL69:
 897              	.L65:
 328:..\src/sensor_commut.c ****         {
 329:..\src/sensor_commut.c ****             anglemap[anglemapindx] = polemap[polemapindx];
 898              		.loc 1 329 0
 899 0246 1CB2     		sxth	r4, r3
 900 0248 1A49     		ldr	r1, .L69+8
 901 024a 10B2     		sxth	r0, r2
 902 024c 01EB4000 		add	r0, r1, r0, lsl #1
 903 0250 B0F82001 		ldrh	r0, [r0, #288]
 904 0254 01EB4401 		add	r1, r1, r4, lsl #1
 905 0258 0881     		strh	r0, [r1, #8]	@ movhi
 330:..\src/sensor_commut.c ****             polemapindx++;
 906              		.loc 1 330 0
 907 025a 0132     		adds	r2, r2, #1
 908              	.LVL70:
 909 025c 92B2     		uxth	r2, r2
 910              	.LVL71:
 331:..\src/sensor_commut.c ****             anglemapindx++;
ARM GAS  C:\Users\Alex\AppData\Local\Temp\cce9W0Dk.s 			page 23


 911              		.loc 1 331 0
 912 025e 0133     		adds	r3, r3, #1
 913              	.LVL72:
 914 0260 9BB2     		uxth	r3, r3
 915              	.LVL73:
 916              	.L64:
 327:..\src/sensor_commut.c ****         {
 917              		.loc 1 327 0
 918 0262 11B2     		sxth	r1, r2
 919 0264 7D29     		cmp	r1, #125
 920 0266 EEDD     		ble	.L65
 921 0268 0022     		movs	r2, #0
 922              	.LVL74:
 923 026a 0DE0     		b	.L66
 924              	.LVL75:
 925              	.L67:
 332:..\src/sensor_commut.c ****         }
 333:..\src/sensor_commut.c ****         polemapindx = 0;
 334:..\src/sensor_commut.c ****         while (anglemapindx<126)
 335:..\src/sensor_commut.c ****         {
 336:..\src/sensor_commut.c ****             anglemap[anglemapindx] = polemap[polemapindx];
 926              		.loc 1 336 0
 927 026c 1CB2     		sxth	r4, r3
 928 026e 1149     		ldr	r1, .L69+8
 929 0270 10B2     		sxth	r0, r2
 930 0272 01EB4000 		add	r0, r1, r0, lsl #1
 931 0276 B0F82001 		ldrh	r0, [r0, #288]
 932 027a 01EB4401 		add	r1, r1, r4, lsl #1
 933 027e 0881     		strh	r0, [r1, #8]	@ movhi
 337:..\src/sensor_commut.c ****             polemapindx++;
 934              		.loc 1 337 0
 935 0280 0132     		adds	r2, r2, #1
 936              	.LVL76:
 937 0282 92B2     		uxth	r2, r2
 938              	.LVL77:
 338:..\src/sensor_commut.c ****             anglemapindx++;
 939              		.loc 1 338 0
 940 0284 0133     		adds	r3, r3, #1
 941              	.LVL78:
 942 0286 9BB2     		uxth	r3, r3
 943              	.LVL79:
 944              	.L66:
 334:..\src/sensor_commut.c ****         {
 945              		.loc 1 334 0
 946 0288 19B2     		sxth	r1, r3
 947 028a 7D29     		cmp	r1, #125
 948 028c EEDD     		ble	.L67
 949 028e 04E0     		b	.L61
 950              	.LVL80:
 951              	.L63:
 952              	.LBE2:
 339:..\src/sensor_commut.c ****         }
 340:..\src/sensor_commut.c ****     }
 341:..\src/sensor_commut.c ****     else 
 342:..\src/sensor_commut.c ****     {
 343:..\src/sensor_commut.c ****         findingpoles = 0;
 953              		.loc 1 343 0
ARM GAS  C:\Users\Alex\AppData\Local\Temp\cce9W0Dk.s 			page 24


 954 0290 0020     		movs	r0, #0
 955              	.LVL81:
 956 0292 064B     		ldr	r3, .L69
 957 0294 9871     		strb	r0, [r3, #6]
 344:..\src/sensor_commut.c ****         motor_open_speed_1(0);
 958              		.loc 1 344 0
 959 0296 FFF7FEFF 		bl	motor_open_speed_1
 960              	.LVL82:
 961              	.L61:
 345:..\src/sensor_commut.c ****     }
 346:..\src/sensor_commut.c ****     
 347:..\src/sensor_commut.c ****     
 348:..\src/sensor_commut.c ****     offsetcount++;
 962              		.loc 1 348 0
 963 029a 064A     		ldr	r2, .L69+8
 964 029c D2F81C31 		ldr	r3, [r2, #284]
 965 02a0 0133     		adds	r3, r3, #1
 966 02a2 C2F81C31 		str	r3, [r2, #284]
 967 02a6 BDE8F883 		pop	{r3, r4, r5, r6, r7, r8, r9, pc}
 968              	.L70:
 969 02aa 00BF     		.align	2
 970              	.L69:
 971 02ac 00000000 		.word	.LANCHOR1
 972 02b0 ABAAAA2A 		.word	715827883
 973 02b4 00000000 		.word	.LANCHOR0
 974 02b8 D34D6210 		.word	274877907
 975 02bc 83200882 		.word	-2113396605
 976 02c0 FF3F0080 		.word	-2147467265
 977              		.cfi_endproc
 978              	.LFE68:
 979              		.size	motor_spi_findpoles, .-motor_spi_findpoles
 980              		.section	.text.sensor_commut_1,"ax",%progbits
 981              		.align	2
 982              		.global	sensor_commut_1
 983              		.thumb
 984              		.thumb_func
 985              		.type	sensor_commut_1, %function
 986              	sensor_commut_1:
 987              	.LFB69:
 349:..\src/sensor_commut.c **** }
 350:..\src/sensor_commut.c **** 
 351:..\src/sensor_commut.c **** //Call this function at 10kHz, in the main FSM:
 352:..\src/sensor_commut.c **** void sensor_commut_1(void)
 353:..\src/sensor_commut.c **** {
 988              		.loc 1 353 0
 989              		.cfi_startproc
 990              		@ args = 0, pretend = 0, frame = 0
 991              		@ frame_needed = 0, uses_anonymous_args = 0
 992 0000 08B5     		push	{r3, lr}
 993              		.cfi_def_cfa_offset 8
 994              		.cfi_offset 3, -8
 995              		.cfi_offset 14, -4
 354:..\src/sensor_commut.c **** 	static int16 mot_spins = 0;
 355:..\src/sensor_commut.c **** 	int32 tempangle;
 356:..\src/sensor_commut.c **** 	tempangle = (as5047_read_single(AS5047_REG_ANGLECOM));//%16384;
 996              		.loc 1 356 0
 997 0002 43F6FF70 		movw	r0, #16383
ARM GAS  C:\Users\Alex\AppData\Local\Temp\cce9W0Dk.s 			page 25


 998 0006 FFF7FEFF 		bl	as5047_read_single
 999              	.LVL83:
 357:..\src/sensor_commut.c **** 	if (tempangle<1000 && as5047.angle_raw>15000)
 1000              		.loc 1 357 0
 1001 000a B0F57A7F 		cmp	r0, #1000
 1002 000e 0ADA     		bge	.L72
 1003              		.loc 1 357 0 is_stmt 0 discriminator 1
 1004 0010 124B     		ldr	r3, .L75
 1005 0012 1A88     		ldrh	r2, [r3]
 1006 0014 43F69823 		movw	r3, #15000
 1007 0018 9A42     		cmp	r2, r3
 1008 001a 04D9     		bls	.L72
 358:..\src/sensor_commut.c **** 	{
 359:..\src/sensor_commut.c **** 	    mot_spins++;  
 1009              		.loc 1 359 0 is_stmt 1
 1010 001c 104A     		ldr	r2, .L75+4
 1011 001e 138D     		ldrh	r3, [r2, #40]
 1012 0020 0133     		adds	r3, r3, #1
 1013 0022 1385     		strh	r3, [r2, #40]	@ movhi
 1014 0024 0CE0     		b	.L73
 1015              	.L72:
 360:..\src/sensor_commut.c **** 	}
 361:..\src/sensor_commut.c **** 	else if ((tempangle>15000 && as5047.angle_raw<1000))
 1016              		.loc 1 361 0
 1017 0026 43F69823 		movw	r3, #15000
 1018 002a 9842     		cmp	r0, r3
 1019 002c 08DD     		ble	.L73
 1020              		.loc 1 361 0 is_stmt 0 discriminator 1
 1021 002e 0B4B     		ldr	r3, .L75
 1022 0030 1B88     		ldrh	r3, [r3]
 1023 0032 B3F57A7F 		cmp	r3, #1000
 1024 0036 03D2     		bcs	.L73
 362:..\src/sensor_commut.c **** 	{
 363:..\src/sensor_commut.c **** 	    mot_spins--;
 1025              		.loc 1 363 0 is_stmt 1
 1026 0038 094A     		ldr	r2, .L75+4
 1027 003a 138D     		ldrh	r3, [r2, #40]
 1028 003c 013B     		subs	r3, r3, #1
 1029 003e 1385     		strh	r3, [r2, #40]	@ movhi
 1030              	.L73:
 364:..\src/sensor_commut.c **** 	}
 365:..\src/sensor_commut.c **** 	as5047.angle_cont = mot_spins*16384+tempangle;
 1031              		.loc 1 365 0
 1032 0040 074B     		ldr	r3, .L75+4
 1033 0042 B3F92820 		ldrsh	r2, [r3, #40]
 1034 0046 00EB8232 		add	r2, r0, r2, lsl #14
 1035 004a 0449     		ldr	r1, .L75
 1036 004c D317     		asrs	r3, r2, #31
 1037 004e C1E90223 		strd	r2, [r1, #8]
 366:..\src/sensor_commut.c **** 	as5047.angle_raw = tempangle;
 1038              		.loc 1 366 0
 1039 0052 0880     		strh	r0, [r1]	@ movhi
 367:..\src/sensor_commut.c **** 
 368:..\src/sensor_commut.c **** 	motor_spi_block_commutation(as5047.angle_raw);
 1040              		.loc 1 368 0
 1041 0054 FFF7FEFF 		bl	motor_spi_block_commutation
 1042              	.LVL84:
ARM GAS  C:\Users\Alex\AppData\Local\Temp\cce9W0Dk.s 			page 26


 1043 0058 08BD     		pop	{r3, pc}
 1044              	.L76:
 1045 005a 00BF     		.align	2
 1046              	.L75:
 1047 005c 00000000 		.word	as5047
 1048 0060 00000000 		.word	.LANCHOR1
 1049              		.cfi_endproc
 1050              	.LFE69:
 1051              		.size	sensor_commut_1, .-sensor_commut_1
 1052              		.global	findingpoles
 1053              		.global	hallmap_map
 1054              		.global	hallmap_map2
 1055              		.global	polemap
 1056              		.global	anglemap
 1057              		.global	hall_conv
 1058              		.data
 1059              		.align	2
 1060              		.set	.LANCHOR0,. + 0
 1061              		.type	hall_conv, %object
 1062              		.size	hall_conv, 6
 1063              	hall_conv:
 1064 0000 05       		.byte	5
 1065 0001 04       		.byte	4
 1066 0002 06       		.byte	6
 1067 0003 02       		.byte	2
 1068 0004 03       		.byte	3
 1069 0005 01       		.byte	1
 1070 0006 0000     		.space	2
 1071              		.type	anglemap, %object
 1072              		.size	anglemap, 252
 1073              	anglemap:
 1074 0008 3500     		.short	53
 1075 000a A400     		.short	164
 1076 000c 3101     		.short	305
 1077 000e B401     		.short	436
 1078 0010 3102     		.short	561
 1079 0012 B202     		.short	690
 1080 0014 2E03     		.short	814
 1081 0016 C903     		.short	969
 1082 0018 3904     		.short	1081
 1083 001a C504     		.short	1221
 1084 001c 4405     		.short	1348
 1085 001e C605     		.short	1478
 1086 0020 4306     		.short	1603
 1087 0022 BF06     		.short	1727
 1088 0024 5A07     		.short	1882
 1089 0026 C707     		.short	1991
 1090 0028 5008     		.short	2128
 1091 002a D608     		.short	2262
 1092 002c 5309     		.short	2387
 1093 002e CF09     		.short	2511
 1094 0030 4B0A     		.short	2635
 1095 0032 E60A     		.short	2790
 1096 0034 520B     		.short	2898
 1097 0036 DF0B     		.short	3039
 1098 0038 5F0C     		.short	3167
 1099 003a DE0C     		.short	3294
ARM GAS  C:\Users\Alex\AppData\Local\Temp\cce9W0Dk.s 			page 27


 1100 003c 5C0D     		.short	3420
 1101 003e D80D     		.short	3544
 1102 0040 710E     		.short	3697
 1103 0042 E00E     		.short	3808
 1104 0044 6A0F     		.short	3946
 1105 0046 E80F     		.short	4072
 1106 0048 6A10     		.short	4202
 1107 004a E910     		.short	4329
 1108 004c 6211     		.short	4450
 1109 004e FE11     		.short	4606
 1110 0050 6A12     		.short	4714
 1111 0052 F412     		.short	4852
 1112 0054 7313     		.short	4979
 1113 0056 F213     		.short	5106
 1114 0058 6F14     		.short	5231
 1115 005a EB14     		.short	5355
 1116 005c 8315     		.short	5507
 1117 005e F015     		.short	5616
 1118 0060 7B16     		.short	5755
 1119 0062 F716     		.short	5879
 1120 0064 7617     		.short	6006
 1121 0066 F917     		.short	6137
 1122 0068 7018     		.short	6256
 1123 006a 0B19     		.short	6411
 1124 006c 7919     		.short	6521
 1125 006e 041A     		.short	6660
 1126 0070 7E1A     		.short	6782
 1127 0072 061B     		.short	6918
 1128 0074 861B     		.short	7046
 1129 0076 011C     		.short	7169
 1130 0078 9F1C     		.short	7327
 1131 007a 0F1D     		.short	7439
 1132 007c 9A1D     		.short	7578
 1133 007e 1D1E     		.short	7709
 1134 0080 A01E     		.short	7840
 1135 0082 241F     		.short	7972
 1136 0084 A01F     		.short	8096
 1137 0086 3F20     		.short	8255
 1138 0088 AF20     		.short	8367
 1139 008a 4121     		.short	8513
 1140 008c C121     		.short	8641
 1141 008e 4422     		.short	8772
 1142 0090 CA22     		.short	8906
 1143 0092 4323     		.short	9027
 1144 0094 DF23     		.short	9183
 1145 0096 5324     		.short	9299
 1146 0098 DF24     		.short	9439
 1147 009a 5F25     		.short	9567
 1148 009c E325     		.short	9699
 1149 009e 6726     		.short	9831
 1150 00a0 DD26     		.short	9949
 1151 00a2 7A27     		.short	10106
 1152 00a4 E927     		.short	10217
 1153 00a6 7328     		.short	10355
 1154 00a8 F428     		.short	10484
 1155 00aa 7629     		.short	10614
 1156 00ac F729     		.short	10743
ARM GAS  C:\Users\Alex\AppData\Local\Temp\cce9W0Dk.s 			page 28


 1157 00ae 702A     		.short	10864
 1158 00b0 092B     		.short	11017
 1159 00b2 782B     		.short	11128
 1160 00b4 022C     		.short	11266
 1161 00b6 822C     		.short	11394
 1162 00b8 012D     		.short	11521
 1163 00ba 872D     		.short	11655
 1164 00bc FD2D     		.short	11773
 1165 00be 962E     		.short	11926
 1166 00c0 042F     		.short	12036
 1167 00c2 8E2F     		.short	12174
 1168 00c4 0830     		.short	12296
 1169 00c6 8D30     		.short	12429
 1170 00c8 0E31     		.short	12558
 1171 00ca 8631     		.short	12678
 1172 00cc 1E32     		.short	12830
 1173 00ce 8C32     		.short	12940
 1174 00d0 1133     		.short	13073
 1175 00d2 9033     		.short	13200
 1176 00d4 0E34     		.short	13326
 1177 00d6 8F34     		.short	13455
 1178 00d8 0735     		.short	13575
 1179 00da 9F35     		.short	13727
 1180 00dc 0B36     		.short	13835
 1181 00de 9336     		.short	13971
 1182 00e0 0D37     		.short	14093
 1183 00e2 8D37     		.short	14221
 1184 00e4 0E38     		.short	14350
 1185 00e6 8438     		.short	14468
 1186 00e8 1B39     		.short	14619
 1187 00ea 8B39     		.short	14731
 1188 00ec 113A     		.short	14865
 1189 00ee 8E3A     		.short	14990
 1190 00f0 0F3B     		.short	15119
 1191 00f2 8E3B     		.short	15246
 1192 00f4 073C     		.short	15367
 1193 00f6 A43C     		.short	15524
 1194 00f8 113D     		.short	15633
 1195 00fa 9A3D     		.short	15770
 1196 00fc 1D3E     		.short	15901
 1197 00fe 9D3E     		.short	16029
 1198 0100 1A3F     		.short	16154
 1199 0102 993F     		.short	16281
 1200              		.type	lastcomindx.10493, %object
 1201              		.size	lastcomindx.10493, 2
 1202              	lastcomindx.10493:
 1203 0104 0100     		.short	1
 1204 0106 0000     		.space	2
 1205              		.type	hallmap_map2, %object
 1206              		.size	hallmap_map2, 6
 1207              	hallmap_map2:
 1208 0108 02       		.byte	2
 1209 0109 06       		.byte	6
 1210 010a 04       		.byte	4
 1211 010b 05       		.byte	5
 1212 010c 01       		.byte	1
 1213 010d 03       		.byte	3
ARM GAS  C:\Users\Alex\AppData\Local\Temp\cce9W0Dk.s 			page 29


 1214 010e 0000     		.space	2
 1215              		.type	offsetcount.10506, %object
 1216              		.size	offsetcount.10506, 4
 1217              	offsetcount.10506:
 1218 0110 01000000 		.word	1
 1219              		.type	hallmap_map, %object
 1220              		.size	hallmap_map, 6
 1221              	hallmap_map:
 1222 0114 06       		.byte	6
 1223 0115 04       		.byte	4
 1224 0116 05       		.byte	5
 1225 0117 01       		.byte	1
 1226 0118 03       		.byte	3
 1227 0119 02       		.byte	2
 1228 011a 0000     		.space	2
 1229              		.type	offsetcount.10513, %object
 1230              		.size	offsetcount.10513, 4
 1231              	offsetcount.10513:
 1232 011c 01000000 		.word	1
 1233              		.type	polemap, %object
 1234              		.size	polemap, 252
 1235              	polemap:
 1236 0120 0400     		.short	4
 1237 0122 0600     		.short	6
 1238 0124 0200     		.short	2
 1239 0126 0300     		.short	3
 1240 0128 0100     		.short	1
 1241 012a 0500     		.short	5
 1242 012c 0400     		.short	4
 1243 012e 0600     		.short	6
 1244 0130 0200     		.short	2
 1245 0132 0300     		.short	3
 1246 0134 0100     		.short	1
 1247 0136 0500     		.short	5
 1248 0138 0400     		.short	4
 1249 013a 0600     		.short	6
 1250 013c 0200     		.short	2
 1251 013e 0300     		.short	3
 1252 0140 0100     		.short	1
 1253 0142 0500     		.short	5
 1254 0144 0400     		.short	4
 1255 0146 0600     		.short	6
 1256 0148 0200     		.short	2
 1257 014a 0300     		.short	3
 1258 014c 0100     		.short	1
 1259 014e 0500     		.short	5
 1260 0150 0400     		.short	4
 1261 0152 0600     		.short	6
 1262 0154 0200     		.short	2
 1263 0156 0300     		.short	3
 1264 0158 0100     		.short	1
 1265 015a 0500     		.short	5
 1266 015c 0400     		.short	4
 1267 015e 0600     		.short	6
 1268 0160 0200     		.short	2
 1269 0162 0300     		.short	3
 1270 0164 0100     		.short	1
ARM GAS  C:\Users\Alex\AppData\Local\Temp\cce9W0Dk.s 			page 30


 1271 0166 0500     		.short	5
 1272 0168 0400     		.short	4
 1273 016a 0600     		.short	6
 1274 016c 0200     		.short	2
 1275 016e 0300     		.short	3
 1276 0170 0100     		.short	1
 1277 0172 0500     		.short	5
 1278 0174 0400     		.short	4
 1279 0176 0600     		.short	6
 1280 0178 0200     		.short	2
 1281 017a 0300     		.short	3
 1282 017c 0100     		.short	1
 1283 017e 0500     		.short	5
 1284 0180 0400     		.short	4
 1285 0182 0600     		.short	6
 1286 0184 0200     		.short	2
 1287 0186 0300     		.short	3
 1288 0188 0100     		.short	1
 1289 018a 0500     		.short	5
 1290 018c 0400     		.short	4
 1291 018e 0600     		.short	6
 1292 0190 0200     		.short	2
 1293 0192 0300     		.short	3
 1294 0194 0100     		.short	1
 1295 0196 0500     		.short	5
 1296 0198 0400     		.short	4
 1297 019a 0600     		.short	6
 1298 019c 0200     		.short	2
 1299 019e 0300     		.short	3
 1300 01a0 0100     		.short	1
 1301 01a2 0500     		.short	5
 1302 01a4 0400     		.short	4
 1303 01a6 0600     		.short	6
 1304 01a8 0200     		.short	2
 1305 01aa 0300     		.short	3
 1306 01ac 0100     		.short	1
 1307 01ae 0500     		.short	5
 1308 01b0 0400     		.short	4
 1309 01b2 0600     		.short	6
 1310 01b4 0200     		.short	2
 1311 01b6 0300     		.short	3
 1312 01b8 0100     		.short	1
 1313 01ba 0500     		.short	5
 1314 01bc 0400     		.short	4
 1315 01be 0600     		.short	6
 1316 01c0 0200     		.short	2
 1317 01c2 0300     		.short	3
 1318 01c4 0100     		.short	1
 1319 01c6 0500     		.short	5
 1320 01c8 0400     		.short	4
 1321 01ca 0600     		.short	6
 1322 01cc 0200     		.short	2
 1323 01ce 0300     		.short	3
 1324 01d0 0100     		.short	1
 1325 01d2 0500     		.short	5
 1326 01d4 0400     		.short	4
 1327 01d6 0600     		.short	6
ARM GAS  C:\Users\Alex\AppData\Local\Temp\cce9W0Dk.s 			page 31


 1328 01d8 0200     		.short	2
 1329 01da 0300     		.short	3
 1330 01dc 0100     		.short	1
 1331 01de 0500     		.short	5
 1332 01e0 0400     		.short	4
 1333 01e2 0600     		.short	6
 1334 01e4 0200     		.short	2
 1335 01e6 0300     		.short	3
 1336 01e8 0100     		.short	1
 1337 01ea 0500     		.short	5
 1338 01ec 0400     		.short	4
 1339 01ee 0600     		.short	6
 1340 01f0 0200     		.short	2
 1341 01f2 0300     		.short	3
 1342 01f4 0100     		.short	1
 1343 01f6 0500     		.short	5
 1344 01f8 0400     		.short	4
 1345 01fa 0600     		.short	6
 1346 01fc 0200     		.short	2
 1347 01fe 0300     		.short	3
 1348 0200 0100     		.short	1
 1349 0202 0500     		.short	5
 1350 0204 0400     		.short	4
 1351 0206 0600     		.short	6
 1352 0208 0200     		.short	2
 1353 020a 0300     		.short	3
 1354 020c 0100     		.short	1
 1355 020e 0500     		.short	5
 1356 0210 0400     		.short	4
 1357 0212 0600     		.short	6
 1358 0214 0200     		.short	2
 1359 0216 0300     		.short	3
 1360 0218 0100     		.short	1
 1361 021a 0500     		.short	5
 1362              		.type	mincomang.10515, %object
 1363              		.size	mincomang.10515, 2
 1364              	mincomang.10515:
 1365 021c 3075     		.short	30000
 1366              		.type	mincomangindx.10516, %object
 1367              		.size	mincomangindx.10516, 2
 1368              	mincomangindx.10516:
 1369 021e FFFF     		.short	-1
 1370              		.bss
 1371              		.align	2
 1372              		.set	.LANCHOR1,. + 0
 1373              		.type	delay_cnt.10488, %object
 1374              		.size	delay_cnt.10488, 4
 1375              	delay_cnt.10488:
 1376 0000 00000000 		.space	4
 1377              		.type	hall_code_0.10486, %object
 1378              		.size	hall_code_0.10486, 1
 1379              	hall_code_0.10486:
 1380 0004 00       		.space	1
 1381              		.type	hall_code.10487, %object
 1382              		.size	hall_code.10487, 1
 1383              	hall_code.10487:
 1384 0005 00       		.space	1
ARM GAS  C:\Users\Alex\AppData\Local\Temp\cce9W0Dk.s 			page 32


 1385              		.type	findingpoles, %object
 1386              		.size	findingpoles, 1
 1387              	findingpoles:
 1388 0006 00       		.space	1
 1389 0007 00       		.space	1
 1390              		.type	lastangle.10492, %object
 1391              		.size	lastangle.10492, 2
 1392              	lastangle.10492:
 1393 0008 0000     		.space	2
 1394              		.type	switchmode.10507, %object
 1395              		.size	switchmode.10507, 2
 1396              	switchmode.10507:
 1397 000a 0000     		.space	2
 1398              		.type	comm_spd.10508, %object
 1399              		.size	comm_spd.10508, 2
 1400              	comm_spd.10508:
 1401 000c 0000     		.space	2
 1402              		.type	polecounter.10514, %object
 1403              		.size	polecounter.10514, 2
 1404              	polecounter.10514:
 1405 000e 0000     		.space	2
 1406              		.type	hsamp.10521, %object
 1407              		.size	hsamp.10521, 4
 1408              	hsamp.10521:
 1409 0010 00000000 		.space	4
 1410              		.type	lsamp.10520, %object
 1411              		.size	lsamp.10520, 4
 1412              	lsamp.10520:
 1413 0014 00000000 		.space	4
 1414              		.type	curangle.10512, %object
 1415              		.size	curangle.10512, 4
 1416              	curangle.10512:
 1417 0018 00000000 		.space	4
 1418              		.type	actnumsamples.10519, %object
 1419              		.size	actnumsamples.10519, 4
 1420              	actnumsamples.10519:
 1421 001c 00000000 		.space	4
 1422              		.type	lang.10522, %object
 1423              		.size	lang.10522, 4
 1424              	lang.10522:
 1425 0020 00000000 		.space	4
 1426              		.type	hang.10523, %object
 1427              		.size	hang.10523, 4
 1428              	hang.10523:
 1429 0024 00000000 		.space	4
 1430              		.type	mot_spins.10536, %object
 1431              		.size	mot_spins.10536, 2
 1432              	mot_spins.10536:
 1433 0028 0000     		.space	2
 1434 002a 0000     		.text
 1435              	.Letext0:
 1436              		.file 2 "c:\\program files (x86)\\cypress\\psoc creator\\3.3\\psoc creator\\import\\gnu\\arm\\4.9.
 1437              		.file 3 "c:\\program files (x86)\\cypress\\psoc creator\\3.3\\psoc creator\\import\\gnu\\arm\\4.9.
 1438              		.file 4 "Generated_Source\\PSoC5/cytypes.h"
 1439              		.file 5 "..\\inc/ext_input.h"
 1440              		.file 6 "..\\inc/../../flexsea-system/inc/flexsea_cmd_control.h"
 1441              		.file 7 "Generated_Source\\PSoC5/core_cm3.h"
ARM GAS  C:\Users\Alex\AppData\Local\Temp\cce9W0Dk.s 			page 33


 1442              		.file 8 "..\\inc/control.h"
 1443              		.file 9 "Generated_Source\\PSoC5/Coast_Brake.h"
 1444              		.file 10 "..\\inc/motor.h"
 1445              		.file 11 "Generated_Source\\PSoC5/Virtual_Hall.h"
 1446              		.file 12 "Generated_Source\\PSoC5/LED_R.h"
 1447              		.file 13 "Generated_Source\\PSoC5/LED_G.h"
 1448              		.file 14 "Generated_Source\\PSoC5/LED_B.h"
 1449              		.file 15 "Generated_Source\\PSoC5/CyLib.h"