ARM GAS  C:\Users\Alex\AppData\Local\Temp\ccW3KqpB.s 			page 1


   1              		.syntax unified
   2              		.cpu cortex-m3
   3              		.fpu softvfp
   4              		.eabi_attribute 20, 1
   5              		.eabi_attribute 21, 1
   6              		.eabi_attribute 23, 3
   7              		.eabi_attribute 24, 1
   8              		.eabi_attribute 25, 1
   9              		.eabi_attribute 26, 1
  10              		.eabi_attribute 30, 1
  11              		.eabi_attribute 34, 1
  12              		.eabi_attribute 18, 4
  13              		.thumb
  14              		.file	"serial.c"
  15              		.text
  16              	.Ltext0:
  17              		.cfi_sections	.debug_frame
  18              		.global _printf_float
  19              		.thumb
  20              		.section	.text.init_dma_3,"ax",%progbits
  21              		.align	2
  22              		.thumb
  23              		.thumb_func
  24              		.type	init_dma_3, %function
  25              	init_dma_3:
  26              	.LFB71:
  27              		.file 1 "..\\src\\serial.c"
   1:..\src/serial.c **** //****************************************************************************
   2:..\src/serial.c **** // MIT Media Lab - Biomechatronics
   3:..\src/serial.c **** // Jean-Francois (Jeff) Duval
   4:..\src/serial.c **** // jfduval@mit.edu
   5:..\src/serial.c **** // 05/2015
   6:..\src/serial.c **** //****************************************************************************
   7:..\src/serial.c **** // serial: code for UART module
   8:..\src/serial.c **** //****************************************************************************
   9:..\src/serial.c **** 
  10:..\src/serial.c **** //****************************************************************************
  11:..\src/serial.c **** // Include(s)
  12:..\src/serial.c **** //****************************************************************************
  13:..\src/serial.c **** 
  14:..\src/serial.c **** #include "main.h"
  15:..\src/serial.c **** #include "serial.h"
  16:..\src/serial.c **** 
  17:..\src/serial.c **** //****************************************************************************
  18:..\src/serial.c **** // Variable(s)
  19:..\src/serial.c **** //****************************************************************************
  20:..\src/serial.c **** 
  21:..\src/serial.c **** uint8 uart_dma_rx_buf[96];	//ToDo #define
  22:..\src/serial.c **** uint8 uart_dma_tx_buf[96];
  23:..\src/serial.c **** uint8 DMA_4_Chan;
  24:..\src/serial.c **** uint8 DMA_4_TD[1];
  25:..\src/serial.c **** volatile int8_t tx_cnt = 0;
  26:..\src/serial.c **** 
  27:..\src/serial.c **** uint8 reply_ready_buf[96];
  28:..\src/serial.c **** uint8 reply_ready_flag = 0;
  29:..\src/serial.c **** uint8 reply_ready_len = 0;
  30:..\src/serial.c **** uint8 reply_ready_timestamp = 0;
ARM GAS  C:\Users\Alex\AppData\Local\Temp\ccW3KqpB.s 			page 2


  31:..\src/serial.c **** 
  32:..\src/serial.c **** //****************************************************************************
  33:..\src/serial.c **** // Private Function Prototype(s):
  34:..\src/serial.c **** //****************************************************************************
  35:..\src/serial.c **** 
  36:..\src/serial.c **** static void init_dma_3(void);
  37:..\src/serial.c **** static void init_dma_4(void);
  38:..\src/serial.c **** 
  39:..\src/serial.c **** //****************************************************************************
  40:..\src/serial.c **** // Public Function(s)
  41:..\src/serial.c **** //****************************************************************************
  42:..\src/serial.c **** 
  43:..\src/serial.c **** //Sends a single character to the UART
  44:..\src/serial.c **** void rs485_putc(uint8 byte)
  45:..\src/serial.c **** {
  46:..\src/serial.c **** 	NOT_RE_Write(1);			//Disable Receiver
  47:..\src/serial.c **** 	UART_2_PutChar(byte);		//Send byte
  48:..\src/serial.c **** 	//NOT_RE_Write(0);			//Enable Receiver
  49:..\src/serial.c **** }
  50:..\src/serial.c **** 
  51:..\src/serial.c **** //Wrapper for the 'puts' function, used to avoid modifying all the code.
  52:..\src/serial.c **** //Redirects to the DMA function by default
  53:..\src/serial.c **** void rs485_puts(uint8 *buf, uint32 len)
  54:..\src/serial.c **** {
  55:..\src/serial.c **** 	rs485_dma_puts(buf);
  56:..\src/serial.c **** }
  57:..\src/serial.c **** 
  58:..\src/serial.c **** //Sends a string of characters to the UART. ISR based, UART needs a big FIFO buffer.
  59:..\src/serial.c **** //ToDo test, optimize/remove fixed delays
  60:..\src/serial.c **** void rs485_isr_puts(uint8 *buf, uint32 len)
  61:..\src/serial.c **** {
  62:..\src/serial.c **** 	uint32_t i = 0;
  63:..\src/serial.c **** 	
  64:..\src/serial.c **** 	NOT_RE_Write(1);				//Disable Receiver
  65:..\src/serial.c **** 	CyDelayUs(1);					//Wait (ToDo optimize/eliminate)
  66:..\src/serial.c **** 	//UART_2_ClearTxBuffer();			//Flush the TX buffer
  67:..\src/serial.c **** 	DE_Write(1);
  68:..\src/serial.c **** 	CyDelayUs(1);
  69:..\src/serial.c **** 	tx_cnt = len;
  70:..\src/serial.c **** 	
  71:..\src/serial.c **** 	//Can we store all the bytes we want to send?
  72:..\src/serial.c **** 	if((UART_2_TXBUFFERSIZE - UART_2_GetTxBufferSize()) < len)
  73:..\src/serial.c **** 	{
  74:..\src/serial.c **** 		//EXP5_Write(1);
  75:..\src/serial.c **** 		//Buffer is overflowing, flush it:
  76:..\src/serial.c **** 		UART_2_ClearTxBuffer();
  77:..\src/serial.c **** 		//EXP5_Write(0);
  78:..\src/serial.c **** 	}	
  79:..\src/serial.c **** 	
  80:..\src/serial.c **** 	//Sends the bytes:
  81:..\src/serial.c **** 	for(i = 0; i < len; i++)
  82:..\src/serial.c **** 	{
  83:..\src/serial.c **** 		UART_2_PutChar(buf[i]);
  84:..\src/serial.c **** 	}	
  85:..\src/serial.c **** 	
  86:..\src/serial.c **** 	//Wait till they get out
  87:..\src/serial.c **** 	CyDelayUs(150);					//Wait (ToDo optimize/eliminate)
ARM GAS  C:\Users\Alex\AppData\Local\Temp\ccW3KqpB.s 			page 3


  88:..\src/serial.c **** 		
  89:..\src/serial.c **** 	//Back to normal, enable Receiver disable emitter
  90:..\src/serial.c **** 	DE_Write(0);
  91:..\src/serial.c **** 	CyDelayUs(1);
  92:..\src/serial.c **** 	NOT_RE_Write(0);				
  93:..\src/serial.c **** }
  94:..\src/serial.c **** 
  95:..\src/serial.c **** //Transmit serial data with DMA
  96:..\src/serial.c **** //The DMA transfer is for 48 bytes, by configuration. ToDo: this isn't clean
  97:..\src/serial.c **** void rs485_dma_puts(uint8 *buf)
  98:..\src/serial.c **** {
  99:..\src/serial.c **** 	int i = 0;
 100:..\src/serial.c **** 	
 101:..\src/serial.c **** 	UART_DMA_XMIT_Write(0);		//No transmission
 102:..\src/serial.c **** 	UART_2_ClearTxBuffer();		//Clear any old data
 103:..\src/serial.c **** 	
 104:..\src/serial.c **** 	//ToDo Test - extra delay
 105:..\src/serial.c **** 	CyDelayUs(10);
 106:..\src/serial.c **** 	
 107:..\src/serial.c **** 	
 108:..\src/serial.c **** 	NOT_RE_Write(1);			//Disable Receiver
 109:..\src/serial.c **** 	CyDelayUs(1);				//Wait (ToDo optimize/eliminate)
 110:..\src/serial.c **** 	DE_Write(1);				//Enable Receiver
 111:..\src/serial.c **** 	CyDelayUs(1);				//Wait (ToDo optimize/eliminate)
 112:..\src/serial.c **** 	
 113:..\src/serial.c **** 	//Sends the bytes:
 114:..\src/serial.c **** 	for(i = 0; i < 48; i++)
 115:..\src/serial.c **** 	{
 116:..\src/serial.c **** 		uart_dma_tx_buf[i] = buf[i];
 117:..\src/serial.c **** 	}
 118:..\src/serial.c **** 	
 119:..\src/serial.c **** 	//Enable channel and UART TX ISR line:
 120:..\src/serial.c **** 	CyDmaChEnable(DMA_4_Chan, 1);
 121:..\src/serial.c **** 	UART_DMA_XMIT_Write(1);		//Allow transmission
 122:..\src/serial.c **** 	
 123:..\src/serial.c **** 	//DMA will take it from here, go to CY_ISR(isr_dma_uart_tx_Interrupt) for the end
 124:..\src/serial.c **** }
 125:..\src/serial.c **** 
 126:..\src/serial.c **** void init_rs485(void)
 127:..\src/serial.c **** {
 128:..\src/serial.c **** 	#ifdef USE_RS485
 129:..\src/serial.c **** 		
 130:..\src/serial.c **** 	//Exocute uses a wireless transmitter. We need 3V3 IOs and a low baudrate:
 131:..\src/serial.c **** 	#if(ACTIVE_PROJECT == PROJECT_EXOCUTE)
 132:..\src/serial.c **** 	
 133:..\src/serial.c **** 		/*
 134:..\src/serial.c **** 	C8M_SetDividerValue(40);	//2MHz UART clock (250k)
 135:..\src/serial.c **** 	VDAC8_2_Start();			//
 136:..\src/serial.c **** 	VDAC8_2_SetValue(207);		//207 = 3.3V (8 bits 0-4.08V)
 137:..\src/serial.c **** 		*/
 138:..\src/serial.c **** 		//For now we use wired:
 139:..\src/serial.c **** 		
 140:..\src/serial.c **** 	C8M_SetDividerValue(5);		//16MHz UART clock (2M)
 141:..\src/serial.c **** 	
 142:..\src/serial.c **** 	#else
 143:..\src/serial.c **** 		
 144:..\src/serial.c **** 	C8M_SetDividerValue(5);		//16MHz UART clock (2M)
ARM GAS  C:\Users\Alex\AppData\Local\Temp\ccW3KqpB.s 			page 4


 145:..\src/serial.c **** 	
 146:..\src/serial.c **** 	#endif
 147:..\src/serial.c **** 		
 148:..\src/serial.c **** 	UART_2_Init();
 149:..\src/serial.c **** 	UART_2_Enable();
 150:..\src/serial.c **** 	UART_2_Start();		
 151:..\src/serial.c **** 	init_dma_3();				//DMA, Reception
 152:..\src/serial.c **** 	isr_dma_uart_rx_Start();
 153:..\src/serial.c **** 	init_dma_4();				//DMA, Transmission
 154:..\src/serial.c **** 	isr_dma_uart_tx_Start();
 155:..\src/serial.c **** 	NOT_RE_Write(0);			//Enable RS-485 Receiver
 156:..\src/serial.c **** 	
 157:..\src/serial.c **** 	//Timer 2: 10us (2 bytes)
 158:..\src/serial.c **** 	Timer_2_Init();
 159:..\src/serial.c **** 	Timer_2_Start();
 160:..\src/serial.c **** 	isr_t2_Start();
 161:..\src/serial.c **** 	
 162:..\src/serial.c **** 	#endif	//USE_RS485
 163:..\src/serial.c **** }
 164:..\src/serial.c **** 
 165:..\src/serial.c **** void test_uart_dma_xmit(void)
 166:..\src/serial.c **** {
 167:..\src/serial.c **** 	int i = 0;
 168:..\src/serial.c **** 	uint8 databuffer[48];
 169:..\src/serial.c **** 	
 170:..\src/serial.c **** 	//Prepare data
 171:..\src/serial.c **** 	for(i = 0; i < 48; i++)
 172:..\src/serial.c **** 	{
 173:..\src/serial.c **** 		databuffer[i] = i;
 174:..\src/serial.c **** 	}
 175:..\src/serial.c **** 
 176:..\src/serial.c **** 	while(1)
 177:..\src/serial.c **** 	{
 178:..\src/serial.c **** 		UART_DMA_XMIT_Write(0);	//No transmission
 179:..\src/serial.c **** 		CyDelay(10);	//Wait 10ms
 180:..\src/serial.c **** 		UART_2_ClearTxBuffer();
 181:..\src/serial.c **** 		
 182:..\src/serial.c **** 		//Load data in DMA buffer
 183:..\src/serial.c **** 		for(i = 0; i < 48; i++)
 184:..\src/serial.c **** 		{
 185:..\src/serial.c **** 			uart_dma_tx_buf[i] = databuffer[i];
 186:..\src/serial.c **** 		}
 187:..\src/serial.c **** 		
 188:..\src/serial.c **** 		CyDmaChEnable(DMA_4_Chan, 1);
 189:..\src/serial.c **** 		UART_DMA_XMIT_Write(1);	//Allow transmission
 190:..\src/serial.c **** 		CyDelay(1000);	//Wait 10ms
 191:..\src/serial.c **** 	}
 192:..\src/serial.c **** }
 193:..\src/serial.c **** 
 194:..\src/serial.c **** //Confirms that my timer is running in 10us one-shot mode
 195:..\src/serial.c **** void t2_oneshot_test(void)
 196:..\src/serial.c **** {
 197:..\src/serial.c **** 	while(1)
 198:..\src/serial.c **** 	{
 199:..\src/serial.c **** 		T2_RESET_Write(0);
 200:..\src/serial.c **** 		//EXP10_Write(1);
 201:..\src/serial.c **** 		Timer_2_Start();
ARM GAS  C:\Users\Alex\AppData\Local\Temp\ccW3KqpB.s 			page 5


 202:..\src/serial.c **** 		//ISR will take it from here...
 203:..\src/serial.c **** 		CyDelay(1);		//1ms period
 204:..\src/serial.c **** 	}
 205:..\src/serial.c **** }
 206:..\src/serial.c **** 	
 207:..\src/serial.c **** volatile uint8 uart_tmp_buf[RX_BUF_LEN];
 208:..\src/serial.c **** void get_uart_data(void)
 209:..\src/serial.c **** {
 210:..\src/serial.c **** 	uint32 uart_buf_size = 0, i = 0;
 211:..\src/serial.c **** 	uint16 tmp = 0;
 212:..\src/serial.c **** 	//uint16 status = 0;
 213:..\src/serial.c **** 	
 214:..\src/serial.c **** 	uart_buf_size = UART_2_GetRxBufferSize();
 215:..\src/serial.c **** 	if(uart_buf_size > 0)
 216:..\src/serial.c **** 	{
 217:..\src/serial.c **** 		for(i = 0; i < uart_buf_size; i++)
 218:..\src/serial.c **** 		{
 219:..\src/serial.c **** 			//It's a shame but there is no gets function
 220:..\src/serial.c **** 			//uart_tmp_buf[i] = UART_2_GetChar();	//Get as many bytes as possible...
 221:..\src/serial.c **** 			tmp = UART_2_GetByte() & 0xFF;
 222:..\src/serial.c **** 			uart_tmp_buf[i] = (uint8)tmp;
 223:..\src/serial.c **** 			
 224:..\src/serial.c **** 			/*status = (tmp & 0xFF00)>>8;
 225:..\src/serial.c **** 			if(!status)
 226:..\src/serial.c **** 				uart_tmp_buf[i] = (uint8)tmp;
 227:..\src/serial.c **** 			else
 228:..\src/serial.c **** 				break;
 229:..\src/serial.c **** 			*/
 230:..\src/serial.c **** 		}
 231:..\src/serial.c **** 		
 232:..\src/serial.c **** 		//...then mass update rx_buf:
 233:..\src/serial.c **** 		update_rx_buf_array_485(uart_tmp_buf, uart_buf_size+1);
 234:..\src/serial.c **** 		
 235:..\src/serial.c **** 		data_ready_485++;
 236:..\src/serial.c **** 	}		
 237:..\src/serial.c **** }
 238:..\src/serial.c **** 
 239:..\src/serial.c **** //****************************************************************************
 240:..\src/serial.c **** // Private Function(s)
 241:..\src/serial.c **** //****************************************************************************
 242:..\src/serial.c **** 
 243:..\src/serial.c **** //DMA3: UART RX
 244:..\src/serial.c **** uint8 DMA_3_Chan;
 245:..\src/serial.c **** uint8 DMA_3_TD[1];
 246:..\src/serial.c **** static void init_dma_3(void)
 247:..\src/serial.c **** {
  28              		.loc 1 247 0
  29              		.cfi_startproc
  30              		@ args = 0, pretend = 0, frame = 0
  31              		@ frame_needed = 0, uses_anonymous_args = 0
  32 0000 38B5     		push	{r3, r4, r5, lr}
  33              		.cfi_def_cfa_offset 16
  34              		.cfi_offset 3, -16
  35              		.cfi_offset 4, -12
  36              		.cfi_offset 5, -8
  37              		.cfi_offset 14, -4
 248:..\src/serial.c **** 	/* Variable declarations for DMA_3 */
ARM GAS  C:\Users\Alex\AppData\Local\Temp\ccW3KqpB.s 			page 6


 249:..\src/serial.c **** 	/* Move these variable declarations to the top of the function */
 250:..\src/serial.c **** 
 251:..\src/serial.c **** 	/* DMA Configuration for DMA_3 */
 252:..\src/serial.c **** 	#define DMA_3_BYTES_PER_BURST 		1
 253:..\src/serial.c **** 	#define DMA_3_REQUEST_PER_BURST 	1
 254:..\src/serial.c **** 	#define DMA_3_SRC_BASE 				(CYDEV_PERIPH_BASE)
 255:..\src/serial.c **** 	#define DMA_3_DST_BASE 				(CYDEV_SRAM_BASE)
 256:..\src/serial.c **** 
 257:..\src/serial.c **** 	DMA_3_Chan = DMA_3_DmaInitialize(DMA_3_BYTES_PER_BURST, DMA_3_REQUEST_PER_BURST, 
  38              		.loc 1 257 0
  39 0002 0120     		movs	r0, #1
  40 0004 0146     		mov	r1, r0
  41 0006 4FF48042 		mov	r2, #16384
  42 000a 41F6FF73 		movw	r3, #8191
  43 000e FFF7FEFF 		bl	DMA_3_DmaInitialize
  44              	.LVL0:
  45 0012 0D4C     		ldr	r4, .L3
  46 0014 2070     		strb	r0, [r4]
 258:..\src/serial.c **** 	    HI16(DMA_3_SRC_BASE), HI16(DMA_3_DST_BASE));
 259:..\src/serial.c **** 	DMA_3_TD[0] = CyDmaTdAllocate();
  47              		.loc 1 259 0
  48 0016 FFF7FEFF 		bl	CyDmaTdAllocate
  49              	.LVL1:
  50 001a 0246     		mov	r2, r0
  51 001c 0B4D     		ldr	r5, .L3+4
  52 001e 2870     		strb	r0, [r5]
 260:..\src/serial.c **** 	CyDmaTdSetConfiguration(DMA_3_TD[0], 48, DMA_3_TD[0], DMA_3__TD_TERMOUT_EN | TD_INC_DST_ADR);
  53              		.loc 1 260 0
  54 0020 3021     		movs	r1, #48
  55 0022 0623     		movs	r3, #6
  56 0024 FFF7FEFF 		bl	CyDmaTdSetConfiguration
  57              	.LVL2:
 261:..\src/serial.c **** 	CyDmaTdSetAddress(DMA_3_TD[0], LO16((uint32)UART_2_RXDATA_PTR), LO16((uint32)uart_dma_rx_buf));
  58              		.loc 1 261 0
  59 0028 2878     		ldrb	r0, [r5]	@ zero_extendqisi2
  60 002a 46F24D41 		movw	r1, #25677
  61 002e 084A     		ldr	r2, .L3+8
  62 0030 92B2     		uxth	r2, r2
  63 0032 FFF7FEFF 		bl	CyDmaTdSetAddress
  64              	.LVL3:
 262:..\src/serial.c **** 	CyDmaChSetInitialTd(DMA_3_Chan, DMA_3_TD[0]);
  65              		.loc 1 262 0
  66 0036 2078     		ldrb	r0, [r4]	@ zero_extendqisi2
  67 0038 2978     		ldrb	r1, [r5]	@ zero_extendqisi2
  68 003a FFF7FEFF 		bl	CyDmaChSetInitialTd
  69              	.LVL4:
 263:..\src/serial.c **** 	CyDmaChEnable(DMA_3_Chan, 1);
  70              		.loc 1 263 0
  71 003e 2078     		ldrb	r0, [r4]	@ zero_extendqisi2
  72 0040 0121     		movs	r1, #1
  73 0042 FFF7FEFF 		bl	CyDmaChEnable
  74              	.LVL5:
  75 0046 38BD     		pop	{r3, r4, r5, pc}
  76              	.L4:
  77              		.align	2
  78              	.L3:
  79 0048 00000000 		.word	DMA_3_Chan
ARM GAS  C:\Users\Alex\AppData\Local\Temp\ccW3KqpB.s 			page 7


  80 004c 00000000 		.word	DMA_3_TD
  81 0050 00000000 		.word	uart_dma_rx_buf
  82              		.cfi_endproc
  83              	.LFE71:
  84              		.size	init_dma_3, .-init_dma_3
  85              		.section	.text.init_dma_4,"ax",%progbits
  86              		.align	2
  87              		.thumb
  88              		.thumb_func
  89              		.type	init_dma_4, %function
  90              	init_dma_4:
  91              	.LFB72:
 264:..\src/serial.c **** }
 265:..\src/serial.c **** 
 266:..\src/serial.c **** //DMA4: UART TX
 267:..\src/serial.c **** static void init_dma_4(void)
 268:..\src/serial.c **** {
  92              		.loc 1 268 0
  93              		.cfi_startproc
  94              		@ args = 0, pretend = 0, frame = 0
  95              		@ frame_needed = 0, uses_anonymous_args = 0
  96 0000 38B5     		push	{r3, r4, r5, lr}
  97              		.cfi_def_cfa_offset 16
  98              		.cfi_offset 3, -16
  99              		.cfi_offset 4, -12
 100              		.cfi_offset 5, -8
 101              		.cfi_offset 14, -4
 269:..\src/serial.c **** 	/* DMA Configuration for DMA_4 */
 270:..\src/serial.c **** 	#define DMA_4_BYTES_PER_BURST 		1
 271:..\src/serial.c **** 	#define DMA_4_REQUEST_PER_BURST 	1
 272:..\src/serial.c **** 	#define DMA_4_SRC_BASE 				(CYDEV_SRAM_BASE)
 273:..\src/serial.c **** 	#define DMA_4_DST_BASE 				(CYDEV_PERIPH_BASE)
 274:..\src/serial.c **** 	
 275:..\src/serial.c **** 	DMA_4_Chan = DMA_4_DmaInitialize(DMA_4_BYTES_PER_BURST, DMA_4_REQUEST_PER_BURST, 
 102              		.loc 1 275 0
 103 0002 0120     		movs	r0, #1
 104 0004 0146     		mov	r1, r0
 105 0006 41F6FF72 		movw	r2, #8191
 106 000a 4FF48043 		mov	r3, #16384
 107 000e FFF7FEFF 		bl	DMA_4_DmaInitialize
 108              	.LVL6:
 109 0012 0D4C     		ldr	r4, .L7
 110 0014 2070     		strb	r0, [r4]
 276:..\src/serial.c **** 	    HI16(DMA_4_SRC_BASE), HI16(DMA_4_DST_BASE));
 277:..\src/serial.c **** 	DMA_4_TD[0] = CyDmaTdAllocate();
 111              		.loc 1 277 0
 112 0016 FFF7FEFF 		bl	CyDmaTdAllocate
 113              	.LVL7:
 114 001a 0C4D     		ldr	r5, .L7+4
 115 001c 2870     		strb	r0, [r5]
 278:..\src/serial.c **** 	CyDmaTdSetConfiguration(DMA_4_TD[0], 48, CY_DMA_DISABLE_TD, TD_TERMIN_EN | DMA_4__TD_TERMOUT_EN | 
 116              		.loc 1 278 0
 117 001e 3021     		movs	r1, #48
 118 0020 FE22     		movs	r2, #254
 119 0022 3523     		movs	r3, #53
 120 0024 FFF7FEFF 		bl	CyDmaTdSetConfiguration
 121              	.LVL8:
ARM GAS  C:\Users\Alex\AppData\Local\Temp\ccW3KqpB.s 			page 8


 279:..\src/serial.c **** 	CyDmaTdSetAddress(DMA_4_TD[0], LO16((uint32)uart_dma_tx_buf), LO16((uint32)UART_2_TXDATA_PTR));
 122              		.loc 1 279 0
 123 0028 2878     		ldrb	r0, [r5]	@ zero_extendqisi2
 124 002a 0949     		ldr	r1, .L7+8
 125 002c 89B2     		uxth	r1, r1
 126 002e 46F24B42 		movw	r2, #25675
 127 0032 FFF7FEFF 		bl	CyDmaTdSetAddress
 128              	.LVL9:
 280:..\src/serial.c **** 	CyDmaChSetInitialTd(DMA_4_Chan, DMA_4_TD[0]);
 129              		.loc 1 280 0
 130 0036 2078     		ldrb	r0, [r4]	@ zero_extendqisi2
 131 0038 2978     		ldrb	r1, [r5]	@ zero_extendqisi2
 132 003a FFF7FEFF 		bl	CyDmaChSetInitialTd
 133              	.LVL10:
 281:..\src/serial.c **** 	CyDmaChEnable(DMA_4_Chan, 1);
 134              		.loc 1 281 0
 135 003e 2078     		ldrb	r0, [r4]	@ zero_extendqisi2
 136 0040 0121     		movs	r1, #1
 137 0042 FFF7FEFF 		bl	CyDmaChEnable
 138              	.LVL11:
 139 0046 38BD     		pop	{r3, r4, r5, pc}
 140              	.L8:
 141              		.align	2
 142              	.L7:
 143 0048 00000000 		.word	DMA_4_Chan
 144 004c 00000000 		.word	DMA_4_TD
 145 0050 00000000 		.word	uart_dma_tx_buf
 146              		.cfi_endproc
 147              	.LFE72:
 148              		.size	init_dma_4, .-init_dma_4
 149              		.section	.text.rs485_putc,"ax",%progbits
 150              		.align	2
 151              		.global	rs485_putc
 152              		.thumb
 153              		.thumb_func
 154              		.type	rs485_putc, %function
 155              	rs485_putc:
 156              	.LFB63:
  45:..\src/serial.c **** 	NOT_RE_Write(1);			//Disable Receiver
 157              		.loc 1 45 0
 158              		.cfi_startproc
 159              		@ args = 0, pretend = 0, frame = 0
 160              		@ frame_needed = 0, uses_anonymous_args = 0
 161              	.LVL12:
 162 0000 10B5     		push	{r4, lr}
 163              		.cfi_def_cfa_offset 8
 164              		.cfi_offset 4, -8
 165              		.cfi_offset 14, -4
 166 0002 0446     		mov	r4, r0
  46:..\src/serial.c **** 	UART_2_PutChar(byte);		//Send byte
 167              		.loc 1 46 0
 168 0004 0120     		movs	r0, #1
 169              	.LVL13:
 170 0006 FFF7FEFF 		bl	NOT_RE_Write
 171              	.LVL14:
  47:..\src/serial.c **** 	//NOT_RE_Write(0);			//Enable Receiver
 172              		.loc 1 47 0
ARM GAS  C:\Users\Alex\AppData\Local\Temp\ccW3KqpB.s 			page 9


 173 000a 2046     		mov	r0, r4
 174 000c FFF7FEFF 		bl	UART_2_PutChar
 175              	.LVL15:
 176 0010 10BD     		pop	{r4, pc}
 177              		.cfi_endproc
 178              	.LFE63:
 179              		.size	rs485_putc, .-rs485_putc
 180 0012 00BF     		.section	.text.rs485_isr_puts,"ax",%progbits
 181              		.align	2
 182              		.global	rs485_isr_puts
 183              		.thumb
 184              		.thumb_func
 185              		.type	rs485_isr_puts, %function
 186              	rs485_isr_puts:
 187              	.LFB65:
  61:..\src/serial.c **** 	uint32_t i = 0;
 188              		.loc 1 61 0
 189              		.cfi_startproc
 190              		@ args = 0, pretend = 0, frame = 0
 191              		@ frame_needed = 0, uses_anonymous_args = 0
 192              	.LVL16:
 193 0000 70B5     		push	{r4, r5, r6, lr}
 194              		.cfi_def_cfa_offset 16
 195              		.cfi_offset 4, -16
 196              		.cfi_offset 5, -12
 197              		.cfi_offset 6, -8
 198              		.cfi_offset 14, -4
 199 0002 0646     		mov	r6, r0
 200 0004 0D46     		mov	r5, r1
 201              	.LVL17:
  64:..\src/serial.c **** 	CyDelayUs(1);					//Wait (ToDo optimize/eliminate)
 202              		.loc 1 64 0
 203 0006 0120     		movs	r0, #1
 204              	.LVL18:
 205 0008 FFF7FEFF 		bl	NOT_RE_Write
 206              	.LVL19:
  65:..\src/serial.c **** 	//UART_2_ClearTxBuffer();			//Flush the TX buffer
 207              		.loc 1 65 0
 208 000c 0120     		movs	r0, #1
 209 000e FFF7FEFF 		bl	CyDelayUs
 210              	.LVL20:
  67:..\src/serial.c **** 	CyDelayUs(1);
 211              		.loc 1 67 0
 212 0012 0120     		movs	r0, #1
 213 0014 FFF7FEFF 		bl	DE_Write
 214              	.LVL21:
  68:..\src/serial.c **** 	tx_cnt = len;
 215              		.loc 1 68 0
 216 0018 0120     		movs	r0, #1
 217 001a FFF7FEFF 		bl	CyDelayUs
 218              	.LVL22:
  69:..\src/serial.c **** 	
 219              		.loc 1 69 0
 220 001e EAB2     		uxtb	r2, r5
 221 0020 0F4B     		ldr	r3, .L16
 222 0022 1A70     		strb	r2, [r3]
  72:..\src/serial.c **** 	{
ARM GAS  C:\Users\Alex\AppData\Local\Temp\ccW3KqpB.s 			page 10


 223              		.loc 1 72 0
 224 0024 FFF7FEFF 		bl	UART_2_GetTxBufferSize
 225              	.LVL23:
 226 0028 C0F10400 		rsb	r0, r0, #4
 227 002c A842     		cmp	r0, r5
 228 002e 01D2     		bcs	.L12
  76:..\src/serial.c **** 		//EXP5_Write(0);
 229              		.loc 1 76 0
 230 0030 FFF7FEFF 		bl	UART_2_ClearTxBuffer
 231              	.LVL24:
 232              	.L12:
  61:..\src/serial.c **** 	uint32_t i = 0;
 233              		.loc 1 61 0 discriminator 1
 234 0034 0024     		movs	r4, #0
 235 0036 03E0     		b	.L13
 236              	.LVL25:
 237              	.L14:
  83:..\src/serial.c **** 	}	
 238              		.loc 1 83 0 discriminator 3
 239 0038 305D     		ldrb	r0, [r6, r4]	@ zero_extendqisi2
 240 003a FFF7FEFF 		bl	UART_2_PutChar
 241              	.LVL26:
  81:..\src/serial.c **** 	{
 242              		.loc 1 81 0 discriminator 3
 243 003e 0134     		adds	r4, r4, #1
 244              	.LVL27:
 245              	.L13:
  81:..\src/serial.c **** 	{
 246              		.loc 1 81 0 is_stmt 0 discriminator 1
 247 0040 AC42     		cmp	r4, r5
 248 0042 F9D3     		bcc	.L14
  87:..\src/serial.c **** 		
 249              		.loc 1 87 0 is_stmt 1
 250 0044 9620     		movs	r0, #150
 251 0046 FFF7FEFF 		bl	CyDelayUs
 252              	.LVL28:
  90:..\src/serial.c **** 	CyDelayUs(1);
 253              		.loc 1 90 0
 254 004a 0020     		movs	r0, #0
 255 004c FFF7FEFF 		bl	DE_Write
 256              	.LVL29:
  91:..\src/serial.c **** 	NOT_RE_Write(0);				
 257              		.loc 1 91 0
 258 0050 0120     		movs	r0, #1
 259 0052 FFF7FEFF 		bl	CyDelayUs
 260              	.LVL30:
  92:..\src/serial.c **** }
 261              		.loc 1 92 0
 262 0056 0020     		movs	r0, #0
 263 0058 FFF7FEFF 		bl	NOT_RE_Write
 264              	.LVL31:
 265 005c 70BD     		pop	{r4, r5, r6, pc}
 266              	.LVL32:
 267              	.L17:
 268 005e 00BF     		.align	2
 269              	.L16:
 270 0060 00000000 		.word	.LANCHOR0
ARM GAS  C:\Users\Alex\AppData\Local\Temp\ccW3KqpB.s 			page 11


 271              		.cfi_endproc
 272              	.LFE65:
 273              		.size	rs485_isr_puts, .-rs485_isr_puts
 274              		.section	.text.rs485_dma_puts,"ax",%progbits
 275              		.align	2
 276              		.global	rs485_dma_puts
 277              		.thumb
 278              		.thumb_func
 279              		.type	rs485_dma_puts, %function
 280              	rs485_dma_puts:
 281              	.LFB66:
  98:..\src/serial.c **** 	int i = 0;
 282              		.loc 1 98 0
 283              		.cfi_startproc
 284              		@ args = 0, pretend = 0, frame = 0
 285              		@ frame_needed = 0, uses_anonymous_args = 0
 286              	.LVL33:
 287 0000 10B5     		push	{r4, lr}
 288              		.cfi_def_cfa_offset 8
 289              		.cfi_offset 4, -8
 290              		.cfi_offset 14, -4
 291 0002 0446     		mov	r4, r0
 292              	.LVL34:
 101:..\src/serial.c **** 	UART_2_ClearTxBuffer();		//Clear any old data
 293              		.loc 1 101 0
 294 0004 0020     		movs	r0, #0
 295              	.LVL35:
 296 0006 FFF7FEFF 		bl	UART_DMA_XMIT_Write
 297              	.LVL36:
 102:..\src/serial.c **** 	
 298              		.loc 1 102 0
 299 000a FFF7FEFF 		bl	UART_2_ClearTxBuffer
 300              	.LVL37:
 105:..\src/serial.c **** 	
 301              		.loc 1 105 0
 302 000e 0A20     		movs	r0, #10
 303 0010 FFF7FEFF 		bl	CyDelayUs
 304              	.LVL38:
 108:..\src/serial.c **** 	CyDelayUs(1);				//Wait (ToDo optimize/eliminate)
 305              		.loc 1 108 0
 306 0014 0120     		movs	r0, #1
 307 0016 FFF7FEFF 		bl	NOT_RE_Write
 308              	.LVL39:
 109:..\src/serial.c **** 	DE_Write(1);				//Enable Receiver
 309              		.loc 1 109 0
 310 001a 0120     		movs	r0, #1
 311 001c FFF7FEFF 		bl	CyDelayUs
 312              	.LVL40:
 110:..\src/serial.c **** 	CyDelayUs(1);				//Wait (ToDo optimize/eliminate)
 313              		.loc 1 110 0
 314 0020 0120     		movs	r0, #1
 315 0022 FFF7FEFF 		bl	DE_Write
 316              	.LVL41:
 111:..\src/serial.c **** 	
 317              		.loc 1 111 0
 318 0026 0120     		movs	r0, #1
 319 0028 FFF7FEFF 		bl	CyDelayUs
ARM GAS  C:\Users\Alex\AppData\Local\Temp\ccW3KqpB.s 			page 12


 320              	.LVL42:
 114:..\src/serial.c **** 	{
 321              		.loc 1 114 0
 322 002c 0023     		movs	r3, #0
 323 002e 03E0     		b	.L19
 324              	.LVL43:
 325              	.L20:
 116:..\src/serial.c **** 	}
 326              		.loc 1 116 0 discriminator 3
 327 0030 E15C     		ldrb	r1, [r4, r3]	@ zero_extendqisi2
 328 0032 074A     		ldr	r2, .L22
 329 0034 D154     		strb	r1, [r2, r3]
 114:..\src/serial.c **** 	{
 330              		.loc 1 114 0 discriminator 3
 331 0036 0133     		adds	r3, r3, #1
 332              	.LVL44:
 333              	.L19:
 114:..\src/serial.c **** 	{
 334              		.loc 1 114 0 is_stmt 0 discriminator 1
 335 0038 2F2B     		cmp	r3, #47
 336 003a F9DD     		ble	.L20
 120:..\src/serial.c **** 	UART_DMA_XMIT_Write(1);		//Allow transmission
 337              		.loc 1 120 0 is_stmt 1
 338 003c 054B     		ldr	r3, .L22+4
 339              	.LVL45:
 340 003e 1878     		ldrb	r0, [r3]	@ zero_extendqisi2
 341 0040 0121     		movs	r1, #1
 342 0042 FFF7FEFF 		bl	CyDmaChEnable
 343              	.LVL46:
 121:..\src/serial.c **** 	
 344              		.loc 1 121 0
 345 0046 0120     		movs	r0, #1
 346 0048 FFF7FEFF 		bl	UART_DMA_XMIT_Write
 347              	.LVL47:
 348 004c 10BD     		pop	{r4, pc}
 349              	.LVL48:
 350              	.L23:
 351 004e 00BF     		.align	2
 352              	.L22:
 353 0050 00000000 		.word	uart_dma_tx_buf
 354 0054 00000000 		.word	DMA_4_Chan
 355              		.cfi_endproc
 356              	.LFE66:
 357              		.size	rs485_dma_puts, .-rs485_dma_puts
 358              		.section	.text.rs485_puts,"ax",%progbits
 359              		.align	2
 360              		.global	rs485_puts
 361              		.thumb
 362              		.thumb_func
 363              		.type	rs485_puts, %function
 364              	rs485_puts:
 365              	.LFB64:
  54:..\src/serial.c **** 	rs485_dma_puts(buf);
 366              		.loc 1 54 0
 367              		.cfi_startproc
 368              		@ args = 0, pretend = 0, frame = 0
 369              		@ frame_needed = 0, uses_anonymous_args = 0
ARM GAS  C:\Users\Alex\AppData\Local\Temp\ccW3KqpB.s 			page 13


 370              	.LVL49:
 371 0000 08B5     		push	{r3, lr}
 372              		.cfi_def_cfa_offset 8
 373              		.cfi_offset 3, -8
 374              		.cfi_offset 14, -4
  55:..\src/serial.c **** }
 375              		.loc 1 55 0
 376 0002 FFF7FEFF 		bl	rs485_dma_puts
 377              	.LVL50:
 378 0006 08BD     		pop	{r3, pc}
 379              		.cfi_endproc
 380              	.LFE64:
 381              		.size	rs485_puts, .-rs485_puts
 382              		.section	.text.init_rs485,"ax",%progbits
 383              		.align	2
 384              		.global	init_rs485
 385              		.thumb
 386              		.thumb_func
 387              		.type	init_rs485, %function
 388              	init_rs485:
 389              	.LFB67:
 127:..\src/serial.c **** 	#ifdef USE_RS485
 390              		.loc 1 127 0
 391              		.cfi_startproc
 392              		@ args = 0, pretend = 0, frame = 0
 393              		@ frame_needed = 0, uses_anonymous_args = 0
 394 0000 08B5     		push	{r3, lr}
 395              		.cfi_def_cfa_offset 8
 396              		.cfi_offset 3, -8
 397              		.cfi_offset 14, -4
 144:..\src/serial.c **** 	
 398              		.loc 1 144 0
 399 0002 0420     		movs	r0, #4
 400 0004 0121     		movs	r1, #1
 401 0006 FFF7FEFF 		bl	C8M_SetDividerRegister
 402              	.LVL51:
 148:..\src/serial.c **** 	UART_2_Enable();
 403              		.loc 1 148 0
 404 000a FFF7FEFF 		bl	UART_2_Init
 405              	.LVL52:
 149:..\src/serial.c **** 	UART_2_Start();		
 406              		.loc 1 149 0
 407 000e FFF7FEFF 		bl	UART_2_Enable
 408              	.LVL53:
 150:..\src/serial.c **** 	init_dma_3();				//DMA, Reception
 409              		.loc 1 150 0
 410 0012 FFF7FEFF 		bl	UART_2_Start
 411              	.LVL54:
 151:..\src/serial.c **** 	isr_dma_uart_rx_Start();
 412              		.loc 1 151 0
 413 0016 FFF7FEFF 		bl	init_dma_3
 414              	.LVL55:
 152:..\src/serial.c **** 	init_dma_4();				//DMA, Transmission
 415              		.loc 1 152 0
 416 001a FFF7FEFF 		bl	isr_dma_uart_rx_Start
 417              	.LVL56:
 153:..\src/serial.c **** 	isr_dma_uart_tx_Start();
ARM GAS  C:\Users\Alex\AppData\Local\Temp\ccW3KqpB.s 			page 14


 418              		.loc 1 153 0
 419 001e FFF7FEFF 		bl	init_dma_4
 420              	.LVL57:
 154:..\src/serial.c **** 	NOT_RE_Write(0);			//Enable RS-485 Receiver
 421              		.loc 1 154 0
 422 0022 FFF7FEFF 		bl	isr_dma_uart_tx_Start
 423              	.LVL58:
 155:..\src/serial.c **** 	
 424              		.loc 1 155 0
 425 0026 0020     		movs	r0, #0
 426 0028 FFF7FEFF 		bl	NOT_RE_Write
 427              	.LVL59:
 158:..\src/serial.c **** 	Timer_2_Start();
 428              		.loc 1 158 0
 429 002c FFF7FEFF 		bl	Timer_2_Init
 430              	.LVL60:
 159:..\src/serial.c **** 	isr_t2_Start();
 431              		.loc 1 159 0
 432 0030 FFF7FEFF 		bl	Timer_2_Start
 433              	.LVL61:
 160:..\src/serial.c **** 	
 434              		.loc 1 160 0
 435 0034 FFF7FEFF 		bl	isr_t2_Start
 436              	.LVL62:
 437 0038 08BD     		pop	{r3, pc}
 438              		.cfi_endproc
 439              	.LFE67:
 440              		.size	init_rs485, .-init_rs485
 441 003a 00BF     		.section	.text.test_uart_dma_xmit,"ax",%progbits
 442              		.align	2
 443              		.global	test_uart_dma_xmit
 444              		.thumb
 445              		.thumb_func
 446              		.type	test_uart_dma_xmit, %function
 447              	test_uart_dma_xmit:
 448              	.LFB68:
 166:..\src/serial.c **** 	int i = 0;
 449              		.loc 1 166 0
 450              		.cfi_startproc
 451              		@ args = 0, pretend = 0, frame = 48
 452              		@ frame_needed = 0, uses_anonymous_args = 0
 453 0000 00B5     		push	{lr}
 454              		.cfi_def_cfa_offset 4
 455              		.cfi_offset 14, -4
 456 0002 8DB0     		sub	sp, sp, #52
 457              		.cfi_def_cfa_offset 56
 458              	.LVL63:
 171:..\src/serial.c **** 	{
 459              		.loc 1 171 0
 460 0004 0023     		movs	r3, #0
 461 0006 04E0     		b	.L29
 462              	.LVL64:
 463              	.L30:
 173:..\src/serial.c **** 	}
 464              		.loc 1 173 0 discriminator 3
 465 0008 0CAA     		add	r2, sp, #48
 466 000a 1A44     		add	r2, r2, r3
ARM GAS  C:\Users\Alex\AppData\Local\Temp\ccW3KqpB.s 			page 15


 467 000c 02F8303C 		strb	r3, [r2, #-48]
 171:..\src/serial.c **** 	{
 468              		.loc 1 171 0 discriminator 3
 469 0010 0133     		adds	r3, r3, #1
 470              	.LVL65:
 471              	.L29:
 171:..\src/serial.c **** 	{
 472              		.loc 1 171 0 is_stmt 0 discriminator 1
 473 0012 2F2B     		cmp	r3, #47
 474 0014 F8DD     		ble	.L30
 475              	.LVL66:
 476              	.L33:
 178:..\src/serial.c **** 		CyDelay(10);	//Wait 10ms
 477              		.loc 1 178 0 is_stmt 1
 478 0016 0020     		movs	r0, #0
 479 0018 FFF7FEFF 		bl	UART_DMA_XMIT_Write
 480              	.LVL67:
 179:..\src/serial.c **** 		UART_2_ClearTxBuffer();
 481              		.loc 1 179 0
 482 001c 0A20     		movs	r0, #10
 483 001e FFF7FEFF 		bl	CyDelay
 484              	.LVL68:
 180:..\src/serial.c **** 		
 485              		.loc 1 180 0
 486 0022 FFF7FEFF 		bl	UART_2_ClearTxBuffer
 487              	.LVL69:
 183:..\src/serial.c **** 		{
 488              		.loc 1 183 0
 489 0026 0023     		movs	r3, #0
 490 0028 06E0     		b	.L31
 491              	.LVL70:
 492              	.L32:
 185:..\src/serial.c **** 		}
 493              		.loc 1 185 0 discriminator 3
 494 002a 0CAA     		add	r2, sp, #48
 495 002c 1A44     		add	r2, r2, r3
 496 002e 12F8301C 		ldrb	r1, [r2, #-48]	@ zero_extendqisi2
 497 0032 094A     		ldr	r2, .L35
 498 0034 D154     		strb	r1, [r2, r3]
 183:..\src/serial.c **** 		{
 499              		.loc 1 183 0 discriminator 3
 500 0036 0133     		adds	r3, r3, #1
 501              	.LVL71:
 502              	.L31:
 183:..\src/serial.c **** 		{
 503              		.loc 1 183 0 is_stmt 0 discriminator 1
 504 0038 2F2B     		cmp	r3, #47
 505 003a F6DD     		ble	.L32
 188:..\src/serial.c **** 		UART_DMA_XMIT_Write(1);	//Allow transmission
 506              		.loc 1 188 0 is_stmt 1
 507 003c 074B     		ldr	r3, .L35+4
 508              	.LVL72:
 509 003e 1878     		ldrb	r0, [r3]	@ zero_extendqisi2
 510 0040 0121     		movs	r1, #1
 511 0042 FFF7FEFF 		bl	CyDmaChEnable
 512              	.LVL73:
 189:..\src/serial.c **** 		CyDelay(1000);	//Wait 10ms
ARM GAS  C:\Users\Alex\AppData\Local\Temp\ccW3KqpB.s 			page 16


 513              		.loc 1 189 0
 514 0046 0120     		movs	r0, #1
 515 0048 FFF7FEFF 		bl	UART_DMA_XMIT_Write
 516              	.LVL74:
 190:..\src/serial.c **** 	}
 517              		.loc 1 190 0
 518 004c 4FF47A70 		mov	r0, #1000
 519 0050 FFF7FEFF 		bl	CyDelay
 520              	.LVL75:
 191:..\src/serial.c **** }
 521              		.loc 1 191 0
 522 0054 DFE7     		b	.L33
 523              	.L36:
 524 0056 00BF     		.align	2
 525              	.L35:
 526 0058 00000000 		.word	uart_dma_tx_buf
 527 005c 00000000 		.word	DMA_4_Chan
 528              		.cfi_endproc
 529              	.LFE68:
 530              		.size	test_uart_dma_xmit, .-test_uart_dma_xmit
 531              		.section	.text.t2_oneshot_test,"ax",%progbits
 532              		.align	2
 533              		.global	t2_oneshot_test
 534              		.thumb
 535              		.thumb_func
 536              		.type	t2_oneshot_test, %function
 537              	t2_oneshot_test:
 538              	.LFB69:
 196:..\src/serial.c **** 	while(1)
 539              		.loc 1 196 0
 540              		.cfi_startproc
 541              		@ Volatile: function does not return.
 542              		@ args = 0, pretend = 0, frame = 0
 543              		@ frame_needed = 0, uses_anonymous_args = 0
 544 0000 08B5     		push	{r3, lr}
 545              		.cfi_def_cfa_offset 8
 546              		.cfi_offset 3, -8
 547              		.cfi_offset 14, -4
 548              	.L38:
 199:..\src/serial.c **** 		//EXP10_Write(1);
 549              		.loc 1 199 0 discriminator 1
 550 0002 0020     		movs	r0, #0
 551 0004 FFF7FEFF 		bl	T2_RESET_Write
 552              	.LVL76:
 201:..\src/serial.c **** 		//ISR will take it from here...
 553              		.loc 1 201 0 discriminator 1
 554 0008 FFF7FEFF 		bl	Timer_2_Start
 555              	.LVL77:
 203:..\src/serial.c **** 	}
 556              		.loc 1 203 0 discriminator 1
 557 000c 0120     		movs	r0, #1
 558 000e FFF7FEFF 		bl	CyDelay
 559              	.LVL78:
 204:..\src/serial.c **** }
 560              		.loc 1 204 0 discriminator 1
 561 0012 F6E7     		b	.L38
 562              		.cfi_endproc
ARM GAS  C:\Users\Alex\AppData\Local\Temp\ccW3KqpB.s 			page 17


 563              	.LFE69:
 564              		.size	t2_oneshot_test, .-t2_oneshot_test
 565              		.section	.text.get_uart_data,"ax",%progbits
 566              		.align	2
 567              		.global	get_uart_data
 568              		.thumb
 569              		.thumb_func
 570              		.type	get_uart_data, %function
 571              	get_uart_data:
 572              	.LFB70:
 209:..\src/serial.c **** 	uint32 uart_buf_size = 0, i = 0;
 573              		.loc 1 209 0
 574              		.cfi_startproc
 575              		@ args = 0, pretend = 0, frame = 0
 576              		@ frame_needed = 0, uses_anonymous_args = 0
 577 0000 70B5     		push	{r4, r5, r6, lr}
 578              		.cfi_def_cfa_offset 16
 579              		.cfi_offset 4, -16
 580              		.cfi_offset 5, -12
 581              		.cfi_offset 6, -8
 582              		.cfi_offset 14, -4
 583              	.LVL79:
 214:..\src/serial.c **** 	if(uart_buf_size > 0)
 584              		.loc 1 214 0
 585 0002 FFF7FEFF 		bl	UART_2_GetRxBufferSize
 586              	.LVL80:
 587 0006 0646     		mov	r6, r0
 588              	.LVL81:
 215:..\src/serial.c **** 	{
 589              		.loc 1 215 0
 590 0008 38B9     		cbnz	r0, .L44
 591 000a 70BD     		pop	{r4, r5, r6, pc}
 592              	.LVL82:
 593              	.L43:
 221:..\src/serial.c **** 			uart_tmp_buf[i] = (uint8)tmp;
 594              		.loc 1 221 0 discriminator 3
 595 000c FFF7FEFF 		bl	UART_2_GetByte
 596              	.LVL83:
 222:..\src/serial.c **** 			
 597              		.loc 1 222 0 discriminator 3
 598 0010 C0B2     		uxtb	r0, r0
 599              	.LVL84:
 600 0012 094B     		ldr	r3, .L46
 601 0014 1855     		strb	r0, [r3, r4]
 217:..\src/serial.c **** 		{
 602              		.loc 1 217 0 discriminator 3
 603 0016 0134     		adds	r4, r4, #1
 604              	.LVL85:
 605 0018 01E0     		b	.L41
 606              	.LVL86:
 607              	.L44:
 608 001a 0546     		mov	r5, r0
 609 001c 0024     		movs	r4, #0
 610              	.LVL87:
 611              	.L41:
 217:..\src/serial.c **** 		{
 612              		.loc 1 217 0 is_stmt 0 discriminator 1
ARM GAS  C:\Users\Alex\AppData\Local\Temp\ccW3KqpB.s 			page 18


 613 001e AC42     		cmp	r4, r5
 614 0020 F4D3     		bcc	.L43
 233:..\src/serial.c **** 		
 615              		.loc 1 233 0 is_stmt 1
 616 0022 0548     		ldr	r0, .L46
 617 0024 711C     		adds	r1, r6, #1
 618 0026 FFF7FEFF 		bl	update_rx_buf_array_1
 619              	.LVL88:
 235:..\src/serial.c **** 	}		
 620              		.loc 1 235 0
 621 002a 044A     		ldr	r2, .L46+4
 622 002c 1378     		ldrb	r3, [r2]	@ zero_extendqisi2
 623 002e 0133     		adds	r3, r3, #1
 624 0030 DBB2     		uxtb	r3, r3
 625 0032 1370     		strb	r3, [r2]
 626 0034 70BD     		pop	{r4, r5, r6, pc}
 627              	.LVL89:
 628              	.L47:
 629 0036 00BF     		.align	2
 630              	.L46:
 631 0038 00000000 		.word	uart_tmp_buf
 632 003c 00000000 		.word	data_ready_485
 633              		.cfi_endproc
 634              	.LFE70:
 635              		.size	get_uart_data, .-get_uart_data
 636              		.comm	DMA_3_TD,1,4
 637              		.comm	DMA_3_Chan,1,1
 638              		.comm	uart_tmp_buf,100,4
 639              		.global	reply_ready_timestamp
 640              		.global	reply_ready_len
 641              		.global	reply_ready_flag
 642              		.comm	reply_ready_buf,96,4
 643              		.global	tx_cnt
 644              		.comm	DMA_4_TD,1,4
 645              		.comm	DMA_4_Chan,1,1
 646              		.comm	uart_dma_tx_buf,96,4
 647              		.comm	uart_dma_rx_buf,96,4
 648              		.bss
 649              		.set	.LANCHOR0,. + 0
 650              		.type	tx_cnt, %object
 651              		.size	tx_cnt, 1
 652              	tx_cnt:
 653 0000 00       		.space	1
 654              		.type	reply_ready_timestamp, %object
 655              		.size	reply_ready_timestamp, 1
 656              	reply_ready_timestamp:
 657 0001 00       		.space	1
 658              		.type	reply_ready_len, %object
 659              		.size	reply_ready_len, 1
 660              	reply_ready_len:
 661 0002 00       		.space	1
 662              		.type	reply_ready_flag, %object
 663              		.size	reply_ready_flag, 1
 664              	reply_ready_flag:
 665 0003 00       		.space	1
 666              		.text
 667              	.Letext0:
ARM GAS  C:\Users\Alex\AppData\Local\Temp\ccW3KqpB.s 			page 19


 668              		.file 2 "c:\\program files (x86)\\cypress\\psoc creator\\3.3\\psoc creator\\import\\gnu\\arm\\4.9.
 669              		.file 3 "c:\\program files (x86)\\cypress\\psoc creator\\3.3\\psoc creator\\import\\gnu\\arm\\4.9.
 670              		.file 4 "Generated_Source\\PSoC5/cytypes.h"
 671              		.file 5 "Generated_Source\\PSoC5/core_cm3.h"
 672              		.file 6 "..\\inc/misc.h"
 673              		.file 7 "Generated_Source\\PSoC5/DMA_3_dma.h"
 674              		.file 8 "Generated_Source\\PSoC5/CYDMAC.H"
 675              		.file 9 "Generated_Source\\PSoC5/DMA_4_dma.h"
 676              		.file 10 "Generated_Source\\PSoC5/NOT_RE.h"
 677              		.file 11 "Generated_Source\\PSoC5/UART_2.h"
 678              		.file 12 "Generated_Source\\PSoC5/CyLib.h"
 679              		.file 13 "Generated_Source\\PSoC5/DE.h"
 680              		.file 14 "Generated_Source\\PSoC5/UART_DMA_XMIT.h"
 681              		.file 15 "Generated_Source\\PSoC5/C8M.h"
 682              		.file 16 "Generated_Source\\PSoC5/isr_dma_uart_rx.h"
 683              		.file 17 "Generated_Source\\PSoC5/isr_dma_uart_tx.h"
 684              		.file 18 "Generated_Source\\PSoC5/Timer_2.h"
 685              		.file 19 "Generated_Source\\PSoC5/isr_t2.h"
 686              		.file 20 "Generated_Source\\PSoC5/T2_RESET.h"
 687              		.file 21 "c:\\flexsea_alx87grd\\flexsea-comm\\inc\\flexsea_buffers.h"