ARM GAS  C:\Users\Alex\AppData\Local\Temp\ccqLsXTL.s 			page 1


   1              		.syntax unified
   2              		.cpu cortex-m3
   3              		.fpu softvfp
   4              		.eabi_attribute 20, 1
   5              		.eabi_attribute 21, 1
   6              		.eabi_attribute 23, 3
   7              		.eabi_attribute 24, 1
   8              		.eabi_attribute 25, 1
   9              		.eabi_attribute 26, 1
  10              		.eabi_attribute 30, 1
  11              		.eabi_attribute 34, 1
  12              		.eabi_attribute 18, 4
  13              		.thumb
  14              		.file	"strain.c"
  15              		.text
  16              	.Ltext0:
  17              		.cfi_sections	.debug_frame
  18              		.global _printf_float
  19              		.thumb
  20              		.section	.text.strain_config,"ax",%progbits
  21              		.align	2
  22              		.global	strain_config
  23              		.thumb
  24              		.thumb_func
  25              		.type	strain_config, %function
  26              	strain_config:
  27              	.LFB64:
  28              		.file 1 "..\\src\\strain.c"
   1:..\src/strain.c **** //****************************************************************************
   2:..\src/strain.c **** // MIT Media Lab - Biomechatronics
   3:..\src/strain.c **** // Jean-Francois (Jeff) Duval
   4:..\src/strain.c **** // jfduval@mit.edu
   5:..\src/strain.c **** // 02/2015
   6:..\src/strain.c **** //****************************************************************************
   7:..\src/strain.c **** // strain: strain gauge amplifier
   8:..\src/strain.c **** //****************************************************************************
   9:..\src/strain.c **** 
  10:..\src/strain.c **** //****************************************************************************
  11:..\src/strain.c **** // Include(s)
  12:..\src/strain.c **** //****************************************************************************
  13:..\src/strain.c **** 
  14:..\src/strain.c **** #include "main.h"
  15:..\src/strain.c **** #include "strain.h"
  16:..\src/strain.c **** 
  17:..\src/strain.c **** //****************************************************************************
  18:..\src/strain.c **** // Variable(s)
  19:..\src/strain.c **** //****************************************************************************
  20:..\src/strain.c **** 
  21:..\src/strain.c **** struct strain_s strain;
  22:..\src/strain.c **** uint16 adc_strain_filtered = 0;
  23:..\src/strain.c **** volatile uint16 adc_strain = 0;
  24:..\src/strain.c **** volatile uint16 adc_delsig_dma_array[8];
  25:..\src/strain.c **** 
  26:..\src/strain.c **** //****************************************************************************
  27:..\src/strain.c **** // Function(s)
  28:..\src/strain.c **** //****************************************************************************
  29:..\src/strain.c **** 
ARM GAS  C:\Users\Alex\AppData\Local\Temp\ccqLsXTL.s 			page 2


  30:..\src/strain.c **** //Enables the peripherals associated with the strain amplifier and
  31:..\src/strain.c **** //sets the default values.
  32:..\src/strain.c **** //Make sure that you initialize I2C1 first!
  33:..\src/strain.c **** void init_strain(void)
  34:..\src/strain.c **** {
  35:..\src/strain.c **** 	//Peripherals:
  36:..\src/strain.c **** 	//=-=-=-=-=-=
  37:..\src/strain.c **** 	
  38:..\src/strain.c **** 	Opamp_2_Start();		//VR1
  39:..\src/strain.c **** 	
  40:..\src/strain.c **** 	//16-bits ADC:
  41:..\src/strain.c **** 	ADC_DelSig_1_Start();
  42:..\src/strain.c **** 	ADC_DelSig_1_IRQ_Enable();
  43:..\src/strain.c **** 	dma_2_config();
  44:..\src/strain.c **** 	isr_delsig_Start();
  45:..\src/strain.c **** 	
  46:..\src/strain.c **** 	//Defaults:
  47:..\src/strain.c **** 	//=-=-=-=-=-=
  48:..\src/strain.c **** 	
  49:..\src/strain.c **** 	strain.offset = STRAIN_DEFAULT_OFFSET;
  50:..\src/strain.c **** 	strain.gain = STRAIN_DEFAULT_GAIN;
  51:..\src/strain.c **** 	//strain.oref = STRAIN_DEFAULT_OREF;	
  52:..\src/strain.c **** 	strain.vo1 = 0;
  53:..\src/strain.c **** 	//strain.vo2 = 0;
  54:..\src/strain.c **** 	strain.filtered_strain = 0;
  55:..\src/strain.c **** 	strain_config(strain.offset, strain.gain);
  56:..\src/strain.c **** }
  57:..\src/strain.c **** 
  58:..\src/strain.c **** //Configure the strain gauge amplifier
  59:..\src/strain.c **** void strain_config(uint8 offs, uint8 gain)
  60:..\src/strain.c **** {
  29              		.loc 1 60 0
  30              		.cfi_startproc
  31              		@ args = 0, pretend = 0, frame = 8
  32              		@ frame_needed = 0, uses_anonymous_args = 0
  33              	.LVL0:
  34 0000 10B5     		push	{r4, lr}
  35              		.cfi_def_cfa_offset 8
  36              		.cfi_offset 4, -8
  37              		.cfi_offset 14, -4
  38 0002 82B0     		sub	sp, sp, #8
  39              		.cfi_def_cfa_offset 16
  40 0004 0C46     		mov	r4, r1
  61:..\src/strain.c **** 	uint8 i2c_init_buf[2];
  62:..\src/strain.c **** 	
  63:..\src/strain.c **** 	//Offset:
  64:..\src/strain.c **** 	i2c_init_buf[0] = STRAIN_OFFSET;
  41              		.loc 1 64 0
  42 0006 1023     		movs	r3, #16
  43 0008 8DF80430 		strb	r3, [sp, #4]
  65:..\src/strain.c **** 	i2c_init_buf[1] = offs;		//Offset
  44              		.loc 1 65 0
  45 000c 8DF80500 		strb	r0, [sp, #5]
  66:..\src/strain.c **** 	I2C_1_MasterWriteBuf(I2C_POT_ADDR, (uint8 *) i2c_init_buf, 2, I2C_1_MODE_COMPLETE_XFER);	
  46              		.loc 1 66 0
  47 0010 2820     		movs	r0, #40
  48              	.LVL1:
ARM GAS  C:\Users\Alex\AppData\Local\Temp\ccqLsXTL.s 			page 3


  49 0012 01A9     		add	r1, sp, #4
  50              	.LVL2:
  51 0014 0222     		movs	r2, #2
  52 0016 0023     		movs	r3, #0
  53 0018 FFF7FEFF 		bl	I2C_1_MasterWriteBuf
  54              	.LVL3:
  67:..\src/strain.c **** 	CyDelayUs(100);
  55              		.loc 1 67 0
  56 001c 6420     		movs	r0, #100
  57 001e FFF7FEFF 		bl	CyDelayUs
  58              	.LVL4:
  68:..\src/strain.c **** 	
  69:..\src/strain.c **** 	//Second stage gain:
  70:..\src/strain.c **** 	i2c_init_buf[0] = STRAIN_GAIN;
  59              		.loc 1 70 0
  60 0022 0023     		movs	r3, #0
  61 0024 8DF80430 		strb	r3, [sp, #4]
  71:..\src/strain.c **** 	i2c_init_buf[1] = gain;		//Gain
  62              		.loc 1 71 0
  63 0028 8DF80540 		strb	r4, [sp, #5]
  72:..\src/strain.c **** 	I2C_1_MasterWriteBuf(I2C_POT_ADDR, (uint8 *) i2c_init_buf, 2, I2C_1_MODE_COMPLETE_XFER);
  64              		.loc 1 72 0
  65 002c 2820     		movs	r0, #40
  66 002e 01A9     		add	r1, sp, #4
  67 0030 0222     		movs	r2, #2
  68 0032 FFF7FEFF 		bl	I2C_1_MasterWriteBuf
  69              	.LVL5:
  73:..\src/strain.c **** 	CyDelayUs(100);
  70              		.loc 1 73 0
  71 0036 6420     		movs	r0, #100
  72 0038 FFF7FEFF 		bl	CyDelayUs
  73              	.LVL6:
  74:..\src/strain.c **** }
  74              		.loc 1 74 0
  75 003c 02B0     		add	sp, sp, #8
  76              		.cfi_def_cfa_offset 8
  77              		@ sp needed
  78 003e 10BD     		pop	{r4, pc}
  79              		.cfi_endproc
  80              	.LFE64:
  81              		.size	strain_config, .-strain_config
  82              		.section	.text.strain_read,"ax",%progbits
  83              		.align	2
  84              		.global	strain_read
  85              		.thumb
  86              		.thumb_func
  87              		.type	strain_read, %function
  88              	strain_read:
  89              	.LFB65:
  75:..\src/strain.c **** 
  76:..\src/strain.c **** //Returns the latest filtered strain measurement
  77:..\src/strain.c **** uint16 strain_read(void)
  78:..\src/strain.c **** {
  90              		.loc 1 78 0
  91              		.cfi_startproc
  92              		@ args = 0, pretend = 0, frame = 0
  93              		@ frame_needed = 0, uses_anonymous_args = 0
ARM GAS  C:\Users\Alex\AppData\Local\Temp\ccqLsXTL.s 			page 4


  94              		@ link register save eliminated.
  79:..\src/strain.c **** 	//ADC is auto-sampling, this function simply returns the last filtered value
  80:..\src/strain.c **** 	
  81:..\src/strain.c **** 	//return strain.filtered_strain;	//Buggy
  82:..\src/strain.c **** 	return adc_strain_filtered;
  83:..\src/strain.c **** }
  95              		.loc 1 83 0
  96 0000 014B     		ldr	r3, .L4
  97 0002 1888     		ldrh	r0, [r3]
  98 0004 7047     		bx	lr
  99              	.L5:
 100 0006 00BF     		.align	2
 101              	.L4:
 102 0008 00000000 		.word	.LANCHOR0
 103              		.cfi_endproc
 104              	.LFE65:
 105              		.size	strain_read, .-strain_read
 106              		.section	.text.strain_filter,"ax",%progbits
 107              		.align	2
 108              		.global	strain_filter
 109              		.thumb
 110              		.thumb_func
 111              		.type	strain_filter, %function
 112              	strain_filter:
 113              	.LFB66:
  84:..\src/strain.c **** 
  85:..\src/strain.c **** //Moving average filter:
  86:..\src/strain.c **** uint16 strain_filter(void)
  87:..\src/strain.c **** {
 114              		.loc 1 87 0
 115              		.cfi_startproc
 116              		@ args = 0, pretend = 0, frame = 0
 117              		@ frame_needed = 0, uses_anonymous_args = 0
 118              		@ link register save eliminated.
 119              	.LVL7:
  88:..\src/strain.c **** 	uint32 sum = 0;
  89:..\src/strain.c **** 	uint8 cnt = 0;
  90:..\src/strain.c **** 	uint16 avg = 0;
  91:..\src/strain.c **** 	static uint16 vo2_buf[STRAIN_BUF_LEN];
  92:..\src/strain.c **** 	
  93:..\src/strain.c **** 	//Shift buffer and sum all but last term
  94:..\src/strain.c **** 	for(cnt = 1; cnt < (STRAIN_BUF_LEN); cnt++)
 120              		.loc 1 94 0
 121 0000 0123     		movs	r3, #1
  88:..\src/strain.c **** 	uint32 sum = 0;
 122              		.loc 1 88 0
 123 0002 0021     		movs	r1, #0
 124              		.loc 1 94 0
 125 0004 09E0     		b	.L7
 126              	.LVL8:
 127              	.L8:
  95:..\src/strain.c **** 	{
  96:..\src/strain.c **** 		vo2_buf[cnt-1] = vo2_buf[cnt];
 128              		.loc 1 96 0 discriminator 3
 129 0006 0B4A     		ldr	r2, .L9
 130 0008 02EB4300 		add	r0, r2, r3, lsl #1
 131 000c 8088     		ldrh	r0, [r0, #4]
ARM GAS  C:\Users\Alex\AppData\Local\Temp\ccqLsXTL.s 			page 5


 132 000e 02EB4302 		add	r2, r2, r3, lsl #1
 133 0012 5080     		strh	r0, [r2, #2]	@ movhi
  97:..\src/strain.c **** 		sum += vo2_buf[cnt-1];
 134              		.loc 1 97 0 discriminator 3
 135 0014 0144     		add	r1, r1, r0
 136              	.LVL9:
  94:..\src/strain.c **** 	{
 137              		.loc 1 94 0 discriminator 3
 138 0016 0133     		adds	r3, r3, #1
 139              	.LVL10:
 140 0018 DBB2     		uxtb	r3, r3
 141              	.LVL11:
 142              	.L7:
  94:..\src/strain.c **** 	{
 143              		.loc 1 94 0 is_stmt 0 discriminator 1
 144 001a 052B     		cmp	r3, #5
 145 001c F3D9     		bls	.L8
  98:..\src/strain.c **** 	}
  99:..\src/strain.c **** 	
 100:..\src/strain.c **** 	//vo2_buf[STRAIN_BUF_LEN - 1] = strain.vo2;	//Buggy, see Evernote
 101:..\src/strain.c **** 	vo2_buf[STRAIN_BUF_LEN - 1] = adc_strain;
 146              		.loc 1 101 0 is_stmt 1
 147 001e 054B     		ldr	r3, .L9
 148              	.LVL12:
 149 0020 188A     		ldrh	r0, [r3, #16]
 150 0022 80B2     		uxth	r0, r0
 151 0024 D881     		strh	r0, [r3, #14]	@ movhi
 102:..\src/strain.c **** 	sum += vo2_buf[STRAIN_BUF_LEN - 1];
 152              		.loc 1 102 0
 153 0026 0844     		add	r0, r0, r1
 154              	.LVL13:
 103:..\src/strain.c **** 		
 104:..\src/strain.c **** 	//Average
 105:..\src/strain.c **** 	avg = (uint16)(sum >> STRAIN_SHIFT);
 155              		.loc 1 105 0
 156 0028 C0F38F00 		ubfx	r0, r0, #2, #16
 157              	.LVL14:
 106:..\src/strain.c **** 	
 107:..\src/strain.c **** 	//Store in structure:
 108:..\src/strain.c **** 	strain.filtered_strain = avg;
 158              		.loc 1 108 0
 159 002c 024A     		ldr	r2, .L9+4
 160 002e 5082     		strh	r0, [r2, #18]	@ movhi
 109:..\src/strain.c **** 	adc_strain_filtered = avg;
 161              		.loc 1 109 0
 162 0030 1880     		strh	r0, [r3]	@ movhi
 110:..\src/strain.c **** 	
 111:..\src/strain.c **** 	return avg;	
 112:..\src/strain.c **** }
 163              		.loc 1 112 0
 164 0032 7047     		bx	lr
 165              	.L10:
 166              		.align	2
 167              	.L9:
 168 0034 00000000 		.word	.LANCHOR0
 169 0038 00000000 		.word	strain
 170              		.cfi_endproc
ARM GAS  C:\Users\Alex\AppData\Local\Temp\ccqLsXTL.s 			page 6


 171              	.LFE66:
 172              		.size	strain_filter, .-strain_filter
 173              		.section	.text.strain_filter_dma,"ax",%progbits
 174              		.align	2
 175              		.global	strain_filter_dma
 176              		.thumb
 177              		.thumb_func
 178              		.type	strain_filter_dma, %function
 179              	strain_filter_dma:
 180              	.LFB67:
 113:..\src/strain.c **** 
 114:..\src/strain.c **** //With DMA transfers we get a full buffer (6 bytes) per interrupt
 115:..\src/strain.c **** //Note: we take 6 samples and ignore the first 2. This is a workaround, as the first 2 values are o
 116:..\src/strain.c **** uint16 strain_filter_dma(void)
 117:..\src/strain.c **** {
 181              		.loc 1 117 0
 182              		.cfi_startproc
 183              		@ args = 0, pretend = 0, frame = 0
 184              		@ frame_needed = 0, uses_anonymous_args = 0
 185              		@ link register save eliminated.
 186              	.LVL15:
 118:..\src/strain.c **** 	uint32 sum = 0;
 119:..\src/strain.c **** 	uint8 cnt = 0;
 120:..\src/strain.c **** 	uint16 avg = 0;
 121:..\src/strain.c **** 	
 122:..\src/strain.c **** 	//Sum all the terms
 123:..\src/strain.c **** 	for(cnt = 2; cnt < STRAIN_BUF_LEN; cnt++)
 187              		.loc 1 123 0
 188 0000 0223     		movs	r3, #2
 118:..\src/strain.c **** 	uint32 sum = 0;
 189              		.loc 1 118 0
 190 0002 0020     		movs	r0, #0
 191              		.loc 1 123 0
 192 0004 06E0     		b	.L12
 193              	.LVL16:
 194              	.L13:
 124:..\src/strain.c **** 	{
 125:..\src/strain.c **** 		sum += adc_delsig_dma_array[cnt];
 195              		.loc 1 125 0 discriminator 3
 196 0006 084A     		ldr	r2, .L14
 197 0008 32F81320 		ldrh	r2, [r2, r3, lsl #1]
 198 000c 92B2     		uxth	r2, r2
 199 000e 1044     		add	r0, r0, r2
 200              	.LVL17:
 123:..\src/strain.c **** 	{
 201              		.loc 1 123 0 discriminator 3
 202 0010 0133     		adds	r3, r3, #1
 203              	.LVL18:
 204 0012 DBB2     		uxtb	r3, r3
 205              	.LVL19:
 206              	.L12:
 123:..\src/strain.c **** 	{
 207              		.loc 1 123 0 is_stmt 0 discriminator 1
 208 0014 052B     		cmp	r3, #5
 209 0016 F6D9     		bls	.L13
 126:..\src/strain.c **** 	}
 127:..\src/strain.c **** 	
ARM GAS  C:\Users\Alex\AppData\Local\Temp\ccqLsXTL.s 			page 7


 128:..\src/strain.c **** 	//Average
 129:..\src/strain.c **** 	avg = (uint16)(sum >> STRAIN_SHIFT);
 210              		.loc 1 129 0 is_stmt 1
 211 0018 C0F38F00 		ubfx	r0, r0, #2, #16
 212              	.LVL20:
 130:..\src/strain.c **** 	
 131:..\src/strain.c **** 	//Store in structure:
 132:..\src/strain.c **** 	strain.filtered_strain = avg;
 213              		.loc 1 132 0
 214 001c 034B     		ldr	r3, .L14+4
 215              	.LVL21:
 216 001e 5882     		strh	r0, [r3, #18]	@ movhi
 133:..\src/strain.c **** 	adc_strain_filtered = avg;
 217              		.loc 1 133 0
 218 0020 034B     		ldr	r3, .L14+8
 219 0022 1880     		strh	r0, [r3]	@ movhi
 134:..\src/strain.c **** 	
 135:..\src/strain.c **** 	return avg;	
 136:..\src/strain.c **** }
 220              		.loc 1 136 0
 221 0024 7047     		bx	lr
 222              	.L15:
 223 0026 00BF     		.align	2
 224              	.L14:
 225 0028 00000000 		.word	adc_delsig_dma_array
 226 002c 00000000 		.word	strain
 227 0030 00000000 		.word	.LANCHOR0
 228              		.cfi_endproc
 229              	.LFE67:
 230              		.size	strain_filter_dma, .-strain_filter_dma
 231              		.section	.text.strain_test_blocking,"ax",%progbits
 232              		.align	2
 233              		.global	strain_test_blocking
 234              		.thumb
 235              		.thumb_func
 236              		.type	strain_test_blocking, %function
 237              	strain_test_blocking:
 238              	.LFB68:
 137:..\src/strain.c **** 
 138:..\src/strain.c **** //Copy of the test code used in main.c to test the hardware:
 139:..\src/strain.c **** void strain_test_blocking(void)
 140:..\src/strain.c **** {
 239              		.loc 1 140 0
 240              		.cfi_startproc
 241              		@ args = 0, pretend = 0, frame = 16
 242              		@ frame_needed = 0, uses_anonymous_args = 0
 243 0000 30B5     		push	{r4, r5, lr}
 244              		.cfi_def_cfa_offset 12
 245              		.cfi_offset 4, -12
 246              		.cfi_offset 5, -8
 247              		.cfi_offset 14, -4
 248 0002 85B0     		sub	sp, sp, #20
 249              		.cfi_def_cfa_offset 32
 250              	.LVL22:
 141:..\src/strain.c **** 	//Strain Amplifier test:
 142:..\src/strain.c **** 	
 143:..\src/strain.c **** 	uint8 i2c_test_wbuf[9];
ARM GAS  C:\Users\Alex\AppData\Local\Temp\ccqLsXTL.s 			page 8


 144:..\src/strain.c **** 	uint8 vr1 = 0;
 145:..\src/strain.c **** 	uint8 ledg_state = 0;
 146:..\src/strain.c **** 	
 147:..\src/strain.c **** 	i2c_test_wbuf[0] = STRAIN_OFFSET;
 251              		.loc 1 147 0
 252 0004 1025     		movs	r5, #16
 253 0006 8DF80450 		strb	r5, [sp, #4]
 148:..\src/strain.c **** 	i2c_test_wbuf[1] = 127;	//Offset of ~ V/2
 254              		.loc 1 148 0
 255 000a 7F23     		movs	r3, #127
 256 000c 8DF80530 		strb	r3, [sp, #5]
 149:..\src/strain.c **** 	I2C_1_MasterWriteBuf(I2C_POT_ADDR, (uint8 *) i2c_test_wbuf, 2, I2C_1_MODE_COMPLETE_XFER);	
 257              		.loc 1 149 0
 258 0010 2820     		movs	r0, #40
 259 0012 01A9     		add	r1, sp, #4
 260 0014 0222     		movs	r2, #2
 261 0016 0023     		movs	r3, #0
 262 0018 FFF7FEFF 		bl	I2C_1_MasterWriteBuf
 263              	.LVL23:
 150:..\src/strain.c **** 	CyDelay(10);
 264              		.loc 1 150 0
 265 001c 0A20     		movs	r0, #10
 266 001e FFF7FEFF 		bl	CyDelay
 267              	.LVL24:
 151:..\src/strain.c **** 	i2c_test_wbuf[0] = STRAIN_GAIN;
 268              		.loc 1 151 0
 269 0022 0024     		movs	r4, #0
 270 0024 8DF80440 		strb	r4, [sp, #4]
 152:..\src/strain.c **** 	i2c_test_wbuf[1] = 10;	//Relatively small gain
 271              		.loc 1 152 0
 272 0028 0A23     		movs	r3, #10
 273 002a 8DF80530 		strb	r3, [sp, #5]
 153:..\src/strain.c **** 	I2C_1_MasterWriteBuf(I2C_POT_ADDR, (uint8 *) i2c_test_wbuf, 2, I2C_1_MODE_COMPLETE_XFER);	
 274              		.loc 1 153 0
 275 002e 2820     		movs	r0, #40
 276 0030 01A9     		add	r1, sp, #4
 277 0032 0222     		movs	r2, #2
 278 0034 2346     		mov	r3, r4
 279 0036 FFF7FEFF 		bl	I2C_1_MasterWriteBuf
 280              	.LVL25:
 154:..\src/strain.c **** 	
 155:..\src/strain.c **** 	i2c_test_wbuf[0] = STRAIN_OFFSET;
 281              		.loc 1 155 0
 282 003a 8DF80450 		strb	r5, [sp, #4]
 145:..\src/strain.c **** 	
 283              		.loc 1 145 0
 284 003e 2546     		mov	r5, r4
 285              	.LVL26:
 286              	.L17:
 156:..\src/strain.c **** 	while(1)
 157:..\src/strain.c **** 	{
 158:..\src/strain.c **** 		vr1++;		
 287              		.loc 1 158 0 discriminator 1
 288 0040 0134     		adds	r4, r4, #1
 289              	.LVL27:
 290 0042 E4B2     		uxtb	r4, r4
 291              	.LVL28:
ARM GAS  C:\Users\Alex\AppData\Local\Temp\ccqLsXTL.s 			page 9


 159:..\src/strain.c **** 		i2c_test_wbuf[1] = vr1;	//Enable this line to test the offset
 292              		.loc 1 159 0 discriminator 1
 293 0044 8DF80540 		strb	r4, [sp, #5]
 160:..\src/strain.c **** 		I2C_1_MasterWriteBuf(I2C_POT_ADDR, (uint8 *) i2c_test_wbuf, 2, I2C_1_MODE_COMPLETE_XFER);	
 294              		.loc 1 160 0 discriminator 1
 295 0048 2820     		movs	r0, #40
 296 004a 01A9     		add	r1, sp, #4
 297 004c 0222     		movs	r2, #2
 298 004e 0023     		movs	r3, #0
 299 0050 FFF7FEFF 		bl	I2C_1_MasterWriteBuf
 300              	.LVL29:
 161:..\src/strain.c **** 		
 162:..\src/strain.c **** 		ledg_state ^= 1;
 301              		.loc 1 162 0 discriminator 1
 302 0054 85F00105 		eor	r5, r5, #1
 303              	.LVL30:
 163:..\src/strain.c **** 		LED_G_Write(ledg_state);
 304              		.loc 1 163 0 discriminator 1
 305 0058 2846     		mov	r0, r5
 306 005a FFF7FEFF 		bl	LED_G_Write
 307              	.LVL31:
 164:..\src/strain.c **** 		
 165:..\src/strain.c **** 		CyDelayUs(1000);
 308              		.loc 1 165 0 discriminator 1
 309 005e 4FF47A70 		mov	r0, #1000
 310 0062 FFF7FEFF 		bl	CyDelayUs
 311              	.LVL32:
 166:..\src/strain.c **** 	}
 312              		.loc 1 166 0 discriminator 1
 313 0066 EBE7     		b	.L17
 314              		.cfi_endproc
 315              	.LFE68:
 316              		.size	strain_test_blocking, .-strain_test_blocking
 317              		.section	.text.dma_2_config,"ax",%progbits
 318              		.align	2
 319              		.global	dma_2_config
 320              		.thumb
 321              		.thumb_func
 322              		.type	dma_2_config, %function
 323              	dma_2_config:
 324              	.LFB69:
 167:..\src/strain.c **** }
 168:..\src/strain.c **** 
 169:..\src/strain.c **** //DMA for Delta Sigma ADC
 170:..\src/strain.c **** void dma_2_config(void)
 171:..\src/strain.c **** {
 325              		.loc 1 171 0
 326              		.cfi_startproc
 327              		@ args = 0, pretend = 0, frame = 0
 328              		@ frame_needed = 0, uses_anonymous_args = 0
 329 0000 38B5     		push	{r3, r4, r5, lr}
 330              		.cfi_def_cfa_offset 16
 331              		.cfi_offset 3, -16
 332              		.cfi_offset 4, -12
 333              		.cfi_offset 5, -8
 334              		.cfi_offset 14, -4
 172:..\src/strain.c **** 	/* Variable declarations for DMA_2 */
ARM GAS  C:\Users\Alex\AppData\Local\Temp\ccqLsXTL.s 			page 10


 173:..\src/strain.c **** 	/* Move these variable declarations to the top of the function */
 174:..\src/strain.c **** 	uint8 DMA_2_Chan;
 175:..\src/strain.c **** 	uint8 DMA_2_TD[1];
 176:..\src/strain.c **** 
 177:..\src/strain.c **** 	/* DMA Configuration for DMA_2 */
 178:..\src/strain.c **** 	#define DMA_2_BYTES_PER_BURST 2
 179:..\src/strain.c **** 	#define DMA_2_REQUEST_PER_BURST 1
 180:..\src/strain.c **** 	#define DMA_2_SRC_BASE (CYDEV_PERIPH_BASE)
 181:..\src/strain.c **** 	#define DMA_2_DST_BASE (CYDEV_SRAM_BASE)
 182:..\src/strain.c **** 	DMA_2_Chan = DMA_2_DmaInitialize(DMA_2_BYTES_PER_BURST, DMA_2_REQUEST_PER_BURST, 
 335              		.loc 1 182 0
 336 0002 0220     		movs	r0, #2
 337 0004 0121     		movs	r1, #1
 338 0006 4FF48042 		mov	r2, #16384
 339 000a 41F6FF73 		movw	r3, #8191
 340 000e FFF7FEFF 		bl	DMA_2_DmaInitialize
 341              	.LVL33:
 342 0012 0546     		mov	r5, r0
 343              	.LVL34:
 183:..\src/strain.c **** 	    HI16(DMA_2_SRC_BASE), HI16(DMA_2_DST_BASE));
 184:..\src/strain.c **** 	DMA_2_TD[0] = CyDmaTdAllocate();
 344              		.loc 1 184 0
 345 0014 FFF7FEFF 		bl	CyDmaTdAllocate
 346              	.LVL35:
 347 0018 0446     		mov	r4, r0
 185:..\src/strain.c **** 	CyDmaTdSetConfiguration(DMA_2_TD[0], DMA2_BYTES_PER_XFER, DMA_2_TD[0], DMA_2__TD_TERMOUT_EN | TD_I
 348              		.loc 1 185 0
 349 001a 0C21     		movs	r1, #12
 350 001c 0246     		mov	r2, r0
 351 001e 0623     		movs	r3, #6
 352 0020 FFF7FEFF 		bl	CyDmaTdSetConfiguration
 353              	.LVL36:
 186:..\src/strain.c **** 	CyDmaTdSetAddress(DMA_2_TD[0], LO16((uint32)ADC_DelSig_1_DEC_SAMP_PTR), LO16((uint32)adc_delsig_dm
 354              		.loc 1 186 0
 355 0024 2046     		mov	r0, r4
 356 0026 44F61061 		movw	r1, #19984
 357 002a 064A     		ldr	r2, .L21
 358 002c 92B2     		uxth	r2, r2
 359 002e FFF7FEFF 		bl	CyDmaTdSetAddress
 360              	.LVL37:
 187:..\src/strain.c **** 	CyDmaChSetInitialTd(DMA_2_Chan, DMA_2_TD[0]);
 361              		.loc 1 187 0
 362 0032 2846     		mov	r0, r5
 363 0034 2146     		mov	r1, r4
 364 0036 FFF7FEFF 		bl	CyDmaChSetInitialTd
 365              	.LVL38:
 188:..\src/strain.c **** 	CyDmaChEnable(DMA_2_Chan, 1);
 366              		.loc 1 188 0
 367 003a 2846     		mov	r0, r5
 368 003c 0121     		movs	r1, #1
 369 003e FFF7FEFF 		bl	CyDmaChEnable
 370              	.LVL39:
 371 0042 38BD     		pop	{r3, r4, r5, pc}
 372              	.LVL40:
 373              	.L22:
 374              		.align	2
 375              	.L21:
ARM GAS  C:\Users\Alex\AppData\Local\Temp\ccqLsXTL.s 			page 11


 376 0044 00000000 		.word	adc_delsig_dma_array
 377              		.cfi_endproc
 378              	.LFE69:
 379              		.size	dma_2_config, .-dma_2_config
 380              		.section	.text.init_strain,"ax",%progbits
 381              		.align	2
 382              		.global	init_strain
 383              		.thumb
 384              		.thumb_func
 385              		.type	init_strain, %function
 386              	init_strain:
 387              	.LFB63:
  34:..\src/strain.c **** 	//Peripherals:
 388              		.loc 1 34 0
 389              		.cfi_startproc
 390              		@ args = 0, pretend = 0, frame = 0
 391              		@ frame_needed = 0, uses_anonymous_args = 0
 392 0000 08B5     		push	{r3, lr}
 393              		.cfi_def_cfa_offset 8
 394              		.cfi_offset 3, -8
 395              		.cfi_offset 14, -4
  38:..\src/strain.c **** 	
 396              		.loc 1 38 0
 397 0002 FFF7FEFF 		bl	Opamp_2_Start
 398              	.LVL41:
  41:..\src/strain.c **** 	ADC_DelSig_1_IRQ_Enable();
 399              		.loc 1 41 0
 400 0006 FFF7FEFF 		bl	ADC_DelSig_1_Start
 401              	.LVL42:
  42:..\src/strain.c **** 	dma_2_config();
 402              		.loc 1 42 0
 403 000a FFF7FEFF 		bl	ADC_DelSig_1_IRQ_Enable
 404              	.LVL43:
  43:..\src/strain.c **** 	isr_delsig_Start();
 405              		.loc 1 43 0
 406 000e FFF7FEFF 		bl	dma_2_config
 407              	.LVL44:
  44:..\src/strain.c **** 	
 408              		.loc 1 44 0
 409 0012 FFF7FEFF 		bl	isr_delsig_Start
 410              	.LVL45:
  49:..\src/strain.c **** 	strain.gain = STRAIN_DEFAULT_GAIN;
 411              		.loc 1 49 0
 412 0016 054B     		ldr	r3, .L25
 413 0018 7F20     		movs	r0, #127
 414 001a 1870     		strb	r0, [r3]
  50:..\src/strain.c **** 	//strain.oref = STRAIN_DEFAULT_OREF;	
 415              		.loc 1 50 0
 416 001c 5021     		movs	r1, #80
 417 001e 5970     		strb	r1, [r3, #1]
  52:..\src/strain.c **** 	//strain.vo2 = 0;
 418              		.loc 1 52 0
 419 0020 0022     		movs	r2, #0
 420 0022 9A81     		strh	r2, [r3, #12]	@ movhi
  54:..\src/strain.c **** 	strain_config(strain.offset, strain.gain);
 421              		.loc 1 54 0
 422 0024 5A82     		strh	r2, [r3, #18]	@ movhi
ARM GAS  C:\Users\Alex\AppData\Local\Temp\ccqLsXTL.s 			page 12


  55:..\src/strain.c **** }
 423              		.loc 1 55 0
 424 0026 FFF7FEFF 		bl	strain_config
 425              	.LVL46:
 426 002a 08BD     		pop	{r3, pc}
 427              	.L26:
 428              		.align	2
 429              	.L25:
 430 002c 00000000 		.word	strain
 431              		.cfi_endproc
 432              	.LFE63:
 433              		.size	init_strain, .-init_strain
 434              		.comm	adc_delsig_dma_array,16,4
 435              		.global	adc_strain
 436              		.global	adc_strain_filtered
 437              		.comm	strain,20,4
 438              		.bss
 439              		.align	2
 440              		.set	.LANCHOR0,. + 0
 441              		.type	adc_strain_filtered, %object
 442              		.size	adc_strain_filtered, 2
 443              	adc_strain_filtered:
 444 0000 0000     		.space	2
 445 0002 0000     		.space	2
 446              		.type	vo2_buf.10489, %object
 447              		.size	vo2_buf.10489, 12
 448              	vo2_buf.10489:
 449 0004 00000000 		.space	12
 449      00000000 
 449      00000000 
 450              		.type	adc_strain, %object
 451              		.size	adc_strain, 2
 452              	adc_strain:
 453 0010 0000     		.space	2
 454 0012 0000     		.text
 455              	.Letext0:
 456              		.file 2 "c:\\program files (x86)\\cypress\\psoc creator\\3.3\\psoc creator\\import\\gnu\\arm\\4.9.
 457              		.file 3 "c:\\program files (x86)\\cypress\\psoc creator\\3.3\\psoc creator\\import\\gnu\\arm\\4.9.
 458              		.file 4 "Generated_Source\\PSoC5/cytypes.h"
 459              		.file 5 "..\\inc/../../flexsea-system/inc/flexsea_system.h"
 460              		.file 6 "Generated_Source\\PSoC5/core_cm3.h"
 461              		.file 7 "Generated_Source\\PSoC5/CyLib.h"
 462              		.file 8 "Generated_Source\\PSoC5/LED_G.h"
 463              		.file 9 "Generated_Source\\PSoC5/I2C_1.h"
 464              		.file 10 "Generated_Source\\PSoC5/DMA_2_dma.h"
 465              		.file 11 "Generated_Source\\PSoC5/CYDMAC.H"
 466              		.file 12 "Generated_Source\\PSoC5/Opamp_2.h"
 467              		.file 13 "Generated_Source\\PSoC5/ADC_DelSig_1.h"
 468              		.file 14 "Generated_Source\\PSoC5/ADC_DelSig_1_IRQ.h"
 469              		.file 15 "Generated_Source\\PSoC5/isr_delsig.h"