ARM GAS  C:\Users\Alex\AppData\Local\Temp\ccQGblqY.s 			page 1


   1              		.syntax unified
   2              		.cpu cortex-m3
   3              		.fpu softvfp
   4              		.eabi_attribute 20, 1
   5              		.eabi_attribute 21, 1
   6              		.eabi_attribute 23, 3
   7              		.eabi_attribute 24, 1
   8              		.eabi_attribute 25, 1
   9              		.eabi_attribute 26, 1
  10              		.eabi_attribute 30, 1
  11              		.eabi_attribute 34, 1
  12              		.eabi_attribute 18, 4
  13              		.thumb
  14              		.file	"trapez.c"
  15              		.text
  16              	.Ltext0:
  17              		.cfi_sections	.debug_frame
  18              		.global	__aeabi_ldivmod
  19              		.section	.text.trapez_compute_params,"ax",%progbits
  20              		.align	2
  21              		.thumb
  22              		.thumb_func
  23              		.type	trapez_compute_params, %function
  24              	trapez_compute_params:
  25              	.LFB2:
  26              		.file 1 "..\\src\\trapez.c"
   1:..\src/trapez.c **** //****************************************************************************
   2:..\src/trapez.c **** // MIT Media Lab - Biomechatronics
   3:..\src/trapez.c **** // Jean-Francois (Jeff) Duval
   4:..\src/trapez.c **** // jfduval@mit.edu
   5:..\src/trapez.c **** // 05/2015
   6:..\src/trapez.c **** //****************************************************************************
   7:..\src/trapez.c **** // trapez: trapezoidal trajectory generation
   8:..\src/trapez.c **** //****************************************************************************
   9:..\src/trapez.c **** 
  10:..\src/trapez.c **** //Work based on trapez_gen_x.m, translated in C
  11:..\src/trapez.c **** //JFDuval 06/17/2014
  12:..\src/trapez.c **** 
  13:..\src/trapez.c **** //****************************************************************************
  14:..\src/trapez.c **** // Include(s)
  15:..\src/trapez.c **** //****************************************************************************
  16:..\src/trapez.c **** 
  17:..\src/trapez.c **** //Comment the next line to use in your application:
  18:..\src/trapez.c **** //#define DEBUGGING_OUTPUT
  19:..\src/trapez.c **** 
  20:..\src/trapez.c **** #include <stdio.h>
  21:..\src/trapez.c **** #include <stdint.h>
  22:..\src/trapez.c **** #include <stdlib.h>
  23:..\src/trapez.c **** #include <math.h>
  24:..\src/trapez.c **** #include "trapez.h"
  25:..\src/trapez.c **** //#include "main.h"
  26:..\src/trapez.c **** 
  27:..\src/trapez.c **** 
  28:..\src/trapez.c **** //****************************************************************************
  29:..\src/trapez.c **** // Local variable(s)
  30:..\src/trapez.c **** //****************************************************************************
  31:..\src/trapez.c **** 
ARM GAS  C:\Users\Alex\AppData\Local\Temp\ccQGblqY.s 			page 2


  32:..\src/trapez.c **** //Common variables - careful, do not change "manually"!
  33:..\src/trapez.c **** long long d_pos = 0, d_spd = 0, a_t = 0, a_t_discrete = 0, spd_inc = 0, acc_pos = 0, acc = 0;
  34:..\src/trapez.c **** long long init_pos = 0, cte_spd_pos = 0, cte_spd_pos_discrete = 0;
  35:..\src/trapez.c **** long long skip_sspeed = 0;
  36:..\src/trapez.c **** long long pos_step = 0;
  37:..\src/trapez.c **** long long trapez_transitions[3] = {0,0,0};
  38:..\src/trapez.c **** long long sign = 0;
  39:..\src/trapez.c **** 
  40:..\src/trapez.c **** //****************************************************************************
  41:..\src/trapez.c **** // Private Function Prototype(s):
  42:..\src/trapez.c **** //****************************************************************************
  43:..\src/trapez.c **** 
  44:..\src/trapez.c **** static long long trapez_compute_params(long long pos_i, long long pos_f, long long spd_max, long lo
  45:..\src/trapez.c **** 
  46:..\src/trapez.c **** //****************************************************************************
  47:..\src/trapez.c **** // Public Function(s)
  48:..\src/trapez.c **** //****************************************************************************
  49:..\src/trapez.c **** 
  50:..\src/trapez.c **** //Based on trapez_motion_2.m
  51:..\src/trapez.c **** //Assumes 0 initial speed
  52:..\src/trapez.c **** long long trapez_gen_motion_1(long long pos_i, long long pos_f, long long spd_max, long long a)
  53:..\src/trapez.c **** {
  54:..\src/trapez.c **** 	long long abs_d_pos = 0, abs_acc_pos = 0, dual_abs_acc_pos = 0;
  55:..\src/trapez.c **** 
  56:..\src/trapez.c ****     //spd_max & a have to be positive
  57:..\src/trapez.c ****     spd_max = llabs(spd_max);
  58:..\src/trapez.c ****     a = llabs(a);
  59:..\src/trapez.c **** 
  60:..\src/trapez.c ****     //Compute parameters (in global variables)
  61:..\src/trapez.c ****     trapez_compute_params(pos_i, pos_f, spd_max, a);
  62:..\src/trapez.c **** 
  63:..\src/trapez.c ****     //Absolute values
  64:..\src/trapez.c ****     abs_d_pos = llabs(d_pos);
  65:..\src/trapez.c ****     abs_acc_pos = llabs(acc_pos);
  66:..\src/trapez.c ****     dual_abs_acc_pos = 2*abs_acc_pos;
  67:..\src/trapez.c **** 
  68:..\src/trapez.c ****     #ifdef DEBUGGING_OUTPUT
  69:..\src/trapez.c ****     printf("d_pos = %lld, abs_d_pos = %lld.\n", d_pos, abs_d_pos);
  70:..\src/trapez.c ****     printf("1) acc_pos = %lld, abs_acc_pos = %lld.\n", acc_pos, abs_acc_pos);
  71:..\src/trapez.c ****     #endif
  72:..\src/trapez.c **** 
  73:..\src/trapez.c ****     //It's possible to overshoot position if the acceleration is too low.
  74:..\src/trapez.c ****     //In that case we should sacrifice the top speed
  75:..\src/trapez.c ****     if(dual_abs_acc_pos > abs_d_pos)
  76:..\src/trapez.c ****     {
  77:..\src/trapez.c ****         #ifdef DEBUGGING_OUTPUT
  78:..\src/trapez.c ****         printf("Position overshoot.\n");
  79:..\src/trapez.c ****         #endif
  80:..\src/trapez.c **** 
  81:..\src/trapez.c ****         //New top speed:
  82:..\src/trapez.c ****         spd_max = sqrt(a*abs_d_pos);
  83:..\src/trapez.c ****         #ifdef DEBUGGING_OUTPUT
  84:..\src/trapez.c ****         printf("New spd_max: %lld.\n", spd_max);
  85:..\src/trapez.c ****         #endif
  86:..\src/trapez.c **** 
  87:..\src/trapez.c ****         //Redo the initial math:
  88:..\src/trapez.c ****         //Compute parameters (in global variables)
ARM GAS  C:\Users\Alex\AppData\Local\Temp\ccQGblqY.s 			page 3


  89:..\src/trapez.c ****         trapez_compute_params(pos_i, pos_f, spd_max, a);
  90:..\src/trapez.c **** 
  91:..\src/trapez.c ****         //Absolute values (they probably changed)
  92:..\src/trapez.c ****         abs_d_pos = abs(d_pos);
  93:..\src/trapez.c ****         abs_acc_pos = abs(acc_pos);
  94:..\src/trapez.c ****         dual_abs_acc_pos = 2*abs_acc_pos;
  95:..\src/trapez.c ****     }
  96:..\src/trapez.c **** 
  97:..\src/trapez.c ****     //Plateau - constant speed
  98:..\src/trapez.c ****     #ifdef DEBUGGING_OUTPUT
  99:..\src/trapez.c ****     printf("d_pos = %lld, abs_d_pos = %lld.\n", d_pos, abs_d_pos);
 100:..\src/trapez.c ****     printf("2) acc_pos = %lld, abs_acc_pos = %lld.\n", acc_pos, abs_acc_pos);
 101:..\src/trapez.c ****     #endif
 102:..\src/trapez.c **** 
 103:..\src/trapez.c ****     cte_spd_pos = abs_d_pos - (2*abs_acc_pos);
 104:..\src/trapez.c ****     cte_spd_pos_discrete = (SPD_FACTOR*cte_spd_pos/spd_max)*TRAPEZ_ONE_OVER_DT;
 105:..\src/trapez.c ****     cte_spd_pos_discrete = cte_spd_pos_discrete / SPD_FACTOR;
 106:..\src/trapez.c ****     #ifdef DEBUGGING_OUTPUT
 107:..\src/trapez.c ****     printf("cte_spd_pos = %lld, cte_spd_pos_discrete = %lld.\n", cte_spd_pos, cte_spd_pos_discrete)
 108:..\src/trapez.c ****     #endif
 109:..\src/trapez.c ****     if(cte_spd_pos_discrete < 0)
 110:..\src/trapez.c ****     {
 111:..\src/trapez.c ****         cte_spd_pos_discrete = 0;
 112:..\src/trapez.c ****         #ifdef DEBUGGING_OUTPUT
 113:..\src/trapez.c ****         printf("No steady speed!\n");
 114:..\src/trapez.c ****         #endif
 115:..\src/trapez.c ****     }
 116:..\src/trapez.c **** 
 117:..\src/trapez.c ****     //Transitions:
 118:..\src/trapez.c ****     trapez_transitions[0] = a_t_discrete;
 119:..\src/trapez.c ****     trapez_transitions[1] = a_t_discrete + cte_spd_pos_discrete;
 120:..\src/trapez.c ****     trapez_transitions[2] = 2*a_t_discrete + cte_spd_pos_discrete;
 121:..\src/trapez.c ****     #ifdef DEBUGGING_OUTPUT
 122:..\src/trapez.c ****     printf("tr[0] = %lld, tr[1] = %lld, tr[2] = %lld.\n", trapez_transitions[0], trapez_transitions
 123:..\src/trapez.c ****     #endif
 124:..\src/trapez.c ****     pos_step = 0;   //Variable used to output the current position command
 125:..\src/trapez.c **** 
 126:..\src/trapez.c ****     return (2*a_t_discrete + cte_spd_pos_discrete); //Returns the number of steps
 127:..\src/trapez.c **** }
 128:..\src/trapez.c **** 
 129:..\src/trapez.c **** //Runtime function - gives the next position setpoint
 130:..\src/trapez.c **** long long trapez_get_pos(long long max_steps)
 131:..\src/trapez.c **** {
 132:..\src/trapez.c ****     static long long tmp_spd = 0, last_tmp_spd = 0, tmp_pos = 0;
 133:..\src/trapez.c ****     long long position = 0;
 134:..\src/trapez.c ****     static long long pos_integral = 0;
 135:..\src/trapez.c **** 
 136:..\src/trapez.c ****     //At this point all the parameters are computed, we can get the 3 plots
 137:..\src/trapez.c **** 
 138:..\src/trapez.c ****     //First time:
 139:..\src/trapez.c ****     if(pos_step == 0)
 140:..\src/trapez.c ****     {
 141:..\src/trapez.c ****         tmp_spd = 0;
 142:..\src/trapez.c ****         last_tmp_spd = 0;
 143:..\src/trapez.c ****         tmp_pos = 0;
 144:..\src/trapez.c ****         pos_integral = 0;
 145:..\src/trapez.c ****         #ifdef DEBUGGING_OUTPUT
ARM GAS  C:\Users\Alex\AppData\Local\Temp\ccQGblqY.s 			page 4


 146:..\src/trapez.c ****         printf("pos_step = 0, pos_integral = %lld.\n", pos_integral);
 147:..\src/trapez.c ****         #endif
 148:..\src/trapez.c ****     }
 149:..\src/trapez.c **** 
 150:..\src/trapez.c ****     //Acceleration:
 151:..\src/trapez.c ****     if(pos_step <= trapez_transitions[0])
 152:..\src/trapez.c ****     {
 153:..\src/trapez.c ****         last_tmp_spd = tmp_spd;
 154:..\src/trapez.c ****         tmp_spd = last_tmp_spd + spd_inc;
 155:..\src/trapez.c ****     }
 156:..\src/trapez.c ****     //if(skip_sspeed == 0)    //ToDo useful?
 157:..\src/trapez.c ****     {
 158:..\src/trapez.c ****         //Constant speed
 159:..\src/trapez.c ****         //last_tmp_spd = tmp_spd;
 160:..\src/trapez.c ****         if((pos_step >= trapez_transitions[0]) && (pos_step <= trapez_transitions[1]))
 161:..\src/trapez.c ****         {
 162:..\src/trapez.c ****             tmp_spd = last_tmp_spd;
 163:..\src/trapez.c ****         }
 164:..\src/trapez.c ****     }
 165:..\src/trapez.c ****     //Negative Acceleration:
 166:..\src/trapez.c ****     if((pos_step >= trapez_transitions[1]) && (pos_step <= trapez_transitions[2]))
 167:..\src/trapez.c ****     {
 168:..\src/trapez.c ****         last_tmp_spd = tmp_spd;
 169:..\src/trapez.c ****         tmp_spd = last_tmp_spd - spd_inc;
 170:..\src/trapez.c ****     }
 171:..\src/trapez.c **** 
 172:..\src/trapez.c ****     if(pos_step <= max_steps)
 173:..\src/trapez.c ****     {
 174:..\src/trapez.c ****         //Ready for next one.
 175:..\src/trapez.c ****         pos_step++;
 176:..\src/trapez.c **** 
 177:..\src/trapez.c ****         //Common math:
 178:..\src/trapez.c ****         pos_integral += tmp_spd;
 179:..\src/trapez.c ****         tmp_pos = pos_integral/(TRAPEZ_ONE_OVER_DT * SPD_FACTOR);
 180:..\src/trapez.c ****         position = tmp_pos + init_pos;
 181:..\src/trapez.c ****         #ifdef DEBUGGING_OUTPUT
 182:..\src/trapez.c ****         if(pos_step < 10)
 183:..\src/trapez.c ****         	printf("pos_step = %lld, pos_integral = %lld, position = %lld.\n", pos_step, pos_integral,
 184:..\src/trapez.c ****         #endif
 185:..\src/trapez.c ****     }
 186:..\src/trapez.c ****     else
 187:..\src/trapez.c ****     {
 188:..\src/trapez.c ****         position = tmp_pos + init_pos;
 189:..\src/trapez.c ****     }
 190:..\src/trapez.c **** 
 191:..\src/trapez.c ****     //New setpoint
 192:..\src/trapez.c ****     return position;
 193:..\src/trapez.c **** }
 194:..\src/trapez.c **** 
 195:..\src/trapez.c **** //****************************************************************************
 196:..\src/trapez.c **** // Private Function(s)
 197:..\src/trapez.c **** //****************************************************************************
 198:..\src/trapez.c **** 
 199:..\src/trapez.c **** //Computes all the parameters for a new trapezoidal motion trajectory
 200:..\src/trapez.c **** //Called by trapez_gen_motion_1()
 201:..\src/trapez.c **** static long long trapez_compute_params(long long pos_i, long long pos_f, long long spd_max, long lo
 202:..\src/trapez.c **** {
ARM GAS  C:\Users\Alex\AppData\Local\Temp\ccQGblqY.s 			page 5


  27              		.loc 1 202 0
  28              		.cfi_startproc
  29              		@ args = 16, pretend = 0, frame = 0
  30              		@ frame_needed = 0, uses_anonymous_args = 0
  31              	.LVL0:
  32 0000 2DE9F84F 		push	{r3, r4, r5, r6, r7, r8, r9, r10, fp, lr}
  33              		.cfi_def_cfa_offset 40
  34              		.cfi_offset 3, -40
  35              		.cfi_offset 4, -36
  36              		.cfi_offset 5, -32
  37              		.cfi_offset 6, -28
  38              		.cfi_offset 7, -24
  39              		.cfi_offset 8, -20
  40              		.cfi_offset 9, -16
  41              		.cfi_offset 10, -12
  42              		.cfi_offset 11, -8
  43              		.cfi_offset 14, -4
  44 0004 DDE90A67 		ldrd	r6, [sp, #40]
  45 0008 DDE90C45 		ldrd	r4, [sp, #48]
  46              	.LVL1:
 203:..\src/trapez.c ****     long long tmp = 0, i = 0;
 204:..\src/trapez.c **** 
 205:..\src/trapez.c ****     //Sign
 206:..\src/trapez.c ****     if(pos_f < pos_i)
  47              		.loc 1 206 0
  48 000c 8242     		cmp	r2, r0
  49 000e 73EB010E 		sbcs	lr, r3, r1
  50 0012 08DA     		bge	.L2
 207:..\src/trapez.c ****         sign = -1;
  51              		.loc 1 207 0
  52 0014 4FF0FF38 		mov	r8, #-1
  53 0018 4FF0FF39 		mov	r9, #-1
  54 001c DFF85CE1 		ldr	lr, .L7
  55 0020 CEE90089 		strd	r8, [lr]
  56 0024 07E0     		b	.L3
  57              	.L2:
 208:..\src/trapez.c ****     else
 209:..\src/trapez.c ****         sign = 1;
  58              		.loc 1 209 0
  59 0026 4FF00108 		mov	r8, #1
  60 002a 4FF00009 		mov	r9, #0
  61 002e DFF84CE1 		ldr	lr, .L7
  62 0032 CEE90089 		strd	r8, [lr]
  63              	.L3:
 210:..\src/trapez.c **** 
 211:..\src/trapez.c ****     acc = a;
  64              		.loc 1 211 0
  65 0036 DFF84481 		ldr	r8, .L7
  66 003a C8E90245 		strd	r4, [r8, #8]
 212:..\src/trapez.c ****     init_pos = pos_i;
  67              		.loc 1 212 0
  68 003e C8E90401 		strd	r0, [r8, #16]
 213:..\src/trapez.c ****     d_pos = pos_f - pos_i;                                  //Difference in position
  69              		.loc 1 213 0
  70 0042 101A     		subs	r0, r2, r0
  71              	.LVL2:
  72 0044 63EB0101 		sbc	r1, r3, r1
ARM GAS  C:\Users\Alex\AppData\Local\Temp\ccQGblqY.s 			page 6


  73 0048 C8E90601 		strd	r0, [r8, #24]
 214:..\src/trapez.c ****     d_spd = spd_max ;                                       //Difference in speed
  74              		.loc 1 214 0
  75 004c C8E90867 		strd	r6, [r8, #32]
 215:..\src/trapez.c ****     a_t = (ACC_FACTOR*d_spd) / a;                                        //How long do we accelerat
  76              		.loc 1 215 0
  77 0050 BB00     		lsls	r3, r7, #2
  78 0052 B000     		lsls	r0, r6, #2
  79 0054 43EA9671 		orr	r1, r3, r6, lsr #30
  80 0058 4B01     		lsls	r3, r1, #5
  81 005a 43EAD063 		orr	r3, r3, r0, lsr #27
  82 005e 4201     		lsls	r2, r0, #5
  83              	.LVL3:
  84 0060 101A     		subs	r0, r2, r0
  85 0062 63EB0101 		sbc	r1, r3, r1
  86 0066 8019     		adds	r0, r0, r6
  87 0068 7941     		adcs	r1, r1, r7
  88 006a 8B00     		lsls	r3, r1, #2
  89 006c 43EA9073 		orr	r3, r3, r0, lsr #30
  90 0070 8200     		lsls	r2, r0, #2
  91 0072 8018     		adds	r0, r0, r2
  92 0074 5941     		adcs	r1, r1, r3
  93 0076 0B01     		lsls	r3, r1, #4
  94 0078 43EA1073 		orr	r3, r3, r0, lsr #28
  95 007c 0201     		lsls	r2, r0, #4
  96 007e 1046     		mov	r0, r2
  97 0080 1946     		mov	r1, r3
  98 0082 2246     		mov	r2, r4
  99 0084 2B46     		mov	r3, r5
 100 0086 FFF7FEFF 		bl	__aeabi_ldivmod
 101              	.LVL4:
 102 008a C8E90A01 		strd	r0, [r8, #40]
 216:..\src/trapez.c ****     a_t_discrete = a_t * TRAPEZ_ONE_OVER_DT / ACC_FACTOR;                //   (in ticks)
 103              		.loc 1 216 0
 104 008e 8B00     		lsls	r3, r1, #2
 105 0090 8400     		lsls	r4, r0, #2
 106 0092 43EA9075 		orr	r5, r3, r0, lsr #30
 107 0096 6B01     		lsls	r3, r5, #5
 108 0098 43EAD463 		orr	r3, r3, r4, lsr #27
 109 009c 6201     		lsls	r2, r4, #5
 110 009e 121B     		subs	r2, r2, r4
 111 00a0 63EB0503 		sbc	r3, r3, r5
 112 00a4 8018     		adds	r0, r0, r2
 113 00a6 5941     		adcs	r1, r1, r3
 114 00a8 CB00     		lsls	r3, r1, #3
 115 00aa 43EA5073 		orr	r3, r3, r0, lsr #29
 116 00ae C200     		lsls	r2, r0, #3
 117 00b0 1046     		mov	r0, r2
 118 00b2 1946     		mov	r1, r3
 119 00b4 42F21072 		movw	r2, #10000
 120 00b8 0023     		movs	r3, #0
 121 00ba FFF7FEFF 		bl	__aeabi_ldivmod
 122              	.LVL5:
 123 00be 0446     		mov	r4, r0
 124 00c0 0D46     		mov	r5, r1
 125 00c2 C8E90C45 		strd	r4, [r8, #48]
 217:..\src/trapez.c ****     //a_t_discrete = a_t; //Simplification of *100/100
ARM GAS  C:\Users\Alex\AppData\Local\Temp\ccQGblqY.s 			page 7


 218:..\src/trapez.c ****     spd_inc = (sign*SPD_FACTOR*d_spd) / a_t_discrete;       //Every tick, increase spd by
 126              		.loc 1 218 0
 127 00c6 D8E900AB 		ldrd	r10, [r8]
 128 00ca 4FEA8B03 		lsl	r3, fp, #2
 129 00ce 4FEA8A00 		lsl	r0, r10, #2
 130 00d2 43EA9A71 		orr	r1, r3, r10, lsr #30
 131 00d6 4B01     		lsls	r3, r1, #5
 132 00d8 43EAD063 		orr	r3, r3, r0, lsr #27
 133 00dc 4201     		lsls	r2, r0, #5
 134 00de 101A     		subs	r0, r2, r0
 135 00e0 63EB0101 		sbc	r1, r3, r1
 136 00e4 1AEB000A 		adds	r10, r10, r0
 137 00e8 4BEB010B 		adc	fp, fp, r1
 138 00ec 4FEA8B01 		lsl	r1, fp, #2
 139 00f0 41EA9A71 		orr	r1, r1, r10, lsr #30
 140 00f4 4FEA8A00 		lsl	r0, r10, #2
 141 00f8 10EB0A00 		adds	r0, r0, r10
 142 00fc 41EB0B01 		adc	r1, r1, fp
 143 0100 0B01     		lsls	r3, r1, #4
 144 0102 43EA1073 		orr	r3, r3, r0, lsr #28
 145 0106 0201     		lsls	r2, r0, #4
 146 0108 06FB03F3 		mul	r3, r6, r3
 147 010c 02FB0733 		mla	r3, r2, r7, r3
 148 0110 A6FB0201 		umull	r0, r1, r6, r2
 149 0114 1944     		add	r1, r1, r3
 150 0116 2246     		mov	r2, r4
 151 0118 2B46     		mov	r3, r5
 152 011a FFF7FEFF 		bl	__aeabi_ldivmod
 153              	.LVL6:
 154 011e C8E90E01 		strd	r0, [r8, #56]
 219:..\src/trapez.c ****     #ifdef DEBUGGING_OUTPUT
 220:..\src/trapez.c ****     printf("d_spd = %lld, a_t_discrete = %lld, spd_inc = %lld, d_pos = %lld.\n", d_spd, a_t_discret
 221:..\src/trapez.c ****     #endif
 222:..\src/trapez.c **** 
 223:..\src/trapez.c ****     acc_pos = 0;
 155              		.loc 1 223 0
 156 0122 0022     		movs	r2, #0
 157 0124 C8F84020 		str	r2, [r8, #64]
 158 0128 C8F84420 		str	r2, [r8, #68]
 224:..\src/trapez.c ****     for(i = 0; i < a_t_discrete; i++)
 159              		.loc 1 224 0
 160 012c 1646     		mov	r6, r2
 161 012e 1746     		mov	r7, r2
 203:..\src/trapez.c **** 
 162              		.loc 1 203 0
 163 0130 9046     		mov	r8, r2
 164 0132 9146     		mov	r9, r2
 165              		.loc 1 224 0
 166 0134 10E0     		b	.L4
 167              	.LVL7:
 168              	.L5:
 225:..\src/trapez.c ****     {
 226:..\src/trapez.c ****         tmp += spd_inc; //tmp = i*spd_inc;
 169              		.loc 1 226 0 discriminator 3
 170 0136 18EB0008 		adds	r8, r8, r0
 171              	.LVL8:
 172 013a 49EB0109 		adc	r9, r9, r1
ARM GAS  C:\Users\Alex\AppData\Local\Temp\ccQGblqY.s 			page 8


 173              	.LVL9:
 227:..\src/trapez.c ****         acc_pos = acc_pos + tmp;
 174              		.loc 1 227 0 discriminator 3
 175 013e DFF83CE0 		ldr	lr, .L7
 176 0142 DEE91023 		ldrd	r2, [lr, #64]
 177 0146 12EB0802 		adds	r2, r2, r8
 178 014a 43EB0903 		adc	r3, r3, r9
 179 014e CEE91023 		strd	r2, [lr, #64]
 224:..\src/trapez.c ****     {
 180              		.loc 1 224 0 discriminator 3
 181 0152 0136     		adds	r6, r6, #1
 182              	.LVL10:
 183 0154 47F10007 		adc	r7, r7, #0
 184              	.LVL11:
 185              	.L4:
 224:..\src/trapez.c ****     {
 186              		.loc 1 224 0 is_stmt 0 discriminator 1
 187 0158 A642     		cmp	r6, r4
 188 015a 77EB0503 		sbcs	r3, r7, r5
 189 015e EADB     		blt	.L5
 228:..\src/trapez.c ****     }
 229:..\src/trapez.c ****     acc_pos = acc_pos / (SPD_FACTOR * TRAPEZ_ONE_OVER_DT); //Combine terms
 190              		.loc 1 229 0 is_stmt 1
 191 0160 064C     		ldr	r4, .L7
 192 0162 D4E91001 		ldrd	r0, [r4, #64]
 193 0166 064A     		ldr	r2, .L7+4
 194 0168 0023     		movs	r3, #0
 195 016a FFF7FEFF 		bl	__aeabi_ldivmod
 196              	.LVL12:
 197 016e C4E91001 		strd	r0, [r4, #64]
 230:..\src/trapez.c ****     #ifdef DEBUGGING_OUTPUT
 231:..\src/trapez.c ****     printf("acc_pos = %lld (2x = %lld), %f%% of d_pos.\n", acc_pos, (2*acc_pos), (float)(2*acc_pos*
 232:..\src/trapez.c ****     #endif
 233:..\src/trapez.c **** 
 234:..\src/trapez.c ****     return 0;
 235:..\src/trapez.c **** }
 198              		.loc 1 235 0
 199 0172 0020     		movs	r0, #0
 200 0174 0021     		movs	r1, #0
 201 0176 BDE8F88F 		pop	{r3, r4, r5, r6, r7, r8, r9, r10, fp, pc}
 202              	.LVL13:
 203              	.L8:
 204 017a 00BF     		.align	2
 205              	.L7:
 206 017c 00000000 		.word	.LANCHOR0
 207 0180 80969800 		.word	10000000
 208              		.cfi_endproc
 209              	.LFE2:
 210              		.size	trapez_compute_params, .-trapez_compute_params
 211              		.global	__aeabi_l2d
 212              		.global	__aeabi_d2lz
 213              		.section	.text.trapez_gen_motion_1,"ax",%progbits
 214              		.align	2
 215              		.global	trapez_gen_motion_1
 216              		.thumb
 217              		.thumb_func
 218              		.type	trapez_gen_motion_1, %function
ARM GAS  C:\Users\Alex\AppData\Local\Temp\ccQGblqY.s 			page 9


 219              	trapez_gen_motion_1:
 220              	.LFB0:
  53:..\src/trapez.c **** 	long long abs_d_pos = 0, abs_acc_pos = 0, dual_abs_acc_pos = 0;
 221              		.loc 1 53 0
 222              		.cfi_startproc
 223              		@ args = 16, pretend = 0, frame = 8
 224              		@ frame_needed = 0, uses_anonymous_args = 0
 225              	.LVL14:
 226 0000 2DE9F04F 		push	{r4, r5, r6, r7, r8, r9, r10, fp, lr}
 227              		.cfi_def_cfa_offset 36
 228              		.cfi_offset 4, -36
 229              		.cfi_offset 5, -32
 230              		.cfi_offset 6, -28
 231              		.cfi_offset 7, -24
 232              		.cfi_offset 8, -20
 233              		.cfi_offset 9, -16
 234              		.cfi_offset 10, -12
 235              		.cfi_offset 11, -8
 236              		.cfi_offset 14, -4
 237 0004 87B0     		sub	sp, sp, #28
 238              		.cfi_def_cfa_offset 64
 239 0006 8246     		mov	r10, r0
 240 0008 8B46     		mov	fp, r1
 241 000a CDE90423 		strd	r2, [sp, #16]
 242 000e DDE91023 		ldrd	r2, [sp, #64]
 243              	.LVL15:
 244 0012 DDE91267 		ldrd	r6, [sp, #72]
 245              	.LVL16:
  57:..\src/trapez.c ****     a = llabs(a);
 246              		.loc 1 57 0
 247 0016 1046     		mov	r0, r2
 248              	.LVL17:
 249 0018 1946     		mov	r1, r3
 250 001a 002A     		cmp	r2, #0
 251 001c 73F10004 		sbcs	r4, r3, #0
 252 0020 02DA     		bge	.L10
 253 0022 5042     		rsbs	r0, r2, #0
 254 0024 63EB4301 		sbc	r1, r3, r3, lsl #1
 255              	.L10:
 256 0028 0546     		mov	r5, r0
 257 002a 0C46     		mov	r4, r1
 258              	.LVL18:
  58:..\src/trapez.c **** 
 259              		.loc 1 58 0
 260 002c 3246     		mov	r2, r6
 261 002e 3B46     		mov	r3, r7
 262 0030 002E     		cmp	r6, #0
 263 0032 77F10001 		sbcs	r1, r7, #0
 264 0036 02DA     		bge	.L11
 265 0038 7242     		rsbs	r2, r6, #0
 266 003a 67EB4703 		sbc	r3, r7, r7, lsl #1
 267              	.L11:
 268 003e 1646     		mov	r6, r2
 269 0040 1F46     		mov	r7, r3
 270              	.LVL19:
  61:..\src/trapez.c **** 
 271              		.loc 1 61 0
ARM GAS  C:\Users\Alex\AppData\Local\Temp\ccQGblqY.s 			page 10


 272 0042 0095     		str	r5, [sp]
 273 0044 0194     		str	r4, [sp, #4]
 274 0046 0292     		str	r2, [sp, #8]
 275 0048 0393     		str	r3, [sp, #12]
 276 004a 5046     		mov	r0, r10
 277              	.LVL20:
 278 004c 5946     		mov	r1, fp
 279 004e DDE90423 		ldrd	r2, [sp, #16]
 280              	.LVL21:
 281 0052 FFF7FEFF 		bl	trapez_compute_params
 282              	.LVL22:
  64:..\src/trapez.c ****     abs_acc_pos = llabs(acc_pos);
 283              		.loc 1 64 0
 284 0056 574B     		ldr	r3, .L17
 285 0058 D3E90601 		ldrd	r0, [r3, #24]
 286 005c 0028     		cmp	r0, #0
 287 005e 71F10003 		sbcs	r3, r1, #0
 288 0062 02DA     		bge	.L12
 289 0064 4042     		rsbs	r0, r0, #0
 290 0066 61EB4101 		sbc	r1, r1, r1, lsl #1
 291              	.L12:
 292              	.LVL23:
  65:..\src/trapez.c ****     dual_abs_acc_pos = 2*abs_acc_pos;
 293              		.loc 1 65 0
 294 006a 524B     		ldr	r3, .L17
 295 006c D3E91023 		ldrd	r2, [r3, #64]
 296 0070 002A     		cmp	r2, #0
 297 0072 73F1000E 		sbcs	lr, r3, #0
 298 0076 02DA     		bge	.L13
 299 0078 5242     		rsbs	r2, r2, #0
 300 007a 63EB4303 		sbc	r3, r3, r3, lsl #1
 301              	.L13:
 302 007e 9046     		mov	r8, r2
 303 0080 9946     		mov	r9, r3
 304              	.LVL24:
  66:..\src/trapez.c **** 
 305              		.loc 1 66 0
 306 0082 9218     		adds	r2, r2, r2
 307              	.LVL25:
 308 0084 5B41     		adcs	r3, r3, r3
 309              	.LVL26:
  75:..\src/trapez.c ****     {
 310              		.loc 1 75 0
 311 0086 9042     		cmp	r0, r2
 312 0088 71EB0303 		sbcs	r3, r1, r3
 313 008c 27DA     		bge	.L14
  82:..\src/trapez.c ****         #ifdef DEBUGGING_OUTPUT
 314              		.loc 1 82 0
 315 008e 06FB01F3 		mul	r3, r6, r1
 316 0092 07FB0033 		mla	r3, r7, r0, r3
 317 0096 A6FB0045 		umull	r4, r5, r6, r0
 318 009a 1D44     		add	r5, r5, r3
 319 009c 2046     		mov	r0, r4
 320              	.LVL27:
 321 009e 2946     		mov	r1, r5
 322 00a0 FFF7FEFF 		bl	__aeabi_l2d
 323              	.LVL28:
ARM GAS  C:\Users\Alex\AppData\Local\Temp\ccQGblqY.s 			page 11


 324 00a4 FFF7FEFF 		bl	sqrt
 325              	.LVL29:
 326 00a8 FFF7FEFF 		bl	__aeabi_d2lz
 327              	.LVL30:
 328 00ac 0546     		mov	r5, r0
 329 00ae 0C46     		mov	r4, r1
 330              	.LVL31:
  89:..\src/trapez.c **** 
 331              		.loc 1 89 0
 332 00b0 0090     		str	r0, [sp]
 333 00b2 0191     		str	r1, [sp, #4]
 334 00b4 0296     		str	r6, [sp, #8]
 335 00b6 0397     		str	r7, [sp, #12]
 336 00b8 5046     		mov	r0, r10
 337              	.LVL32:
 338 00ba 5946     		mov	r1, fp
 339              	.LVL33:
 340 00bc DDE90423 		ldrd	r2, [sp, #16]
 341 00c0 FFF7FEFF 		bl	trapez_compute_params
 342              	.LVL34:
  92:..\src/trapez.c ****         abs_acc_pos = abs(acc_pos);
 343              		.loc 1 92 0
 344 00c4 3B4B     		ldr	r3, .L17
 345 00c6 9869     		ldr	r0, [r3, #24]
 346 00c8 0028     		cmp	r0, #0
 347 00ca B8BF     		it	lt
 348 00cc 4042     		rsblt	r0, r0, #0
 349 00ce C117     		asrs	r1, r0, #31
 350              	.LVL35:
  93:..\src/trapez.c ****         dual_abs_acc_pos = 2*abs_acc_pos;
 351              		.loc 1 93 0
 352 00d0 1B6C     		ldr	r3, [r3, #64]
 353 00d2 83EAE378 		eor	r8, r3, r3, asr #31
 354 00d6 A8EBE378 		sub	r8, r8, r3, asr #31
 355 00da 4FEAE879 		asr	r9, r8, #31
 356              	.LVL36:
 357              	.L14:
 103:..\src/trapez.c ****     cte_spd_pos_discrete = (SPD_FACTOR*cte_spd_pos/spd_max)*TRAPEZ_ONE_OVER_DT;
 358              		.loc 1 103 0
 359 00de B0EB0800 		subs	r0, r0, r8
 360              	.LVL37:
 361 00e2 61EB0901 		sbc	r1, r1, r9
 362 00e6 B0EB0808 		subs	r8, r0, r8
 363              	.LVL38:
 364 00ea 61EB0909 		sbc	r9, r1, r9
 365 00ee 314E     		ldr	r6, .L17
 366              	.LVL39:
 367 00f0 C6E91289 		strd	r8, [r6, #72]
 104:..\src/trapez.c ****     cte_spd_pos_discrete = cte_spd_pos_discrete / SPD_FACTOR;
 368              		.loc 1 104 0
 369 00f4 4FEA8903 		lsl	r3, r9, #2
 370 00f8 4FEA8800 		lsl	r0, r8, #2
 371 00fc 43EA9871 		orr	r1, r3, r8, lsr #30
 372 0100 4B01     		lsls	r3, r1, #5
 373 0102 43EAD063 		orr	r3, r3, r0, lsr #27
 374 0106 4201     		lsls	r2, r0, #5
 375 0108 101A     		subs	r0, r2, r0
ARM GAS  C:\Users\Alex\AppData\Local\Temp\ccQGblqY.s 			page 12


 376 010a 63EB0101 		sbc	r1, r3, r1
 377 010e 18EB0008 		adds	r8, r8, r0
 378 0112 49EB0109 		adc	r9, r9, r1
 379 0116 4FEA8903 		lsl	r3, r9, #2
 380 011a 43EA9873 		orr	r3, r3, r8, lsr #30
 381 011e 4FEA8802 		lsl	r2, r8, #2
 382 0122 18EB0200 		adds	r0, r8, r2
 383 0126 49EB0301 		adc	r1, r9, r3
 384 012a 0B01     		lsls	r3, r1, #4
 385 012c 43EA1073 		orr	r3, r3, r0, lsr #28
 386 0130 0201     		lsls	r2, r0, #4
 387 0132 1046     		mov	r0, r2
 388 0134 1946     		mov	r1, r3
 389 0136 2A46     		mov	r2, r5
 390 0138 2346     		mov	r3, r4
 391 013a FFF7FEFF 		bl	__aeabi_ldivmod
 392              	.LVL40:
 393 013e 8B00     		lsls	r3, r1, #2
 394 0140 8400     		lsls	r4, r0, #2
 395              	.LVL41:
 396 0142 43EA9075 		orr	r5, r3, r0, lsr #30
 397 0146 6B01     		lsls	r3, r5, #5
 398 0148 43EAD463 		orr	r3, r3, r4, lsr #27
 399 014c 6201     		lsls	r2, r4, #5
 400 014e 121B     		subs	r2, r2, r4
 401 0150 63EB0503 		sbc	r3, r3, r5
 402 0154 8018     		adds	r0, r0, r2
 403 0156 5941     		adcs	r1, r1, r3
 404 0158 CB00     		lsls	r3, r1, #3
 405 015a 43EA5073 		orr	r3, r3, r0, lsr #29
 406 015e C200     		lsls	r2, r0, #3
 407 0160 1046     		mov	r0, r2
 408 0162 1946     		mov	r1, r3
 105:..\src/trapez.c ****     #ifdef DEBUGGING_OUTPUT
 409              		.loc 1 105 0
 410 0164 42F21072 		movw	r2, #10000
 411 0168 0023     		movs	r3, #0
 412 016a FFF7FEFF 		bl	__aeabi_ldivmod
 413              	.LVL42:
 414 016e C6E91401 		strd	r0, [r6, #80]
 109:..\src/trapez.c ****     {
 415              		.loc 1 109 0
 416 0172 0028     		cmp	r0, #0
 417 0174 71F10003 		sbcs	r3, r1, #0
 418 0178 03DA     		bge	.L15
 111:..\src/trapez.c ****         #ifdef DEBUGGING_OUTPUT
 419              		.loc 1 111 0
 420 017a 0020     		movs	r0, #0
 421 017c 0021     		movs	r1, #0
 422 017e C6E91401 		strd	r0, [r6, #80]
 423              	.L15:
 118:..\src/trapez.c ****     trapez_transitions[1] = a_t_discrete + cte_spd_pos_discrete;
 424              		.loc 1 118 0
 425 0182 0C4C     		ldr	r4, .L17
 426 0184 D4E90C23 		ldrd	r2, [r4, #48]
 427 0188 C4E91623 		strd	r2, [r4, #88]
 119:..\src/trapez.c ****     trapez_transitions[2] = 2*a_t_discrete + cte_spd_pos_discrete;
ARM GAS  C:\Users\Alex\AppData\Local\Temp\ccQGblqY.s 			page 13


 428              		.loc 1 119 0
 429 018c D4E91401 		ldrd	r0, [r4, #80]
 430 0190 1618     		adds	r6, r2, r0
 431 0192 43EB0107 		adc	r7, r3, r1
 432 0196 C4E91867 		strd	r6, [r4, #96]
 120:..\src/trapez.c ****     #ifdef DEBUGGING_OUTPUT
 433              		.loc 1 120 0
 434 019a 9218     		adds	r2, r2, r2
 435 019c 5B41     		adcs	r3, r3, r3
 436 019e 8018     		adds	r0, r0, r2
 437 01a0 5941     		adcs	r1, r1, r3
 438 01a2 C4E91A01 		strd	r0, [r4, #104]
 124:..\src/trapez.c **** 
 439              		.loc 1 124 0
 440 01a6 0022     		movs	r2, #0
 441 01a8 0023     		movs	r3, #0
 442 01aa C4E91C23 		strd	r2, [r4, #112]
 127:..\src/trapez.c **** 
 443              		.loc 1 127 0
 444 01ae 07B0     		add	sp, sp, #28
 445              		.cfi_def_cfa_offset 36
 446              		@ sp needed
 447 01b0 BDE8F08F 		pop	{r4, r5, r6, r7, r8, r9, r10, fp, pc}
 448              	.LVL43:
 449              	.L18:
 450              		.align	2
 451              	.L17:
 452 01b4 00000000 		.word	.LANCHOR0
 453              		.cfi_endproc
 454              	.LFE0:
 455              		.size	trapez_gen_motion_1, .-trapez_gen_motion_1
 456              		.section	.text.trapez_get_pos,"ax",%progbits
 457              		.align	2
 458              		.global	trapez_get_pos
 459              		.thumb
 460              		.thumb_func
 461              		.type	trapez_get_pos, %function
 462              	trapez_get_pos:
 463              	.LFB1:
 131:..\src/trapez.c ****     static long long tmp_spd = 0, last_tmp_spd = 0, tmp_pos = 0;
 464              		.loc 1 131 0
 465              		.cfi_startproc
 466              		@ args = 0, pretend = 0, frame = 0
 467              		@ frame_needed = 0, uses_anonymous_args = 0
 468              	.LVL44:
 469 0000 2DE9F843 		push	{r3, r4, r5, r6, r7, r8, r9, lr}
 470              		.cfi_def_cfa_offset 32
 471              		.cfi_offset 3, -32
 472              		.cfi_offset 4, -28
 473              		.cfi_offset 5, -24
 474              		.cfi_offset 6, -20
 475              		.cfi_offset 7, -16
 476              		.cfi_offset 8, -12
 477              		.cfi_offset 9, -8
 478              		.cfi_offset 14, -4
 479              	.LVL45:
 139:..\src/trapez.c ****     {
ARM GAS  C:\Users\Alex\AppData\Local\Temp\ccQGblqY.s 			page 14


 480              		.loc 1 139 0
 481 0004 3F4B     		ldr	r3, .L27
 482 0006 D3E91C23 		ldrd	r2, [r3, #112]
 483 000a 52EA0304 		orrs	r4, r2, r3
 484 000e 0AD1     		bne	.L20
 141:..\src/trapez.c ****         last_tmp_spd = 0;
 485              		.loc 1 141 0
 486 0010 3C4C     		ldr	r4, .L27
 487 0012 0026     		movs	r6, #0
 488 0014 0027     		movs	r7, #0
 489 0016 C4E91E67 		strd	r6, [r4, #120]
 142:..\src/trapez.c ****         tmp_pos = 0;
 490              		.loc 1 142 0
 491 001a C4E92067 		strd	r6, [r4, #128]
 143:..\src/trapez.c ****         pos_integral = 0;
 492              		.loc 1 143 0
 493 001e C4E92267 		strd	r6, [r4, #136]
 144:..\src/trapez.c ****         #ifdef DEBUGGING_OUTPUT
 494              		.loc 1 144 0
 495 0022 C4E92467 		strd	r6, [r4, #144]
 496              	.L20:
 151:..\src/trapez.c ****     {
 497              		.loc 1 151 0
 498 0026 374C     		ldr	r4, .L27
 499 0028 04F15805 		add	r5, r4, #88
 500 002c D5E90045 		ldrd	r4, [r5]
 501 0030 9442     		cmp	r4, r2
 502 0032 75EB0306 		sbcs	r6, r5, r3
 503 0036 0DDB     		blt	.L21
 153:..\src/trapez.c ****         tmp_spd = last_tmp_spd + spd_inc;
 504              		.loc 1 153 0
 505 0038 DFF8C8E0 		ldr	lr, .L27
 506 003c DEE91E89 		ldrd	r8, [lr, #120]
 507 0040 CEE92089 		strd	r8, [lr, #128]
 154:..\src/trapez.c ****     }
 508              		.loc 1 154 0
 509 0044 DEE90E67 		ldrd	r6, [lr, #56]
 510 0048 16EB0806 		adds	r6, r6, r8
 511 004c 47EB0907 		adc	r7, r7, r9
 512 0050 CEE91E67 		strd	r6, [lr, #120]
 513              	.L21:
 160:..\src/trapez.c ****         {
 514              		.loc 1 160 0
 515 0054 A242     		cmp	r2, r4
 516 0056 73EB0504 		sbcs	r4, r3, r5
 517 005a 0DDB     		blt	.L22
 160:..\src/trapez.c ****         {
 518              		.loc 1 160 0 is_stmt 0 discriminator 1
 519 005c 294C     		ldr	r4, .L27
 520 005e 04F16005 		add	r5, r4, #96
 521 0062 D5E90045 		ldrd	r4, [r5]
 522 0066 9442     		cmp	r4, r2
 523 0068 75EB0304 		sbcs	r4, r5, r3
 524 006c 04DB     		blt	.L22
 162:..\src/trapez.c ****         }
 525              		.loc 1 162 0 is_stmt 1
 526 006e 254E     		ldr	r6, .L27
ARM GAS  C:\Users\Alex\AppData\Local\Temp\ccQGblqY.s 			page 15


 527 0070 D6E92045 		ldrd	r4, [r6, #128]
 528 0074 C6E91E45 		strd	r4, [r6, #120]
 529              	.L22:
 166:..\src/trapez.c ****     {
 530              		.loc 1 166 0
 531 0078 224C     		ldr	r4, .L27
 532 007a 04F16005 		add	r5, r4, #96
 533 007e D5E90045 		ldrd	r4, [r5]
 534 0082 A242     		cmp	r2, r4
 535 0084 73EB0504 		sbcs	r4, r3, r5
 536 0088 15DB     		blt	.L23
 166:..\src/trapez.c ****     {
 537              		.loc 1 166 0 is_stmt 0 discriminator 1
 538 008a 1E4C     		ldr	r4, .L27
 539 008c 04F16805 		add	r5, r4, #104
 540 0090 D5E90045 		ldrd	r4, [r5]
 541 0094 9442     		cmp	r4, r2
 542 0096 75EB0304 		sbcs	r4, r5, r3
 543 009a 0CDB     		blt	.L23
 168:..\src/trapez.c ****         tmp_spd = last_tmp_spd - spd_inc;
 544              		.loc 1 168 0 is_stmt 1
 545 009c 194E     		ldr	r6, .L27
 546 009e D6E91E89 		ldrd	r8, [r6, #120]
 547 00a2 C6E92089 		strd	r8, [r6, #128]
 169:..\src/trapez.c ****     }
 548              		.loc 1 169 0
 549 00a6 D6E90E45 		ldrd	r4, [r6, #56]
 550 00aa B8EB0404 		subs	r4, r8, r4
 551 00ae 69EB0505 		sbc	r5, r9, r5
 552 00b2 C6E91E45 		strd	r4, [r6, #120]
 553              	.L23:
 172:..\src/trapez.c ****     {
 554              		.loc 1 172 0
 555 00b6 9042     		cmp	r0, r2
 556 00b8 9941     		sbcs	r1, r1, r3
 557 00ba 19DB     		blt	.L24
 175:..\src/trapez.c **** 
 558              		.loc 1 175 0
 559 00bc 114C     		ldr	r4, .L27
 560 00be 0132     		adds	r2, r2, #1
 561 00c0 43F10003 		adc	r3, r3, #0
 562 00c4 C4E91C23 		strd	r2, [r4, #112]
 178:..\src/trapez.c ****         tmp_pos = pos_integral/(TRAPEZ_ONE_OVER_DT * SPD_FACTOR);
 563              		.loc 1 178 0
 564 00c8 D4E92401 		ldrd	r0, [r4, #144]
 565              	.LVL46:
 566 00cc D4E91E23 		ldrd	r2, [r4, #120]
 567 00d0 8018     		adds	r0, r0, r2
 568 00d2 5941     		adcs	r1, r1, r3
 569 00d4 C4E92401 		strd	r0, [r4, #144]
 179:..\src/trapez.c ****         position = tmp_pos + init_pos;
 570              		.loc 1 179 0
 571 00d8 0B4A     		ldr	r2, .L27+4
 572 00da 0023     		movs	r3, #0
 573 00dc FFF7FEFF 		bl	__aeabi_ldivmod
 574              	.LVL47:
 575 00e0 C4E92201 		strd	r0, [r4, #136]
ARM GAS  C:\Users\Alex\AppData\Local\Temp\ccQGblqY.s 			page 16


 180:..\src/trapez.c ****         #ifdef DEBUGGING_OUTPUT
 576              		.loc 1 180 0
 577 00e4 D4E90423 		ldrd	r2, [r4, #16]
 578 00e8 8018     		adds	r0, r0, r2
 579 00ea 5941     		adcs	r1, r1, r3
 580              	.LVL48:
 581 00ec BDE8F883 		pop	{r3, r4, r5, r6, r7, r8, r9, pc}
 582              	.LVL49:
 583              	.L24:
 188:..\src/trapez.c ****     }
 584              		.loc 1 188 0
 585 00f0 044B     		ldr	r3, .L27
 586 00f2 D3E92201 		ldrd	r0, [r3, #136]
 587              	.LVL50:
 588 00f6 D3E90423 		ldrd	r2, [r3, #16]
 589 00fa 8018     		adds	r0, r0, r2
 590 00fc 5941     		adcs	r1, r1, r3
 591              	.LVL51:
 193:..\src/trapez.c **** 
 592              		.loc 1 193 0
 593 00fe BDE8F883 		pop	{r3, r4, r5, r6, r7, r8, r9, pc}
 594              	.L28:
 595 0102 00BF     		.align	2
 596              	.L27:
 597 0104 00000000 		.word	.LANCHOR0
 598 0108 80969800 		.word	10000000
 599              		.cfi_endproc
 600              	.LFE1:
 601              		.size	trapez_get_pos, .-trapez_get_pos
 602              		.global	sign
 603              		.global	trapez_transitions
 604              		.global	pos_step
 605              		.global	skip_sspeed
 606              		.global	cte_spd_pos_discrete
 607              		.global	cte_spd_pos
 608              		.global	init_pos
 609              		.global	acc
 610              		.global	acc_pos
 611              		.global	spd_inc
 612              		.global	a_t_discrete
 613              		.global	a_t
 614              		.global	d_spd
 615              		.global	d_pos
 616              		.bss
 617              		.align	3
 618              		.set	.LANCHOR0,. + 0
 619              		.type	sign, %object
 620              		.size	sign, 8
 621              	sign:
 622 0000 00000000 		.space	8
 622      00000000 
 623              		.type	acc, %object
 624              		.size	acc, 8
 625              	acc:
 626 0008 00000000 		.space	8
 626      00000000 
 627              		.type	init_pos, %object
ARM GAS  C:\Users\Alex\AppData\Local\Temp\ccQGblqY.s 			page 17


 628              		.size	init_pos, 8
 629              	init_pos:
 630 0010 00000000 		.space	8
 630      00000000 
 631              		.type	d_pos, %object
 632              		.size	d_pos, 8
 633              	d_pos:
 634 0018 00000000 		.space	8
 634      00000000 
 635              		.type	d_spd, %object
 636              		.size	d_spd, 8
 637              	d_spd:
 638 0020 00000000 		.space	8
 638      00000000 
 639              		.type	a_t, %object
 640              		.size	a_t, 8
 641              	a_t:
 642 0028 00000000 		.space	8
 642      00000000 
 643              		.type	a_t_discrete, %object
 644              		.size	a_t_discrete, 8
 645              	a_t_discrete:
 646 0030 00000000 		.space	8
 646      00000000 
 647              		.type	spd_inc, %object
 648              		.size	spd_inc, 8
 649              	spd_inc:
 650 0038 00000000 		.space	8
 650      00000000 
 651              		.type	acc_pos, %object
 652              		.size	acc_pos, 8
 653              	acc_pos:
 654 0040 00000000 		.space	8
 654      00000000 
 655              		.type	cte_spd_pos, %object
 656              		.size	cte_spd_pos, 8
 657              	cte_spd_pos:
 658 0048 00000000 		.space	8
 658      00000000 
 659              		.type	cte_spd_pos_discrete, %object
 660              		.size	cte_spd_pos_discrete, 8
 661              	cte_spd_pos_discrete:
 662 0050 00000000 		.space	8
 662      00000000 
 663              		.type	trapez_transitions, %object
 664              		.size	trapez_transitions, 24
 665              	trapez_transitions:
 666 0058 00000000 		.space	24
 666      00000000 
 666      00000000 
 666      00000000 
 666      00000000 
 667              		.type	pos_step, %object
 668              		.size	pos_step, 8
 669              	pos_step:
 670 0070 00000000 		.space	8
 670      00000000 
ARM GAS  C:\Users\Alex\AppData\Local\Temp\ccQGblqY.s 			page 18


 671              		.type	tmp_spd.6038, %object
 672              		.size	tmp_spd.6038, 8
 673              	tmp_spd.6038:
 674 0078 00000000 		.space	8
 674      00000000 
 675              		.type	last_tmp_spd.6039, %object
 676              		.size	last_tmp_spd.6039, 8
 677              	last_tmp_spd.6039:
 678 0080 00000000 		.space	8
 678      00000000 
 679              		.type	tmp_pos.6040, %object
 680              		.size	tmp_pos.6040, 8
 681              	tmp_pos.6040:
 682 0088 00000000 		.space	8
 682      00000000 
 683              		.type	pos_integral.6042, %object
 684              		.size	pos_integral.6042, 8
 685              	pos_integral.6042:
 686 0090 00000000 		.space	8
 686      00000000 
 687              		.type	skip_sspeed, %object
 688              		.size	skip_sspeed, 8
 689              	skip_sspeed:
 690 0098 00000000 		.space	8
 690      00000000 
 691              		.text
 692              	.Letext0:
 693              		.file 2 "c:\\program files (x86)\\cypress\\psoc creator\\3.3\\psoc creator\\import\\gnu\\arm\\4.9.