ARM GAS  C:\Users\Alex\AppData\Local\Temp\ccPhm6za.s 			page 1


   1              		.syntax unified
   2              		.cpu cortex-m3
   3              		.fpu softvfp
   4              		.eabi_attribute 20, 1
   5              		.eabi_attribute 21, 1
   6              		.eabi_attribute 23, 3
   7              		.eabi_attribute 24, 1
   8              		.eabi_attribute 25, 1
   9              		.eabi_attribute 26, 1
  10              		.eabi_attribute 30, 1
  11              		.eabi_attribute 34, 1
  12              		.eabi_attribute 18, 4
  13              		.thumb
  14              		.file	"usb.c"
  15              		.text
  16              	.Ltext0:
  17              		.cfi_sections	.debug_frame
  18              		.global _printf_float
  19              		.thumb
  20              		.section	.text.init_usb,"ax",%progbits
  21              		.align	2
  22              		.global	init_usb
  23              		.thumb
  24              		.thumb_func
  25              		.type	init_usb, %function
  26              	init_usb:
  27              	.LFB63:
  28              		.file 1 "..\\src\\usb.c"
   1:..\src/usb.c  **** //****************************************************************************
   2:..\src/usb.c  **** // MIT Media Lab - Biomechatronics
   3:..\src/usb.c  **** // Jean-Francois (Jeff) Duval
   4:..\src/usb.c  **** // jfduval@mit.edu
   5:..\src/usb.c  **** // 02/2015
   6:..\src/usb.c  **** //****************************************************************************
   7:..\src/usb.c  **** // usb: USB CDC
   8:..\src/usb.c  **** //****************************************************************************
   9:..\src/usb.c  **** 
  10:..\src/usb.c  **** //****************************************************************************
  11:..\src/usb.c  **** // Include(s)
  12:..\src/usb.c  **** //****************************************************************************
  13:..\src/usb.c  **** 
  14:..\src/usb.c  **** #include "main.h"
  15:..\src/usb.c  **** #include "usb.h"
  16:..\src/usb.c  **** 
  17:..\src/usb.c  **** //****************************************************************************
  18:..\src/usb.c  **** // Variable(s)
  19:..\src/usb.c  **** //****************************************************************************
  20:..\src/usb.c  **** 
  21:..\src/usb.c  **** uint8 buffer[RX_BUF_LEN];
  22:..\src/usb.c  **** 
  23:..\src/usb.c  **** //****************************************************************************
  24:..\src/usb.c  **** // Function(s)
  25:..\src/usb.c  **** //****************************************************************************
  26:..\src/usb.c  **** 
  27:..\src/usb.c  **** //Initialize the USB peripheral
  28:..\src/usb.c  **** //Returns 0 is success, 1 if timeout (happens when the cable is unplugged)
  29:..\src/usb.c  **** uint8 init_usb(void)
ARM GAS  C:\Users\Alex\AppData\Local\Temp\ccPhm6za.s 			page 2


  30:..\src/usb.c  **** {
  29              		.loc 1 30 0
  30              		.cfi_startproc
  31              		@ args = 0, pretend = 0, frame = 0
  32              		@ frame_needed = 0, uses_anonymous_args = 0
  33 0000 10B5     		push	{r4, lr}
  34              		.cfi_def_cfa_offset 8
  35              		.cfi_offset 4, -8
  36              		.cfi_offset 14, -4
  37              	.LVL0:
  31:..\src/usb.c  **** 	uint16 cnt = 0, flag = 0;
  32:..\src/usb.c  **** 	
  33:..\src/usb.c  **** 	//Start USBFS Operation with 5V operation
  34:..\src/usb.c  ****     USBUART_1_Start(0u, USBUART_1_5V_OPERATION);
  38              		.loc 1 34 0
  39 0002 0020     		movs	r0, #0
  40 0004 0121     		movs	r1, #1
  41 0006 FFF7FEFF 		bl	USBUART_1_Start
  42              	.LVL1:
  35:..\src/usb.c  **** 	
  36:..\src/usb.c  **** 	//Wait for Device to enumerate
  37:..\src/usb.c  **** 	for(cnt = 0; cnt < USB_ENUM_TIMEOUT; cnt++)
  43              		.loc 1 37 0
  44 000a 0024     		movs	r4, #0
  45 000c 07E0     		b	.L2
  46              	.LVL2:
  47              	.L4:
  38:..\src/usb.c  **** 	{
  39:..\src/usb.c  **** 		if(USBUART_1_GetConfiguration())
  48              		.loc 1 39 0
  49 000e FFF7FEFF 		bl	USBUART_1_GetConfiguration
  50              	.LVL3:
  51 0012 50B9     		cbnz	r0, .L6
  40:..\src/usb.c  **** 		{
  41:..\src/usb.c  **** 			flag = 1;
  42:..\src/usb.c  **** 			break;
  43:..\src/usb.c  **** 		}
  44:..\src/usb.c  **** 		CyDelay(1);
  52              		.loc 1 44 0 discriminator 2
  53 0014 0120     		movs	r0, #1
  54 0016 FFF7FEFF 		bl	CyDelay
  55              	.LVL4:
  37:..\src/usb.c  **** 	{
  56              		.loc 1 37 0 discriminator 2
  57 001a 0134     		adds	r4, r4, #1
  58              	.LVL5:
  59 001c A4B2     		uxth	r4, r4
  60              	.LVL6:
  61              	.L2:
  37:..\src/usb.c  **** 	{
  62              		.loc 1 37 0 is_stmt 0 discriminator 1
  63 001e 40F6C313 		movw	r3, #2499
  64 0022 9C42     		cmp	r4, r3
  65 0024 F3D9     		bls	.L4
  31:..\src/usb.c  **** 	
  66              		.loc 1 31 0 is_stmt 1
  67 0026 0023     		movs	r3, #0
ARM GAS  C:\Users\Alex\AppData\Local\Temp\ccPhm6za.s 			page 3


  68 0028 00E0     		b	.L3
  69              	.L6:
  41:..\src/usb.c  **** 			break;
  70              		.loc 1 41 0
  71 002a 0123     		movs	r3, #1
  72              	.L3:
  73              	.LVL7:
  45:..\src/usb.c  **** 	}
  46:..\src/usb.c  **** 
  47:..\src/usb.c  **** 	if(flag)	
  74              		.loc 1 47 0
  75 002c 1BB1     		cbz	r3, .L7
  48:..\src/usb.c  **** 	{
  49:..\src/usb.c  **** 	    //Enumeration is done, enable OUT endpoint for receive data from Host
  50:..\src/usb.c  **** 	    USBUART_1_CDC_Init();	
  76              		.loc 1 50 0
  77 002e FFF7FEFF 		bl	USBUART_1_CDC_Init
  78              	.LVL8:
  51:..\src/usb.c  **** 		return 1;		//Success
  79              		.loc 1 51 0
  80 0032 0120     		movs	r0, #1
  81 0034 10BD     		pop	{r4, pc}
  82              	.LVL9:
  83              	.L7:
  52:..\src/usb.c  **** 	}
  53:..\src/usb.c  **** 	
  54:..\src/usb.c  **** 	return 0;	//Timeout	
  84              		.loc 1 54 0
  85 0036 0020     		movs	r0, #0
  55:..\src/usb.c  **** }
  86              		.loc 1 55 0
  87 0038 10BD     		pop	{r4, pc}
  88              		.cfi_endproc
  89              	.LFE63:
  90              		.size	init_usb, .-init_usb
  91 003a 00BF     		.section	.text.get_usb_data,"ax",%progbits
  92              		.align	2
  93              		.global	get_usb_data
  94              		.thumb
  95              		.thumb_func
  96              		.type	get_usb_data, %function
  97              	get_usb_data:
  98              	.LFB64:
  56:..\src/usb.c  **** 
  57:..\src/usb.c  **** void get_usb_data(void)
  58:..\src/usb.c  **** {
  99              		.loc 1 58 0
 100              		.cfi_startproc
 101              		@ args = 0, pretend = 0, frame = 0
 102              		@ frame_needed = 0, uses_anonymous_args = 0
 103 0000 08B5     		push	{r3, lr}
 104              		.cfi_def_cfa_offset 8
 105              		.cfi_offset 3, -8
 106              		.cfi_offset 14, -4
  59:..\src/usb.c  **** 	static 	int16 count = 0;
  60:..\src/usb.c  **** 	
  61:..\src/usb.c  **** 	//USB Data
ARM GAS  C:\Users\Alex\AppData\Local\Temp\ccPhm6za.s 			page 4


  62:..\src/usb.c  **** 	if(USBUART_1_DataIsReady() != 0u)               	//Check for input data from PC
 107              		.loc 1 62 0
 108 0002 FFF7FEFF 		bl	USBUART_1_DataIsReady
 109              	.LVL10:
 110 0006 80B1     		cbz	r0, .L9
  63:..\src/usb.c  **** 	{   
  64:..\src/usb.c  **** 		count = USBUART_1_GetAll(buffer);           	//Read received data and re-enable OUT endpoint
 111              		.loc 1 64 0
 112 0008 0848     		ldr	r0, .L12
 113 000a FFF7FEFF 		bl	USBUART_1_GetAll
 114              	.LVL11:
 115 000e 80B2     		uxth	r0, r0
 116 0010 074B     		ldr	r3, .L12+4
 117 0012 1880     		strh	r0, [r3]	@ movhi
  65:..\src/usb.c  **** 		if(count != 0u)
 118              		.loc 1 65 0
 119 0014 48B1     		cbz	r0, .L9
  66:..\src/usb.c  **** 		{
  67:..\src/usb.c  **** 			//Store all bytes in rx buf:			
  68:..\src/usb.c  **** 			update_rx_buf_array_usb(buffer, count+1);
 120              		.loc 1 68 0
 121 0016 01B2     		sxth	r1, r0
 122 0018 0448     		ldr	r0, .L12
 123 001a 0131     		adds	r1, r1, #1
 124 001c FFF7FEFF 		bl	update_rx_buf_array_2
 125              	.LVL12:
  69:..\src/usb.c  **** 		
  70:..\src/usb.c  **** 			data_ready_usb++;
 126              		.loc 1 70 0
 127 0020 044A     		ldr	r2, .L12+8
 128 0022 1378     		ldrb	r3, [r2]	@ zero_extendqisi2
 129 0024 0133     		adds	r3, r3, #1
 130 0026 DBB2     		uxtb	r3, r3
 131 0028 1370     		strb	r3, [r2]
 132              	.L9:
 133 002a 08BD     		pop	{r3, pc}
 134              	.L13:
 135              		.align	2
 136              	.L12:
 137 002c 00000000 		.word	buffer
 138 0030 00000000 		.word	.LANCHOR0
 139 0034 00000000 		.word	data_ready_usb
 140              		.cfi_endproc
 141              	.LFE64:
 142              		.size	get_usb_data, .-get_usb_data
 143              		.section	.text.send_usb_int8,"ax",%progbits
 144              		.align	2
 145              		.global	send_usb_int8
 146              		.thumb
 147              		.thumb_func
 148              		.type	send_usb_int8, %function
 149              	send_usb_int8:
 150              	.LFB65:
  71:..\src/usb.c  **** 		}
  72:..\src/usb.c  ****     } 	
  73:..\src/usb.c  **** }
  74:..\src/usb.c  **** 
ARM GAS  C:\Users\Alex\AppData\Local\Temp\ccPhm6za.s 			page 5


  75:..\src/usb.c  **** //1 byte through USB - ho headers, raw data
  76:..\src/usb.c  **** void send_usb_int8(char payload)
  77:..\src/usb.c  **** {
 151              		.loc 1 77 0
 152              		.cfi_startproc
 153              		@ args = 0, pretend = 0, frame = 16
 154              		@ frame_needed = 0, uses_anonymous_args = 0
 155              	.LVL13:
 156 0000 00B5     		push	{lr}
 157              		.cfi_def_cfa_offset 4
 158              		.cfi_offset 14, -4
 159 0002 85B0     		sub	sp, sp, #20
 160              		.cfi_def_cfa_offset 24
  78:..\src/usb.c  **** 	char8 tmp[16]; 
  79:..\src/usb.c  **** 	tmp[0] = (payload & 0xFF);
 161              		.loc 1 79 0
 162 0004 8DF80000 		strb	r0, [sp]
 163              	.LVL14:
 164              	.L15:
  80:..\src/usb.c  **** 	
  81:..\src/usb.c  **** 	//Make sure that the peripheral is ready
  82:..\src/usb.c  **** 	while(USBUART_1_CDCIsReady() == 0u);	//ToDo Add timeout!
 165              		.loc 1 82 0 discriminator 1
 166 0008 FFF7FEFF 		bl	USBUART_1_CDCIsReady
 167              	.LVL15:
 168 000c 0028     		cmp	r0, #0
 169 000e FBD0     		beq	.L15
  83:..\src/usb.c  **** 	USBUART_1_PutData((const uint8*)tmp, 1);
 170              		.loc 1 83 0
 171 0010 6846     		mov	r0, sp
 172 0012 0121     		movs	r1, #1
 173 0014 FFF7FEFF 		bl	USBUART_1_PutData
 174              	.LVL16:
  84:..\src/usb.c  **** 
  85:..\src/usb.c  **** 	return;
  86:..\src/usb.c  **** }
 175              		.loc 1 86 0
 176 0018 05B0     		add	sp, sp, #20
 177              		.cfi_def_cfa_offset 4
 178              		@ sp needed
 179 001a 5DF804FB 		ldr	pc, [sp], #4
 180              		.cfi_endproc
 181              	.LFE65:
 182              		.size	send_usb_int8, .-send_usb_int8
 183 001e 00BF     		.section	.text.send_usb_uint8,"ax",%progbits
 184              		.align	2
 185              		.global	send_usb_uint8
 186              		.thumb
 187              		.thumb_func
 188              		.type	send_usb_uint8, %function
 189              	send_usb_uint8:
 190              	.LFB66:
  87:..\src/usb.c  **** 
  88:..\src/usb.c  **** //1 byte through USB - ho headers, raw data
  89:..\src/usb.c  **** void send_usb_uint8(uint8 payload)
  90:..\src/usb.c  **** {
 191              		.loc 1 90 0
ARM GAS  C:\Users\Alex\AppData\Local\Temp\ccPhm6za.s 			page 6


 192              		.cfi_startproc
 193              		@ args = 0, pretend = 0, frame = 16
 194              		@ frame_needed = 0, uses_anonymous_args = 0
 195              	.LVL17:
 196 0000 00B5     		push	{lr}
 197              		.cfi_def_cfa_offset 4
 198              		.cfi_offset 14, -4
 199 0002 85B0     		sub	sp, sp, #20
 200              		.cfi_def_cfa_offset 24
  91:..\src/usb.c  **** 	uint8 tmp[16]; 
  92:..\src/usb.c  **** 	tmp[0] = (payload & 0xFF);
 201              		.loc 1 92 0
 202 0004 8DF80000 		strb	r0, [sp]
 203              	.LVL18:
 204              	.L18:
  93:..\src/usb.c  **** 	
  94:..\src/usb.c  **** 	//Make sure that the peripheral is ready
  95:..\src/usb.c  **** 	while(USBUART_1_CDCIsReady() == 0u);	//ToDo Add timeout!
 205              		.loc 1 95 0 discriminator 1
 206 0008 FFF7FEFF 		bl	USBUART_1_CDCIsReady
 207              	.LVL19:
 208 000c 0028     		cmp	r0, #0
 209 000e FBD0     		beq	.L18
  96:..\src/usb.c  **** 	USBUART_1_PutData((const uint8*)tmp, 1);
 210              		.loc 1 96 0
 211 0010 6846     		mov	r0, sp
 212 0012 0121     		movs	r1, #1
 213 0014 FFF7FEFF 		bl	USBUART_1_PutData
 214              	.LVL20:
  97:..\src/usb.c  **** 
  98:..\src/usb.c  **** 	return;
  99:..\src/usb.c  **** }
 215              		.loc 1 99 0
 216 0018 05B0     		add	sp, sp, #20
 217              		.cfi_def_cfa_offset 4
 218              		@ sp needed
 219 001a 5DF804FB 		ldr	pc, [sp], #4
 220              		.cfi_endproc
 221              	.LFE66:
 222              		.size	send_usb_uint8, .-send_usb_uint8
 223 001e 00BF     		.section	.text.send_usb_int16,"ax",%progbits
 224              		.align	2
 225              		.global	send_usb_int16
 226              		.thumb
 227              		.thumb_func
 228              		.type	send_usb_int16, %function
 229              	send_usb_int16:
 230              	.LFB67:
 100:..\src/usb.c  **** 
 101:..\src/usb.c  **** //Chops a int16 in 2 bytes and send them through USB - ho headers, raw data
 102:..\src/usb.c  **** //Works with Matlab
 103:..\src/usb.c  **** void send_usb_int16(int16 payload)
 104:..\src/usb.c  **** {
 231              		.loc 1 104 0
 232              		.cfi_startproc
 233              		@ args = 0, pretend = 0, frame = 8
 234              		@ frame_needed = 0, uses_anonymous_args = 0
ARM GAS  C:\Users\Alex\AppData\Local\Temp\ccPhm6za.s 			page 7


 235              	.LVL21:
 236 0000 00B5     		push	{lr}
 237              		.cfi_def_cfa_offset 4
 238              		.cfi_offset 14, -4
 239 0002 83B0     		sub	sp, sp, #12
 240              		.cfi_def_cfa_offset 16
 241              	.LVL22:
 105:..\src/usb.c  **** 	int tmp = 0;
 106:..\src/usb.c  **** 	char8 packet[4];
 107:..\src/usb.c  **** 	
 108:..\src/usb.c  **** 	//MSB first
 109:..\src/usb.c  **** 	tmp = (payload >> 8) & 0xFF;
 242              		.loc 1 109 0
 243 0004 C0F30F23 		ubfx	r3, r0, #8, #16
 244              	.LVL23:
 110:..\src/usb.c  **** 	packet[1] = (uint8) tmp;
 245              		.loc 1 110 0
 246 0008 8DF80530 		strb	r3, [sp, #5]
 247              	.LVL24:
 111:..\src/usb.c  **** 	tmp = (payload) & 0xFF;
 112:..\src/usb.c  **** 	packet[0] = (uint8) tmp;
 248              		.loc 1 112 0
 249 000c 8DF80400 		strb	r0, [sp, #4]
 250              	.LVL25:
 251              	.L21:
 113:..\src/usb.c  **** 	
 114:..\src/usb.c  **** 	//Make sure that the peripheral is ready
 115:..\src/usb.c  **** 	while(USBUART_1_CDCIsReady() == 0u);	//ToDo Add timeout!
 252              		.loc 1 115 0 discriminator 1
 253 0010 FFF7FEFF 		bl	USBUART_1_CDCIsReady
 254              	.LVL26:
 255 0014 0028     		cmp	r0, #0
 256 0016 FBD0     		beq	.L21
 116:..\src/usb.c  **** 	USBUART_1_PutData((const uint8*)packet, 2);
 257              		.loc 1 116 0
 258 0018 01A8     		add	r0, sp, #4
 259 001a 0221     		movs	r1, #2
 260 001c FFF7FEFF 		bl	USBUART_1_PutData
 261              	.LVL27:
 117:..\src/usb.c  **** 
 118:..\src/usb.c  **** 	return;
 119:..\src/usb.c  **** }
 262              		.loc 1 119 0
 263 0020 03B0     		add	sp, sp, #12
 264              		.cfi_def_cfa_offset 4
 265              		@ sp needed
 266 0022 5DF804FB 		ldr	pc, [sp], #4
 267              		.cfi_endproc
 268              	.LFE67:
 269              		.size	send_usb_int16, .-send_usb_int16
 270 0026 00BF     		.section	.text.send_usb_int32,"ax",%progbits
 271              		.align	2
 272              		.global	send_usb_int32
 273              		.thumb
 274              		.thumb_func
 275              		.type	send_usb_int32, %function
 276              	send_usb_int32:
ARM GAS  C:\Users\Alex\AppData\Local\Temp\ccPhm6za.s 			page 8


 277              	.LFB68:
 120:..\src/usb.c  **** 
 121:..\src/usb.c  **** //Chops a int32 in 4 bytes and send them through USB - ho headers, raw data
 122:..\src/usb.c  **** void send_usb_int32(int payload)
 123:..\src/usb.c  **** {
 278              		.loc 1 123 0
 279              		.cfi_startproc
 280              		@ args = 0, pretend = 0, frame = 8
 281              		@ frame_needed = 0, uses_anonymous_args = 0
 282              	.LVL28:
 283 0000 00B5     		push	{lr}
 284              		.cfi_def_cfa_offset 4
 285              		.cfi_offset 14, -4
 286 0002 83B0     		sub	sp, sp, #12
 287              		.cfi_def_cfa_offset 16
 288              	.LVL29:
 124:..\src/usb.c  **** 	int tmp = 0;
 125:..\src/usb.c  **** 	char8 packet[4];
 126:..\src/usb.c  **** 	
 127:..\src/usb.c  **** 	//MSB first
 128:..\src/usb.c  **** 	tmp = (payload >> 24) & 0xFF;
 289              		.loc 1 128 0
 290 0004 030E     		lsrs	r3, r0, #24
 291              	.LVL30:
 129:..\src/usb.c  **** 	packet[0] = (uint8) tmp;
 292              		.loc 1 129 0
 293 0006 8DF80430 		strb	r3, [sp, #4]
 130:..\src/usb.c  **** 	tmp = (payload >> 16) & 0xFF;
 294              		.loc 1 130 0
 295 000a 0314     		asrs	r3, r0, #16
 296              	.LVL31:
 131:..\src/usb.c  **** 	packet[1] = (uint8) tmp;
 297              		.loc 1 131 0
 298 000c 8DF80530 		strb	r3, [sp, #5]
 132:..\src/usb.c  **** 	tmp = (payload >> 8) & 0xFF;
 299              		.loc 1 132 0
 300 0010 0312     		asrs	r3, r0, #8
 301              	.LVL32:
 133:..\src/usb.c  **** 	packet[2] = (uint8) tmp;
 302              		.loc 1 133 0
 303 0012 8DF80630 		strb	r3, [sp, #6]
 304              	.LVL33:
 134:..\src/usb.c  **** 	tmp = (payload) & 0xFF;
 135:..\src/usb.c  **** 	packet[3] = (uint8) tmp;
 305              		.loc 1 135 0
 306 0016 8DF80700 		strb	r0, [sp, #7]
 307              	.LVL34:
 308              	.L24:
 136:..\src/usb.c  **** 	
 137:..\src/usb.c  **** 	//Make sure that the peripheral is ready
 138:..\src/usb.c  **** 	while(USBUART_1_CDCIsReady() == 0u);	//ToDo Add timeout!
 309              		.loc 1 138 0 discriminator 1
 310 001a FFF7FEFF 		bl	USBUART_1_CDCIsReady
 311              	.LVL35:
 312 001e 0028     		cmp	r0, #0
 313 0020 FBD0     		beq	.L24
 139:..\src/usb.c  **** 	USBUART_1_PutData((const uint8*)packet, 4);
ARM GAS  C:\Users\Alex\AppData\Local\Temp\ccPhm6za.s 			page 9


 314              		.loc 1 139 0
 315 0022 01A8     		add	r0, sp, #4
 316 0024 0421     		movs	r1, #4
 317 0026 FFF7FEFF 		bl	USBUART_1_PutData
 318              	.LVL36:
 140:..\src/usb.c  **** 
 141:..\src/usb.c  **** 	return;
 142:..\src/usb.c  **** }
 319              		.loc 1 142 0
 320 002a 03B0     		add	sp, sp, #12
 321              		.cfi_def_cfa_offset 4
 322              		@ sp needed
 323 002c 5DF804FB 		ldr	pc, [sp], #4
 324              		.cfi_endproc
 325              	.LFE68:
 326              		.size	send_usb_int32, .-send_usb_int32
 327              		.section	.text.usb_puts,"ax",%progbits
 328              		.align	2
 329              		.global	usb_puts
 330              		.thumb
 331              		.thumb_func
 332              		.type	usb_puts, %function
 333              	usb_puts:
 334              	.LFB69:
 143:..\src/usb.c  **** 
 144:..\src/usb.c  **** //Sends a fixed length packet over USB. Discarded if USB isn't ready.
 145:..\src/usb.c  **** void usb_puts(uint8 *buf, uint32 len)
 146:..\src/usb.c  **** {
 335              		.loc 1 146 0
 336              		.cfi_startproc
 337              		@ args = 0, pretend = 0, frame = 0
 338              		@ frame_needed = 0, uses_anonymous_args = 0
 339              	.LVL37:
 340 0000 38B5     		push	{r3, r4, r5, lr}
 341              		.cfi_def_cfa_offset 16
 342              		.cfi_offset 3, -16
 343              		.cfi_offset 4, -12
 344              		.cfi_offset 5, -8
 345              		.cfi_offset 14, -4
 346 0002 0546     		mov	r5, r0
 347 0004 0C46     		mov	r4, r1
 147:..\src/usb.c  **** 	if(USBUART_1_CDCIsReady() != 0)
 348              		.loc 1 147 0
 349 0006 FFF7FEFF 		bl	USBUART_1_CDCIsReady
 350              	.LVL38:
 351 000a 18B1     		cbz	r0, .L26
 148:..\src/usb.c  **** 		USBUART_1_PutData(( const uint8*)buf, len);
 352              		.loc 1 148 0
 353 000c 2846     		mov	r0, r5
 354 000e A1B2     		uxth	r1, r4
 355 0010 FFF7FEFF 		bl	USBUART_1_PutData
 356              	.LVL39:
 357              	.L26:
 358 0014 38BD     		pop	{r3, r4, r5, pc}
 359              		.cfi_endproc
 360              	.LFE69:
 361              		.size	usb_puts, .-usb_puts
ARM GAS  C:\Users\Alex\AppData\Local\Temp\ccPhm6za.s 			page 10


 362 0016 00BF     		.section	.text.usb_echo_blocking,"ax",%progbits
 363              		.align	2
 364              		.global	usb_echo_blocking
 365              		.thumb
 366              		.thumb_func
 367              		.type	usb_echo_blocking, %function
 368              	usb_echo_blocking:
 369              	.LFB70:
 149:..\src/usb.c  **** }
 150:..\src/usb.c  **** 
 151:..\src/usb.c  **** //****************************************************************************
 152:..\src/usb.c  **** // Test Function(s) - Use with care!
 153:..\src/usb.c  **** //****************************************************************************
 154:..\src/usb.c  **** 
 155:..\src/usb.c  **** //Returns chars to PC. ToDo: make it non-blocking!
 156:..\src/usb.c  **** uint8 usb_echo_blocking(void)
 157:..\src/usb.c  **** {
 370              		.loc 1 157 0
 371              		.cfi_startproc
 372              		@ args = 0, pretend = 0, frame = 0
 373              		@ frame_needed = 0, uses_anonymous_args = 0
 374 0000 10B5     		push	{r4, lr}
 375              		.cfi_def_cfa_offset 8
 376              		.cfi_offset 4, -8
 377              		.cfi_offset 14, -4
 378              	.LVL40:
 158:..\src/usb.c  **** 	static 	int16 count = 0;
 159:..\src/usb.c  **** 	uint16 i = 0;
 160:..\src/usb.c  **** 	
 161:..\src/usb.c  **** 	//USB Data
 162:..\src/usb.c  **** 	if(USBUART_1_DataIsReady() != 0u)               	//Check for input data from PC
 379              		.loc 1 162 0
 380 0002 FFF7FEFF 		bl	USBUART_1_DataIsReady
 381              	.LVL41:
 382 0006 0346     		mov	r3, r0
 383 0008 F8B1     		cbz	r0, .L30
 163:..\src/usb.c  **** 	{   
 164:..\src/usb.c  **** 		count = USBUART_1_GetAll(buffer);           	//Read received data and re-enable OUT endpoint
 384              		.loc 1 164 0
 385 000a 1148     		ldr	r0, .L36
 386 000c FFF7FEFF 		bl	USBUART_1_GetAll
 387              	.LVL42:
 388 0010 80B2     		uxth	r0, r0
 389 0012 104B     		ldr	r3, .L36+4
 390 0014 5880     		strh	r0, [r3, #2]	@ movhi
 165:..\src/usb.c  **** 		if(count != 0u)
 391              		.loc 1 165 0
 392 0016 B8B1     		cbz	r0, .L34
 393              	.L31:
 166:..\src/usb.c  **** 		{
 167:..\src/usb.c  **** 			while(USBUART_1_CDCIsReady() == 0u);    	//Wait till component is ready to send more data to the
 394              		.loc 1 167 0 discriminator 1
 395 0018 FFF7FEFF 		bl	USBUART_1_CDCIsReady
 396              	.LVL43:
 397 001c 0028     		cmp	r0, #0
 398 001e FBD0     		beq	.L31
 168:..\src/usb.c  **** 			USBUART_1_PutData(buffer, count);   		//Send data back to PC
ARM GAS  C:\Users\Alex\AppData\Local\Temp\ccPhm6za.s 			page 11


 399              		.loc 1 168 0
 400 0020 0B48     		ldr	r0, .L36
 401 0022 0C4B     		ldr	r3, .L36+4
 402 0024 5988     		ldrh	r1, [r3, #2]
 403 0026 FFF7FEFF 		bl	USBUART_1_PutData
 404              	.LVL44:
 169:..\src/usb.c  **** 
 170:..\src/usb.c  **** 			//Store all bytes in rx buf:			
 171:..\src/usb.c  **** 			for(i = 0; i < count; i++)
 405              		.loc 1 171 0
 406 002a 0024     		movs	r4, #0
 407 002c 05E0     		b	.L32
 408              	.LVL45:
 409              	.L33:
 172:..\src/usb.c  **** 		    {
 173:..\src/usb.c  **** 		        update_rx_buf_byte_usb(buffer[i]);
 410              		.loc 1 173 0 discriminator 3
 411 002e 084B     		ldr	r3, .L36
 412 0030 185D     		ldrb	r0, [r3, r4]	@ zero_extendqisi2
 413 0032 FFF7FEFF 		bl	update_rx_buf_byte_2
 414              	.LVL46:
 171:..\src/usb.c  **** 		    {
 415              		.loc 1 171 0 discriminator 3
 416 0036 0134     		adds	r4, r4, #1
 417              	.LVL47:
 418 0038 A4B2     		uxth	r4, r4
 419              	.LVL48:
 420              	.L32:
 171:..\src/usb.c  **** 		    {
 421              		.loc 1 171 0 is_stmt 0 discriminator 1
 422 003a 064B     		ldr	r3, .L36+4
 423 003c B3F90230 		ldrsh	r3, [r3, #2]
 424 0040 9C42     		cmp	r4, r3
 425 0042 F4DB     		blt	.L33
 174:..\src/usb.c  **** 		    }	
 175:..\src/usb.c  **** 			//ToDo should use array update
 176:..\src/usb.c  **** 			
 177:..\src/usb.c  **** 			return 1;	//Got byte(s)
 426              		.loc 1 177 0 is_stmt 1
 427 0044 0123     		movs	r3, #1
 428 0046 00E0     		b	.L30
 429              	.LVL49:
 430              	.L34:
 178:..\src/usb.c  **** 		}
 179:..\src/usb.c  ****     } 
 180:..\src/usb.c  **** 	
 181:..\src/usb.c  **** 	return 0;	//No byte
 431              		.loc 1 181 0
 432 0048 0023     		movs	r3, #0
 433              	.LVL50:
 434              	.L30:
 182:..\src/usb.c  **** }
 435              		.loc 1 182 0
 436 004a 1846     		mov	r0, r3
 437 004c 10BD     		pop	{r4, pc}
 438              	.L37:
 439 004e 00BF     		.align	2
ARM GAS  C:\Users\Alex\AppData\Local\Temp\ccPhm6za.s 			page 12


 440              	.L36:
 441 0050 00000000 		.word	buffer
 442 0054 00000000 		.word	.LANCHOR0
 443              		.cfi_endproc
 444              	.LFE70:
 445              		.size	usb_echo_blocking, .-usb_echo_blocking
 446              		.section	.text.send_usb_packet,"ax",%progbits
 447              		.align	2
 448              		.global	send_usb_packet
 449              		.thumb
 450              		.thumb_func
 451              		.type	send_usb_packet, %function
 452              	send_usb_packet:
 453              	.LFB71:
 183:..\src/usb.c  **** 
 184:..\src/usb.c  **** //****************************************************************************
 185:..\src/usb.c  **** // Deprecated Function(s)
 186:..\src/usb.c  **** //****************************************************************************
 187:..\src/usb.c  **** 
 188:..\src/usb.c  **** //Send 4 uint16 to the terminal
 189:..\src/usb.c  **** int16 send_usb_packet(uint16 word1, uint16 word2, uint16 word3, uint16 word4)
 190:..\src/usb.c  **** {
 454              		.loc 1 190 0
 455              		.cfi_startproc
 456              		@ args = 0, pretend = 0, frame = 24
 457              		@ frame_needed = 0, uses_anonymous_args = 0
 458              	.LVL51:
 459 0000 30B5     		push	{r4, r5, lr}
 460              		.cfi_def_cfa_offset 12
 461              		.cfi_offset 4, -12
 462              		.cfi_offset 5, -8
 463              		.cfi_offset 14, -4
 464 0002 87B0     		sub	sp, sp, #28
 465              		.cfi_def_cfa_offset 40
 191:..\src/usb.c  **** 	static uint8 cnt = 0;
 192:..\src/usb.c  **** 	char8 packet[18];
 193:..\src/usb.c  **** 
 194:..\src/usb.c  **** 	cnt++;
 466              		.loc 1 194 0
 467 0004 174D     		ldr	r5, .L41
 468 0006 2C79     		ldrb	r4, [r5, #4]	@ zero_extendqisi2
 469 0008 0134     		adds	r4, r4, #1
 470 000a 2C71     		strb	r4, [r5, #4]
 195:..\src/usb.c  **** 	
 196:..\src/usb.c  **** 	packet[0] = 0xAA;	//Start byte	
 471              		.loc 1 196 0
 472 000c AA24     		movs	r4, #170
 473 000e 8DF80440 		strb	r4, [sp, #4]
 197:..\src/usb.c  **** 
 198:..\src/usb.c  **** 	packet[2] = ((word1 & 0xFF00) >> 8);
 474              		.loc 1 198 0
 475 0012 040A     		lsrs	r4, r0, #8
 476 0014 8DF80640 		strb	r4, [sp, #6]
 199:..\src/usb.c  **** 	packet[3] = ((word1 & 0x00FF));
 477              		.loc 1 199 0
 478 0018 8DF80700 		strb	r0, [sp, #7]
 200:..\src/usb.c  **** 	
ARM GAS  C:\Users\Alex\AppData\Local\Temp\ccPhm6za.s 			page 13


 201:..\src/usb.c  **** 	packet[4] = ((word2 & 0xFF00) >> 8);
 479              		.loc 1 201 0
 480 001c 080A     		lsrs	r0, r1, #8
 481              	.LVL52:
 482 001e 8DF80800 		strb	r0, [sp, #8]
 202:..\src/usb.c  **** 	packet[5] = ((word2 & 0x00FF));
 483              		.loc 1 202 0
 484 0022 8DF80910 		strb	r1, [sp, #9]
 203:..\src/usb.c  **** 	
 204:..\src/usb.c  **** 	packet[6] = ((word3 & 0xFF00) >> 8);
 485              		.loc 1 204 0
 486 0026 110A     		lsrs	r1, r2, #8
 487              	.LVL53:
 488 0028 8DF80A10 		strb	r1, [sp, #10]
 205:..\src/usb.c  **** 	packet[7] = ((word3 & 0x00FF));
 489              		.loc 1 205 0
 490 002c 8DF80B20 		strb	r2, [sp, #11]
 206:..\src/usb.c  **** 	
 207:..\src/usb.c  **** 	packet[8] = ((word4 & 0xFF00) >> 8);
 491              		.loc 1 207 0
 492 0030 1A0A     		lsrs	r2, r3, #8
 493              	.LVL54:
 494 0032 8DF80C20 		strb	r2, [sp, #12]
 208:..\src/usb.c  **** 	packet[9] = ((word4 & 0x00FF));
 495              		.loc 1 208 0
 496 0036 8DF80D30 		strb	r3, [sp, #13]
 209:..\src/usb.c  **** 	
 210:..\src/usb.c  **** 
 211:..\src/usb.c  **** 	packet[15] = 0xCC;	//End byte
 497              		.loc 1 211 0
 498 003a CC23     		movs	r3, #204
 499              	.LVL55:
 500 003c 8DF81330 		strb	r3, [sp, #19]
 212:..\src/usb.c  **** 	packet[16] = '\n';
 501              		.loc 1 212 0
 502 0040 0A23     		movs	r3, #10
 503 0042 8DF81430 		strb	r3, [sp, #20]
 213:..\src/usb.c  **** 	packet[17] = '\0';
 504              		.loc 1 213 0
 505 0046 0023     		movs	r3, #0
 506 0048 8DF81530 		strb	r3, [sp, #21]
 507              	.L39:
 214:..\src/usb.c  **** 	
 215:..\src/usb.c  **** 	//Make sure that the peripheral is ready
 216:..\src/usb.c  **** 	while(USBUART_1_CDCIsReady() == 0u);	//ToDo Add timeout!
 508              		.loc 1 216 0 discriminator 1
 509 004c FFF7FEFF 		bl	USBUART_1_CDCIsReady
 510              	.LVL56:
 511 0050 0028     		cmp	r0, #0
 512 0052 FBD0     		beq	.L39
 217:..\src/usb.c  **** 	USBUART_1_PutData((const uint8*)packet, 18);
 513              		.loc 1 217 0
 514 0054 01A8     		add	r0, sp, #4
 515 0056 1221     		movs	r1, #18
 516 0058 FFF7FEFF 		bl	USBUART_1_PutData
 517              	.LVL57:
 218:..\src/usb.c  **** 
ARM GAS  C:\Users\Alex\AppData\Local\Temp\ccPhm6za.s 			page 14


 219:..\src/usb.c  **** 	return 0;
 220:..\src/usb.c  **** }
 518              		.loc 1 220 0
 519 005c 0020     		movs	r0, #0
 520 005e 07B0     		add	sp, sp, #28
 521              		.cfi_def_cfa_offset 12
 522              		@ sp needed
 523 0060 30BD     		pop	{r4, r5, pc}
 524              	.L42:
 525 0062 00BF     		.align	2
 526              	.L41:
 527 0064 00000000 		.word	.LANCHOR0
 528              		.cfi_endproc
 529              	.LFE71:
 530              		.size	send_usb_packet, .-send_usb_packet
 531              		.comm	buffer,100,4
 532              		.bss
 533              		.align	1
 534              		.set	.LANCHOR0,. + 0
 535              		.type	count.10480, %object
 536              		.size	count.10480, 2
 537              	count.10480:
 538 0000 0000     		.space	2
 539              		.type	count.10518, %object
 540              		.size	count.10518, 2
 541              	count.10518:
 542 0002 0000     		.space	2
 543              		.type	cnt.10532, %object
 544              		.size	cnt.10532, 1
 545              	cnt.10532:
 546 0004 00       		.space	1
 547 0005 00       		.text
 548              	.Letext0:
 549              		.file 2 "c:\\program files (x86)\\cypress\\psoc creator\\3.3\\psoc creator\\import\\gnu\\arm\\4.9.
 550              		.file 3 "c:\\program files (x86)\\cypress\\psoc creator\\3.3\\psoc creator\\import\\gnu\\arm\\4.9.
 551              		.file 4 "Generated_Source\\PSoC5/cytypes.h"
 552              		.file 5 "Generated_Source\\PSoC5/core_cm3.h"
 553              		.file 6 "..\\inc/misc.h"
 554              		.file 7 "Generated_Source\\PSoC5/USBUART_1.h"
 555              		.file 8 "Generated_Source\\PSoC5/CyLib.h"
 556              		.file 9 "Generated_Source\\PSoC5/USBUART_1_cdc.h"
 557              		.file 10 "c:\\flexsea_alx87grd\\flexsea-comm\\inc\\flexsea_buffers.h"