ARM GAS  C:\Users\Alex\AppData\Local\Temp\ccoH4kBx.s 			page 1


   1              		.syntax unified
   2              		.cpu cortex-m3
   3              		.fpu softvfp
   4              		.eabi_attribute 20, 1
   5              		.eabi_attribute 21, 1
   6              		.eabi_attribute 23, 3
   7              		.eabi_attribute 24, 1
   8              		.eabi_attribute 25, 1
   9              		.eabi_attribute 26, 1
  10              		.eabi_attribute 30, 1
  11              		.eabi_attribute 34, 1
  12              		.eabi_attribute 18, 4
  13              		.thumb
  14              		.file	"USBUART_1_pm.c"
  15              		.text
  16              	.Ltext0:
  17              		.cfi_sections	.debug_frame
  18              		.section	.text.USBUART_1_DP_ISR,"ax",%progbits
  19              		.align	2
  20              		.global	USBUART_1_DP_ISR
  21              		.thumb
  22              		.thumb_func
  23              		.type	USBUART_1_DP_ISR, %function
  24              	USBUART_1_DP_ISR:
  25              	.LFB63:
  26              		.file 1 ".\\Generated_Source\\PSoC5\\USBUART_1_pm.c"
   1:.\Generated_Source\PSoC5/USBUART_1_pm.c **** /*******************************************************************************
   2:.\Generated_Source\PSoC5/USBUART_1_pm.c **** * File Name: USBUART_1_pm.c
   3:.\Generated_Source\PSoC5/USBUART_1_pm.c **** * Version 2.80
   4:.\Generated_Source\PSoC5/USBUART_1_pm.c **** *
   5:.\Generated_Source\PSoC5/USBUART_1_pm.c **** * Description:
   6:.\Generated_Source\PSoC5/USBUART_1_pm.c **** *  This file provides Suspend/Resume APIs functionality.
   7:.\Generated_Source\PSoC5/USBUART_1_pm.c **** *
   8:.\Generated_Source\PSoC5/USBUART_1_pm.c **** * Note:
   9:.\Generated_Source\PSoC5/USBUART_1_pm.c **** *
  10:.\Generated_Source\PSoC5/USBUART_1_pm.c **** ********************************************************************************
  11:.\Generated_Source\PSoC5/USBUART_1_pm.c **** * Copyright 2008-2014, Cypress Semiconductor Corporation.  All rights reserved.
  12:.\Generated_Source\PSoC5/USBUART_1_pm.c **** * You may use this file only in accordance with the license, terms, conditions,
  13:.\Generated_Source\PSoC5/USBUART_1_pm.c **** * disclaimers, and limitations in the end user license agreement accompanying
  14:.\Generated_Source\PSoC5/USBUART_1_pm.c **** * the software package with which this file was provided.
  15:.\Generated_Source\PSoC5/USBUART_1_pm.c **** *******************************************************************************/
  16:.\Generated_Source\PSoC5/USBUART_1_pm.c **** 
  17:.\Generated_Source\PSoC5/USBUART_1_pm.c **** #include "project.h"
  18:.\Generated_Source\PSoC5/USBUART_1_pm.c **** #include "USBUART_1.h"
  19:.\Generated_Source\PSoC5/USBUART_1_pm.c **** #include "USBUART_1_pvt.h"
  20:.\Generated_Source\PSoC5/USBUART_1_pm.c **** #include "cyapicallbacks.h"
  21:.\Generated_Source\PSoC5/USBUART_1_pm.c **** 
  22:.\Generated_Source\PSoC5/USBUART_1_pm.c **** 
  23:.\Generated_Source\PSoC5/USBUART_1_pm.c **** /***************************************
  24:.\Generated_Source\PSoC5/USBUART_1_pm.c **** * Custom Declarations
  25:.\Generated_Source\PSoC5/USBUART_1_pm.c **** ***************************************/
  26:.\Generated_Source\PSoC5/USBUART_1_pm.c **** /* `#START PM_CUSTOM_DECLARATIONS` Place your declaration here */
  27:.\Generated_Source\PSoC5/USBUART_1_pm.c **** 
  28:.\Generated_Source\PSoC5/USBUART_1_pm.c **** /* `#END` */
  29:.\Generated_Source\PSoC5/USBUART_1_pm.c **** 
  30:.\Generated_Source\PSoC5/USBUART_1_pm.c **** 
  31:.\Generated_Source\PSoC5/USBUART_1_pm.c **** /***************************************
ARM GAS  C:\Users\Alex\AppData\Local\Temp\ccoH4kBx.s 			page 2


  32:.\Generated_Source\PSoC5/USBUART_1_pm.c **** * Local data allocation
  33:.\Generated_Source\PSoC5/USBUART_1_pm.c **** ***************************************/
  34:.\Generated_Source\PSoC5/USBUART_1_pm.c **** 
  35:.\Generated_Source\PSoC5/USBUART_1_pm.c **** static USBUART_1_BACKUP_STRUCT  USBUART_1_backup;
  36:.\Generated_Source\PSoC5/USBUART_1_pm.c **** 
  37:.\Generated_Source\PSoC5/USBUART_1_pm.c **** 
  38:.\Generated_Source\PSoC5/USBUART_1_pm.c **** #if(USBUART_1_DP_ISR_REMOVE == 0u)
  39:.\Generated_Source\PSoC5/USBUART_1_pm.c **** 
  40:.\Generated_Source\PSoC5/USBUART_1_pm.c ****     /*******************************************************************************
  41:.\Generated_Source\PSoC5/USBUART_1_pm.c ****     * Function Name: USBUART_1_DP_Interrupt
  42:.\Generated_Source\PSoC5/USBUART_1_pm.c ****     ********************************************************************************
  43:.\Generated_Source\PSoC5/USBUART_1_pm.c ****     *
  44:.\Generated_Source\PSoC5/USBUART_1_pm.c ****     * Summary:
  45:.\Generated_Source\PSoC5/USBUART_1_pm.c ****     *  This Interrupt Service Routine handles DP pin changes for wake-up from
  46:.\Generated_Source\PSoC5/USBUART_1_pm.c ****     *  the sleep mode.
  47:.\Generated_Source\PSoC5/USBUART_1_pm.c ****     *
  48:.\Generated_Source\PSoC5/USBUART_1_pm.c ****     * Parameters:
  49:.\Generated_Source\PSoC5/USBUART_1_pm.c ****     *  None.
  50:.\Generated_Source\PSoC5/USBUART_1_pm.c ****     *
  51:.\Generated_Source\PSoC5/USBUART_1_pm.c ****     * Return:
  52:.\Generated_Source\PSoC5/USBUART_1_pm.c ****     *  None.
  53:.\Generated_Source\PSoC5/USBUART_1_pm.c ****     *
  54:.\Generated_Source\PSoC5/USBUART_1_pm.c ****     *******************************************************************************/
  55:.\Generated_Source\PSoC5/USBUART_1_pm.c ****     CY_ISR(USBUART_1_DP_ISR)
  56:.\Generated_Source\PSoC5/USBUART_1_pm.c ****     {
  27              		.loc 1 56 0
  28              		.cfi_startproc
  29              		@ args = 0, pretend = 0, frame = 0
  30              		@ frame_needed = 0, uses_anonymous_args = 0
  31              		@ link register save eliminated.
  57:.\Generated_Source\PSoC5/USBUART_1_pm.c ****         #ifdef USBUART_1_DP_ISR_ENTRY_CALLBACK
  58:.\Generated_Source\PSoC5/USBUART_1_pm.c ****             USBUART_1_DP_ISR_EntryCallback();
  59:.\Generated_Source\PSoC5/USBUART_1_pm.c ****         #endif /* USBUART_1_DP_ISR_ENTRY_CALLBACK */
  60:.\Generated_Source\PSoC5/USBUART_1_pm.c **** 
  61:.\Generated_Source\PSoC5/USBUART_1_pm.c ****         /* `#START DP_USER_CODE` Place your code here */
  62:.\Generated_Source\PSoC5/USBUART_1_pm.c **** 
  63:.\Generated_Source\PSoC5/USBUART_1_pm.c ****         /* `#END` */
  64:.\Generated_Source\PSoC5/USBUART_1_pm.c **** 
  65:.\Generated_Source\PSoC5/USBUART_1_pm.c ****         /* Clears active interrupt */
  66:.\Generated_Source\PSoC5/USBUART_1_pm.c ****         CY_GET_REG8(USBUART_1_DP_INTSTAT_PTR);
  32              		.loc 1 66 0
  33 0000 014B     		ldr	r3, .L2
  34 0002 1B78     		ldrb	r3, [r3]	@ zero_extendqisi2
  35 0004 7047     		bx	lr
  36              	.L3:
  37 0006 00BF     		.align	2
  38              	.L2:
  39 0008 8F450040 		.word	1073759631
  40              		.cfi_endproc
  41              	.LFE63:
  42              		.size	USBUART_1_DP_ISR, .-USBUART_1_DP_ISR
  43              		.section	.text.USBUART_1_SaveConfig,"ax",%progbits
  44              		.align	2
  45              		.global	USBUART_1_SaveConfig
  46              		.thumb
  47              		.thumb_func
  48              		.type	USBUART_1_SaveConfig, %function
ARM GAS  C:\Users\Alex\AppData\Local\Temp\ccoH4kBx.s 			page 3


  49              	USBUART_1_SaveConfig:
  50              	.LFB64:
  67:.\Generated_Source\PSoC5/USBUART_1_pm.c **** 
  68:.\Generated_Source\PSoC5/USBUART_1_pm.c ****         #ifdef USBUART_1_DP_ISR_EXIT_CALLBACK
  69:.\Generated_Source\PSoC5/USBUART_1_pm.c ****             USBUART_1_DP_ISR_ExitCallback();
  70:.\Generated_Source\PSoC5/USBUART_1_pm.c ****         #endif /* USBUART_1_DP_ISR_EXIT_CALLBACK */
  71:.\Generated_Source\PSoC5/USBUART_1_pm.c ****     }
  72:.\Generated_Source\PSoC5/USBUART_1_pm.c **** 
  73:.\Generated_Source\PSoC5/USBUART_1_pm.c **** #endif /* (USBUART_1_DP_ISR_REMOVE == 0u) */
  74:.\Generated_Source\PSoC5/USBUART_1_pm.c **** 
  75:.\Generated_Source\PSoC5/USBUART_1_pm.c **** 
  76:.\Generated_Source\PSoC5/USBUART_1_pm.c **** /*******************************************************************************
  77:.\Generated_Source\PSoC5/USBUART_1_pm.c **** * Function Name: USBUART_1_SaveConfig
  78:.\Generated_Source\PSoC5/USBUART_1_pm.c **** ********************************************************************************
  79:.\Generated_Source\PSoC5/USBUART_1_pm.c **** *
  80:.\Generated_Source\PSoC5/USBUART_1_pm.c **** * Summary:
  81:.\Generated_Source\PSoC5/USBUART_1_pm.c **** *  Saves the current user configuration.
  82:.\Generated_Source\PSoC5/USBUART_1_pm.c **** *
  83:.\Generated_Source\PSoC5/USBUART_1_pm.c **** * Parameters:
  84:.\Generated_Source\PSoC5/USBUART_1_pm.c **** *  None.
  85:.\Generated_Source\PSoC5/USBUART_1_pm.c **** *
  86:.\Generated_Source\PSoC5/USBUART_1_pm.c **** * Return:
  87:.\Generated_Source\PSoC5/USBUART_1_pm.c **** *  None.
  88:.\Generated_Source\PSoC5/USBUART_1_pm.c **** *
  89:.\Generated_Source\PSoC5/USBUART_1_pm.c **** * Reentrant:
  90:.\Generated_Source\PSoC5/USBUART_1_pm.c **** *  No.
  91:.\Generated_Source\PSoC5/USBUART_1_pm.c **** *
  92:.\Generated_Source\PSoC5/USBUART_1_pm.c **** *******************************************************************************/
  93:.\Generated_Source\PSoC5/USBUART_1_pm.c **** void USBUART_1_SaveConfig(void) 
  94:.\Generated_Source\PSoC5/USBUART_1_pm.c **** {
  51              		.loc 1 94 0
  52              		.cfi_startproc
  53              		@ args = 0, pretend = 0, frame = 0
  54              		@ frame_needed = 0, uses_anonymous_args = 0
  55              		@ link register save eliminated.
  56 0000 7047     		bx	lr
  57              		.cfi_endproc
  58              	.LFE64:
  59              		.size	USBUART_1_SaveConfig, .-USBUART_1_SaveConfig
  60 0002 00BF     		.section	.text.USBUART_1_RestoreConfig,"ax",%progbits
  61              		.align	2
  62              		.global	USBUART_1_RestoreConfig
  63              		.thumb
  64              		.thumb_func
  65              		.type	USBUART_1_RestoreConfig, %function
  66              	USBUART_1_RestoreConfig:
  67              	.LFB65:
  95:.\Generated_Source\PSoC5/USBUART_1_pm.c **** 
  96:.\Generated_Source\PSoC5/USBUART_1_pm.c **** }
  97:.\Generated_Source\PSoC5/USBUART_1_pm.c **** 
  98:.\Generated_Source\PSoC5/USBUART_1_pm.c **** 
  99:.\Generated_Source\PSoC5/USBUART_1_pm.c **** /*******************************************************************************
 100:.\Generated_Source\PSoC5/USBUART_1_pm.c **** * Function Name: USBUART_1_RestoreConfig
 101:.\Generated_Source\PSoC5/USBUART_1_pm.c **** ********************************************************************************
 102:.\Generated_Source\PSoC5/USBUART_1_pm.c **** *
 103:.\Generated_Source\PSoC5/USBUART_1_pm.c **** * Summary:
 104:.\Generated_Source\PSoC5/USBUART_1_pm.c **** *  Restores the current user configuration.
ARM GAS  C:\Users\Alex\AppData\Local\Temp\ccoH4kBx.s 			page 4


 105:.\Generated_Source\PSoC5/USBUART_1_pm.c **** *
 106:.\Generated_Source\PSoC5/USBUART_1_pm.c **** * Parameters:
 107:.\Generated_Source\PSoC5/USBUART_1_pm.c **** *  None.
 108:.\Generated_Source\PSoC5/USBUART_1_pm.c **** *
 109:.\Generated_Source\PSoC5/USBUART_1_pm.c **** * Return:
 110:.\Generated_Source\PSoC5/USBUART_1_pm.c **** *  None.
 111:.\Generated_Source\PSoC5/USBUART_1_pm.c **** *
 112:.\Generated_Source\PSoC5/USBUART_1_pm.c **** * Reentrant:
 113:.\Generated_Source\PSoC5/USBUART_1_pm.c **** *  No.
 114:.\Generated_Source\PSoC5/USBUART_1_pm.c **** *
 115:.\Generated_Source\PSoC5/USBUART_1_pm.c **** *******************************************************************************/
 116:.\Generated_Source\PSoC5/USBUART_1_pm.c **** void USBUART_1_RestoreConfig(void) 
 117:.\Generated_Source\PSoC5/USBUART_1_pm.c **** {
  68              		.loc 1 117 0
  69              		.cfi_startproc
  70              		@ args = 0, pretend = 0, frame = 0
  71              		@ frame_needed = 0, uses_anonymous_args = 0
  72              		.loc 1 117 0
  73 0000 08B5     		push	{r3, lr}
  74              		.cfi_def_cfa_offset 8
  75              		.cfi_offset 3, -8
  76              		.cfi_offset 14, -4
 118:.\Generated_Source\PSoC5/USBUART_1_pm.c ****     if(USBUART_1_configuration != 0u)
  77              		.loc 1 118 0
  78 0002 044B     		ldr	r3, .L8
  79 0004 1B78     		ldrb	r3, [r3]	@ zero_extendqisi2
  80 0006 13F0FF0F 		tst	r3, #255
  81 000a 01D0     		beq	.L5
 119:.\Generated_Source\PSoC5/USBUART_1_pm.c ****     {
 120:.\Generated_Source\PSoC5/USBUART_1_pm.c ****         USBUART_1_ConfigReg();
  82              		.loc 1 120 0
  83 000c FFF7FEFF 		bl	USBUART_1_ConfigReg
  84              	.LVL0:
  85              	.L5:
  86 0010 08BD     		pop	{r3, pc}
  87              	.L9:
  88 0012 00BF     		.align	2
  89              	.L8:
  90 0014 00000000 		.word	USBUART_1_configuration
  91              		.cfi_endproc
  92              	.LFE65:
  93              		.size	USBUART_1_RestoreConfig, .-USBUART_1_RestoreConfig
  94              		.section	.text.USBUART_1_Suspend,"ax",%progbits
  95              		.align	2
  96              		.global	USBUART_1_Suspend
  97              		.thumb
  98              		.thumb_func
  99              		.type	USBUART_1_Suspend, %function
 100              	USBUART_1_Suspend:
 101              	.LFB66:
 121:.\Generated_Source\PSoC5/USBUART_1_pm.c ****     }
 122:.\Generated_Source\PSoC5/USBUART_1_pm.c **** }
 123:.\Generated_Source\PSoC5/USBUART_1_pm.c **** 
 124:.\Generated_Source\PSoC5/USBUART_1_pm.c **** 
 125:.\Generated_Source\PSoC5/USBUART_1_pm.c **** /*******************************************************************************
 126:.\Generated_Source\PSoC5/USBUART_1_pm.c **** * Function Name: USBUART_1_Suspend
 127:.\Generated_Source\PSoC5/USBUART_1_pm.c **** ********************************************************************************
ARM GAS  C:\Users\Alex\AppData\Local\Temp\ccoH4kBx.s 			page 5


 128:.\Generated_Source\PSoC5/USBUART_1_pm.c **** *
 129:.\Generated_Source\PSoC5/USBUART_1_pm.c **** * Summary:
 130:.\Generated_Source\PSoC5/USBUART_1_pm.c **** *  This function disables the USBFS block and prepares for power down mode.
 131:.\Generated_Source\PSoC5/USBUART_1_pm.c **** *
 132:.\Generated_Source\PSoC5/USBUART_1_pm.c **** * Parameters:
 133:.\Generated_Source\PSoC5/USBUART_1_pm.c **** *  None.
 134:.\Generated_Source\PSoC5/USBUART_1_pm.c **** *
 135:.\Generated_Source\PSoC5/USBUART_1_pm.c **** * Return:
 136:.\Generated_Source\PSoC5/USBUART_1_pm.c **** *   None.
 137:.\Generated_Source\PSoC5/USBUART_1_pm.c **** *
 138:.\Generated_Source\PSoC5/USBUART_1_pm.c **** * Global variables:
 139:.\Generated_Source\PSoC5/USBUART_1_pm.c **** *  USBUART_1_backup.enable:  modified.
 140:.\Generated_Source\PSoC5/USBUART_1_pm.c **** *
 141:.\Generated_Source\PSoC5/USBUART_1_pm.c **** * Reentrant:
 142:.\Generated_Source\PSoC5/USBUART_1_pm.c **** *  No.
 143:.\Generated_Source\PSoC5/USBUART_1_pm.c **** *
 144:.\Generated_Source\PSoC5/USBUART_1_pm.c **** *******************************************************************************/
 145:.\Generated_Source\PSoC5/USBUART_1_pm.c **** void USBUART_1_Suspend(void) 
 146:.\Generated_Source\PSoC5/USBUART_1_pm.c **** {
 102              		.loc 1 146 0
 103              		.cfi_startproc
 104              		@ args = 0, pretend = 0, frame = 0
 105              		@ frame_needed = 0, uses_anonymous_args = 0
 106 0000 F8B5     		push	{r3, r4, r5, r6, r7, lr}
 107              		.cfi_def_cfa_offset 24
 108              		.cfi_offset 3, -24
 109              		.cfi_offset 4, -20
 110              		.cfi_offset 5, -16
 111              		.cfi_offset 6, -12
 112              		.cfi_offset 7, -8
 113              		.cfi_offset 14, -4
 147:.\Generated_Source\PSoC5/USBUART_1_pm.c ****     uint8 enableInterrupts;
 148:.\Generated_Source\PSoC5/USBUART_1_pm.c ****     enableInterrupts = CyEnterCriticalSection();
 114              		.loc 1 148 0
 115 0002 FFF7FEFF 		bl	CyEnterCriticalSection
 116              	.LVL1:
 117 0006 0446     		mov	r4, r0
 118              	.LVL2:
 149:.\Generated_Source\PSoC5/USBUART_1_pm.c **** 
 150:.\Generated_Source\PSoC5/USBUART_1_pm.c ****     if((CY_GET_REG8(USBUART_1_CR0_PTR) & USBUART_1_CR0_ENABLE) != 0u)
 119              		.loc 1 150 0
 120 0008 2C4B     		ldr	r3, .L14
 121 000a 1B78     		ldrb	r3, [r3]	@ zero_extendqisi2
 122 000c 13F0800F 		tst	r3, #128
 123 0010 3ED0     		beq	.L11
 151:.\Generated_Source\PSoC5/USBUART_1_pm.c ****     {   /* USB block is enabled */
 152:.\Generated_Source\PSoC5/USBUART_1_pm.c ****         USBUART_1_backup.enableState = 1u;
 124              		.loc 1 152 0
 125 0012 2B4F     		ldr	r7, .L14+4
 126 0014 0126     		movs	r6, #1
 127 0016 3E70     		strb	r6, [r7]
 153:.\Generated_Source\PSoC5/USBUART_1_pm.c **** 
 154:.\Generated_Source\PSoC5/USBUART_1_pm.c ****         #if(USBUART_1_EP_MM != USBUART_1__EP_MANUAL)
 155:.\Generated_Source\PSoC5/USBUART_1_pm.c ****             USBUART_1_Stop_DMA(USBUART_1_MAX_EP);     /* Stop all DMAs */
 128              		.loc 1 155 0
 129 0018 0920     		movs	r0, #9
 130 001a FFF7FEFF 		bl	USBUART_1_Stop_DMA
ARM GAS  C:\Users\Alex\AppData\Local\Temp\ccoH4kBx.s 			page 6


 131              	.LVL3:
 156:.\Generated_Source\PSoC5/USBUART_1_pm.c ****         #endif   /*  USBUART_1_EP_MM != USBUART_1__EP_MANUAL */
 157:.\Generated_Source\PSoC5/USBUART_1_pm.c **** 
 158:.\Generated_Source\PSoC5/USBUART_1_pm.c ****         /* Ensure USB transmit enable is low (USB_USBIO_CR0.ten). - Manual Transmission - Disabled 
 159:.\Generated_Source\PSoC5/USBUART_1_pm.c ****         USBUART_1_USBIO_CR0_REG &= (uint8)~USBUART_1_USBIO_CR0_TEN;
 132              		.loc 1 159 0
 133 001e 294A     		ldr	r2, .L14+8
 134 0020 1378     		ldrb	r3, [r2]	@ zero_extendqisi2
 135 0022 03F07F03 		and	r3, r3, #127
 136 0026 1370     		strb	r3, [r2]
 160:.\Generated_Source\PSoC5/USBUART_1_pm.c ****         CyDelayUs(0u);  /*~50ns delay */
 137              		.loc 1 160 0
 138 0028 0020     		movs	r0, #0
 139 002a FFF7FEFF 		bl	CyDelayUs
 140              	.LVL4:
 161:.\Generated_Source\PSoC5/USBUART_1_pm.c **** 
 162:.\Generated_Source\PSoC5/USBUART_1_pm.c ****         /* Disable the USBIO by asserting PM.USB_CR0.fsusbio_pd_n(Inverted) and pd_pullup_hv(Invert
 163:.\Generated_Source\PSoC5/USBUART_1_pm.c ****         USBUART_1_PM_USB_CR0_REG &=
 141              		.loc 1 163 0
 142 002e 264D     		ldr	r5, .L14+12
 143 0030 2B78     		ldrb	r3, [r5]	@ zero_extendqisi2
 144 0032 03F0F903 		and	r3, r3, #249
 145 0036 2B70     		strb	r3, [r5]
 164:.\Generated_Source\PSoC5/USBUART_1_pm.c ****                                 (uint8)~(USBUART_1_PM_USB_CR0_PD_N | USBUART_1_PM_USB_CR0_PD_PULLUP
 165:.\Generated_Source\PSoC5/USBUART_1_pm.c **** 
 166:.\Generated_Source\PSoC5/USBUART_1_pm.c ****         /* Disable the SIE */
 167:.\Generated_Source\PSoC5/USBUART_1_pm.c ****         USBUART_1_CR0_REG &= (uint8)~USBUART_1_CR0_ENABLE;
 146              		.loc 1 167 0
 147 0038 204A     		ldr	r2, .L14
 148 003a 1378     		ldrb	r3, [r2]	@ zero_extendqisi2
 149 003c 03F07F03 		and	r3, r3, #127
 150 0040 1370     		strb	r3, [r2]
 168:.\Generated_Source\PSoC5/USBUART_1_pm.c **** 
 169:.\Generated_Source\PSoC5/USBUART_1_pm.c ****         CyDelayUs(0u);  /* ~50ns delay */
 151              		.loc 1 169 0
 152 0042 0020     		movs	r0, #0
 153 0044 FFF7FEFF 		bl	CyDelayUs
 154              	.LVL5:
 170:.\Generated_Source\PSoC5/USBUART_1_pm.c ****         /* Store mode and Disable VRegulator*/
 171:.\Generated_Source\PSoC5/USBUART_1_pm.c ****         USBUART_1_backup.mode = USBUART_1_CR1_REG & USBUART_1_CR1_REG_ENABLE;
 155              		.loc 1 171 0
 156 0048 204B     		ldr	r3, .L14+16
 157 004a 1A78     		ldrb	r2, [r3]	@ zero_extendqisi2
 158 004c 3240     		ands	r2, r2, r6
 159 004e 7A70     		strb	r2, [r7, #1]
 172:.\Generated_Source\PSoC5/USBUART_1_pm.c ****         USBUART_1_CR1_REG &= (uint8)~USBUART_1_CR1_REG_ENABLE;
 160              		.loc 1 172 0
 161 0050 1A78     		ldrb	r2, [r3]	@ zero_extendqisi2
 162 0052 02F0FE02 		and	r2, r2, #254
 163 0056 1A70     		strb	r2, [r3]
 173:.\Generated_Source\PSoC5/USBUART_1_pm.c **** 
 174:.\Generated_Source\PSoC5/USBUART_1_pm.c ****         CyDelayUs(1u);  /* 0.5 us min delay */
 164              		.loc 1 174 0
 165 0058 3046     		mov	r0, r6
 166 005a FFF7FEFF 		bl	CyDelayUs
 167              	.LVL6:
 175:.\Generated_Source\PSoC5/USBUART_1_pm.c ****         /* Disable the USBIO reference by setting PM.USB_CR0.fsusbio_ref_en.*/
ARM GAS  C:\Users\Alex\AppData\Local\Temp\ccoH4kBx.s 			page 7


 176:.\Generated_Source\PSoC5/USBUART_1_pm.c ****         USBUART_1_PM_USB_CR0_REG &= (uint8)~USBUART_1_PM_USB_CR0_REF_EN;
 168              		.loc 1 176 0
 169 005e 2B78     		ldrb	r3, [r5]	@ zero_extendqisi2
 170 0060 03F0FE03 		and	r3, r3, #254
 171 0064 2B70     		strb	r3, [r5]
 177:.\Generated_Source\PSoC5/USBUART_1_pm.c **** 
 178:.\Generated_Source\PSoC5/USBUART_1_pm.c ****         /* Switch DP and DM terminals to GPIO mode and disconnect 1.5k pullup*/
 179:.\Generated_Source\PSoC5/USBUART_1_pm.c ****         USBUART_1_USBIO_CR1_REG |= USBUART_1_USBIO_CR1_IOMODE;
 172              		.loc 1 179 0
 173 0066 1A4A     		ldr	r2, .L14+20
 174 0068 1378     		ldrb	r3, [r2]	@ zero_extendqisi2
 175 006a 43F02003 		orr	r3, r3, #32
 176 006e 1370     		strb	r3, [r2]
 180:.\Generated_Source\PSoC5/USBUART_1_pm.c **** 
 181:.\Generated_Source\PSoC5/USBUART_1_pm.c ****         /* Disable USB in ACT PM */
 182:.\Generated_Source\PSoC5/USBUART_1_pm.c ****         USBUART_1_PM_ACT_CFG_REG &= (uint8)~USBUART_1_PM_ACT_EN_FSUSB;
 177              		.loc 1 182 0
 178 0070 A2F5E352 		sub	r2, r2, #7264
 179 0074 0D3A     		subs	r2, r2, #13
 180 0076 1378     		ldrb	r3, [r2]	@ zero_extendqisi2
 181 0078 03F0FE03 		and	r3, r3, #254
 182 007c 1370     		strb	r3, [r2]
 183:.\Generated_Source\PSoC5/USBUART_1_pm.c ****         /* Disable USB block for Standby Power Mode */
 184:.\Generated_Source\PSoC5/USBUART_1_pm.c ****         USBUART_1_PM_STBY_CFG_REG &= (uint8)~USBUART_1_PM_STBY_EN_FSUSB;
 183              		.loc 1 184 0
 184 007e 1032     		adds	r2, r2, #16
 185 0080 1378     		ldrb	r3, [r2]	@ zero_extendqisi2
 186 0082 03F0FE03 		and	r3, r3, #254
 187 0086 1370     		strb	r3, [r2]
 185:.\Generated_Source\PSoC5/USBUART_1_pm.c ****         CyDelayUs(1u); /* min  0.5us delay required */
 188              		.loc 1 185 0
 189 0088 3046     		mov	r0, r6
 190 008a FFF7FEFF 		bl	CyDelayUs
 191              	.LVL7:
 192 008e 02E0     		b	.L12
 193              	.L11:
 186:.\Generated_Source\PSoC5/USBUART_1_pm.c **** 
 187:.\Generated_Source\PSoC5/USBUART_1_pm.c ****     }
 188:.\Generated_Source\PSoC5/USBUART_1_pm.c ****     else
 189:.\Generated_Source\PSoC5/USBUART_1_pm.c ****     {
 190:.\Generated_Source\PSoC5/USBUART_1_pm.c ****         USBUART_1_backup.enableState = 0u;
 194              		.loc 1 190 0
 195 0090 0022     		movs	r2, #0
 196 0092 0B4B     		ldr	r3, .L14+4
 197 0094 1A70     		strb	r2, [r3]
 198              	.L12:
 191:.\Generated_Source\PSoC5/USBUART_1_pm.c ****     }
 192:.\Generated_Source\PSoC5/USBUART_1_pm.c **** 
 193:.\Generated_Source\PSoC5/USBUART_1_pm.c ****     CyExitCriticalSection(enableInterrupts);
 199              		.loc 1 193 0
 200 0096 2046     		mov	r0, r4
 201 0098 FFF7FEFF 		bl	CyExitCriticalSection
 202              	.LVL8:
 194:.\Generated_Source\PSoC5/USBUART_1_pm.c **** 
 195:.\Generated_Source\PSoC5/USBUART_1_pm.c ****     /* Set the DP Interrupt for wake-up from sleep mode. */
 196:.\Generated_Source\PSoC5/USBUART_1_pm.c ****     #if(USBUART_1_DP_ISR_REMOVE == 0u)
 197:.\Generated_Source\PSoC5/USBUART_1_pm.c ****         (void) CyIntSetVector(USBUART_1_DP_INTC_VECT_NUM, &USBUART_1_DP_ISR);
ARM GAS  C:\Users\Alex\AppData\Local\Temp\ccoH4kBx.s 			page 8


 203              		.loc 1 197 0
 204 009c 0C20     		movs	r0, #12
 205 009e 0D49     		ldr	r1, .L14+24
 206 00a0 FFF7FEFF 		bl	CyIntSetVector
 207              	.LVL9:
 198:.\Generated_Source\PSoC5/USBUART_1_pm.c ****         CyIntSetPriority(USBUART_1_DP_INTC_VECT_NUM, USBUART_1_DP_INTC_PRIOR);
 208              		.loc 1 198 0
 209 00a4 0C20     		movs	r0, #12
 210 00a6 0721     		movs	r1, #7
 211 00a8 FFF7FEFF 		bl	CyIntSetPriority
 212              	.LVL10:
 199:.\Generated_Source\PSoC5/USBUART_1_pm.c ****         CyIntClearPending(USBUART_1_DP_INTC_VECT_NUM);
 213              		.loc 1 199 0
 214 00ac 4FF48053 		mov	r3, #4096
 215 00b0 094A     		ldr	r2, .L14+28
 216 00b2 1360     		str	r3, [r2]
 200:.\Generated_Source\PSoC5/USBUART_1_pm.c ****         CyIntEnable(USBUART_1_DP_INTC_VECT_NUM);
 217              		.loc 1 200 0
 218 00b4 A2F5C072 		sub	r2, r2, #384
 219 00b8 1360     		str	r3, [r2]
 220 00ba F8BD     		pop	{r3, r4, r5, r6, r7, pc}
 221              	.LVL11:
 222              	.L15:
 223              		.align	2
 224              	.L14:
 225 00bc 08600040 		.word	1073766408
 226 00c0 00000000 		.word	.LANCHOR0
 227 00c4 10600040 		.word	1073766416
 228 00c8 94430040 		.word	1073759124
 229 00cc 09600040 		.word	1073766409
 230 00d0 12600040 		.word	1073766418
 231 00d4 00000000 		.word	USBUART_1_DP_ISR
 232 00d8 80E200E0 		.word	-536812928
 233              		.cfi_endproc
 234              	.LFE66:
 235              		.size	USBUART_1_Suspend, .-USBUART_1_Suspend
 236              		.section	.text.USBUART_1_Resume,"ax",%progbits
 237              		.align	2
 238              		.global	USBUART_1_Resume
 239              		.thumb
 240              		.thumb_func
 241              		.type	USBUART_1_Resume, %function
 242              	USBUART_1_Resume:
 243              	.LFB67:
 201:.\Generated_Source\PSoC5/USBUART_1_pm.c ****     #endif /* (USBUART_1_DP_ISR_REMOVE == 0u) */
 202:.\Generated_Source\PSoC5/USBUART_1_pm.c **** }
 203:.\Generated_Source\PSoC5/USBUART_1_pm.c **** 
 204:.\Generated_Source\PSoC5/USBUART_1_pm.c **** 
 205:.\Generated_Source\PSoC5/USBUART_1_pm.c **** /*******************************************************************************
 206:.\Generated_Source\PSoC5/USBUART_1_pm.c **** * Function Name: USBUART_1_Resume
 207:.\Generated_Source\PSoC5/USBUART_1_pm.c **** ********************************************************************************
 208:.\Generated_Source\PSoC5/USBUART_1_pm.c **** *
 209:.\Generated_Source\PSoC5/USBUART_1_pm.c **** * Summary:
 210:.\Generated_Source\PSoC5/USBUART_1_pm.c **** *  This function enables the USBFS block after power down mode.
 211:.\Generated_Source\PSoC5/USBUART_1_pm.c **** *
 212:.\Generated_Source\PSoC5/USBUART_1_pm.c **** * Parameters:
 213:.\Generated_Source\PSoC5/USBUART_1_pm.c **** *  None.
ARM GAS  C:\Users\Alex\AppData\Local\Temp\ccoH4kBx.s 			page 9


 214:.\Generated_Source\PSoC5/USBUART_1_pm.c **** *
 215:.\Generated_Source\PSoC5/USBUART_1_pm.c **** * Return:
 216:.\Generated_Source\PSoC5/USBUART_1_pm.c **** *  None.
 217:.\Generated_Source\PSoC5/USBUART_1_pm.c **** *
 218:.\Generated_Source\PSoC5/USBUART_1_pm.c **** * Global variables:
 219:.\Generated_Source\PSoC5/USBUART_1_pm.c **** *  USBUART_1_backup - checked.
 220:.\Generated_Source\PSoC5/USBUART_1_pm.c **** *
 221:.\Generated_Source\PSoC5/USBUART_1_pm.c **** * Reentrant:
 222:.\Generated_Source\PSoC5/USBUART_1_pm.c **** *  No.
 223:.\Generated_Source\PSoC5/USBUART_1_pm.c **** *
 224:.\Generated_Source\PSoC5/USBUART_1_pm.c **** *******************************************************************************/
 225:.\Generated_Source\PSoC5/USBUART_1_pm.c **** void USBUART_1_Resume(void) 
 226:.\Generated_Source\PSoC5/USBUART_1_pm.c **** {
 244              		.loc 1 226 0
 245              		.cfi_startproc
 246              		@ args = 0, pretend = 0, frame = 0
 247              		@ frame_needed = 0, uses_anonymous_args = 0
 248 0000 38B5     		push	{r3, r4, r5, lr}
 249              		.cfi_def_cfa_offset 16
 250              		.cfi_offset 3, -16
 251              		.cfi_offset 4, -12
 252              		.cfi_offset 5, -8
 253              		.cfi_offset 14, -4
 227:.\Generated_Source\PSoC5/USBUART_1_pm.c ****     uint8 enableInterrupts;
 228:.\Generated_Source\PSoC5/USBUART_1_pm.c ****     enableInterrupts = CyEnterCriticalSection();
 254              		.loc 1 228 0
 255 0002 FFF7FEFF 		bl	CyEnterCriticalSection
 256              	.LVL12:
 257 0006 0546     		mov	r5, r0
 258              	.LVL13:
 229:.\Generated_Source\PSoC5/USBUART_1_pm.c **** 
 230:.\Generated_Source\PSoC5/USBUART_1_pm.c ****     if(USBUART_1_backup.enableState != 0u)
 259              		.loc 1 230 0
 260 0008 274B     		ldr	r3, .L19
 261 000a 1B78     		ldrb	r3, [r3]	@ zero_extendqisi2
 262 000c 002B     		cmp	r3, #0
 263 000e 46D0     		beq	.L17
 231:.\Generated_Source\PSoC5/USBUART_1_pm.c ****     {
 232:.\Generated_Source\PSoC5/USBUART_1_pm.c ****         #if(USBUART_1_DP_ISR_REMOVE == 0u)
 233:.\Generated_Source\PSoC5/USBUART_1_pm.c ****             CyIntDisable(USBUART_1_DP_INTC_VECT_NUM);
 264              		.loc 1 233 0
 265 0010 4FF48052 		mov	r2, #4096
 266 0014 254B     		ldr	r3, .L19+4
 267 0016 1A60     		str	r2, [r3]
 234:.\Generated_Source\PSoC5/USBUART_1_pm.c ****         #endif /*  USBUART_1_DP_ISR_REMOVE */
 235:.\Generated_Source\PSoC5/USBUART_1_pm.c **** 
 236:.\Generated_Source\PSoC5/USBUART_1_pm.c ****         /* Enable USB block */
 237:.\Generated_Source\PSoC5/USBUART_1_pm.c ****         USBUART_1_PM_ACT_CFG_REG |= USBUART_1_PM_ACT_EN_FSUSB;
 268              		.loc 1 237 0
 269 0018 254A     		ldr	r2, .L19+8
 270 001a 1378     		ldrb	r3, [r2]	@ zero_extendqisi2
 271 001c 43F00103 		orr	r3, r3, #1
 272 0020 1370     		strb	r3, [r2]
 238:.\Generated_Source\PSoC5/USBUART_1_pm.c ****         /* Enable USB block for Standby Power Mode */
 239:.\Generated_Source\PSoC5/USBUART_1_pm.c ****         USBUART_1_PM_STBY_CFG_REG |= USBUART_1_PM_STBY_EN_FSUSB;
 273              		.loc 1 239 0
 274 0022 1032     		adds	r2, r2, #16
ARM GAS  C:\Users\Alex\AppData\Local\Temp\ccoH4kBx.s 			page 10


 275 0024 1378     		ldrb	r3, [r2]	@ zero_extendqisi2
 276 0026 43F00103 		orr	r3, r3, #1
 277 002a 1370     		strb	r3, [r2]
 240:.\Generated_Source\PSoC5/USBUART_1_pm.c ****         /* Enable core clock */
 241:.\Generated_Source\PSoC5/USBUART_1_pm.c ****         USBUART_1_USB_CLK_EN_REG |= USBUART_1_USB_CLK_ENABLE;
 278              		.loc 1 241 0
 279 002c 02F5E752 		add	r2, r2, #7392
 280 0030 0832     		adds	r2, r2, #8
 281 0032 1378     		ldrb	r3, [r2]	@ zero_extendqisi2
 282 0034 43F00103 		orr	r3, r3, #1
 283 0038 1370     		strb	r3, [r2]
 242:.\Generated_Source\PSoC5/USBUART_1_pm.c **** 
 243:.\Generated_Source\PSoC5/USBUART_1_pm.c ****         /* Enable the USBIO reference by setting PM.USB_CR0.fsusbio_ref_en.*/
 244:.\Generated_Source\PSoC5/USBUART_1_pm.c ****         USBUART_1_PM_USB_CR0_REG |= USBUART_1_PM_USB_CR0_REF_EN;
 284              		.loc 1 244 0
 285 003a 1E4C     		ldr	r4, .L19+12
 286 003c 2378     		ldrb	r3, [r4]	@ zero_extendqisi2
 287 003e 43F00103 		orr	r3, r3, #1
 288 0042 2370     		strb	r3, [r4]
 245:.\Generated_Source\PSoC5/USBUART_1_pm.c ****         /* The reference will be available ~40us after power restored */
 246:.\Generated_Source\PSoC5/USBUART_1_pm.c ****         CyDelayUs(40u);
 289              		.loc 1 246 0
 290 0044 2820     		movs	r0, #40
 291 0046 FFF7FEFF 		bl	CyDelayUs
 292              	.LVL14:
 247:.\Generated_Source\PSoC5/USBUART_1_pm.c ****         /* Return VRegulator*/
 248:.\Generated_Source\PSoC5/USBUART_1_pm.c ****         USBUART_1_CR1_REG |= USBUART_1_backup.mode;
 293              		.loc 1 248 0
 294 004a 1B4A     		ldr	r2, .L19+16
 295 004c 1178     		ldrb	r1, [r2]	@ zero_extendqisi2
 296 004e 164B     		ldr	r3, .L19
 297 0050 5B78     		ldrb	r3, [r3, #1]	@ zero_extendqisi2
 298 0052 0B43     		orrs	r3, r3, r1
 299 0054 1370     		strb	r3, [r2]
 249:.\Generated_Source\PSoC5/USBUART_1_pm.c ****         CyDelayUs(0u);  /*~50ns delay */
 300              		.loc 1 249 0
 301 0056 0020     		movs	r0, #0
 302 0058 FFF7FEFF 		bl	CyDelayUs
 303              	.LVL15:
 250:.\Generated_Source\PSoC5/USBUART_1_pm.c ****         /* Enable USBIO */
 251:.\Generated_Source\PSoC5/USBUART_1_pm.c ****         USBUART_1_PM_USB_CR0_REG |= USBUART_1_PM_USB_CR0_PD_N;
 304              		.loc 1 251 0
 305 005c 2378     		ldrb	r3, [r4]	@ zero_extendqisi2
 306 005e 43F00203 		orr	r3, r3, #2
 307 0062 2370     		strb	r3, [r4]
 252:.\Generated_Source\PSoC5/USBUART_1_pm.c ****         CyDelayUs(2u);
 308              		.loc 1 252 0
 309 0064 0220     		movs	r0, #2
 310 0066 FFF7FEFF 		bl	CyDelayUs
 311              	.LVL16:
 253:.\Generated_Source\PSoC5/USBUART_1_pm.c ****         /* Set the USBIO pull-up enable */
 254:.\Generated_Source\PSoC5/USBUART_1_pm.c ****         USBUART_1_PM_USB_CR0_REG |= USBUART_1_PM_USB_CR0_PD_PULLUP_N;
 312              		.loc 1 254 0
 313 006a 2378     		ldrb	r3, [r4]	@ zero_extendqisi2
 314 006c 43F00403 		orr	r3, r3, #4
 315 0070 2370     		strb	r3, [r4]
 255:.\Generated_Source\PSoC5/USBUART_1_pm.c **** 
ARM GAS  C:\Users\Alex\AppData\Local\Temp\ccoH4kBx.s 			page 11


 256:.\Generated_Source\PSoC5/USBUART_1_pm.c ****         /* Re-init Arbiter configuration for DMA transfers */
 257:.\Generated_Source\PSoC5/USBUART_1_pm.c ****         #if(USBUART_1_EP_MM != USBUART_1__EP_MANUAL)
 258:.\Generated_Source\PSoC5/USBUART_1_pm.c ****             /* Usb arb interrupt enable */
 259:.\Generated_Source\PSoC5/USBUART_1_pm.c ****             USBUART_1_ARB_INT_EN_REG = USBUART_1_ARB_INT_MASK;
 316              		.loc 1 259 0
 317 0072 0722     		movs	r2, #7
 318 0074 114B     		ldr	r3, .L19+20
 319 0076 1A70     		strb	r2, [r3]
 260:.\Generated_Source\PSoC5/USBUART_1_pm.c ****             #if(USBUART_1_EP_MM == USBUART_1__EP_DMAMANUAL)
 261:.\Generated_Source\PSoC5/USBUART_1_pm.c ****                 USBUART_1_ARB_CFG_REG = USBUART_1_ARB_CFG_MANUAL_DMA;
 320              		.loc 1 261 0
 321 0078 2022     		movs	r2, #32
 322 007a 023B     		subs	r3, r3, #2
 323 007c 1A70     		strb	r2, [r3]
 262:.\Generated_Source\PSoC5/USBUART_1_pm.c ****             #endif   /*  USBUART_1_EP_MM == USBUART_1__EP_DMAMANUAL */
 263:.\Generated_Source\PSoC5/USBUART_1_pm.c ****             #if(USBUART_1_EP_MM == USBUART_1__EP_DMAAUTO)
 264:.\Generated_Source\PSoC5/USBUART_1_pm.c ****                 /*Set cfg cmplt this rises DMA request when the full configuration is done */
 265:.\Generated_Source\PSoC5/USBUART_1_pm.c ****                 USBUART_1_ARB_CFG_REG = USBUART_1_ARB_CFG_AUTO_DMA | USBUART_1_ARB_CFG_AUTO_MEM;
 266:.\Generated_Source\PSoC5/USBUART_1_pm.c ****             #endif   /*  USBUART_1_EP_MM == USBUART_1__EP_DMAAUTO */
 267:.\Generated_Source\PSoC5/USBUART_1_pm.c ****         #endif   /*  USBUART_1_EP_MM != USBUART_1__EP_MANUAL */
 268:.\Generated_Source\PSoC5/USBUART_1_pm.c **** 
 269:.\Generated_Source\PSoC5/USBUART_1_pm.c ****         /* STALL_IN_OUT */
 270:.\Generated_Source\PSoC5/USBUART_1_pm.c ****         CY_SET_REG8(USBUART_1_EP0_CR_PTR, USBUART_1_MODE_STALL_IN_OUT);
 324              		.loc 1 270 0
 325 007e 0322     		movs	r2, #3
 326 0080 743B     		subs	r3, r3, #116
 327 0082 1A70     		strb	r2, [r3]
 271:.\Generated_Source\PSoC5/USBUART_1_pm.c ****         /* Enable the SIE with a last address */
 272:.\Generated_Source\PSoC5/USBUART_1_pm.c ****         USBUART_1_CR0_REG |= USBUART_1_CR0_ENABLE;
 328              		.loc 1 272 0
 329 0084 0E4A     		ldr	r2, .L19+24
 330 0086 1378     		ldrb	r3, [r2]	@ zero_extendqisi2
 331 0088 43F08003 		orr	r3, r3, #128
 332 008c 1370     		strb	r3, [r2]
 273:.\Generated_Source\PSoC5/USBUART_1_pm.c ****         CyDelayCycles(1u);
 333              		.loc 1 273 0
 334 008e 0120     		movs	r0, #1
 335 0090 FFF7FEFF 		bl	CyDelayCycles
 336              	.LVL17:
 274:.\Generated_Source\PSoC5/USBUART_1_pm.c ****         /* Finally, Enable d+ pullup and select iomode to USB mode*/
 275:.\Generated_Source\PSoC5/USBUART_1_pm.c ****         CY_SET_REG8(USBUART_1_USBIO_CR1_PTR, USBUART_1_USBIO_CR1_USBPUEN);
 337              		.loc 1 275 0
 338 0094 0422     		movs	r2, #4
 339 0096 0B4B     		ldr	r3, .L19+28
 340 0098 1A70     		strb	r2, [r3]
 276:.\Generated_Source\PSoC5/USBUART_1_pm.c **** 
 277:.\Generated_Source\PSoC5/USBUART_1_pm.c ****         /* Restore USB register settings */
 278:.\Generated_Source\PSoC5/USBUART_1_pm.c ****         USBUART_1_RestoreConfig();
 341              		.loc 1 278 0
 342 009a FFF7FEFF 		bl	USBUART_1_RestoreConfig
 343              	.LVL18:
 344              	.L17:
 279:.\Generated_Source\PSoC5/USBUART_1_pm.c ****     }
 280:.\Generated_Source\PSoC5/USBUART_1_pm.c **** 
 281:.\Generated_Source\PSoC5/USBUART_1_pm.c ****     CyExitCriticalSection(enableInterrupts);
 345              		.loc 1 281 0
 346 009e 2846     		mov	r0, r5
ARM GAS  C:\Users\Alex\AppData\Local\Temp\ccoH4kBx.s 			page 12


 347 00a0 FFF7FEFF 		bl	CyExitCriticalSection
 348              	.LVL19:
 349 00a4 38BD     		pop	{r3, r4, r5, pc}
 350              	.LVL20:
 351              	.L20:
 352 00a6 00BF     		.align	2
 353              	.L19:
 354 00a8 00000000 		.word	.LANCHOR0
 355 00ac 80E100E0 		.word	-536813184
 356 00b0 A5430040 		.word	1073759141
 357 00b4 94430040 		.word	1073759124
 358 00b8 09600040 		.word	1073766409
 359 00bc 9E600040 		.word	1073766558
 360 00c0 08600040 		.word	1073766408
 361 00c4 12600040 		.word	1073766418
 362              		.cfi_endproc
 363              	.LFE67:
 364              		.size	USBUART_1_Resume, .-USBUART_1_Resume
 365              		.bss
 366              		.align	2
 367              		.set	.LANCHOR0,. + 0
 368              		.type	USBUART_1_backup, %object
 369              		.size	USBUART_1_backup, 2
 370              	USBUART_1_backup:
 371 0000 0000     		.space	2
 372 0002 0000     		.text
 373              	.Letext0:
 374              		.file 2 "c:\\program files (x86)\\cypress\\psoc creator\\3.3\\psoc creator\\import\\gnu\\arm\\4.9.
 375              		.file 3 "c:\\program files (x86)\\cypress\\psoc creator\\3.3\\psoc creator\\import\\gnu\\arm\\4.9.
 376              		.file 4 ".\\Generated_Source\\PSoC5\\cytypes.h"
 377              		.file 5 ".\\Generated_Source\\PSoC5\\USBUART_1.h"
 378              		.file 6 "Generated_Source\\PSoC5/core_cm3.h"
 379              		.file 7 ".\\Generated_Source\\PSoC5\\CyLib.h"
 380              		.file 8 ".\\Generated_Source\\PSoC5\\USBUART_1_pvt.h"