ARM GAS  C:\Users\Alex\AppData\Local\Temp\ccTbSRdB.s 			page 1


   1              		.syntax unified
   2              		.cpu cortex-m3
   3              		.fpu softvfp
   4              		.eabi_attribute 20, 1
   5              		.eabi_attribute 21, 1
   6              		.eabi_attribute 23, 3
   7              		.eabi_attribute 24, 1
   8              		.eabi_attribute 25, 1
   9              		.eabi_attribute 26, 1
  10              		.eabi_attribute 30, 1
  11              		.eabi_attribute 34, 1
  12              		.eabi_attribute 18, 4
  13              		.thumb
  14              		.file	"USBUART_1_episr.c"
  15              		.text
  16              	.Ltext0:
  17              		.cfi_sections	.debug_frame
  18              		.section	.text.USBUART_1_EP_1_ISR,"ax",%progbits
  19              		.align	2
  20              		.global	USBUART_1_EP_1_ISR
  21              		.thumb
  22              		.thumb_func
  23              		.type	USBUART_1_EP_1_ISR, %function
  24              	USBUART_1_EP_1_ISR:
  25              	.LFB0:
  26              		.file 1 ".\\Generated_Source\\PSoC5\\USBUART_1_episr.c"
   1:.\Generated_Source\PSoC5/USBUART_1_episr.c **** /*******************************************************************************
   2:.\Generated_Source\PSoC5/USBUART_1_episr.c **** * File Name: USBUART_1_episr.c
   3:.\Generated_Source\PSoC5/USBUART_1_episr.c **** * Version 2.80
   4:.\Generated_Source\PSoC5/USBUART_1_episr.c **** *
   5:.\Generated_Source\PSoC5/USBUART_1_episr.c **** * Description:
   6:.\Generated_Source\PSoC5/USBUART_1_episr.c **** *  Data endpoint Interrupt Service Routines
   7:.\Generated_Source\PSoC5/USBUART_1_episr.c **** *
   8:.\Generated_Source\PSoC5/USBUART_1_episr.c **** * Note:
   9:.\Generated_Source\PSoC5/USBUART_1_episr.c **** *
  10:.\Generated_Source\PSoC5/USBUART_1_episr.c **** ********************************************************************************
  11:.\Generated_Source\PSoC5/USBUART_1_episr.c **** * Copyright 2008-2014, Cypress Semiconductor Corporation.  All rights reserved.
  12:.\Generated_Source\PSoC5/USBUART_1_episr.c **** * You may use this file only in accordance with the license, terms, conditions,
  13:.\Generated_Source\PSoC5/USBUART_1_episr.c **** * disclaimers, and limitations in the end user license agreement accompanying
  14:.\Generated_Source\PSoC5/USBUART_1_episr.c **** * the software package with which this file was provided.
  15:.\Generated_Source\PSoC5/USBUART_1_episr.c **** *******************************************************************************/
  16:.\Generated_Source\PSoC5/USBUART_1_episr.c **** 
  17:.\Generated_Source\PSoC5/USBUART_1_episr.c **** #include "USBUART_1.h"
  18:.\Generated_Source\PSoC5/USBUART_1_episr.c **** #include "USBUART_1_pvt.h"
  19:.\Generated_Source\PSoC5/USBUART_1_episr.c **** #include "cyapicallbacks.h"
  20:.\Generated_Source\PSoC5/USBUART_1_episr.c **** #if (defined(USBUART_1_ENABLE_MIDI_STREAMING) && (USBUART_1_ENABLE_MIDI_API != 0u))
  21:.\Generated_Source\PSoC5/USBUART_1_episr.c ****     #include "USBUART_1_midi.h"
  22:.\Generated_Source\PSoC5/USBUART_1_episr.c **** #endif /* (defined(USBUART_1_ENABLE_MIDI_STREAMING) && (USBUART_1_ENABLE_MIDI_API != 0u)) */
  23:.\Generated_Source\PSoC5/USBUART_1_episr.c **** #if ((USBUART_1_EP_MM == USBUART_1__EP_DMAAUTO) && (USBUART_1_EP_DMA_AUTO_OPT == 0u))
  24:.\Generated_Source\PSoC5/USBUART_1_episr.c ****     #include "USBUART_1_EP8_DMA_Done_SR.h"
  25:.\Generated_Source\PSoC5/USBUART_1_episr.c ****     #include "USBUART_1_EP17_DMA_Done_SR.h"
  26:.\Generated_Source\PSoC5/USBUART_1_episr.c **** #endif /* (USBUART_1_EP_MM == USBUART_1__EP_DMAAUTO) && (USBUART_1_EP_DMA_AUTO_OPT == 0u) */
  27:.\Generated_Source\PSoC5/USBUART_1_episr.c **** 
  28:.\Generated_Source\PSoC5/USBUART_1_episr.c **** 
  29:.\Generated_Source\PSoC5/USBUART_1_episr.c **** /***************************************
  30:.\Generated_Source\PSoC5/USBUART_1_episr.c **** * Custom Declarations
  31:.\Generated_Source\PSoC5/USBUART_1_episr.c **** ***************************************/
ARM GAS  C:\Users\Alex\AppData\Local\Temp\ccTbSRdB.s 			page 2


  32:.\Generated_Source\PSoC5/USBUART_1_episr.c **** /* `#START CUSTOM_DECLARATIONS` Place your declaration here */
  33:.\Generated_Source\PSoC5/USBUART_1_episr.c **** 
  34:.\Generated_Source\PSoC5/USBUART_1_episr.c **** /* `#END` */
  35:.\Generated_Source\PSoC5/USBUART_1_episr.c **** 
  36:.\Generated_Source\PSoC5/USBUART_1_episr.c **** 
  37:.\Generated_Source\PSoC5/USBUART_1_episr.c **** #if(USBUART_1_EP1_ISR_REMOVE == 0u)
  38:.\Generated_Source\PSoC5/USBUART_1_episr.c **** 
  39:.\Generated_Source\PSoC5/USBUART_1_episr.c **** 
  40:.\Generated_Source\PSoC5/USBUART_1_episr.c ****     /******************************************************************************
  41:.\Generated_Source\PSoC5/USBUART_1_episr.c ****     * Function Name: USBUART_1_EP_1_ISR
  42:.\Generated_Source\PSoC5/USBUART_1_episr.c ****     *******************************************************************************
  43:.\Generated_Source\PSoC5/USBUART_1_episr.c ****     *
  44:.\Generated_Source\PSoC5/USBUART_1_episr.c ****     * Summary:
  45:.\Generated_Source\PSoC5/USBUART_1_episr.c ****     *  Endpoint 1 Interrupt Service Routine
  46:.\Generated_Source\PSoC5/USBUART_1_episr.c ****     *
  47:.\Generated_Source\PSoC5/USBUART_1_episr.c ****     * Parameters:
  48:.\Generated_Source\PSoC5/USBUART_1_episr.c ****     *  None.
  49:.\Generated_Source\PSoC5/USBUART_1_episr.c ****     *
  50:.\Generated_Source\PSoC5/USBUART_1_episr.c ****     * Return:
  51:.\Generated_Source\PSoC5/USBUART_1_episr.c ****     *  None.
  52:.\Generated_Source\PSoC5/USBUART_1_episr.c ****     *
  53:.\Generated_Source\PSoC5/USBUART_1_episr.c ****     ******************************************************************************/
  54:.\Generated_Source\PSoC5/USBUART_1_episr.c ****     CY_ISR(USBUART_1_EP_1_ISR)
  55:.\Generated_Source\PSoC5/USBUART_1_episr.c ****     {
  27              		.loc 1 55 0
  28              		.cfi_startproc
  29              		@ args = 0, pretend = 0, frame = 0
  30              		@ frame_needed = 0, uses_anonymous_args = 0
  31              		@ link register save eliminated.
  56:.\Generated_Source\PSoC5/USBUART_1_episr.c ****         #if (defined(USBUART_1_ENABLE_MIDI_STREAMING) && !defined(USBUART_1_MAIN_SERVICE_MIDI_OUT) 
  57:.\Generated_Source\PSoC5/USBUART_1_episr.c ****                      USBUART_1_ISR_SERVICE_MIDI_OUT && CY_PSOC3)
  58:.\Generated_Source\PSoC5/USBUART_1_episr.c ****             uint8 int_en;
  59:.\Generated_Source\PSoC5/USBUART_1_episr.c ****         #endif /* USBUART_1_ISR_SERVICE_MIDI_OUT && CY_PSOC3 */
  60:.\Generated_Source\PSoC5/USBUART_1_episr.c **** 
  61:.\Generated_Source\PSoC5/USBUART_1_episr.c ****         #ifdef USBUART_1_EP_1_ISR_ENTRY_CALLBACK
  62:.\Generated_Source\PSoC5/USBUART_1_episr.c ****             USBUART_1_EP_1_ISR_EntryCallback();
  63:.\Generated_Source\PSoC5/USBUART_1_episr.c ****         #endif /* USBUART_1_EP_1_ISR_ENTRY_CALLBACK */
  64:.\Generated_Source\PSoC5/USBUART_1_episr.c **** 
  65:.\Generated_Source\PSoC5/USBUART_1_episr.c ****         /* `#START EP1_USER_CODE` Place your code here */
  66:.\Generated_Source\PSoC5/USBUART_1_episr.c **** 
  67:.\Generated_Source\PSoC5/USBUART_1_episr.c ****         /* `#END` */
  68:.\Generated_Source\PSoC5/USBUART_1_episr.c **** 
  69:.\Generated_Source\PSoC5/USBUART_1_episr.c ****         #if (defined(USBUART_1_ENABLE_MIDI_STREAMING) && !defined(USBUART_1_MAIN_SERVICE_MIDI_OUT) 
  70:.\Generated_Source\PSoC5/USBUART_1_episr.c ****                      USBUART_1_ISR_SERVICE_MIDI_OUT && CY_PSOC3)
  71:.\Generated_Source\PSoC5/USBUART_1_episr.c ****             int_en = EA;
  72:.\Generated_Source\PSoC5/USBUART_1_episr.c ****             CyGlobalIntEnable;  /* Make sure nested interrupt is enabled */
  73:.\Generated_Source\PSoC5/USBUART_1_episr.c ****         #endif /* USBUART_1_ISR_SERVICE_MIDI_OUT && CY_PSOC3 */
  74:.\Generated_Source\PSoC5/USBUART_1_episr.c **** 
  75:.\Generated_Source\PSoC5/USBUART_1_episr.c ****         CY_GET_REG8(USBUART_1_SIE_EP1_CR0_PTR); /* Must read the mode reg */
  32              		.loc 1 75 0
  33 0000 0A4B     		ldr	r3, .L3
  34 0002 1B78     		ldrb	r3, [r3]	@ zero_extendqisi2
  76:.\Generated_Source\PSoC5/USBUART_1_episr.c ****         /* Do not toggle ISOC endpoint */
  77:.\Generated_Source\PSoC5/USBUART_1_episr.c ****         if((USBUART_1_EP[USBUART_1_EP1].attrib & USBUART_1_EP_TYPE_MASK) !=
  35              		.loc 1 77 0
  36 0004 0A4B     		ldr	r3, .L3+4
  37 0006 1B7B     		ldrb	r3, [r3, #12]	@ zero_extendqisi2
ARM GAS  C:\Users\Alex\AppData\Local\Temp\ccTbSRdB.s 			page 3


  38 0008 03F00303 		and	r3, r3, #3
  39 000c 012B     		cmp	r3, #1
  40 000e 04D0     		beq	.L2
  78:.\Generated_Source\PSoC5/USBUART_1_episr.c ****                                                                                     USBUART_1_EP_TY
  79:.\Generated_Source\PSoC5/USBUART_1_episr.c ****         {
  80:.\Generated_Source\PSoC5/USBUART_1_episr.c ****             USBUART_1_EP[USBUART_1_EP1].epToggle ^= USBUART_1_EPX_CNT_DATA_TOGGLE;
  41              		.loc 1 80 0
  42 0010 074A     		ldr	r2, .L3+4
  43 0012 D37B     		ldrb	r3, [r2, #15]	@ zero_extendqisi2
  44 0014 83F08003 		eor	r3, r3, #128
  45 0018 D373     		strb	r3, [r2, #15]
  46              	.L2:
  81:.\Generated_Source\PSoC5/USBUART_1_episr.c ****         }
  82:.\Generated_Source\PSoC5/USBUART_1_episr.c ****         USBUART_1_EP[USBUART_1_EP1].apiEpState = USBUART_1_EVENT_PENDING;
  47              		.loc 1 82 0
  48 001a 0122     		movs	r2, #1
  49 001c 044B     		ldr	r3, .L3+4
  50 001e 5A73     		strb	r2, [r3, #13]
  83:.\Generated_Source\PSoC5/USBUART_1_episr.c ****         CY_SET_REG8(USBUART_1_SIE_EP_INT_SR_PTR, CY_GET_REG8(USBUART_1_SIE_EP_INT_SR_PTR) &
  51              		.loc 1 83 0
  52 0020 044A     		ldr	r2, .L3+8
  53 0022 1378     		ldrb	r3, [r2]	@ zero_extendqisi2
  54 0024 03F0FE03 		and	r3, r3, #254
  55 0028 1370     		strb	r3, [r2]
  56 002a 7047     		bx	lr
  57              	.L4:
  58              		.align	2
  59              	.L3:
  60 002c 0E600040 		.word	1073766414
  61 0030 00000000 		.word	USBUART_1_EP
  62 0034 0B600040 		.word	1073766411
  63              		.cfi_endproc
  64              	.LFE0:
  65              		.size	USBUART_1_EP_1_ISR, .-USBUART_1_EP_1_ISR
  66              		.section	.text.USBUART_1_EP_2_ISR,"ax",%progbits
  67              		.align	2
  68              		.global	USBUART_1_EP_2_ISR
  69              		.thumb
  70              		.thumb_func
  71              		.type	USBUART_1_EP_2_ISR, %function
  72              	USBUART_1_EP_2_ISR:
  73              	.LFB1:
  84:.\Generated_Source\PSoC5/USBUART_1_episr.c ****                                                                     (uint8)~USBUART_1_SIE_EP_INT_EP
  85:.\Generated_Source\PSoC5/USBUART_1_episr.c **** 
  86:.\Generated_Source\PSoC5/USBUART_1_episr.c ****         #if (defined(USBUART_1_ENABLE_MIDI_STREAMING) && !defined(USBUART_1_MAIN_SERVICE_MIDI_OUT) 
  87:.\Generated_Source\PSoC5/USBUART_1_episr.c ****                      USBUART_1_ISR_SERVICE_MIDI_OUT)
  88:.\Generated_Source\PSoC5/USBUART_1_episr.c ****             if(USBUART_1_midi_out_ep == USBUART_1_EP1)
  89:.\Generated_Source\PSoC5/USBUART_1_episr.c ****             {
  90:.\Generated_Source\PSoC5/USBUART_1_episr.c ****                 USBUART_1_MIDI_OUT_EP_Service();
  91:.\Generated_Source\PSoC5/USBUART_1_episr.c ****             }
  92:.\Generated_Source\PSoC5/USBUART_1_episr.c ****         #endif /*  USBUART_1_ISR_SERVICE_MIDI_OUT */
  93:.\Generated_Source\PSoC5/USBUART_1_episr.c **** 
  94:.\Generated_Source\PSoC5/USBUART_1_episr.c ****         /* `#START EP1_END_USER_CODE` Place your code here */
  95:.\Generated_Source\PSoC5/USBUART_1_episr.c **** 
  96:.\Generated_Source\PSoC5/USBUART_1_episr.c ****         /* `#END` */
  97:.\Generated_Source\PSoC5/USBUART_1_episr.c **** 
  98:.\Generated_Source\PSoC5/USBUART_1_episr.c ****         #ifdef USBUART_1_EP_1_ISR_EXIT_CALLBACK
ARM GAS  C:\Users\Alex\AppData\Local\Temp\ccTbSRdB.s 			page 4


  99:.\Generated_Source\PSoC5/USBUART_1_episr.c ****             USBUART_1_EP_1_ISR_ExitCallback();
 100:.\Generated_Source\PSoC5/USBUART_1_episr.c ****         #endif /* USBUART_1_EP_1_ISR_EXIT_CALLBACK */
 101:.\Generated_Source\PSoC5/USBUART_1_episr.c **** 
 102:.\Generated_Source\PSoC5/USBUART_1_episr.c ****         #if (defined(USBUART_1_ENABLE_MIDI_STREAMING) && !defined(USBUART_1_MAIN_SERVICE_MIDI_OUT) 
 103:.\Generated_Source\PSoC5/USBUART_1_episr.c ****                      USBUART_1_ISR_SERVICE_MIDI_OUT && CY_PSOC3)
 104:.\Generated_Source\PSoC5/USBUART_1_episr.c ****             EA = int_en;
 105:.\Generated_Source\PSoC5/USBUART_1_episr.c ****         #endif /* USBUART_1_ISR_SERVICE_MIDI_OUT && CY_PSOC3 */
 106:.\Generated_Source\PSoC5/USBUART_1_episr.c ****     }
 107:.\Generated_Source\PSoC5/USBUART_1_episr.c **** 
 108:.\Generated_Source\PSoC5/USBUART_1_episr.c **** #endif   /*  USBUART_1_EP1_ISR_REMOVE */
 109:.\Generated_Source\PSoC5/USBUART_1_episr.c **** 
 110:.\Generated_Source\PSoC5/USBUART_1_episr.c **** 
 111:.\Generated_Source\PSoC5/USBUART_1_episr.c **** #if(USBUART_1_EP2_ISR_REMOVE == 0u)
 112:.\Generated_Source\PSoC5/USBUART_1_episr.c **** 
 113:.\Generated_Source\PSoC5/USBUART_1_episr.c ****     /*******************************************************************************
 114:.\Generated_Source\PSoC5/USBUART_1_episr.c ****     * Function Name: USBUART_1_EP_2_ISR
 115:.\Generated_Source\PSoC5/USBUART_1_episr.c ****     ********************************************************************************
 116:.\Generated_Source\PSoC5/USBUART_1_episr.c ****     *
 117:.\Generated_Source\PSoC5/USBUART_1_episr.c ****     * Summary:
 118:.\Generated_Source\PSoC5/USBUART_1_episr.c ****     *  Endpoint 2 Interrupt Service Routine
 119:.\Generated_Source\PSoC5/USBUART_1_episr.c ****     *
 120:.\Generated_Source\PSoC5/USBUART_1_episr.c ****     * Parameters:
 121:.\Generated_Source\PSoC5/USBUART_1_episr.c ****     *  None.
 122:.\Generated_Source\PSoC5/USBUART_1_episr.c ****     *
 123:.\Generated_Source\PSoC5/USBUART_1_episr.c ****     * Return:
 124:.\Generated_Source\PSoC5/USBUART_1_episr.c ****     *  None.
 125:.\Generated_Source\PSoC5/USBUART_1_episr.c ****     *
 126:.\Generated_Source\PSoC5/USBUART_1_episr.c ****     *******************************************************************************/
 127:.\Generated_Source\PSoC5/USBUART_1_episr.c ****     CY_ISR(USBUART_1_EP_2_ISR)
 128:.\Generated_Source\PSoC5/USBUART_1_episr.c ****     {
  74              		.loc 1 128 0
  75              		.cfi_startproc
  76              		@ args = 0, pretend = 0, frame = 0
  77              		@ frame_needed = 0, uses_anonymous_args = 0
  78              		@ link register save eliminated.
 129:.\Generated_Source\PSoC5/USBUART_1_episr.c ****         #if (defined(USBUART_1_ENABLE_MIDI_STREAMING) && !defined(USBUART_1_MAIN_SERVICE_MIDI_OUT) 
 130:.\Generated_Source\PSoC5/USBUART_1_episr.c ****                      USBUART_1_ISR_SERVICE_MIDI_OUT && CY_PSOC3)
 131:.\Generated_Source\PSoC5/USBUART_1_episr.c ****             uint8 int_en;
 132:.\Generated_Source\PSoC5/USBUART_1_episr.c ****         #endif /* USBUART_1_ISR_SERVICE_MIDI_OUT && CY_PSOC3 */
 133:.\Generated_Source\PSoC5/USBUART_1_episr.c **** 
 134:.\Generated_Source\PSoC5/USBUART_1_episr.c ****         #ifdef USBUART_1_EP_2_ISR_ENTRY_CALLBACK
 135:.\Generated_Source\PSoC5/USBUART_1_episr.c ****             USBUART_1_EP_2_ISR_EntryCallback();
 136:.\Generated_Source\PSoC5/USBUART_1_episr.c ****         #endif /* USBUART_1_EP_2_ISR_ENTRY_CALLBACK */
 137:.\Generated_Source\PSoC5/USBUART_1_episr.c **** 
 138:.\Generated_Source\PSoC5/USBUART_1_episr.c ****         /* `#START EP2_USER_CODE` Place your code here */
 139:.\Generated_Source\PSoC5/USBUART_1_episr.c **** 
 140:.\Generated_Source\PSoC5/USBUART_1_episr.c ****         /* `#END` */
 141:.\Generated_Source\PSoC5/USBUART_1_episr.c **** 
 142:.\Generated_Source\PSoC5/USBUART_1_episr.c ****         #if (defined(USBUART_1_ENABLE_MIDI_STREAMING) && !defined(USBUART_1_MAIN_SERVICE_MIDI_OUT) 
 143:.\Generated_Source\PSoC5/USBUART_1_episr.c ****                      USBUART_1_ISR_SERVICE_MIDI_OUT && CY_PSOC3)
 144:.\Generated_Source\PSoC5/USBUART_1_episr.c ****             int_en = EA;
 145:.\Generated_Source\PSoC5/USBUART_1_episr.c ****             CyGlobalIntEnable;  /* Make sure nested interrupt is enabled */
 146:.\Generated_Source\PSoC5/USBUART_1_episr.c ****         #endif /* USBUART_1_ISR_SERVICE_MIDI_OUT && CY_PSOC3 */
 147:.\Generated_Source\PSoC5/USBUART_1_episr.c **** 
 148:.\Generated_Source\PSoC5/USBUART_1_episr.c ****         CY_GET_REG8(USBUART_1_SIE_EP2_CR0_PTR); /* Must read the mode reg */
  79              		.loc 1 148 0
  80 0000 0A4B     		ldr	r3, .L7
ARM GAS  C:\Users\Alex\AppData\Local\Temp\ccTbSRdB.s 			page 5


  81 0002 1B78     		ldrb	r3, [r3]	@ zero_extendqisi2
 149:.\Generated_Source\PSoC5/USBUART_1_episr.c ****         /* Do not toggle ISOC endpoint */
 150:.\Generated_Source\PSoC5/USBUART_1_episr.c ****         if((USBUART_1_EP[USBUART_1_EP2].attrib & USBUART_1_EP_TYPE_MASK) !=
  82              		.loc 1 150 0
  83 0004 0A4B     		ldr	r3, .L7+4
  84 0006 1B7E     		ldrb	r3, [r3, #24]	@ zero_extendqisi2
  85 0008 03F00303 		and	r3, r3, #3
  86 000c 012B     		cmp	r3, #1
  87 000e 04D0     		beq	.L6
 151:.\Generated_Source\PSoC5/USBUART_1_episr.c ****                                                                                     USBUART_1_EP_TY
 152:.\Generated_Source\PSoC5/USBUART_1_episr.c ****         {
 153:.\Generated_Source\PSoC5/USBUART_1_episr.c ****             USBUART_1_EP[USBUART_1_EP2].epToggle ^= USBUART_1_EPX_CNT_DATA_TOGGLE;
  88              		.loc 1 153 0
  89 0010 074A     		ldr	r2, .L7+4
  90 0012 D37E     		ldrb	r3, [r2, #27]	@ zero_extendqisi2
  91 0014 83F08003 		eor	r3, r3, #128
  92 0018 D376     		strb	r3, [r2, #27]
  93              	.L6:
 154:.\Generated_Source\PSoC5/USBUART_1_episr.c ****         }
 155:.\Generated_Source\PSoC5/USBUART_1_episr.c ****         USBUART_1_EP[USBUART_1_EP2].apiEpState = USBUART_1_EVENT_PENDING;
  94              		.loc 1 155 0
  95 001a 0122     		movs	r2, #1
  96 001c 044B     		ldr	r3, .L7+4
  97 001e 5A76     		strb	r2, [r3, #25]
 156:.\Generated_Source\PSoC5/USBUART_1_episr.c ****         CY_SET_REG8(USBUART_1_SIE_EP_INT_SR_PTR, CY_GET_REG8(USBUART_1_SIE_EP_INT_SR_PTR)
  98              		.loc 1 156 0
  99 0020 044A     		ldr	r2, .L7+8
 100 0022 1378     		ldrb	r3, [r2]	@ zero_extendqisi2
 101 0024 03F0FD03 		and	r3, r3, #253
 102 0028 1370     		strb	r3, [r2]
 103 002a 7047     		bx	lr
 104              	.L8:
 105              		.align	2
 106              	.L7:
 107 002c 1E600040 		.word	1073766430
 108 0030 00000000 		.word	USBUART_1_EP
 109 0034 0B600040 		.word	1073766411
 110              		.cfi_endproc
 111              	.LFE1:
 112              		.size	USBUART_1_EP_2_ISR, .-USBUART_1_EP_2_ISR
 113              		.section	.text.USBUART_1_EP_3_ISR,"ax",%progbits
 114              		.align	2
 115              		.global	USBUART_1_EP_3_ISR
 116              		.thumb
 117              		.thumb_func
 118              		.type	USBUART_1_EP_3_ISR, %function
 119              	USBUART_1_EP_3_ISR:
 120              	.LFB2:
 157:.\Generated_Source\PSoC5/USBUART_1_episr.c ****                                                                         & (uint8)~USBUART_1_SIE_EP_
 158:.\Generated_Source\PSoC5/USBUART_1_episr.c **** 
 159:.\Generated_Source\PSoC5/USBUART_1_episr.c ****         #if (defined(USBUART_1_ENABLE_MIDI_STREAMING) && !defined(USBUART_1_MAIN_SERVICE_MIDI_OUT) 
 160:.\Generated_Source\PSoC5/USBUART_1_episr.c ****                      USBUART_1_ISR_SERVICE_MIDI_OUT)
 161:.\Generated_Source\PSoC5/USBUART_1_episr.c ****             if(USBUART_1_midi_out_ep == USBUART_1_EP2)
 162:.\Generated_Source\PSoC5/USBUART_1_episr.c ****             {
 163:.\Generated_Source\PSoC5/USBUART_1_episr.c ****                 USBUART_1_MIDI_OUT_EP_Service();
 164:.\Generated_Source\PSoC5/USBUART_1_episr.c ****             }
 165:.\Generated_Source\PSoC5/USBUART_1_episr.c ****         #endif /*  USBUART_1_ISR_SERVICE_MIDI_OUT */
ARM GAS  C:\Users\Alex\AppData\Local\Temp\ccTbSRdB.s 			page 6


 166:.\Generated_Source\PSoC5/USBUART_1_episr.c **** 
 167:.\Generated_Source\PSoC5/USBUART_1_episr.c ****         /* `#START EP2_END_USER_CODE` Place your code here */
 168:.\Generated_Source\PSoC5/USBUART_1_episr.c **** 
 169:.\Generated_Source\PSoC5/USBUART_1_episr.c ****         /* `#END` */
 170:.\Generated_Source\PSoC5/USBUART_1_episr.c **** 
 171:.\Generated_Source\PSoC5/USBUART_1_episr.c ****         #ifdef USBUART_1_EP_2_ISR_EXIT_CALLBACK
 172:.\Generated_Source\PSoC5/USBUART_1_episr.c ****             USBUART_1_EP_2_ISR_ExitCallback();
 173:.\Generated_Source\PSoC5/USBUART_1_episr.c ****         #endif /* USBUART_1_EP_2_ISR_EXIT_CALLBACK */
 174:.\Generated_Source\PSoC5/USBUART_1_episr.c ****         
 175:.\Generated_Source\PSoC5/USBUART_1_episr.c ****         #if (defined(USBUART_1_ENABLE_MIDI_STREAMING) && !defined(USBUART_1_MAIN_SERVICE_MIDI_OUT) 
 176:.\Generated_Source\PSoC5/USBUART_1_episr.c ****                      USBUART_1_ISR_SERVICE_MIDI_OUT && CY_PSOC3)
 177:.\Generated_Source\PSoC5/USBUART_1_episr.c ****             EA = int_en;
 178:.\Generated_Source\PSoC5/USBUART_1_episr.c ****         #endif /* USBUART_1_ISR_SERVICE_MIDI_OUT && CY_PSOC3 */
 179:.\Generated_Source\PSoC5/USBUART_1_episr.c ****     }
 180:.\Generated_Source\PSoC5/USBUART_1_episr.c **** 
 181:.\Generated_Source\PSoC5/USBUART_1_episr.c **** #endif   /*  USBUART_1_EP2_ISR_REMOVE */
 182:.\Generated_Source\PSoC5/USBUART_1_episr.c **** 
 183:.\Generated_Source\PSoC5/USBUART_1_episr.c **** 
 184:.\Generated_Source\PSoC5/USBUART_1_episr.c **** #if(USBUART_1_EP3_ISR_REMOVE == 0u)
 185:.\Generated_Source\PSoC5/USBUART_1_episr.c **** 
 186:.\Generated_Source\PSoC5/USBUART_1_episr.c ****     /*******************************************************************************
 187:.\Generated_Source\PSoC5/USBUART_1_episr.c ****     * Function Name: USBUART_1_EP_3_ISR
 188:.\Generated_Source\PSoC5/USBUART_1_episr.c ****     ********************************************************************************
 189:.\Generated_Source\PSoC5/USBUART_1_episr.c ****     *
 190:.\Generated_Source\PSoC5/USBUART_1_episr.c ****     * Summary:
 191:.\Generated_Source\PSoC5/USBUART_1_episr.c ****     *  Endpoint 3 Interrupt Service Routine
 192:.\Generated_Source\PSoC5/USBUART_1_episr.c ****     *
 193:.\Generated_Source\PSoC5/USBUART_1_episr.c ****     * Parameters:
 194:.\Generated_Source\PSoC5/USBUART_1_episr.c ****     *  None.
 195:.\Generated_Source\PSoC5/USBUART_1_episr.c ****     *
 196:.\Generated_Source\PSoC5/USBUART_1_episr.c ****     * Return:
 197:.\Generated_Source\PSoC5/USBUART_1_episr.c ****     *  None.
 198:.\Generated_Source\PSoC5/USBUART_1_episr.c ****     *
 199:.\Generated_Source\PSoC5/USBUART_1_episr.c ****     *******************************************************************************/
 200:.\Generated_Source\PSoC5/USBUART_1_episr.c ****     CY_ISR(USBUART_1_EP_3_ISR)
 201:.\Generated_Source\PSoC5/USBUART_1_episr.c ****     {
 121              		.loc 1 201 0
 122              		.cfi_startproc
 123              		@ args = 0, pretend = 0, frame = 0
 124              		@ frame_needed = 0, uses_anonymous_args = 0
 125              		@ link register save eliminated.
 202:.\Generated_Source\PSoC5/USBUART_1_episr.c ****         #if (defined(USBUART_1_ENABLE_MIDI_STREAMING) && !defined(USBUART_1_MAIN_SERVICE_MIDI_OUT) 
 203:.\Generated_Source\PSoC5/USBUART_1_episr.c ****                      USBUART_1_ISR_SERVICE_MIDI_OUT && CY_PSOC3)
 204:.\Generated_Source\PSoC5/USBUART_1_episr.c ****             uint8 int_en;
 205:.\Generated_Source\PSoC5/USBUART_1_episr.c ****         #endif /* USBUART_1_ISR_SERVICE_MIDI_OUT && CY_PSOC3 */
 206:.\Generated_Source\PSoC5/USBUART_1_episr.c **** 
 207:.\Generated_Source\PSoC5/USBUART_1_episr.c ****         #ifdef USBUART_1_EP_3_ISR_ENTRY_CALLBACK
 208:.\Generated_Source\PSoC5/USBUART_1_episr.c ****             USBUART_1_EP_3_ISR_EntryCallback();
 209:.\Generated_Source\PSoC5/USBUART_1_episr.c ****         #endif /* USBUART_1_EP_3_ISR_ENTRY_CALLBACK */
 210:.\Generated_Source\PSoC5/USBUART_1_episr.c **** 
 211:.\Generated_Source\PSoC5/USBUART_1_episr.c ****         /* `#START EP3_USER_CODE` Place your code here */
 212:.\Generated_Source\PSoC5/USBUART_1_episr.c **** 
 213:.\Generated_Source\PSoC5/USBUART_1_episr.c ****         /* `#END` */
 214:.\Generated_Source\PSoC5/USBUART_1_episr.c **** 
 215:.\Generated_Source\PSoC5/USBUART_1_episr.c ****         #if (defined(USBUART_1_ENABLE_MIDI_STREAMING) && !defined(USBUART_1_MAIN_SERVICE_MIDI_OUT) 
 216:.\Generated_Source\PSoC5/USBUART_1_episr.c ****                      USBUART_1_ISR_SERVICE_MIDI_OUT && CY_PSOC3)
 217:.\Generated_Source\PSoC5/USBUART_1_episr.c ****             int_en = EA;
ARM GAS  C:\Users\Alex\AppData\Local\Temp\ccTbSRdB.s 			page 7


 218:.\Generated_Source\PSoC5/USBUART_1_episr.c ****             CyGlobalIntEnable;  /* Make sure nested interrupt is enabled */
 219:.\Generated_Source\PSoC5/USBUART_1_episr.c ****         #endif /* CY_PSOC3 & USBUART_1_ISR_SERVICE_MIDI_OUT  */
 220:.\Generated_Source\PSoC5/USBUART_1_episr.c **** 
 221:.\Generated_Source\PSoC5/USBUART_1_episr.c ****         CY_GET_REG8(USBUART_1_SIE_EP3_CR0_PTR); /* Must read the mode reg */
 126              		.loc 1 221 0
 127 0000 0C4B     		ldr	r3, .L11
 128 0002 1B78     		ldrb	r3, [r3]	@ zero_extendqisi2
 222:.\Generated_Source\PSoC5/USBUART_1_episr.c ****         /* Do not toggle ISOC endpoint */
 223:.\Generated_Source\PSoC5/USBUART_1_episr.c ****         if((USBUART_1_EP[USBUART_1_EP3].attrib & USBUART_1_EP_TYPE_MASK) !=
 129              		.loc 1 223 0
 130 0004 0C4B     		ldr	r3, .L11+4
 131 0006 93F82430 		ldrb	r3, [r3, #36]	@ zero_extendqisi2
 132 000a 03F00303 		and	r3, r3, #3
 133 000e 012B     		cmp	r3, #1
 134 0010 06D0     		beq	.L10
 224:.\Generated_Source\PSoC5/USBUART_1_episr.c ****                                                                                     USBUART_1_EP_TY
 225:.\Generated_Source\PSoC5/USBUART_1_episr.c ****         {
 226:.\Generated_Source\PSoC5/USBUART_1_episr.c ****             USBUART_1_EP[USBUART_1_EP3].epToggle ^= USBUART_1_EPX_CNT_DATA_TOGGLE;
 135              		.loc 1 226 0
 136 0012 094A     		ldr	r2, .L11+4
 137 0014 92F82730 		ldrb	r3, [r2, #39]	@ zero_extendqisi2
 138 0018 83F08003 		eor	r3, r3, #128
 139 001c 82F82730 		strb	r3, [r2, #39]
 140              	.L10:
 227:.\Generated_Source\PSoC5/USBUART_1_episr.c ****         }
 228:.\Generated_Source\PSoC5/USBUART_1_episr.c ****         USBUART_1_EP[USBUART_1_EP3].apiEpState = USBUART_1_EVENT_PENDING;
 141              		.loc 1 228 0
 142 0020 0122     		movs	r2, #1
 143 0022 054B     		ldr	r3, .L11+4
 144 0024 83F82520 		strb	r2, [r3, #37]
 229:.\Generated_Source\PSoC5/USBUART_1_episr.c ****         CY_SET_REG8(USBUART_1_SIE_EP_INT_SR_PTR, CY_GET_REG8(USBUART_1_SIE_EP_INT_SR_PTR)
 145              		.loc 1 229 0
 146 0028 044A     		ldr	r2, .L11+8
 147 002a 1378     		ldrb	r3, [r2]	@ zero_extendqisi2
 148 002c 03F0FB03 		and	r3, r3, #251
 149 0030 1370     		strb	r3, [r2]
 150 0032 7047     		bx	lr
 151              	.L12:
 152              		.align	2
 153              	.L11:
 154 0034 2E600040 		.word	1073766446
 155 0038 00000000 		.word	USBUART_1_EP
 156 003c 0B600040 		.word	1073766411
 157              		.cfi_endproc
 158              	.LFE2:
 159              		.size	USBUART_1_EP_3_ISR, .-USBUART_1_EP_3_ISR
 160              		.section	.text.USBUART_1_SOF_ISR,"ax",%progbits
 161              		.align	2
 162              		.global	USBUART_1_SOF_ISR
 163              		.thumb
 164              		.thumb_func
 165              		.type	USBUART_1_SOF_ISR, %function
 166              	USBUART_1_SOF_ISR:
 167              	.LFB3:
 230:.\Generated_Source\PSoC5/USBUART_1_episr.c ****                                                                         & (uint8)~USBUART_1_SIE_EP_
 231:.\Generated_Source\PSoC5/USBUART_1_episr.c **** 
 232:.\Generated_Source\PSoC5/USBUART_1_episr.c ****         #if (defined(USBUART_1_ENABLE_MIDI_STREAMING) && !defined(USBUART_1_MAIN_SERVICE_MIDI_OUT) 
ARM GAS  C:\Users\Alex\AppData\Local\Temp\ccTbSRdB.s 			page 8


 233:.\Generated_Source\PSoC5/USBUART_1_episr.c ****                      USBUART_1_ISR_SERVICE_MIDI_OUT)
 234:.\Generated_Source\PSoC5/USBUART_1_episr.c ****             if(USBUART_1_midi_out_ep == USBUART_1_EP3)
 235:.\Generated_Source\PSoC5/USBUART_1_episr.c ****             {
 236:.\Generated_Source\PSoC5/USBUART_1_episr.c ****                 USBUART_1_MIDI_OUT_EP_Service();
 237:.\Generated_Source\PSoC5/USBUART_1_episr.c ****             }
 238:.\Generated_Source\PSoC5/USBUART_1_episr.c ****         #endif /*  USBUART_1_ISR_SERVICE_MIDI_OUT */
 239:.\Generated_Source\PSoC5/USBUART_1_episr.c **** 
 240:.\Generated_Source\PSoC5/USBUART_1_episr.c ****         /* `#START EP3_END_USER_CODE` Place your code here */
 241:.\Generated_Source\PSoC5/USBUART_1_episr.c **** 
 242:.\Generated_Source\PSoC5/USBUART_1_episr.c ****         /* `#END` */
 243:.\Generated_Source\PSoC5/USBUART_1_episr.c **** 
 244:.\Generated_Source\PSoC5/USBUART_1_episr.c ****         #ifdef USBUART_1_EP_3_ISR_EXIT_CALLBACK
 245:.\Generated_Source\PSoC5/USBUART_1_episr.c ****             USBUART_1_EP_3_ISR_ExitCallback();
 246:.\Generated_Source\PSoC5/USBUART_1_episr.c ****         #endif /* USBUART_1_EP_3_ISR_EXIT_CALLBACK */
 247:.\Generated_Source\PSoC5/USBUART_1_episr.c **** 
 248:.\Generated_Source\PSoC5/USBUART_1_episr.c ****         #if (defined(USBUART_1_ENABLE_MIDI_STREAMING) && !defined(USBUART_1_MAIN_SERVICE_MIDI_OUT) 
 249:.\Generated_Source\PSoC5/USBUART_1_episr.c ****                      USBUART_1_ISR_SERVICE_MIDI_OUT && CY_PSOC3)
 250:.\Generated_Source\PSoC5/USBUART_1_episr.c ****             EA = int_en;
 251:.\Generated_Source\PSoC5/USBUART_1_episr.c ****         #endif /* CY_PSOC3 & USBUART_1_ISR_SERVICE_MIDI_OUT  */
 252:.\Generated_Source\PSoC5/USBUART_1_episr.c ****     }
 253:.\Generated_Source\PSoC5/USBUART_1_episr.c **** 
 254:.\Generated_Source\PSoC5/USBUART_1_episr.c **** #endif   /*  USBUART_1_EP3_ISR_REMOVE */
 255:.\Generated_Source\PSoC5/USBUART_1_episr.c **** 
 256:.\Generated_Source\PSoC5/USBUART_1_episr.c **** 
 257:.\Generated_Source\PSoC5/USBUART_1_episr.c **** #if(USBUART_1_EP4_ISR_REMOVE == 0u)
 258:.\Generated_Source\PSoC5/USBUART_1_episr.c **** 
 259:.\Generated_Source\PSoC5/USBUART_1_episr.c ****     /*******************************************************************************
 260:.\Generated_Source\PSoC5/USBUART_1_episr.c ****     * Function Name: USBUART_1_EP_4_ISR
 261:.\Generated_Source\PSoC5/USBUART_1_episr.c ****     ********************************************************************************
 262:.\Generated_Source\PSoC5/USBUART_1_episr.c ****     *
 263:.\Generated_Source\PSoC5/USBUART_1_episr.c ****     * Summary:
 264:.\Generated_Source\PSoC5/USBUART_1_episr.c ****     *  Endpoint 4 Interrupt Service Routine
 265:.\Generated_Source\PSoC5/USBUART_1_episr.c ****     *
 266:.\Generated_Source\PSoC5/USBUART_1_episr.c ****     * Parameters:
 267:.\Generated_Source\PSoC5/USBUART_1_episr.c ****     *  None.
 268:.\Generated_Source\PSoC5/USBUART_1_episr.c ****     *
 269:.\Generated_Source\PSoC5/USBUART_1_episr.c ****     * Return:
 270:.\Generated_Source\PSoC5/USBUART_1_episr.c ****     *  None.
 271:.\Generated_Source\PSoC5/USBUART_1_episr.c ****     *
 272:.\Generated_Source\PSoC5/USBUART_1_episr.c ****     *******************************************************************************/
 273:.\Generated_Source\PSoC5/USBUART_1_episr.c ****     CY_ISR(USBUART_1_EP_4_ISR)
 274:.\Generated_Source\PSoC5/USBUART_1_episr.c ****     {
 275:.\Generated_Source\PSoC5/USBUART_1_episr.c ****         #if (defined(USBUART_1_ENABLE_MIDI_STREAMING) && !defined(USBUART_1_MAIN_SERVICE_MIDI_OUT) 
 276:.\Generated_Source\PSoC5/USBUART_1_episr.c ****                      USBUART_1_ISR_SERVICE_MIDI_OUT && CY_PSOC3)
 277:.\Generated_Source\PSoC5/USBUART_1_episr.c ****             uint8 int_en;
 278:.\Generated_Source\PSoC5/USBUART_1_episr.c ****         #endif /* CY_PSOC3 & USBUART_1_ISR_SERVICE_MIDI_OUT  */
 279:.\Generated_Source\PSoC5/USBUART_1_episr.c **** 
 280:.\Generated_Source\PSoC5/USBUART_1_episr.c ****         #ifdef USBUART_1_EP_4_ISR_ENTRY_CALLBACK
 281:.\Generated_Source\PSoC5/USBUART_1_episr.c ****             USBUART_1_EP_4_ISR_EntryCallback();
 282:.\Generated_Source\PSoC5/USBUART_1_episr.c ****         #endif /* USBUART_1_EP_4_ISR_ENTRY_CALLBACK */
 283:.\Generated_Source\PSoC5/USBUART_1_episr.c **** 
 284:.\Generated_Source\PSoC5/USBUART_1_episr.c ****         /* `#START EP4_USER_CODE` Place your code here */
 285:.\Generated_Source\PSoC5/USBUART_1_episr.c **** 
 286:.\Generated_Source\PSoC5/USBUART_1_episr.c ****         /* `#END` */
 287:.\Generated_Source\PSoC5/USBUART_1_episr.c **** 
 288:.\Generated_Source\PSoC5/USBUART_1_episr.c ****         #if (defined(USBUART_1_ENABLE_MIDI_STREAMING) && !defined(USBUART_1_MAIN_SERVICE_MIDI_OUT) 
 289:.\Generated_Source\PSoC5/USBUART_1_episr.c ****                      USBUART_1_ISR_SERVICE_MIDI_OUT && CY_PSOC3)
ARM GAS  C:\Users\Alex\AppData\Local\Temp\ccTbSRdB.s 			page 9


 290:.\Generated_Source\PSoC5/USBUART_1_episr.c ****             int_en = EA;
 291:.\Generated_Source\PSoC5/USBUART_1_episr.c ****             CyGlobalIntEnable;  /* Make sure nested interrupt is enabled */
 292:.\Generated_Source\PSoC5/USBUART_1_episr.c ****         #endif /* CY_PSOC3 & USBUART_1_ISR_SERVICE_MIDI_OUT  */
 293:.\Generated_Source\PSoC5/USBUART_1_episr.c **** 
 294:.\Generated_Source\PSoC5/USBUART_1_episr.c ****         CY_GET_REG8(USBUART_1_SIE_EP4_CR0_PTR); /* Must read the mode reg */
 295:.\Generated_Source\PSoC5/USBUART_1_episr.c ****         /* Do not toggle ISOC endpoint */
 296:.\Generated_Source\PSoC5/USBUART_1_episr.c ****         if((USBUART_1_EP[USBUART_1_EP4].attrib & USBUART_1_EP_TYPE_MASK) !=
 297:.\Generated_Source\PSoC5/USBUART_1_episr.c ****                                                                                     USBUART_1_EP_TY
 298:.\Generated_Source\PSoC5/USBUART_1_episr.c ****         {
 299:.\Generated_Source\PSoC5/USBUART_1_episr.c ****             USBUART_1_EP[USBUART_1_EP4].epToggle ^= USBUART_1_EPX_CNT_DATA_TOGGLE;
 300:.\Generated_Source\PSoC5/USBUART_1_episr.c ****         }
 301:.\Generated_Source\PSoC5/USBUART_1_episr.c ****         USBUART_1_EP[USBUART_1_EP4].apiEpState = USBUART_1_EVENT_PENDING;
 302:.\Generated_Source\PSoC5/USBUART_1_episr.c ****         CY_SET_REG8(USBUART_1_SIE_EP_INT_SR_PTR, CY_GET_REG8(USBUART_1_SIE_EP_INT_SR_PTR)
 303:.\Generated_Source\PSoC5/USBUART_1_episr.c ****                                                                         & (uint8)~USBUART_1_SIE_EP_
 304:.\Generated_Source\PSoC5/USBUART_1_episr.c **** 
 305:.\Generated_Source\PSoC5/USBUART_1_episr.c ****         #if (defined(USBUART_1_ENABLE_MIDI_STREAMING) && !defined(USBUART_1_MAIN_SERVICE_MIDI_OUT) 
 306:.\Generated_Source\PSoC5/USBUART_1_episr.c ****                      USBUART_1_ISR_SERVICE_MIDI_OUT)
 307:.\Generated_Source\PSoC5/USBUART_1_episr.c ****             if(USBUART_1_midi_out_ep == USBUART_1_EP4)
 308:.\Generated_Source\PSoC5/USBUART_1_episr.c ****             {
 309:.\Generated_Source\PSoC5/USBUART_1_episr.c ****                 USBUART_1_MIDI_OUT_EP_Service();
 310:.\Generated_Source\PSoC5/USBUART_1_episr.c ****             }
 311:.\Generated_Source\PSoC5/USBUART_1_episr.c ****         #endif /*  USBUART_1_ISR_SERVICE_MIDI_OUT */
 312:.\Generated_Source\PSoC5/USBUART_1_episr.c **** 
 313:.\Generated_Source\PSoC5/USBUART_1_episr.c ****         /* `#START EP4_END_USER_CODE` Place your code here */
 314:.\Generated_Source\PSoC5/USBUART_1_episr.c **** 
 315:.\Generated_Source\PSoC5/USBUART_1_episr.c ****         /* `#END` */
 316:.\Generated_Source\PSoC5/USBUART_1_episr.c **** 
 317:.\Generated_Source\PSoC5/USBUART_1_episr.c ****         #ifdef USBUART_1_EP_4_ISR_EXIT_CALLBACK
 318:.\Generated_Source\PSoC5/USBUART_1_episr.c ****             USBUART_1_EP_4_ISR_ExitCallback();
 319:.\Generated_Source\PSoC5/USBUART_1_episr.c ****         #endif /* USBUART_1_EP_4_ISR_EXIT_CALLBACK */
 320:.\Generated_Source\PSoC5/USBUART_1_episr.c **** 
 321:.\Generated_Source\PSoC5/USBUART_1_episr.c ****         #if (defined(USBUART_1_ENABLE_MIDI_STREAMING) && !defined(USBUART_1_MAIN_SERVICE_MIDI_OUT) 
 322:.\Generated_Source\PSoC5/USBUART_1_episr.c ****                      USBUART_1_ISR_SERVICE_MIDI_OUT && CY_PSOC3)
 323:.\Generated_Source\PSoC5/USBUART_1_episr.c ****             EA = int_en;
 324:.\Generated_Source\PSoC5/USBUART_1_episr.c ****         #endif /* CY_PSOC3 & USBUART_1_ISR_SERVICE_MIDI_OUT  */
 325:.\Generated_Source\PSoC5/USBUART_1_episr.c ****     }
 326:.\Generated_Source\PSoC5/USBUART_1_episr.c **** 
 327:.\Generated_Source\PSoC5/USBUART_1_episr.c **** #endif   /*  USBUART_1_EP4_ISR_REMOVE */
 328:.\Generated_Source\PSoC5/USBUART_1_episr.c **** 
 329:.\Generated_Source\PSoC5/USBUART_1_episr.c **** 
 330:.\Generated_Source\PSoC5/USBUART_1_episr.c **** #if(USBUART_1_EP5_ISR_REMOVE == 0u)
 331:.\Generated_Source\PSoC5/USBUART_1_episr.c **** 
 332:.\Generated_Source\PSoC5/USBUART_1_episr.c ****     /*******************************************************************************
 333:.\Generated_Source\PSoC5/USBUART_1_episr.c ****     * Function Name: USBUART_1_EP_5_ISR
 334:.\Generated_Source\PSoC5/USBUART_1_episr.c ****     ********************************************************************************
 335:.\Generated_Source\PSoC5/USBUART_1_episr.c ****     *
 336:.\Generated_Source\PSoC5/USBUART_1_episr.c ****     * Summary:
 337:.\Generated_Source\PSoC5/USBUART_1_episr.c ****     *  Endpoint 5 Interrupt Service Routine
 338:.\Generated_Source\PSoC5/USBUART_1_episr.c ****     *
 339:.\Generated_Source\PSoC5/USBUART_1_episr.c ****     * Parameters:
 340:.\Generated_Source\PSoC5/USBUART_1_episr.c ****     *  None.
 341:.\Generated_Source\PSoC5/USBUART_1_episr.c ****     *
 342:.\Generated_Source\PSoC5/USBUART_1_episr.c ****     * Return:
 343:.\Generated_Source\PSoC5/USBUART_1_episr.c ****     *  None.
 344:.\Generated_Source\PSoC5/USBUART_1_episr.c ****     *
 345:.\Generated_Source\PSoC5/USBUART_1_episr.c ****     *******************************************************************************/
 346:.\Generated_Source\PSoC5/USBUART_1_episr.c ****     CY_ISR(USBUART_1_EP_5_ISR)
ARM GAS  C:\Users\Alex\AppData\Local\Temp\ccTbSRdB.s 			page 10


 347:.\Generated_Source\PSoC5/USBUART_1_episr.c ****     {
 348:.\Generated_Source\PSoC5/USBUART_1_episr.c ****         #if (defined(USBUART_1_ENABLE_MIDI_STREAMING) && !defined(USBUART_1_MAIN_SERVICE_MIDI_OUT) 
 349:.\Generated_Source\PSoC5/USBUART_1_episr.c ****                      USBUART_1_ISR_SERVICE_MIDI_OUT && CY_PSOC3)
 350:.\Generated_Source\PSoC5/USBUART_1_episr.c ****             uint8 int_en;
 351:.\Generated_Source\PSoC5/USBUART_1_episr.c ****         #endif /* CY_PSOC3 & USBUART_1_ISR_SERVICE_MIDI_OUT  */
 352:.\Generated_Source\PSoC5/USBUART_1_episr.c **** 
 353:.\Generated_Source\PSoC5/USBUART_1_episr.c ****         #ifdef USBUART_1_EP_5_ISR_ENTRY_CALLBACK
 354:.\Generated_Source\PSoC5/USBUART_1_episr.c ****             USBUART_1_EP_5_ISR_EntryCallback();
 355:.\Generated_Source\PSoC5/USBUART_1_episr.c ****         #endif /* USBUART_1_EP_5_ISR_ENTRY_CALLBACK */
 356:.\Generated_Source\PSoC5/USBUART_1_episr.c **** 
 357:.\Generated_Source\PSoC5/USBUART_1_episr.c ****         /* `#START EP5_USER_CODE` Place your code here */
 358:.\Generated_Source\PSoC5/USBUART_1_episr.c **** 
 359:.\Generated_Source\PSoC5/USBUART_1_episr.c ****         /* `#END` */
 360:.\Generated_Source\PSoC5/USBUART_1_episr.c **** 
 361:.\Generated_Source\PSoC5/USBUART_1_episr.c ****         #if (defined(USBUART_1_ENABLE_MIDI_STREAMING) && !defined(USBUART_1_MAIN_SERVICE_MIDI_OUT) 
 362:.\Generated_Source\PSoC5/USBUART_1_episr.c ****                      USBUART_1_ISR_SERVICE_MIDI_OUT && CY_PSOC3)
 363:.\Generated_Source\PSoC5/USBUART_1_episr.c ****             int_en = EA;
 364:.\Generated_Source\PSoC5/USBUART_1_episr.c ****             CyGlobalIntEnable;  /* Make sure nested interrupt is enabled */
 365:.\Generated_Source\PSoC5/USBUART_1_episr.c ****         #endif /* CY_PSOC3 & USBUART_1_ISR_SERVICE_MIDI_OUT  */
 366:.\Generated_Source\PSoC5/USBUART_1_episr.c **** 
 367:.\Generated_Source\PSoC5/USBUART_1_episr.c ****         CY_GET_REG8(USBUART_1_SIE_EP5_CR0_PTR); /* Must read the mode reg */
 368:.\Generated_Source\PSoC5/USBUART_1_episr.c ****         /* Do not toggle ISOC endpoint */
 369:.\Generated_Source\PSoC5/USBUART_1_episr.c ****         if((USBUART_1_EP[USBUART_1_EP5].attrib & USBUART_1_EP_TYPE_MASK) !=
 370:.\Generated_Source\PSoC5/USBUART_1_episr.c ****                                                                                     USBUART_1_EP_TY
 371:.\Generated_Source\PSoC5/USBUART_1_episr.c ****         {
 372:.\Generated_Source\PSoC5/USBUART_1_episr.c ****             USBUART_1_EP[USBUART_1_EP5].epToggle ^= USBUART_1_EPX_CNT_DATA_TOGGLE;
 373:.\Generated_Source\PSoC5/USBUART_1_episr.c ****         }
 374:.\Generated_Source\PSoC5/USBUART_1_episr.c ****         USBUART_1_EP[USBUART_1_EP5].apiEpState = USBUART_1_EVENT_PENDING;
 375:.\Generated_Source\PSoC5/USBUART_1_episr.c ****         CY_SET_REG8(USBUART_1_SIE_EP_INT_SR_PTR, CY_GET_REG8(USBUART_1_SIE_EP_INT_SR_PTR)
 376:.\Generated_Source\PSoC5/USBUART_1_episr.c ****                                                                         & (uint8)~USBUART_1_SIE_EP_
 377:.\Generated_Source\PSoC5/USBUART_1_episr.c **** 
 378:.\Generated_Source\PSoC5/USBUART_1_episr.c ****         #if (defined(USBUART_1_ENABLE_MIDI_STREAMING) && !defined(USBUART_1_MAIN_SERVICE_MIDI_OUT) 
 379:.\Generated_Source\PSoC5/USBUART_1_episr.c ****                      USBUART_1_ISR_SERVICE_MIDI_OUT)
 380:.\Generated_Source\PSoC5/USBUART_1_episr.c ****             if(USBUART_1_midi_out_ep == USBUART_1_EP5)
 381:.\Generated_Source\PSoC5/USBUART_1_episr.c ****             {
 382:.\Generated_Source\PSoC5/USBUART_1_episr.c ****                 USBUART_1_MIDI_OUT_EP_Service();
 383:.\Generated_Source\PSoC5/USBUART_1_episr.c ****             }
 384:.\Generated_Source\PSoC5/USBUART_1_episr.c ****         #endif /*  USBUART_1_ISR_SERVICE_MIDI_OUT */
 385:.\Generated_Source\PSoC5/USBUART_1_episr.c **** 
 386:.\Generated_Source\PSoC5/USBUART_1_episr.c ****         /* `#START EP5_END_USER_CODE` Place your code here */
 387:.\Generated_Source\PSoC5/USBUART_1_episr.c **** 
 388:.\Generated_Source\PSoC5/USBUART_1_episr.c ****         /* `#END` */
 389:.\Generated_Source\PSoC5/USBUART_1_episr.c **** 
 390:.\Generated_Source\PSoC5/USBUART_1_episr.c ****         #ifdef USBUART_1_EP_5_ISR_EXIT_CALLBACK
 391:.\Generated_Source\PSoC5/USBUART_1_episr.c ****             USBUART_1_EP_5_ISR_ExitCallback();
 392:.\Generated_Source\PSoC5/USBUART_1_episr.c ****         #endif /* USBUART_1_EP_5_ISR_EXIT_CALLBACK */
 393:.\Generated_Source\PSoC5/USBUART_1_episr.c **** 
 394:.\Generated_Source\PSoC5/USBUART_1_episr.c ****         #if (defined(USBUART_1_ENABLE_MIDI_STREAMING) && !defined(USBUART_1_MAIN_SERVICE_MIDI_OUT) 
 395:.\Generated_Source\PSoC5/USBUART_1_episr.c ****                      USBUART_1_ISR_SERVICE_MIDI_OUT && CY_PSOC3)
 396:.\Generated_Source\PSoC5/USBUART_1_episr.c ****             EA = int_en;
 397:.\Generated_Source\PSoC5/USBUART_1_episr.c ****         #endif /* CY_PSOC3 & USBUART_1_ISR_SERVICE_MIDI_OUT  */
 398:.\Generated_Source\PSoC5/USBUART_1_episr.c ****     }
 399:.\Generated_Source\PSoC5/USBUART_1_episr.c **** #endif   /*  USBUART_1_EP5_ISR_REMOVE */
 400:.\Generated_Source\PSoC5/USBUART_1_episr.c **** 
 401:.\Generated_Source\PSoC5/USBUART_1_episr.c **** 
 402:.\Generated_Source\PSoC5/USBUART_1_episr.c **** #if(USBUART_1_EP6_ISR_REMOVE == 0u)
 403:.\Generated_Source\PSoC5/USBUART_1_episr.c **** 
ARM GAS  C:\Users\Alex\AppData\Local\Temp\ccTbSRdB.s 			page 11


 404:.\Generated_Source\PSoC5/USBUART_1_episr.c ****     /*******************************************************************************
 405:.\Generated_Source\PSoC5/USBUART_1_episr.c ****     * Function Name: USBUART_1_EP_6_ISR
 406:.\Generated_Source\PSoC5/USBUART_1_episr.c ****     ********************************************************************************
 407:.\Generated_Source\PSoC5/USBUART_1_episr.c ****     *
 408:.\Generated_Source\PSoC5/USBUART_1_episr.c ****     * Summary:
 409:.\Generated_Source\PSoC5/USBUART_1_episr.c ****     *  Endpoint 6 Interrupt Service Routine
 410:.\Generated_Source\PSoC5/USBUART_1_episr.c ****     *
 411:.\Generated_Source\PSoC5/USBUART_1_episr.c ****     * Parameters:
 412:.\Generated_Source\PSoC5/USBUART_1_episr.c ****     *  None.
 413:.\Generated_Source\PSoC5/USBUART_1_episr.c ****     *
 414:.\Generated_Source\PSoC5/USBUART_1_episr.c ****     * Return:
 415:.\Generated_Source\PSoC5/USBUART_1_episr.c ****     *  None.
 416:.\Generated_Source\PSoC5/USBUART_1_episr.c ****     *
 417:.\Generated_Source\PSoC5/USBUART_1_episr.c ****     *******************************************************************************/
 418:.\Generated_Source\PSoC5/USBUART_1_episr.c ****     CY_ISR(USBUART_1_EP_6_ISR)
 419:.\Generated_Source\PSoC5/USBUART_1_episr.c ****     {
 420:.\Generated_Source\PSoC5/USBUART_1_episr.c ****         #if (defined(USBUART_1_ENABLE_MIDI_STREAMING) && !defined(USBUART_1_MAIN_SERVICE_MIDI_OUT) 
 421:.\Generated_Source\PSoC5/USBUART_1_episr.c ****                      USBUART_1_ISR_SERVICE_MIDI_OUT && CY_PSOC3)
 422:.\Generated_Source\PSoC5/USBUART_1_episr.c ****             uint8 int_en;
 423:.\Generated_Source\PSoC5/USBUART_1_episr.c ****         #endif /* CY_PSOC3 & USBUART_1_ISR_SERVICE_MIDI_OUT  */
 424:.\Generated_Source\PSoC5/USBUART_1_episr.c **** 
 425:.\Generated_Source\PSoC5/USBUART_1_episr.c ****         #ifdef USBUART_1_EP_6_ISR_ENTRY_CALLBACK
 426:.\Generated_Source\PSoC5/USBUART_1_episr.c ****             USBUART_1_EP_6_ISR_EntryCallback();
 427:.\Generated_Source\PSoC5/USBUART_1_episr.c ****         #endif /* USBUART_1_EP_6_ISR_ENTRY_CALLBACK */
 428:.\Generated_Source\PSoC5/USBUART_1_episr.c **** 
 429:.\Generated_Source\PSoC5/USBUART_1_episr.c ****         /* `#START EP6_USER_CODE` Place your code here */
 430:.\Generated_Source\PSoC5/USBUART_1_episr.c **** 
 431:.\Generated_Source\PSoC5/USBUART_1_episr.c ****         /* `#END` */
 432:.\Generated_Source\PSoC5/USBUART_1_episr.c **** 
 433:.\Generated_Source\PSoC5/USBUART_1_episr.c ****         #if (defined(USBUART_1_ENABLE_MIDI_STREAMING) && !defined(USBUART_1_MAIN_SERVICE_MIDI_OUT) 
 434:.\Generated_Source\PSoC5/USBUART_1_episr.c ****                      USBUART_1_ISR_SERVICE_MIDI_OUT && CY_PSOC3)
 435:.\Generated_Source\PSoC5/USBUART_1_episr.c ****             int_en = EA;
 436:.\Generated_Source\PSoC5/USBUART_1_episr.c ****             CyGlobalIntEnable;  /* Make sure nested interrupt is enabled */
 437:.\Generated_Source\PSoC5/USBUART_1_episr.c ****         #endif /* CY_PSOC3 & USBUART_1_ISR_SERVICE_MIDI_OUT  */
 438:.\Generated_Source\PSoC5/USBUART_1_episr.c **** 
 439:.\Generated_Source\PSoC5/USBUART_1_episr.c ****         CY_GET_REG8(USBUART_1_SIE_EP6_CR0_PTR); /* Must read the mode reg */
 440:.\Generated_Source\PSoC5/USBUART_1_episr.c ****         /* Do not toggle ISOC endpoint */
 441:.\Generated_Source\PSoC5/USBUART_1_episr.c ****         if((USBUART_1_EP[USBUART_1_EP6].attrib & USBUART_1_EP_TYPE_MASK) !=
 442:.\Generated_Source\PSoC5/USBUART_1_episr.c ****                                                                                     USBUART_1_EP_TY
 443:.\Generated_Source\PSoC5/USBUART_1_episr.c ****         {
 444:.\Generated_Source\PSoC5/USBUART_1_episr.c ****             USBUART_1_EP[USBUART_1_EP6].epToggle ^= USBUART_1_EPX_CNT_DATA_TOGGLE;
 445:.\Generated_Source\PSoC5/USBUART_1_episr.c ****         }
 446:.\Generated_Source\PSoC5/USBUART_1_episr.c ****         USBUART_1_EP[USBUART_1_EP6].apiEpState = USBUART_1_EVENT_PENDING;
 447:.\Generated_Source\PSoC5/USBUART_1_episr.c ****         CY_SET_REG8(USBUART_1_SIE_EP_INT_SR_PTR, CY_GET_REG8(USBUART_1_SIE_EP_INT_SR_PTR)
 448:.\Generated_Source\PSoC5/USBUART_1_episr.c ****                                                                         & (uint8)~USBUART_1_SIE_EP_
 449:.\Generated_Source\PSoC5/USBUART_1_episr.c **** 
 450:.\Generated_Source\PSoC5/USBUART_1_episr.c ****         #if (defined(USBUART_1_ENABLE_MIDI_STREAMING) && !defined(USBUART_1_MAIN_SERVICE_MIDI_OUT) 
 451:.\Generated_Source\PSoC5/USBUART_1_episr.c ****                      USBUART_1_ISR_SERVICE_MIDI_OUT)
 452:.\Generated_Source\PSoC5/USBUART_1_episr.c ****             if(USBUART_1_midi_out_ep == USBUART_1_EP6)
 453:.\Generated_Source\PSoC5/USBUART_1_episr.c ****             {
 454:.\Generated_Source\PSoC5/USBUART_1_episr.c ****                 USBUART_1_MIDI_OUT_EP_Service();
 455:.\Generated_Source\PSoC5/USBUART_1_episr.c ****             }
 456:.\Generated_Source\PSoC5/USBUART_1_episr.c ****         #endif /*  USBUART_1_ISR_SERVICE_MIDI_OUT  */
 457:.\Generated_Source\PSoC5/USBUART_1_episr.c **** 
 458:.\Generated_Source\PSoC5/USBUART_1_episr.c ****         /* `#START EP6_END_USER_CODE` Place your code here */
 459:.\Generated_Source\PSoC5/USBUART_1_episr.c **** 
 460:.\Generated_Source\PSoC5/USBUART_1_episr.c ****         /* `#END` */
ARM GAS  C:\Users\Alex\AppData\Local\Temp\ccTbSRdB.s 			page 12


 461:.\Generated_Source\PSoC5/USBUART_1_episr.c **** 
 462:.\Generated_Source\PSoC5/USBUART_1_episr.c ****         #ifdef USBUART_1_EP_6_ISR_EXIT_CALLBACK
 463:.\Generated_Source\PSoC5/USBUART_1_episr.c ****             USBUART_1_EP_6_ISR_ExitCallback();
 464:.\Generated_Source\PSoC5/USBUART_1_episr.c ****         #endif /* USBUART_1_EP_6_ISR_EXIT_CALLBACK */
 465:.\Generated_Source\PSoC5/USBUART_1_episr.c **** 
 466:.\Generated_Source\PSoC5/USBUART_1_episr.c ****         #if (defined(USBUART_1_ENABLE_MIDI_STREAMING) && !defined(USBUART_1_MAIN_SERVICE_MIDI_OUT) 
 467:.\Generated_Source\PSoC5/USBUART_1_episr.c ****                      USBUART_1_ISR_SERVICE_MIDI_OUT && CY_PSOC3)
 468:.\Generated_Source\PSoC5/USBUART_1_episr.c ****             EA = int_en;
 469:.\Generated_Source\PSoC5/USBUART_1_episr.c ****         #endif /* CY_PSOC3 & USBUART_1_ISR_SERVICE_MIDI_OUT  */
 470:.\Generated_Source\PSoC5/USBUART_1_episr.c ****     }
 471:.\Generated_Source\PSoC5/USBUART_1_episr.c **** 
 472:.\Generated_Source\PSoC5/USBUART_1_episr.c **** #endif   /*  USBUART_1_EP6_ISR_REMOVE */
 473:.\Generated_Source\PSoC5/USBUART_1_episr.c **** 
 474:.\Generated_Source\PSoC5/USBUART_1_episr.c **** 
 475:.\Generated_Source\PSoC5/USBUART_1_episr.c **** #if(USBUART_1_EP7_ISR_REMOVE == 0u)
 476:.\Generated_Source\PSoC5/USBUART_1_episr.c **** 
 477:.\Generated_Source\PSoC5/USBUART_1_episr.c ****     /*******************************************************************************
 478:.\Generated_Source\PSoC5/USBUART_1_episr.c ****     * Function Name: USBUART_1_EP_7_ISR
 479:.\Generated_Source\PSoC5/USBUART_1_episr.c ****     ********************************************************************************
 480:.\Generated_Source\PSoC5/USBUART_1_episr.c ****     *
 481:.\Generated_Source\PSoC5/USBUART_1_episr.c ****     * Summary:
 482:.\Generated_Source\PSoC5/USBUART_1_episr.c ****     *  Endpoint 7 Interrupt Service Routine
 483:.\Generated_Source\PSoC5/USBUART_1_episr.c ****     *
 484:.\Generated_Source\PSoC5/USBUART_1_episr.c ****     * Parameters:
 485:.\Generated_Source\PSoC5/USBUART_1_episr.c ****     *  None.
 486:.\Generated_Source\PSoC5/USBUART_1_episr.c ****     *
 487:.\Generated_Source\PSoC5/USBUART_1_episr.c ****     * Return:
 488:.\Generated_Source\PSoC5/USBUART_1_episr.c ****     *  None.
 489:.\Generated_Source\PSoC5/USBUART_1_episr.c ****     *
 490:.\Generated_Source\PSoC5/USBUART_1_episr.c ****     *******************************************************************************/
 491:.\Generated_Source\PSoC5/USBUART_1_episr.c ****     CY_ISR(USBUART_1_EP_7_ISR)
 492:.\Generated_Source\PSoC5/USBUART_1_episr.c ****     {
 493:.\Generated_Source\PSoC5/USBUART_1_episr.c ****         #if (defined(USBUART_1_ENABLE_MIDI_STREAMING) && !defined(USBUART_1_MAIN_SERVICE_MIDI_OUT) 
 494:.\Generated_Source\PSoC5/USBUART_1_episr.c ****                      USBUART_1_ISR_SERVICE_MIDI_OUT && CY_PSOC3)
 495:.\Generated_Source\PSoC5/USBUART_1_episr.c ****             uint8 int_en;
 496:.\Generated_Source\PSoC5/USBUART_1_episr.c ****         #endif /* CY_PSOC3 & USBUART_1_ISR_SERVICE_MIDI_OUT  */
 497:.\Generated_Source\PSoC5/USBUART_1_episr.c **** 
 498:.\Generated_Source\PSoC5/USBUART_1_episr.c ****         #ifdef USBUART_1_EP_7_ISR_ENTRY_CALLBACK
 499:.\Generated_Source\PSoC5/USBUART_1_episr.c ****             USBUART_1_EP_7_ISR_EntryCallback();
 500:.\Generated_Source\PSoC5/USBUART_1_episr.c ****         #endif /* USBUART_1_EP_7_ISR_ENTRY_CALLBACK */
 501:.\Generated_Source\PSoC5/USBUART_1_episr.c **** 
 502:.\Generated_Source\PSoC5/USBUART_1_episr.c ****         /* `#START EP7_USER_CODE` Place your code here */
 503:.\Generated_Source\PSoC5/USBUART_1_episr.c **** 
 504:.\Generated_Source\PSoC5/USBUART_1_episr.c ****         /* `#END` */
 505:.\Generated_Source\PSoC5/USBUART_1_episr.c **** 
 506:.\Generated_Source\PSoC5/USBUART_1_episr.c ****         #if (defined(USBUART_1_ENABLE_MIDI_STREAMING) && !defined(USBUART_1_MAIN_SERVICE_MIDI_OUT) 
 507:.\Generated_Source\PSoC5/USBUART_1_episr.c ****                      USBUART_1_ISR_SERVICE_MIDI_OUT && CY_PSOC3)
 508:.\Generated_Source\PSoC5/USBUART_1_episr.c ****             int_en = EA;
 509:.\Generated_Source\PSoC5/USBUART_1_episr.c ****             CyGlobalIntEnable;  /* Make sure nested interrupt is enabled */
 510:.\Generated_Source\PSoC5/USBUART_1_episr.c ****         #endif /* CY_PSOC3 & USBUART_1_ISR_SERVICE_MIDI_OUT  */
 511:.\Generated_Source\PSoC5/USBUART_1_episr.c **** 
 512:.\Generated_Source\PSoC5/USBUART_1_episr.c ****         CY_GET_REG8(USBUART_1_SIE_EP7_CR0_PTR); /* Must read the mode reg */
 513:.\Generated_Source\PSoC5/USBUART_1_episr.c ****         /* Do not toggle ISOC endpoint */
 514:.\Generated_Source\PSoC5/USBUART_1_episr.c ****         if((USBUART_1_EP[USBUART_1_EP7].attrib & USBUART_1_EP_TYPE_MASK) !=
 515:.\Generated_Source\PSoC5/USBUART_1_episr.c ****                                                                                     USBUART_1_EP_TY
 516:.\Generated_Source\PSoC5/USBUART_1_episr.c ****         {
 517:.\Generated_Source\PSoC5/USBUART_1_episr.c ****             USBUART_1_EP[USBUART_1_EP7].epToggle ^= USBUART_1_EPX_CNT_DATA_TOGGLE;
ARM GAS  C:\Users\Alex\AppData\Local\Temp\ccTbSRdB.s 			page 13


 518:.\Generated_Source\PSoC5/USBUART_1_episr.c ****         }
 519:.\Generated_Source\PSoC5/USBUART_1_episr.c ****         USBUART_1_EP[USBUART_1_EP7].apiEpState = USBUART_1_EVENT_PENDING;
 520:.\Generated_Source\PSoC5/USBUART_1_episr.c ****         CY_SET_REG8(USBUART_1_SIE_EP_INT_SR_PTR, CY_GET_REG8(USBUART_1_SIE_EP_INT_SR_PTR)
 521:.\Generated_Source\PSoC5/USBUART_1_episr.c ****                                                                         & (uint8)~USBUART_1_SIE_EP_
 522:.\Generated_Source\PSoC5/USBUART_1_episr.c **** 
 523:.\Generated_Source\PSoC5/USBUART_1_episr.c ****         #if (defined(USBUART_1_ENABLE_MIDI_STREAMING) && !defined(USBUART_1_MAIN_SERVICE_MIDI_OUT) 
 524:.\Generated_Source\PSoC5/USBUART_1_episr.c ****                      USBUART_1_ISR_SERVICE_MIDI_OUT)
 525:.\Generated_Source\PSoC5/USBUART_1_episr.c ****             if(USBUART_1_midi_out_ep == USBUART_1_EP7)
 526:.\Generated_Source\PSoC5/USBUART_1_episr.c ****             {
 527:.\Generated_Source\PSoC5/USBUART_1_episr.c ****                 USBUART_1_MIDI_OUT_EP_Service();
 528:.\Generated_Source\PSoC5/USBUART_1_episr.c ****             }
 529:.\Generated_Source\PSoC5/USBUART_1_episr.c ****         #endif /*  USBUART_1_ISR_SERVICE_MIDI_OUT  */
 530:.\Generated_Source\PSoC5/USBUART_1_episr.c **** 
 531:.\Generated_Source\PSoC5/USBUART_1_episr.c ****         /* `#START EP7_END_USER_CODE` Place your code here */
 532:.\Generated_Source\PSoC5/USBUART_1_episr.c **** 
 533:.\Generated_Source\PSoC5/USBUART_1_episr.c ****         /* `#END` */
 534:.\Generated_Source\PSoC5/USBUART_1_episr.c **** 
 535:.\Generated_Source\PSoC5/USBUART_1_episr.c ****         #ifdef USBUART_1_EP_7_ISR_EXIT_CALLBACK
 536:.\Generated_Source\PSoC5/USBUART_1_episr.c ****             USBUART_1_EP_7_ISR_ExitCallback();
 537:.\Generated_Source\PSoC5/USBUART_1_episr.c ****         #endif /* USBUART_1_EP_7_ISR_EXIT_CALLBACK */
 538:.\Generated_Source\PSoC5/USBUART_1_episr.c **** 
 539:.\Generated_Source\PSoC5/USBUART_1_episr.c ****         #if (defined(USBUART_1_ENABLE_MIDI_STREAMING) && !defined(USBUART_1_MAIN_SERVICE_MIDI_OUT) 
 540:.\Generated_Source\PSoC5/USBUART_1_episr.c ****                      USBUART_1_ISR_SERVICE_MIDI_OUT && CY_PSOC3)
 541:.\Generated_Source\PSoC5/USBUART_1_episr.c ****             EA = int_en;
 542:.\Generated_Source\PSoC5/USBUART_1_episr.c ****         #endif /* CY_PSOC3 & USBUART_1_ISR_SERVICE_MIDI_OUT  */
 543:.\Generated_Source\PSoC5/USBUART_1_episr.c ****     }
 544:.\Generated_Source\PSoC5/USBUART_1_episr.c **** 
 545:.\Generated_Source\PSoC5/USBUART_1_episr.c **** #endif   /*  USBUART_1_EP7_ISR_REMOVE */
 546:.\Generated_Source\PSoC5/USBUART_1_episr.c **** 
 547:.\Generated_Source\PSoC5/USBUART_1_episr.c **** 
 548:.\Generated_Source\PSoC5/USBUART_1_episr.c **** #if(USBUART_1_EP8_ISR_REMOVE == 0u)
 549:.\Generated_Source\PSoC5/USBUART_1_episr.c **** 
 550:.\Generated_Source\PSoC5/USBUART_1_episr.c ****     /*******************************************************************************
 551:.\Generated_Source\PSoC5/USBUART_1_episr.c ****     * Function Name: USBUART_1_EP_8_ISR
 552:.\Generated_Source\PSoC5/USBUART_1_episr.c ****     ********************************************************************************
 553:.\Generated_Source\PSoC5/USBUART_1_episr.c ****     *
 554:.\Generated_Source\PSoC5/USBUART_1_episr.c ****     * Summary:
 555:.\Generated_Source\PSoC5/USBUART_1_episr.c ****     *  Endpoint 8 Interrupt Service Routine
 556:.\Generated_Source\PSoC5/USBUART_1_episr.c ****     *
 557:.\Generated_Source\PSoC5/USBUART_1_episr.c ****     * Parameters:
 558:.\Generated_Source\PSoC5/USBUART_1_episr.c ****     *  None.
 559:.\Generated_Source\PSoC5/USBUART_1_episr.c ****     *
 560:.\Generated_Source\PSoC5/USBUART_1_episr.c ****     * Return:
 561:.\Generated_Source\PSoC5/USBUART_1_episr.c ****     *  None.
 562:.\Generated_Source\PSoC5/USBUART_1_episr.c ****     *
 563:.\Generated_Source\PSoC5/USBUART_1_episr.c ****     *******************************************************************************/
 564:.\Generated_Source\PSoC5/USBUART_1_episr.c ****     CY_ISR(USBUART_1_EP_8_ISR)
 565:.\Generated_Source\PSoC5/USBUART_1_episr.c ****     {
 566:.\Generated_Source\PSoC5/USBUART_1_episr.c ****         #if (defined(USBUART_1_ENABLE_MIDI_STREAMING) && !defined(USBUART_1_MAIN_SERVICE_MIDI_OUT) 
 567:.\Generated_Source\PSoC5/USBUART_1_episr.c ****                      USBUART_1_ISR_SERVICE_MIDI_OUT && CY_PSOC3)
 568:.\Generated_Source\PSoC5/USBUART_1_episr.c ****             uint8 int_en;
 569:.\Generated_Source\PSoC5/USBUART_1_episr.c ****         #endif /* CY_PSOC3 & USBUART_1_ISR_SERVICE_MIDI_OUT  */
 570:.\Generated_Source\PSoC5/USBUART_1_episr.c **** 
 571:.\Generated_Source\PSoC5/USBUART_1_episr.c ****         #ifdef USBUART_1_EP_8_ISR_ENTRY_CALLBACK
 572:.\Generated_Source\PSoC5/USBUART_1_episr.c ****             USBUART_1_EP_8_ISR_EntryCallback();
 573:.\Generated_Source\PSoC5/USBUART_1_episr.c ****         #endif /* USBUART_1_EP_8_ISR_ENTRY_CALLBACK */
 574:.\Generated_Source\PSoC5/USBUART_1_episr.c **** 
ARM GAS  C:\Users\Alex\AppData\Local\Temp\ccTbSRdB.s 			page 14


 575:.\Generated_Source\PSoC5/USBUART_1_episr.c ****         /* `#START EP8_USER_CODE` Place your code here */
 576:.\Generated_Source\PSoC5/USBUART_1_episr.c **** 
 577:.\Generated_Source\PSoC5/USBUART_1_episr.c ****         /* `#END` */
 578:.\Generated_Source\PSoC5/USBUART_1_episr.c **** 
 579:.\Generated_Source\PSoC5/USBUART_1_episr.c ****         #if (defined(USBUART_1_ENABLE_MIDI_STREAMING) && !defined(USBUART_1_MAIN_SERVICE_MIDI_OUT) 
 580:.\Generated_Source\PSoC5/USBUART_1_episr.c ****                      USBUART_1_ISR_SERVICE_MIDI_OUT && CY_PSOC3)
 581:.\Generated_Source\PSoC5/USBUART_1_episr.c ****             int_en = EA;
 582:.\Generated_Source\PSoC5/USBUART_1_episr.c ****             CyGlobalIntEnable;  /* Make sure nested interrupt is enabled */
 583:.\Generated_Source\PSoC5/USBUART_1_episr.c ****         #endif /* CY_PSOC3 & USBUART_1_ISR_SERVICE_MIDI_OUT  */
 584:.\Generated_Source\PSoC5/USBUART_1_episr.c **** 
 585:.\Generated_Source\PSoC5/USBUART_1_episr.c ****         CY_GET_REG8(USBUART_1_SIE_EP8_CR0_PTR); /* Must read the mode reg */
 586:.\Generated_Source\PSoC5/USBUART_1_episr.c ****         /* Do not toggle ISOC endpoint */
 587:.\Generated_Source\PSoC5/USBUART_1_episr.c ****         if((USBUART_1_EP[USBUART_1_EP8].attrib & USBUART_1_EP_TYPE_MASK) !=
 588:.\Generated_Source\PSoC5/USBUART_1_episr.c ****                                                                                     USBUART_1_EP_TY
 589:.\Generated_Source\PSoC5/USBUART_1_episr.c ****         {
 590:.\Generated_Source\PSoC5/USBUART_1_episr.c ****             USBUART_1_EP[USBUART_1_EP8].epToggle ^= USBUART_1_EPX_CNT_DATA_TOGGLE;
 591:.\Generated_Source\PSoC5/USBUART_1_episr.c ****         }
 592:.\Generated_Source\PSoC5/USBUART_1_episr.c ****         USBUART_1_EP[USBUART_1_EP8].apiEpState = USBUART_1_EVENT_PENDING;
 593:.\Generated_Source\PSoC5/USBUART_1_episr.c ****         CY_SET_REG8(USBUART_1_SIE_EP_INT_SR_PTR, CY_GET_REG8(USBUART_1_SIE_EP_INT_SR_PTR)
 594:.\Generated_Source\PSoC5/USBUART_1_episr.c ****                                                                         & (uint8)~USBUART_1_SIE_EP_
 595:.\Generated_Source\PSoC5/USBUART_1_episr.c **** 
 596:.\Generated_Source\PSoC5/USBUART_1_episr.c ****         #if (defined(USBUART_1_ENABLE_MIDI_STREAMING) && !defined(USBUART_1_MAIN_SERVICE_MIDI_OUT) 
 597:.\Generated_Source\PSoC5/USBUART_1_episr.c ****                      USBUART_1_ISR_SERVICE_MIDI_OUT)
 598:.\Generated_Source\PSoC5/USBUART_1_episr.c ****             if(USBUART_1_midi_out_ep == USBUART_1_EP8)
 599:.\Generated_Source\PSoC5/USBUART_1_episr.c ****             {
 600:.\Generated_Source\PSoC5/USBUART_1_episr.c ****                 USBUART_1_MIDI_OUT_EP_Service();
 601:.\Generated_Source\PSoC5/USBUART_1_episr.c ****             }
 602:.\Generated_Source\PSoC5/USBUART_1_episr.c ****         #endif /*  USBUART_1_ISR_SERVICE_MIDI_OUT */
 603:.\Generated_Source\PSoC5/USBUART_1_episr.c **** 
 604:.\Generated_Source\PSoC5/USBUART_1_episr.c ****         /* `#START EP8_END_USER_CODE` Place your code here */
 605:.\Generated_Source\PSoC5/USBUART_1_episr.c **** 
 606:.\Generated_Source\PSoC5/USBUART_1_episr.c ****         /* `#END` */
 607:.\Generated_Source\PSoC5/USBUART_1_episr.c **** 
 608:.\Generated_Source\PSoC5/USBUART_1_episr.c ****         #ifdef USBUART_1_EP_8_ISR_EXIT_CALLBACK
 609:.\Generated_Source\PSoC5/USBUART_1_episr.c ****             USBUART_1_EP_8_ISR_ExitCallback();
 610:.\Generated_Source\PSoC5/USBUART_1_episr.c ****         #endif /* USBUART_1_EP_8_ISR_EXIT_CALLBACK */
 611:.\Generated_Source\PSoC5/USBUART_1_episr.c **** 
 612:.\Generated_Source\PSoC5/USBUART_1_episr.c ****         #if (defined(USBUART_1_ENABLE_MIDI_STREAMING) && !defined(USBUART_1_MAIN_SERVICE_MIDI_OUT) 
 613:.\Generated_Source\PSoC5/USBUART_1_episr.c ****                      USBUART_1_ISR_SERVICE_MIDI_OUT && CY_PSOC3)
 614:.\Generated_Source\PSoC5/USBUART_1_episr.c ****             EA = int_en;
 615:.\Generated_Source\PSoC5/USBUART_1_episr.c ****         #endif /* CY_PSOC3 & USBUART_1_ISR_SERVICE_MIDI_OUT  */
 616:.\Generated_Source\PSoC5/USBUART_1_episr.c ****     }
 617:.\Generated_Source\PSoC5/USBUART_1_episr.c **** 
 618:.\Generated_Source\PSoC5/USBUART_1_episr.c **** #endif   /*  USBUART_1_EP8_ISR_REMOVE */
 619:.\Generated_Source\PSoC5/USBUART_1_episr.c **** 
 620:.\Generated_Source\PSoC5/USBUART_1_episr.c **** 
 621:.\Generated_Source\PSoC5/USBUART_1_episr.c **** /*******************************************************************************
 622:.\Generated_Source\PSoC5/USBUART_1_episr.c **** * Function Name: USBUART_1_SOF_ISR
 623:.\Generated_Source\PSoC5/USBUART_1_episr.c **** ********************************************************************************
 624:.\Generated_Source\PSoC5/USBUART_1_episr.c **** *
 625:.\Generated_Source\PSoC5/USBUART_1_episr.c **** * Summary:
 626:.\Generated_Source\PSoC5/USBUART_1_episr.c **** *  Start of Frame Interrupt Service Routine
 627:.\Generated_Source\PSoC5/USBUART_1_episr.c **** *
 628:.\Generated_Source\PSoC5/USBUART_1_episr.c **** * Parameters:
 629:.\Generated_Source\PSoC5/USBUART_1_episr.c **** *  None.
 630:.\Generated_Source\PSoC5/USBUART_1_episr.c **** *
 631:.\Generated_Source\PSoC5/USBUART_1_episr.c **** * Return:
ARM GAS  C:\Users\Alex\AppData\Local\Temp\ccTbSRdB.s 			page 15


 632:.\Generated_Source\PSoC5/USBUART_1_episr.c **** *  None.
 633:.\Generated_Source\PSoC5/USBUART_1_episr.c **** *
 634:.\Generated_Source\PSoC5/USBUART_1_episr.c **** *******************************************************************************/
 635:.\Generated_Source\PSoC5/USBUART_1_episr.c **** CY_ISR(USBUART_1_SOF_ISR)
 636:.\Generated_Source\PSoC5/USBUART_1_episr.c **** {
 168              		.loc 1 636 0
 169              		.cfi_startproc
 170              		@ args = 0, pretend = 0, frame = 0
 171              		@ frame_needed = 0, uses_anonymous_args = 0
 172              		@ link register save eliminated.
 173 0000 7047     		bx	lr
 174              		.cfi_endproc
 175              	.LFE3:
 176              		.size	USBUART_1_SOF_ISR, .-USBUART_1_SOF_ISR
 177 0002 00BF     		.section	.text.USBUART_1_BUS_RESET_ISR,"ax",%progbits
 178              		.align	2
 179              		.global	USBUART_1_BUS_RESET_ISR
 180              		.thumb
 181              		.thumb_func
 182              		.type	USBUART_1_BUS_RESET_ISR, %function
 183              	USBUART_1_BUS_RESET_ISR:
 184              	.LFB4:
 637:.\Generated_Source\PSoC5/USBUART_1_episr.c ****     #ifdef USBUART_1_SOF_ISR_INTERRUPT_CALLBACK
 638:.\Generated_Source\PSoC5/USBUART_1_episr.c ****         USBUART_1_SOF_ISR_InterruptCallback();
 639:.\Generated_Source\PSoC5/USBUART_1_episr.c ****     #endif /* USBUART_1_SOF_ISR_INTERRUPT_CALLBACK */
 640:.\Generated_Source\PSoC5/USBUART_1_episr.c **** 
 641:.\Generated_Source\PSoC5/USBUART_1_episr.c ****     /* `#START SOF_USER_CODE` Place your code here */
 642:.\Generated_Source\PSoC5/USBUART_1_episr.c **** 
 643:.\Generated_Source\PSoC5/USBUART_1_episr.c ****     /* `#END` */
 644:.\Generated_Source\PSoC5/USBUART_1_episr.c **** }
 645:.\Generated_Source\PSoC5/USBUART_1_episr.c **** 
 646:.\Generated_Source\PSoC5/USBUART_1_episr.c **** 
 647:.\Generated_Source\PSoC5/USBUART_1_episr.c **** /*******************************************************************************
 648:.\Generated_Source\PSoC5/USBUART_1_episr.c **** * Function Name: USBUART_1_BUS_RESET_ISR
 649:.\Generated_Source\PSoC5/USBUART_1_episr.c **** ********************************************************************************
 650:.\Generated_Source\PSoC5/USBUART_1_episr.c **** *
 651:.\Generated_Source\PSoC5/USBUART_1_episr.c **** * Summary:
 652:.\Generated_Source\PSoC5/USBUART_1_episr.c **** *  USB Bus Reset Interrupt Service Routine.  Calls _Start with the same
 653:.\Generated_Source\PSoC5/USBUART_1_episr.c **** *  parameters as the last USER call to _Start
 654:.\Generated_Source\PSoC5/USBUART_1_episr.c **** *
 655:.\Generated_Source\PSoC5/USBUART_1_episr.c **** * Parameters:
 656:.\Generated_Source\PSoC5/USBUART_1_episr.c **** *  None.
 657:.\Generated_Source\PSoC5/USBUART_1_episr.c **** *
 658:.\Generated_Source\PSoC5/USBUART_1_episr.c **** * Return:
 659:.\Generated_Source\PSoC5/USBUART_1_episr.c **** *  None.
 660:.\Generated_Source\PSoC5/USBUART_1_episr.c **** *
 661:.\Generated_Source\PSoC5/USBUART_1_episr.c **** *******************************************************************************/
 662:.\Generated_Source\PSoC5/USBUART_1_episr.c **** CY_ISR(USBUART_1_BUS_RESET_ISR)
 663:.\Generated_Source\PSoC5/USBUART_1_episr.c **** {
 185              		.loc 1 663 0
 186              		.cfi_startproc
 187              		@ args = 0, pretend = 0, frame = 0
 188              		@ frame_needed = 0, uses_anonymous_args = 0
 189              		.loc 1 663 0
 190 0000 08B5     		push	{r3, lr}
 191              		.cfi_def_cfa_offset 8
 192              		.cfi_offset 3, -8
ARM GAS  C:\Users\Alex\AppData\Local\Temp\ccTbSRdB.s 			page 16


 193              		.cfi_offset 14, -4
 664:.\Generated_Source\PSoC5/USBUART_1_episr.c ****     #ifdef USBUART_1_BUS_RESET_ISR_ENTRY_CALLBACK
 665:.\Generated_Source\PSoC5/USBUART_1_episr.c ****         USBUART_1_BUS_RESET_ISR_EntryCallback();
 666:.\Generated_Source\PSoC5/USBUART_1_episr.c ****     #endif /* USBUART_1_BUS_RESET_ISR_ENTRY_CALLBACK */
 667:.\Generated_Source\PSoC5/USBUART_1_episr.c **** 
 668:.\Generated_Source\PSoC5/USBUART_1_episr.c ****     /* `#START BUS_RESET_USER_CODE` Place your code here */
 669:.\Generated_Source\PSoC5/USBUART_1_episr.c **** 
 670:.\Generated_Source\PSoC5/USBUART_1_episr.c ****     /* `#END` */
 671:.\Generated_Source\PSoC5/USBUART_1_episr.c **** 
 672:.\Generated_Source\PSoC5/USBUART_1_episr.c ****     USBUART_1_ReInitComponent();
 194              		.loc 1 672 0
 195 0002 FFF7FEFF 		bl	USBUART_1_ReInitComponent
 196              	.LVL0:
 197 0006 08BD     		pop	{r3, pc}
 198              		.cfi_endproc
 199              	.LFE4:
 200              		.size	USBUART_1_BUS_RESET_ISR, .-USBUART_1_BUS_RESET_ISR
 201              		.section	.text.USBUART_1_ARB_ISR,"ax",%progbits
 202              		.align	2
 203              		.global	USBUART_1_ARB_ISR
 204              		.thumb
 205              		.thumb_func
 206              		.type	USBUART_1_ARB_ISR, %function
 207              	USBUART_1_ARB_ISR:
 208              	.LFB5:
 673:.\Generated_Source\PSoC5/USBUART_1_episr.c **** 
 674:.\Generated_Source\PSoC5/USBUART_1_episr.c ****     #ifdef USBUART_1_BUS_RESET_ISR_EXIT_CALLBACK
 675:.\Generated_Source\PSoC5/USBUART_1_episr.c ****         USBUART_1_BUS_RESET_ISR_ExitCallback();
 676:.\Generated_Source\PSoC5/USBUART_1_episr.c ****     #endif /* USBUART_1_BUS_RESET_ISR_EXIT_CALLBACK */    
 677:.\Generated_Source\PSoC5/USBUART_1_episr.c **** }
 678:.\Generated_Source\PSoC5/USBUART_1_episr.c **** 
 679:.\Generated_Source\PSoC5/USBUART_1_episr.c **** 
 680:.\Generated_Source\PSoC5/USBUART_1_episr.c **** #if((USBUART_1_EP_MM != USBUART_1__EP_MANUAL) && (USBUART_1_ARB_ISR_REMOVE == 0u))
 681:.\Generated_Source\PSoC5/USBUART_1_episr.c **** 
 682:.\Generated_Source\PSoC5/USBUART_1_episr.c **** 
 683:.\Generated_Source\PSoC5/USBUART_1_episr.c ****     /*******************************************************************************
 684:.\Generated_Source\PSoC5/USBUART_1_episr.c ****     * Function Name: USBUART_1_ARB_ISR
 685:.\Generated_Source\PSoC5/USBUART_1_episr.c ****     ********************************************************************************
 686:.\Generated_Source\PSoC5/USBUART_1_episr.c ****     *
 687:.\Generated_Source\PSoC5/USBUART_1_episr.c ****     * Summary:
 688:.\Generated_Source\PSoC5/USBUART_1_episr.c ****     *  Arbiter Interrupt Service Routine
 689:.\Generated_Source\PSoC5/USBUART_1_episr.c ****     *
 690:.\Generated_Source\PSoC5/USBUART_1_episr.c ****     * Parameters:
 691:.\Generated_Source\PSoC5/USBUART_1_episr.c ****     *  None.
 692:.\Generated_Source\PSoC5/USBUART_1_episr.c ****     *
 693:.\Generated_Source\PSoC5/USBUART_1_episr.c ****     * Return:
 694:.\Generated_Source\PSoC5/USBUART_1_episr.c ****     *  None.
 695:.\Generated_Source\PSoC5/USBUART_1_episr.c ****     *
 696:.\Generated_Source\PSoC5/USBUART_1_episr.c ****     * Side effect:
 697:.\Generated_Source\PSoC5/USBUART_1_episr.c ****     *  Search for EP8 int_status will be much slower than search for EP1 int_status.
 698:.\Generated_Source\PSoC5/USBUART_1_episr.c ****     *
 699:.\Generated_Source\PSoC5/USBUART_1_episr.c ****     *******************************************************************************/
 700:.\Generated_Source\PSoC5/USBUART_1_episr.c ****     CY_ISR(USBUART_1_ARB_ISR)
 701:.\Generated_Source\PSoC5/USBUART_1_episr.c ****     {
 209              		.loc 1 701 0
 210              		.cfi_startproc
 211              		@ args = 0, pretend = 0, frame = 0
ARM GAS  C:\Users\Alex\AppData\Local\Temp\ccTbSRdB.s 			page 17


 212              		@ frame_needed = 0, uses_anonymous_args = 0
 213 0000 F0B5     		push	{r4, r5, r6, r7, lr}
 214              		.cfi_def_cfa_offset 20
 215              		.cfi_offset 4, -20
 216              		.cfi_offset 5, -16
 217              		.cfi_offset 6, -12
 218              		.cfi_offset 7, -8
 219              		.cfi_offset 14, -4
 220              	.LVL1:
 702:.\Generated_Source\PSoC5/USBUART_1_episr.c ****         uint8 int_status;
 703:.\Generated_Source\PSoC5/USBUART_1_episr.c ****         uint8 ep_status;
 704:.\Generated_Source\PSoC5/USBUART_1_episr.c ****         uint8 ep = USBUART_1_EP1;
 705:.\Generated_Source\PSoC5/USBUART_1_episr.c ****         uint8 ptr = 0u;
 706:.\Generated_Source\PSoC5/USBUART_1_episr.c **** 
 707:.\Generated_Source\PSoC5/USBUART_1_episr.c ****         #ifdef USBUART_1_ARB_ISR_ENTRY_CALLBACK
 708:.\Generated_Source\PSoC5/USBUART_1_episr.c ****             USBUART_1_ARB_ISR_EntryCallback();
 709:.\Generated_Source\PSoC5/USBUART_1_episr.c ****         #endif /* USBUART_1_ARB_ISR_ENTRY_CALLBACK */
 710:.\Generated_Source\PSoC5/USBUART_1_episr.c **** 
 711:.\Generated_Source\PSoC5/USBUART_1_episr.c ****         /* `#START ARB_BEGIN_USER_CODE` Place your code here */
 712:.\Generated_Source\PSoC5/USBUART_1_episr.c **** 
 713:.\Generated_Source\PSoC5/USBUART_1_episr.c ****         /* `#END` */
 714:.\Generated_Source\PSoC5/USBUART_1_episr.c **** 
 715:.\Generated_Source\PSoC5/USBUART_1_episr.c ****         int_status = USBUART_1_ARB_INT_SR_REG;                   /* read Arbiter Status Register */
 221              		.loc 1 715 0
 222 0002 274B     		ldr	r3, .L23
 223 0004 1878     		ldrb	r0, [r3]	@ zero_extendqisi2
 224 0006 C0B2     		uxtb	r0, r0
 225              	.LVL2:
 716:.\Generated_Source\PSoC5/USBUART_1_episr.c ****         USBUART_1_ARB_INT_SR_REG = int_status;                   /* Clear Serviced Interrupts */
 226              		.loc 1 716 0
 227 0008 1870     		strb	r0, [r3]
 705:.\Generated_Source\PSoC5/USBUART_1_episr.c **** 
 228              		.loc 1 705 0
 229 000a 0021     		movs	r1, #0
 704:.\Generated_Source\PSoC5/USBUART_1_episr.c ****         uint8 ptr = 0u;
 230              		.loc 1 704 0
 231 000c 0123     		movs	r3, #1
 717:.\Generated_Source\PSoC5/USBUART_1_episr.c **** 
 718:.\Generated_Source\PSoC5/USBUART_1_episr.c ****         while(int_status != 0u)
 232              		.loc 1 718 0
 233 000e 43E0     		b	.L17
 234              	.LVL3:
 235              	.L21:
 719:.\Generated_Source\PSoC5/USBUART_1_episr.c ****         {
 720:.\Generated_Source\PSoC5/USBUART_1_episr.c ****             if((int_status & 1u) != 0u)  /* If EpX interrupt present */
 236              		.loc 1 720 0
 237 0010 10F0010F 		tst	r0, #1
 238 0014 3BD0     		beq	.L18
 721:.\Generated_Source\PSoC5/USBUART_1_episr.c ****             {   /* read Endpoint Status Register */
 722:.\Generated_Source\PSoC5/USBUART_1_episr.c ****                 ep_status  = CY_GET_REG8((reg8 *)(USBUART_1_ARB_EP1_SR_IND + ptr));
 239              		.loc 1 722 0
 240 0016 0E46     		mov	r6, r1
 241 0018 224A     		ldr	r2, .L23+4
 242 001a 8D18     		adds	r5, r1, r2
 243 001c 8A5C     		ldrb	r2, [r1, r2]	@ zero_extendqisi2
 244 001e D2B2     		uxtb	r2, r2
 245              	.LVL4:
ARM GAS  C:\Users\Alex\AppData\Local\Temp\ccTbSRdB.s 			page 18


 723:.\Generated_Source\PSoC5/USBUART_1_episr.c ****                 /* If In Buffer Full */
 724:.\Generated_Source\PSoC5/USBUART_1_episr.c ****                 if((ep_status & USBUART_1_ARB_EPX_SR_IN_BUF_FULL) != 0u)
 246              		.loc 1 724 0
 247 0020 12F0010F 		tst	r2, #1
 248 0024 19D0     		beq	.L19
 725:.\Generated_Source\PSoC5/USBUART_1_episr.c ****                 {
 726:.\Generated_Source\PSoC5/USBUART_1_episr.c ****                     if((USBUART_1_EP[ep].addr & USBUART_1_DIR_IN) != 0u)
 249              		.loc 1 726 0
 250 0026 03EB4304 		add	r4, r3, r3, lsl #1
 251 002a A400     		lsls	r4, r4, #2
 252 002c 1E4F     		ldr	r7, .L23+8
 253 002e 3C44     		add	r4, r4, r7
 254 0030 2479     		ldrb	r4, [r4, #4]	@ zero_extendqisi2
 255 0032 14F0800F 		tst	r4, #128
 256 0036 10D0     		beq	.L19
 727:.\Generated_Source\PSoC5/USBUART_1_episr.c ****                     {
 728:.\Generated_Source\PSoC5/USBUART_1_episr.c ****                         /* Clear Data ready status */
 729:.\Generated_Source\PSoC5/USBUART_1_episr.c ****                         *(reg8 *)(USBUART_1_ARB_EP1_CFG_IND + ptr) &=
 257              		.loc 1 729 0
 258 0038 01F18044 		add	r4, r1, #1073741824
 259 003c 04F5C144 		add	r4, r4, #24704
 260 0040 2778     		ldrb	r7, [r4]	@ zero_extendqisi2
 261 0042 07F0FE07 		and	r7, r7, #254
 262 0046 2770     		strb	r7, [r4]
 730:.\Generated_Source\PSoC5/USBUART_1_episr.c ****                                                                     (uint8)~USBUART_1_ARB_EPX_CFG_I
 731:.\Generated_Source\PSoC5/USBUART_1_episr.c ****                         #if((USBUART_1_EP_MM == USBUART_1__EP_DMAAUTO) && (USBUART_1_EP_DMA_AUTO_OP
 732:.\Generated_Source\PSoC5/USBUART_1_episr.c ****                             /* Setup common area DMA with rest of the data */
 733:.\Generated_Source\PSoC5/USBUART_1_episr.c ****                             if(USBUART_1_inLength[ep] > USBUART_1_DMA_BYTES_PER_BURST)
 734:.\Generated_Source\PSoC5/USBUART_1_episr.c ****                             {
 735:.\Generated_Source\PSoC5/USBUART_1_episr.c ****                                 USBUART_1_LoadNextInEP(ep, 0u);
 736:.\Generated_Source\PSoC5/USBUART_1_episr.c ****                             }
 737:.\Generated_Source\PSoC5/USBUART_1_episr.c ****                             else
 738:.\Generated_Source\PSoC5/USBUART_1_episr.c ****                             {
 739:.\Generated_Source\PSoC5/USBUART_1_episr.c ****                                 USBUART_1_inBufFull[ep] = 1u;
 740:.\Generated_Source\PSoC5/USBUART_1_episr.c ****                             }
 741:.\Generated_Source\PSoC5/USBUART_1_episr.c ****                         #endif /* ((USBUART_1_EP_MM == USBUART_1__EP_DMAAUTO) && (USBUART_1_EP_DMA_
 742:.\Generated_Source\PSoC5/USBUART_1_episr.c ****                         /* Write the Mode register */
 743:.\Generated_Source\PSoC5/USBUART_1_episr.c ****                         CY_SET_REG8((reg8 *)(USBUART_1_SIE_EP1_CR0_IND + ptr), USBUART_1_EP[ep].epM
 263              		.loc 1 743 0
 264 0048 03EB4304 		add	r4, r3, r3, lsl #1
 265 004c A400     		lsls	r4, r4, #2
 266 004e 164F     		ldr	r7, .L23+8
 267 0050 3C44     		add	r4, r4, r7
 268 0052 6479     		ldrb	r4, [r4, #5]	@ zero_extendqisi2
 269 0054 E4B2     		uxtb	r4, r4
 270 0056 154F     		ldr	r7, .L23+12
 271 0058 CC55     		strb	r4, [r1, r7]
 272              	.L19:
 744:.\Generated_Source\PSoC5/USBUART_1_episr.c ****                         #if (defined(USBUART_1_ENABLE_MIDI_STREAMING) && USBUART_1_ISR_SERVICE_MIDI
 745:.\Generated_Source\PSoC5/USBUART_1_episr.c ****                             if(ep == USBUART_1_midi_in_ep)
 746:.\Generated_Source\PSoC5/USBUART_1_episr.c ****                             {   /* Clear MIDI input pointer */
 747:.\Generated_Source\PSoC5/USBUART_1_episr.c ****                                 USBUART_1_midiInPointer = 0u;
 748:.\Generated_Source\PSoC5/USBUART_1_episr.c ****                             }
 749:.\Generated_Source\PSoC5/USBUART_1_episr.c ****                         #endif /*  USBUART_1_ENABLE_MIDI_STREAMING*/
 750:.\Generated_Source\PSoC5/USBUART_1_episr.c ****                     }
 751:.\Generated_Source\PSoC5/USBUART_1_episr.c ****                 }
 752:.\Generated_Source\PSoC5/USBUART_1_episr.c ****                 /* (re)arm Out EP only for mode2 */
ARM GAS  C:\Users\Alex\AppData\Local\Temp\ccTbSRdB.s 			page 19


 753:.\Generated_Source\PSoC5/USBUART_1_episr.c ****                 #if(USBUART_1_EP_MM != USBUART_1__EP_DMAAUTO)
 754:.\Generated_Source\PSoC5/USBUART_1_episr.c ****                     /* If DMA Grant */
 755:.\Generated_Source\PSoC5/USBUART_1_episr.c ****                     if((ep_status & USBUART_1_ARB_EPX_SR_DMA_GNT) != 0u)
 273              		.loc 1 755 0
 274 005a 12F0020F 		tst	r2, #2
 275 005e 15D0     		beq	.L20
 756:.\Generated_Source\PSoC5/USBUART_1_episr.c ****                     {
 757:.\Generated_Source\PSoC5/USBUART_1_episr.c ****                         if((USBUART_1_EP[ep].addr & USBUART_1_DIR_IN) == 0u)
 276              		.loc 1 757 0
 277 0060 03EB4304 		add	r4, r3, r3, lsl #1
 278 0064 A400     		lsls	r4, r4, #2
 279 0066 104F     		ldr	r7, .L23+8
 280 0068 3C44     		add	r4, r4, r7
 281 006a 2479     		ldrb	r4, [r4, #4]	@ zero_extendqisi2
 282 006c 14F0800F 		tst	r4, #128
 283 0070 0CD1     		bne	.L20
 758:.\Generated_Source\PSoC5/USBUART_1_episr.c ****                         {
 759:.\Generated_Source\PSoC5/USBUART_1_episr.c ****                                 USBUART_1_EP[ep].apiEpState = USBUART_1_NO_EVENT_PENDING;
 284              		.loc 1 759 0
 285 0072 BE46     		mov	lr, r7
 286 0074 5C00     		lsls	r4, r3, #1
 287 0076 E718     		adds	r7, r4, r3
 288 0078 BF00     		lsls	r7, r7, #2
 289 007a 7744     		add	r7, r7, lr
 290 007c 4FF0000C 		mov	ip, #0
 291 0080 87F801C0 		strb	ip, [r7, #1]
 760:.\Generated_Source\PSoC5/USBUART_1_episr.c ****                                 /* Write the Mode register */
 761:.\Generated_Source\PSoC5/USBUART_1_episr.c ****                                 CY_SET_REG8((reg8 *)(USBUART_1_SIE_EP1_CR0_IND + ptr),
 292              		.loc 1 761 0
 293 0084 7C79     		ldrb	r4, [r7, #5]	@ zero_extendqisi2
 294 0086 E4B2     		uxtb	r4, r4
 295 0088 084F     		ldr	r7, .L23+12
 296 008a F455     		strb	r4, [r6, r7]
 297              	.L20:
 762:.\Generated_Source\PSoC5/USBUART_1_episr.c ****                                                                                     USBUART_1_EP[ep
 763:.\Generated_Source\PSoC5/USBUART_1_episr.c ****                         }
 764:.\Generated_Source\PSoC5/USBUART_1_episr.c ****                     }
 765:.\Generated_Source\PSoC5/USBUART_1_episr.c ****                 #endif /*  USBUART_1_EP_MM */
 766:.\Generated_Source\PSoC5/USBUART_1_episr.c **** 
 767:.\Generated_Source\PSoC5/USBUART_1_episr.c ****                 /* `#START ARB_USER_CODE` Place your code here for handle Buffer Underflow/Overflow
 768:.\Generated_Source\PSoC5/USBUART_1_episr.c **** 
 769:.\Generated_Source\PSoC5/USBUART_1_episr.c ****                 /* `#END` */
 770:.\Generated_Source\PSoC5/USBUART_1_episr.c **** 
 771:.\Generated_Source\PSoC5/USBUART_1_episr.c ****                 #ifdef USBUART_1_ARB_ISR_CALLBACK
 772:.\Generated_Source\PSoC5/USBUART_1_episr.c ****                     USBUART_1_ARB_ISR_Callback();
 773:.\Generated_Source\PSoC5/USBUART_1_episr.c ****                 #endif /* USBUART_1_ARB_ISR_CALLBACK */
 774:.\Generated_Source\PSoC5/USBUART_1_episr.c **** 
 775:.\Generated_Source\PSoC5/USBUART_1_episr.c ****                 CY_SET_REG8((reg8 *)(USBUART_1_ARB_EP1_SR_IND + ptr), ep_status);   /* Clear Servic
 298              		.loc 1 775 0
 299 008c 2A70     		strb	r2, [r5]
 300              	.LVL5:
 301              	.L18:
 776:.\Generated_Source\PSoC5/USBUART_1_episr.c ****             }
 777:.\Generated_Source\PSoC5/USBUART_1_episr.c ****             ptr += USBUART_1_EPX_CNTX_ADDR_OFFSET;               /* prepare pointer for next EP */
 302              		.loc 1 777 0
 303 008e 1031     		adds	r1, r1, #16
 304              	.LVL6:
ARM GAS  C:\Users\Alex\AppData\Local\Temp\ccTbSRdB.s 			page 20


 305 0090 C9B2     		uxtb	r1, r1
 306              	.LVL7:
 778:.\Generated_Source\PSoC5/USBUART_1_episr.c ****             ep++;
 307              		.loc 1 778 0
 308 0092 0133     		adds	r3, r3, #1
 309              	.LVL8:
 310 0094 DBB2     		uxtb	r3, r3
 311              	.LVL9:
 779:.\Generated_Source\PSoC5/USBUART_1_episr.c ****             int_status >>= 1u;
 312              		.loc 1 779 0
 313 0096 4008     		lsrs	r0, r0, #1
 314              	.LVL10:
 315              	.L17:
 718:.\Generated_Source\PSoC5/USBUART_1_episr.c ****         {
 316              		.loc 1 718 0
 317 0098 0028     		cmp	r0, #0
 318 009a B9D1     		bne	.L21
 780:.\Generated_Source\PSoC5/USBUART_1_episr.c ****         }
 781:.\Generated_Source\PSoC5/USBUART_1_episr.c **** 
 782:.\Generated_Source\PSoC5/USBUART_1_episr.c ****         /* `#START ARB_END_USER_CODE` Place your code here */
 783:.\Generated_Source\PSoC5/USBUART_1_episr.c **** 
 784:.\Generated_Source\PSoC5/USBUART_1_episr.c ****         /* `#END` */
 785:.\Generated_Source\PSoC5/USBUART_1_episr.c **** 
 786:.\Generated_Source\PSoC5/USBUART_1_episr.c ****         #ifdef USBUART_1_ARB_ISR_EXIT_CALLBACK
 787:.\Generated_Source\PSoC5/USBUART_1_episr.c ****             USBUART_1_ARB_ISR_ExitCallback();
 788:.\Generated_Source\PSoC5/USBUART_1_episr.c ****         #endif /* USBUART_1_ARB_ISR_EXIT_CALLBACK */
 789:.\Generated_Source\PSoC5/USBUART_1_episr.c ****     }
 319              		.loc 1 789 0
 320 009c F0BD     		pop	{r4, r5, r6, r7, pc}
 321              	.L24:
 322 009e 00BF     		.align	2
 323              	.L23:
 324 00a0 9F600040 		.word	1073766559
 325 00a4 82600040 		.word	1073766530
 326 00a8 00000000 		.word	USBUART_1_EP
 327 00ac 0E600040 		.word	1073766414
 328              		.cfi_endproc
 329              	.LFE5:
 330              		.size	USBUART_1_ARB_ISR, .-USBUART_1_ARB_ISR
 331              		.text
 332              	.Letext0:
 333              		.file 2 ".\\Generated_Source\\PSoC5\\cytypes.h"
 334              		.file 3 ".\\Generated_Source\\PSoC5\\USBUART_1.h"
 335              		.file 4 ".\\Generated_Source\\PSoC5\\USBUART_1_pvt.h"