ARM GAS  C:\Users\Alex\AppData\Local\Temp\ccbj9lYo.s 			page 1


   1              		.syntax unified
   2              		.cpu cortex-m3
   3              		.fpu softvfp
   4              		.eabi_attribute 20, 1
   5              		.eabi_attribute 21, 1
   6              		.eabi_attribute 23, 3
   7              		.eabi_attribute 24, 1
   8              		.eabi_attribute 25, 1
   9              		.eabi_attribute 26, 1
  10              		.eabi_attribute 30, 1
  11              		.eabi_attribute 34, 1
  12              		.eabi_attribute 18, 4
  13              		.thumb
  14              		.file	"USBUART_1.c"
  15              		.text
  16              	.Ltext0:
  17              		.cfi_sections	.debug_frame
  18              		.section	.text.USBUART_1_Init,"ax",%progbits
  19              		.align	2
  20              		.global	USBUART_1_Init
  21              		.thumb
  22              		.thumb_func
  23              		.type	USBUART_1_Init, %function
  24              	USBUART_1_Init:
  25              	.LFB1:
  26              		.file 1 ".\\Generated_Source\\PSoC5\\USBUART_1.c"
   1:.\Generated_Source\PSoC5/USBUART_1.c **** /*******************************************************************************
   2:.\Generated_Source\PSoC5/USBUART_1.c **** * File Name: USBUART_1.c
   3:.\Generated_Source\PSoC5/USBUART_1.c **** * Version 2.80
   4:.\Generated_Source\PSoC5/USBUART_1.c **** *
   5:.\Generated_Source\PSoC5/USBUART_1.c **** * Description:
   6:.\Generated_Source\PSoC5/USBUART_1.c **** *  API for USBFS Component.
   7:.\Generated_Source\PSoC5/USBUART_1.c **** *
   8:.\Generated_Source\PSoC5/USBUART_1.c **** * Note:
   9:.\Generated_Source\PSoC5/USBUART_1.c **** *  Many of the functions use endpoint number.  RAM arrays are sized with 9
  10:.\Generated_Source\PSoC5/USBUART_1.c **** *  elements so they are indexed directly by epNumber.  The SIE and ARB
  11:.\Generated_Source\PSoC5/USBUART_1.c **** *  registers are indexed by variations of epNumber - 1.
  12:.\Generated_Source\PSoC5/USBUART_1.c **** *
  13:.\Generated_Source\PSoC5/USBUART_1.c **** ********************************************************************************
  14:.\Generated_Source\PSoC5/USBUART_1.c **** * Copyright 2008-2014, Cypress Semiconductor Corporation.  All rights reserved.
  15:.\Generated_Source\PSoC5/USBUART_1.c **** * You may use this file only in accordance with the license, terms, conditions,
  16:.\Generated_Source\PSoC5/USBUART_1.c **** * disclaimers, and limitations in the end user license agreement accompanying
  17:.\Generated_Source\PSoC5/USBUART_1.c **** * the software package with which this file was provided.
  18:.\Generated_Source\PSoC5/USBUART_1.c **** *******************************************************************************/
  19:.\Generated_Source\PSoC5/USBUART_1.c **** 
  20:.\Generated_Source\PSoC5/USBUART_1.c **** #include <CyDmac.h>
  21:.\Generated_Source\PSoC5/USBUART_1.c **** #include "USBUART_1.h"
  22:.\Generated_Source\PSoC5/USBUART_1.c **** #include "USBUART_1_pvt.h"
  23:.\Generated_Source\PSoC5/USBUART_1.c **** #include "USBUART_1_hid.h"
  24:.\Generated_Source\PSoC5/USBUART_1.c **** #if(USBUART_1_DMA1_REMOVE == 0u)
  25:.\Generated_Source\PSoC5/USBUART_1.c ****     #include "USBUART_1_ep1_dma.h"
  26:.\Generated_Source\PSoC5/USBUART_1.c **** #endif   /*  USBUART_1_DMA1_REMOVE */
  27:.\Generated_Source\PSoC5/USBUART_1.c **** #if(USBUART_1_DMA2_REMOVE == 0u)
  28:.\Generated_Source\PSoC5/USBUART_1.c ****     #include "USBUART_1_ep2_dma.h"
  29:.\Generated_Source\PSoC5/USBUART_1.c **** #endif   /*  USBUART_1_DMA2_REMOVE */
  30:.\Generated_Source\PSoC5/USBUART_1.c **** #if(USBUART_1_DMA3_REMOVE == 0u)
  31:.\Generated_Source\PSoC5/USBUART_1.c ****     #include "USBUART_1_ep3_dma.h"
ARM GAS  C:\Users\Alex\AppData\Local\Temp\ccbj9lYo.s 			page 2


  32:.\Generated_Source\PSoC5/USBUART_1.c **** #endif   /*  USBUART_1_DMA3_REMOVE */
  33:.\Generated_Source\PSoC5/USBUART_1.c **** #if(USBUART_1_DMA4_REMOVE == 0u)
  34:.\Generated_Source\PSoC5/USBUART_1.c ****     #include "USBUART_1_ep4_dma.h"
  35:.\Generated_Source\PSoC5/USBUART_1.c **** #endif   /*  USBUART_1_DMA4_REMOVE */
  36:.\Generated_Source\PSoC5/USBUART_1.c **** #if(USBUART_1_DMA5_REMOVE == 0u)
  37:.\Generated_Source\PSoC5/USBUART_1.c ****     #include "USBUART_1_ep5_dma.h"
  38:.\Generated_Source\PSoC5/USBUART_1.c **** #endif   /*  USBUART_1_DMA5_REMOVE */
  39:.\Generated_Source\PSoC5/USBUART_1.c **** #if(USBUART_1_DMA6_REMOVE == 0u)
  40:.\Generated_Source\PSoC5/USBUART_1.c ****     #include "USBUART_1_ep6_dma.h"
  41:.\Generated_Source\PSoC5/USBUART_1.c **** #endif   /*  USBUART_1_DMA6_REMOVE */
  42:.\Generated_Source\PSoC5/USBUART_1.c **** #if(USBUART_1_DMA7_REMOVE == 0u)
  43:.\Generated_Source\PSoC5/USBUART_1.c ****     #include "USBUART_1_ep7_dma.h"
  44:.\Generated_Source\PSoC5/USBUART_1.c **** #endif   /*  USBUART_1_DMA7_REMOVE */
  45:.\Generated_Source\PSoC5/USBUART_1.c **** #if(USBUART_1_DMA8_REMOVE == 0u)
  46:.\Generated_Source\PSoC5/USBUART_1.c ****     #include "USBUART_1_ep8_dma.h"
  47:.\Generated_Source\PSoC5/USBUART_1.c **** #endif   /*  USBUART_1_DMA8_REMOVE */
  48:.\Generated_Source\PSoC5/USBUART_1.c **** #if((USBUART_1_EP_MM == USBUART_1__EP_DMAAUTO) && (USBUART_1_EP_DMA_AUTO_OPT == 0u))
  49:.\Generated_Source\PSoC5/USBUART_1.c ****     #include "USBUART_1_EP_DMA_Done_isr.h"
  50:.\Generated_Source\PSoC5/USBUART_1.c ****     #include "USBUART_1_EP8_DMA_Done_SR.h"
  51:.\Generated_Source\PSoC5/USBUART_1.c ****     #include "USBUART_1_EP17_DMA_Done_SR.h"
  52:.\Generated_Source\PSoC5/USBUART_1.c **** #endif /* ((USBUART_1_EP_MM == USBUART_1__EP_DMAAUTO) && (USBUART_1_EP_DMA_AUTO_OPT == 0u)) */
  53:.\Generated_Source\PSoC5/USBUART_1.c **** 
  54:.\Generated_Source\PSoC5/USBUART_1.c **** 
  55:.\Generated_Source\PSoC5/USBUART_1.c **** /***************************************
  56:.\Generated_Source\PSoC5/USBUART_1.c **** * Global data allocation
  57:.\Generated_Source\PSoC5/USBUART_1.c **** ***************************************/
  58:.\Generated_Source\PSoC5/USBUART_1.c **** 
  59:.\Generated_Source\PSoC5/USBUART_1.c **** uint8 USBUART_1_initVar = 0u;
  60:.\Generated_Source\PSoC5/USBUART_1.c **** #if(USBUART_1_EP_MM != USBUART_1__EP_MANUAL)
  61:.\Generated_Source\PSoC5/USBUART_1.c ****     uint8 USBUART_1_DmaChan[USBUART_1_MAX_EP];
  62:.\Generated_Source\PSoC5/USBUART_1.c ****     uint8 USBUART_1_DmaTd[USBUART_1_MAX_EP];
  63:.\Generated_Source\PSoC5/USBUART_1.c **** #endif /*  USBUART_1_EP_MM */
  64:.\Generated_Source\PSoC5/USBUART_1.c **** #if((USBUART_1_EP_MM == USBUART_1__EP_DMAAUTO) && (USBUART_1_EP_DMA_AUTO_OPT == 0u))
  65:.\Generated_Source\PSoC5/USBUART_1.c ****     static uint8 clearInDataRdyStatus = USBUART_1_ARB_EPX_CFG_DEFAULT;
  66:.\Generated_Source\PSoC5/USBUART_1.c ****     uint8 USBUART_1_DmaNextTd[USBUART_1_MAX_EP];
  67:.\Generated_Source\PSoC5/USBUART_1.c ****     const uint8 USBUART_1_epX_TD_TERMOUT_EN[USBUART_1_MAX_EP] =
  68:.\Generated_Source\PSoC5/USBUART_1.c ****     {   0u,
  69:.\Generated_Source\PSoC5/USBUART_1.c ****         USBUART_1_ep1_TD_TERMOUT_EN,
  70:.\Generated_Source\PSoC5/USBUART_1.c ****         USBUART_1_ep2_TD_TERMOUT_EN,
  71:.\Generated_Source\PSoC5/USBUART_1.c ****         USBUART_1_ep3_TD_TERMOUT_EN,
  72:.\Generated_Source\PSoC5/USBUART_1.c ****         USBUART_1_ep4_TD_TERMOUT_EN,
  73:.\Generated_Source\PSoC5/USBUART_1.c ****         USBUART_1_ep5_TD_TERMOUT_EN,
  74:.\Generated_Source\PSoC5/USBUART_1.c ****         USBUART_1_ep6_TD_TERMOUT_EN,
  75:.\Generated_Source\PSoC5/USBUART_1.c ****         USBUART_1_ep7_TD_TERMOUT_EN,
  76:.\Generated_Source\PSoC5/USBUART_1.c ****         USBUART_1_ep8_TD_TERMOUT_EN
  77:.\Generated_Source\PSoC5/USBUART_1.c ****     };
  78:.\Generated_Source\PSoC5/USBUART_1.c ****     volatile uint16 USBUART_1_inLength[USBUART_1_MAX_EP];
  79:.\Generated_Source\PSoC5/USBUART_1.c ****     const uint8 *USBUART_1_inDataPointer[USBUART_1_MAX_EP];
  80:.\Generated_Source\PSoC5/USBUART_1.c ****     volatile uint8 USBUART_1_inBufFull[USBUART_1_MAX_EP];
  81:.\Generated_Source\PSoC5/USBUART_1.c **** #endif /* ((USBUART_1_EP_MM == USBUART_1__EP_DMAAUTO) && (USBUART_1_EP_DMA_AUTO_OPT == 0u)) */
  82:.\Generated_Source\PSoC5/USBUART_1.c **** 
  83:.\Generated_Source\PSoC5/USBUART_1.c **** 
  84:.\Generated_Source\PSoC5/USBUART_1.c **** /*******************************************************************************
  85:.\Generated_Source\PSoC5/USBUART_1.c **** * Function Name: USBUART_1_Start
  86:.\Generated_Source\PSoC5/USBUART_1.c **** ********************************************************************************
  87:.\Generated_Source\PSoC5/USBUART_1.c **** *
  88:.\Generated_Source\PSoC5/USBUART_1.c **** * Summary:
ARM GAS  C:\Users\Alex\AppData\Local\Temp\ccbj9lYo.s 			page 3


  89:.\Generated_Source\PSoC5/USBUART_1.c **** *  This function initialize the USB SIE, arbiter and the
  90:.\Generated_Source\PSoC5/USBUART_1.c **** *  endpoint APIs, including setting the D+ Pullup
  91:.\Generated_Source\PSoC5/USBUART_1.c **** *
  92:.\Generated_Source\PSoC5/USBUART_1.c **** * Parameters:
  93:.\Generated_Source\PSoC5/USBUART_1.c **** *  device: Contains the device number of the desired device descriptor.
  94:.\Generated_Source\PSoC5/USBUART_1.c **** *          The device number can be found in the Device Descriptor Tab of
  95:.\Generated_Source\PSoC5/USBUART_1.c **** *          "Configure" dialog, under the settings of desired Device Descriptor,
  96:.\Generated_Source\PSoC5/USBUART_1.c **** *          in the "Device Number" field.
  97:.\Generated_Source\PSoC5/USBUART_1.c **** *  mode: The operating voltage. This determines whether the voltage regulator
  98:.\Generated_Source\PSoC5/USBUART_1.c **** *        is enabled for 5V operation or if pass through mode is used for 3.3V
  99:.\Generated_Source\PSoC5/USBUART_1.c **** *        operation. Symbolic names and their associated values are given in the
 100:.\Generated_Source\PSoC5/USBUART_1.c **** *        following table.
 101:.\Generated_Source\PSoC5/USBUART_1.c **** *       USBUART_1_3V_OPERATION - Disable voltage regulator and pass-thru
 102:.\Generated_Source\PSoC5/USBUART_1.c **** *                                       Vcc for pull-up
 103:.\Generated_Source\PSoC5/USBUART_1.c **** *       USBUART_1_5V_OPERATION - Enable voltage regulator and use
 104:.\Generated_Source\PSoC5/USBUART_1.c **** *                                       regulator for pull-up
 105:.\Generated_Source\PSoC5/USBUART_1.c **** *       USBUART_1_DWR_VDDD_OPERATION - Enable or Disable voltage
 106:.\Generated_Source\PSoC5/USBUART_1.c **** *                         regulator depend on Vddd Voltage configuration in DWR.
 107:.\Generated_Source\PSoC5/USBUART_1.c **** *
 108:.\Generated_Source\PSoC5/USBUART_1.c **** * Return:
 109:.\Generated_Source\PSoC5/USBUART_1.c **** *   None.
 110:.\Generated_Source\PSoC5/USBUART_1.c **** *
 111:.\Generated_Source\PSoC5/USBUART_1.c **** * Global variables:
 112:.\Generated_Source\PSoC5/USBUART_1.c **** *  The USBUART_1_intiVar variable is used to indicate initial
 113:.\Generated_Source\PSoC5/USBUART_1.c **** *  configuration of this component. The variable is initialized to zero (0u)
 114:.\Generated_Source\PSoC5/USBUART_1.c **** *  and set to one (1u) the first time USBUART_1_Start() is called.
 115:.\Generated_Source\PSoC5/USBUART_1.c **** *  This allows for component Re-Start without unnecessary re-initialization
 116:.\Generated_Source\PSoC5/USBUART_1.c **** *  in all subsequent calls to the USBUART_1_Start() routine.
 117:.\Generated_Source\PSoC5/USBUART_1.c **** *  If re-initialization of the component is required the variable should be set
 118:.\Generated_Source\PSoC5/USBUART_1.c **** *  to zero before call of UART_Start() routine, or the user may call
 119:.\Generated_Source\PSoC5/USBUART_1.c **** *  USBUART_1_Init() and USBUART_1_InitComponent() as done
 120:.\Generated_Source\PSoC5/USBUART_1.c **** *  in the USBUART_1_Start() routine.
 121:.\Generated_Source\PSoC5/USBUART_1.c **** *
 122:.\Generated_Source\PSoC5/USBUART_1.c **** * Side Effects:
 123:.\Generated_Source\PSoC5/USBUART_1.c **** *   This function will reset all communication states to default.
 124:.\Generated_Source\PSoC5/USBUART_1.c **** *
 125:.\Generated_Source\PSoC5/USBUART_1.c **** * Reentrant:
 126:.\Generated_Source\PSoC5/USBUART_1.c **** *  No.
 127:.\Generated_Source\PSoC5/USBUART_1.c **** *
 128:.\Generated_Source\PSoC5/USBUART_1.c **** *******************************************************************************/
 129:.\Generated_Source\PSoC5/USBUART_1.c **** void USBUART_1_Start(uint8 device, uint8 mode) 
 130:.\Generated_Source\PSoC5/USBUART_1.c **** {
 131:.\Generated_Source\PSoC5/USBUART_1.c ****     /* If not Initialized then initialize all required hardware and software */
 132:.\Generated_Source\PSoC5/USBUART_1.c ****     if(USBUART_1_initVar == 0u)
 133:.\Generated_Source\PSoC5/USBUART_1.c ****     {
 134:.\Generated_Source\PSoC5/USBUART_1.c ****         USBUART_1_Init();
 135:.\Generated_Source\PSoC5/USBUART_1.c ****         USBUART_1_initVar = 1u;
 136:.\Generated_Source\PSoC5/USBUART_1.c ****     }
 137:.\Generated_Source\PSoC5/USBUART_1.c ****     USBUART_1_InitComponent(device, mode);
 138:.\Generated_Source\PSoC5/USBUART_1.c **** }
 139:.\Generated_Source\PSoC5/USBUART_1.c **** 
 140:.\Generated_Source\PSoC5/USBUART_1.c **** 
 141:.\Generated_Source\PSoC5/USBUART_1.c **** /*******************************************************************************
 142:.\Generated_Source\PSoC5/USBUART_1.c **** * Function Name: USBUART_1_Init
 143:.\Generated_Source\PSoC5/USBUART_1.c **** ********************************************************************************
 144:.\Generated_Source\PSoC5/USBUART_1.c **** *
 145:.\Generated_Source\PSoC5/USBUART_1.c **** * Summary:
ARM GAS  C:\Users\Alex\AppData\Local\Temp\ccbj9lYo.s 			page 4


 146:.\Generated_Source\PSoC5/USBUART_1.c **** *  Initialize component's hardware. Usually called in USBUART_1_Start().
 147:.\Generated_Source\PSoC5/USBUART_1.c **** *
 148:.\Generated_Source\PSoC5/USBUART_1.c **** * Parameters:
 149:.\Generated_Source\PSoC5/USBUART_1.c **** *  None.
 150:.\Generated_Source\PSoC5/USBUART_1.c **** *
 151:.\Generated_Source\PSoC5/USBUART_1.c **** * Return:
 152:.\Generated_Source\PSoC5/USBUART_1.c **** *  None.
 153:.\Generated_Source\PSoC5/USBUART_1.c **** *
 154:.\Generated_Source\PSoC5/USBUART_1.c **** * Reentrant:
 155:.\Generated_Source\PSoC5/USBUART_1.c **** *  No.
 156:.\Generated_Source\PSoC5/USBUART_1.c **** *
 157:.\Generated_Source\PSoC5/USBUART_1.c **** *******************************************************************************/
 158:.\Generated_Source\PSoC5/USBUART_1.c **** void USBUART_1_Init(void) 
 159:.\Generated_Source\PSoC5/USBUART_1.c **** {
  27              		.loc 1 159 0
  28              		.cfi_startproc
  29              		@ args = 0, pretend = 0, frame = 0
  30              		@ frame_needed = 0, uses_anonymous_args = 0
  31 0000 F8B5     		push	{r3, r4, r5, r6, r7, lr}
  32              		.cfi_def_cfa_offset 24
  33              		.cfi_offset 3, -24
  34              		.cfi_offset 4, -20
  35              		.cfi_offset 5, -16
  36              		.cfi_offset 6, -12
  37              		.cfi_offset 7, -8
  38              		.cfi_offset 14, -4
 160:.\Generated_Source\PSoC5/USBUART_1.c ****     uint8 enableInterrupts;
 161:.\Generated_Source\PSoC5/USBUART_1.c ****     #if(USBUART_1_EP_MM != USBUART_1__EP_MANUAL)
 162:.\Generated_Source\PSoC5/USBUART_1.c ****         uint16 i;
 163:.\Generated_Source\PSoC5/USBUART_1.c ****     #endif   /*  USBUART_1_EP_MM != USBUART_1__EP_MANUAL */
 164:.\Generated_Source\PSoC5/USBUART_1.c **** 
 165:.\Generated_Source\PSoC5/USBUART_1.c ****     enableInterrupts = CyEnterCriticalSection();
  39              		.loc 1 165 0
  40 0002 FFF7FEFF 		bl	CyEnterCriticalSection
  41              	.LVL0:
  42 0006 0546     		mov	r5, r0
  43              	.LVL1:
 166:.\Generated_Source\PSoC5/USBUART_1.c **** 
 167:.\Generated_Source\PSoC5/USBUART_1.c ****     /* Enable USB block  */
 168:.\Generated_Source\PSoC5/USBUART_1.c ****     USBUART_1_PM_ACT_CFG_REG |= USBUART_1_PM_ACT_EN_FSUSB;
  44              		.loc 1 168 0
  45 0008 444A     		ldr	r2, .L5
  46 000a 1378     		ldrb	r3, [r2]	@ zero_extendqisi2
  47 000c 43F00103 		orr	r3, r3, #1
  48 0010 1370     		strb	r3, [r2]
 169:.\Generated_Source\PSoC5/USBUART_1.c ****     /* Enable USB block for Standby Power Mode */
 170:.\Generated_Source\PSoC5/USBUART_1.c ****     USBUART_1_PM_STBY_CFG_REG |= USBUART_1_PM_STBY_EN_FSUSB;
  49              		.loc 1 170 0
  50 0012 1032     		adds	r2, r2, #16
  51 0014 1378     		ldrb	r3, [r2]	@ zero_extendqisi2
  52 0016 43F00103 		orr	r3, r3, #1
  53 001a 1370     		strb	r3, [r2]
 171:.\Generated_Source\PSoC5/USBUART_1.c **** 
 172:.\Generated_Source\PSoC5/USBUART_1.c ****     /* Enable core clock */
 173:.\Generated_Source\PSoC5/USBUART_1.c ****     USBUART_1_USB_CLK_EN_REG = USBUART_1_USB_CLK_ENABLE;
  54              		.loc 1 173 0
  55 001c 0127     		movs	r7, #1
ARM GAS  C:\Users\Alex\AppData\Local\Temp\ccbj9lYo.s 			page 5


  56 001e 404B     		ldr	r3, .L5+4
  57 0020 1F70     		strb	r7, [r3]
 174:.\Generated_Source\PSoC5/USBUART_1.c **** 
 175:.\Generated_Source\PSoC5/USBUART_1.c ****     USBUART_1_CR1_REG = USBUART_1_CR1_ENABLE_LOCK;
  58              		.loc 1 175 0
  59 0022 0226     		movs	r6, #2
  60 0024 943B     		subs	r3, r3, #148
  61 0026 1E70     		strb	r6, [r3]
 176:.\Generated_Source\PSoC5/USBUART_1.c **** 
 177:.\Generated_Source\PSoC5/USBUART_1.c ****     /* ENABLING USBIO PADS IN USB MODE FROM I/O MODE */
 178:.\Generated_Source\PSoC5/USBUART_1.c ****     /* Ensure USB transmit enable is low (USB_USBIO_CR0.ten). - Manual Transmission - Disabled */
 179:.\Generated_Source\PSoC5/USBUART_1.c ****     USBUART_1_USBIO_CR0_REG &= ((uint8)(~USBUART_1_USBIO_CR0_TEN));
  62              		.loc 1 179 0
  63 0028 02F5E252 		add	r2, r2, #7232
  64 002c 1B32     		adds	r2, r2, #27
  65 002e 1378     		ldrb	r3, [r2]	@ zero_extendqisi2
  66 0030 03F07F03 		and	r3, r3, #127
  67 0034 1370     		strb	r3, [r2]
 180:.\Generated_Source\PSoC5/USBUART_1.c ****     CyDelayUs(0u);  /*~50ns delay */
  68              		.loc 1 180 0
  69 0036 0020     		movs	r0, #0
  70 0038 FFF7FEFF 		bl	CyDelayUs
  71              	.LVL2:
 181:.\Generated_Source\PSoC5/USBUART_1.c ****     /* Disable the USBIO by asserting PM.USB_CR0.fsusbio_pd_n(Inverted)
 182:.\Generated_Source\PSoC5/USBUART_1.c ****     *  high. This will have been set low by the power manger out of reset.
 183:.\Generated_Source\PSoC5/USBUART_1.c ****     *  Also confirm USBIO pull-up disabled
 184:.\Generated_Source\PSoC5/USBUART_1.c ****     */
 185:.\Generated_Source\PSoC5/USBUART_1.c ****     USBUART_1_PM_USB_CR0_REG &= ((uint8)(~(USBUART_1_PM_USB_CR0_PD_N |
  72              		.loc 1 185 0
  73 003c 394C     		ldr	r4, .L5+8
  74 003e 2378     		ldrb	r3, [r4]	@ zero_extendqisi2
  75 0040 03F0F903 		and	r3, r3, #249
  76 0044 2370     		strb	r3, [r4]
 186:.\Generated_Source\PSoC5/USBUART_1.c ****                                                   USBUART_1_PM_USB_CR0_PD_PULLUP_N)));
 187:.\Generated_Source\PSoC5/USBUART_1.c **** 
 188:.\Generated_Source\PSoC5/USBUART_1.c ****     /* Select iomode to USB mode*/
 189:.\Generated_Source\PSoC5/USBUART_1.c ****     USBUART_1_USBIO_CR1_REG &= ((uint8)(~USBUART_1_USBIO_CR1_IOMODE));
  77              		.loc 1 189 0
  78 0046 384A     		ldr	r2, .L5+12
  79 0048 1378     		ldrb	r3, [r2]	@ zero_extendqisi2
  80 004a 03F0DF03 		and	r3, r3, #223
  81 004e 1370     		strb	r3, [r2]
 190:.\Generated_Source\PSoC5/USBUART_1.c **** 
 191:.\Generated_Source\PSoC5/USBUART_1.c ****     /* Enable the USBIO reference by setting PM.USB_CR0.fsusbio_ref_en.*/
 192:.\Generated_Source\PSoC5/USBUART_1.c ****     USBUART_1_PM_USB_CR0_REG |= USBUART_1_PM_USB_CR0_REF_EN;
  82              		.loc 1 192 0
  83 0050 2378     		ldrb	r3, [r4]	@ zero_extendqisi2
  84 0052 3B43     		orrs	r3, r3, r7
  85 0054 2370     		strb	r3, [r4]
 193:.\Generated_Source\PSoC5/USBUART_1.c ****     /* The reference will be available 1 us after the regulator is enabled */
 194:.\Generated_Source\PSoC5/USBUART_1.c ****     CyDelayUs(1u);
  86              		.loc 1 194 0
  87 0056 3846     		mov	r0, r7
  88 0058 FFF7FEFF 		bl	CyDelayUs
  89              	.LVL3:
 195:.\Generated_Source\PSoC5/USBUART_1.c ****     /* OR 40us after power restored */
 196:.\Generated_Source\PSoC5/USBUART_1.c ****     CyDelayUs(40u);
ARM GAS  C:\Users\Alex\AppData\Local\Temp\ccbj9lYo.s 			page 6


  90              		.loc 1 196 0
  91 005c 2820     		movs	r0, #40
  92 005e FFF7FEFF 		bl	CyDelayUs
  93              	.LVL4:
 197:.\Generated_Source\PSoC5/USBUART_1.c ****     /* Ensure the single ended disable bits are low (PRT15.INP_DIS[7:6])(input receiver enabled). *
 198:.\Generated_Source\PSoC5/USBUART_1.c ****     USBUART_1_DM_INP_DIS_REG &= ((uint8)(~USBUART_1_DM_MASK));
  94              		.loc 1 198 0
  95 0062 324B     		ldr	r3, .L5+16
  96 0064 1A78     		ldrb	r2, [r3]	@ zero_extendqisi2
  97 0066 02F07F02 		and	r2, r2, #127
  98 006a 1A70     		strb	r2, [r3]
 199:.\Generated_Source\PSoC5/USBUART_1.c ****     USBUART_1_DP_INP_DIS_REG &= ((uint8)(~USBUART_1_DP_MASK));
  99              		.loc 1 199 0
 100 006c 1A78     		ldrb	r2, [r3]	@ zero_extendqisi2
 101 006e 02F0BF02 		and	r2, r2, #191
 102 0072 1A70     		strb	r2, [r3]
 200:.\Generated_Source\PSoC5/USBUART_1.c **** 
 201:.\Generated_Source\PSoC5/USBUART_1.c ****     /* Enable USBIO */
 202:.\Generated_Source\PSoC5/USBUART_1.c ****     USBUART_1_PM_USB_CR0_REG |= USBUART_1_PM_USB_CR0_PD_N;
 103              		.loc 1 202 0
 104 0074 2378     		ldrb	r3, [r4]	@ zero_extendqisi2
 105 0076 3343     		orrs	r3, r3, r6
 106 0078 2370     		strb	r3, [r4]
 203:.\Generated_Source\PSoC5/USBUART_1.c ****     CyDelayUs(2u);
 107              		.loc 1 203 0
 108 007a 3046     		mov	r0, r6
 109 007c FFF7FEFF 		bl	CyDelayUs
 110              	.LVL5:
 204:.\Generated_Source\PSoC5/USBUART_1.c ****     /* Set the USBIO pull-up enable */
 205:.\Generated_Source\PSoC5/USBUART_1.c ****     USBUART_1_PM_USB_CR0_REG |= USBUART_1_PM_USB_CR0_PD_PULLUP_N;
 111              		.loc 1 205 0
 112 0080 2378     		ldrb	r3, [r4]	@ zero_extendqisi2
 113 0082 43F00403 		orr	r3, r3, #4
 114 0086 2370     		strb	r3, [r4]
 206:.\Generated_Source\PSoC5/USBUART_1.c **** 
 207:.\Generated_Source\PSoC5/USBUART_1.c ****     /* Write WAx */
 208:.\Generated_Source\PSoC5/USBUART_1.c ****     CY_SET_REG8(USBUART_1_ARB_RW1_WA_PTR,     0u);
 115              		.loc 1 208 0
 116 0088 0023     		movs	r3, #0
 117 008a 294A     		ldr	r2, .L5+20
 118 008c 1370     		strb	r3, [r2]
 209:.\Generated_Source\PSoC5/USBUART_1.c ****     CY_SET_REG8(USBUART_1_ARB_RW1_WA_MSB_PTR, 0u);
 119              		.loc 1 209 0
 120 008e 0132     		adds	r2, r2, #1
 121 0090 1370     		strb	r3, [r2]
 122              	.LVL6:
 210:.\Generated_Source\PSoC5/USBUART_1.c **** 
 211:.\Generated_Source\PSoC5/USBUART_1.c ****     #if(USBUART_1_EP_MM != USBUART_1__EP_MANUAL)
 212:.\Generated_Source\PSoC5/USBUART_1.c ****         /* Init transfer descriptor. This will be used to detect the DMA state - initialized or not
 213:.\Generated_Source\PSoC5/USBUART_1.c ****         for (i = 0u; i < USBUART_1_MAX_EP; i++)
 123              		.loc 1 213 0
 124 0092 04E0     		b	.L2
 125              	.LVL7:
 126              	.L3:
 214:.\Generated_Source\PSoC5/USBUART_1.c ****         {
 215:.\Generated_Source\PSoC5/USBUART_1.c ****             USBUART_1_DmaTd[i] = DMA_INVALID_TD;
 127              		.loc 1 215 0 discriminator 3
ARM GAS  C:\Users\Alex\AppData\Local\Temp\ccbj9lYo.s 			page 7


 128 0094 FF21     		movs	r1, #255
 129 0096 274A     		ldr	r2, .L5+24
 130 0098 D154     		strb	r1, [r2, r3]
 213:.\Generated_Source\PSoC5/USBUART_1.c ****         {
 131              		.loc 1 213 0 discriminator 3
 132 009a 0133     		adds	r3, r3, #1
 133              	.LVL8:
 134 009c 9BB2     		uxth	r3, r3
 135              	.LVL9:
 136              	.L2:
 213:.\Generated_Source\PSoC5/USBUART_1.c ****         {
 137              		.loc 1 213 0 is_stmt 0 discriminator 1
 138 009e 082B     		cmp	r3, #8
 139 00a0 F8D9     		bls	.L3
 216:.\Generated_Source\PSoC5/USBUART_1.c ****             #if ((USBUART_1_EP_MM == USBUART_1__EP_DMAAUTO) && (USBUART_1_EP_DMA_AUTO_OPT == 0u))
 217:.\Generated_Source\PSoC5/USBUART_1.c ****                 USBUART_1_DmaNextTd[i] = DMA_INVALID_TD;
 218:.\Generated_Source\PSoC5/USBUART_1.c ****             #endif /* ((USBUART_1_EP_MM == USBUART_1__EP_DMAAUTO) && (USBUART_1_EP_DMA_AUTO_OPT == 
 219:.\Generated_Source\PSoC5/USBUART_1.c ****         }
 220:.\Generated_Source\PSoC5/USBUART_1.c ****     #endif   /*  USBUART_1_EP_MM != USBUART_1__EP_MANUAL */
 221:.\Generated_Source\PSoC5/USBUART_1.c **** 
 222:.\Generated_Source\PSoC5/USBUART_1.c ****     CyExitCriticalSection(enableInterrupts);
 140              		.loc 1 222 0 is_stmt 1
 141 00a2 2846     		mov	r0, r5
 142 00a4 FFF7FEFF 		bl	CyExitCriticalSection
 143              	.LVL10:
 223:.\Generated_Source\PSoC5/USBUART_1.c **** 
 224:.\Generated_Source\PSoC5/USBUART_1.c **** 
 225:.\Generated_Source\PSoC5/USBUART_1.c ****     /* Set the bus reset Interrupt. */
 226:.\Generated_Source\PSoC5/USBUART_1.c ****     (void) CyIntSetVector(USBUART_1_BUS_RESET_VECT_NUM,   &USBUART_1_BUS_RESET_ISR);
 144              		.loc 1 226 0
 145 00a8 1720     		movs	r0, #23
 146 00aa 2349     		ldr	r1, .L5+28
 147 00ac FFF7FEFF 		bl	CyIntSetVector
 148              	.LVL11:
 227:.\Generated_Source\PSoC5/USBUART_1.c ****     CyIntSetPriority(USBUART_1_BUS_RESET_VECT_NUM, USBUART_1_BUS_RESET_PRIOR);
 149              		.loc 1 227 0
 150 00b0 1720     		movs	r0, #23
 151 00b2 0721     		movs	r1, #7
 152 00b4 FFF7FEFF 		bl	CyIntSetPriority
 153              	.LVL12:
 228:.\Generated_Source\PSoC5/USBUART_1.c **** 
 229:.\Generated_Source\PSoC5/USBUART_1.c ****     /* Set the SOF Interrupt. */
 230:.\Generated_Source\PSoC5/USBUART_1.c ****     #if(USBUART_1_SOF_ISR_REMOVE == 0u)
 231:.\Generated_Source\PSoC5/USBUART_1.c ****         (void) CyIntSetVector(USBUART_1_SOF_VECT_NUM,   &USBUART_1_SOF_ISR);
 154              		.loc 1 231 0
 155 00b8 1520     		movs	r0, #21
 156 00ba 2049     		ldr	r1, .L5+32
 157 00bc FFF7FEFF 		bl	CyIntSetVector
 158              	.LVL13:
 232:.\Generated_Source\PSoC5/USBUART_1.c ****         CyIntSetPriority(USBUART_1_SOF_VECT_NUM, USBUART_1_SOF_PRIOR);
 159              		.loc 1 232 0
 160 00c0 1520     		movs	r0, #21
 161 00c2 0721     		movs	r1, #7
 162 00c4 FFF7FEFF 		bl	CyIntSetPriority
 163              	.LVL14:
 233:.\Generated_Source\PSoC5/USBUART_1.c ****     #endif   /*  USBUART_1_SOF_ISR_REMOVE */
 234:.\Generated_Source\PSoC5/USBUART_1.c **** 
ARM GAS  C:\Users\Alex\AppData\Local\Temp\ccbj9lYo.s 			page 8


 235:.\Generated_Source\PSoC5/USBUART_1.c ****     /* Set the Control Endpoint Interrupt. */
 236:.\Generated_Source\PSoC5/USBUART_1.c ****     (void) CyIntSetVector(USBUART_1_EP_0_VECT_NUM,   &USBUART_1_EP_0_ISR);
 164              		.loc 1 236 0
 165 00c8 1820     		movs	r0, #24
 166 00ca 1D49     		ldr	r1, .L5+36
 167 00cc FFF7FEFF 		bl	CyIntSetVector
 168              	.LVL15:
 237:.\Generated_Source\PSoC5/USBUART_1.c ****     CyIntSetPriority(USBUART_1_EP_0_VECT_NUM, USBUART_1_EP_0_PRIOR);
 169              		.loc 1 237 0
 170 00d0 1820     		movs	r0, #24
 171 00d2 0721     		movs	r1, #7
 172 00d4 FFF7FEFF 		bl	CyIntSetPriority
 173              	.LVL16:
 238:.\Generated_Source\PSoC5/USBUART_1.c **** 
 239:.\Generated_Source\PSoC5/USBUART_1.c ****     /* Set the Data Endpoint 1 Interrupt. */
 240:.\Generated_Source\PSoC5/USBUART_1.c ****     #if(USBUART_1_EP1_ISR_REMOVE == 0u)
 241:.\Generated_Source\PSoC5/USBUART_1.c ****         (void) CyIntSetVector(USBUART_1_EP_1_VECT_NUM,   &USBUART_1_EP_1_ISR);
 174              		.loc 1 241 0
 175 00d8 0420     		movs	r0, #4
 176 00da 1A49     		ldr	r1, .L5+40
 177 00dc FFF7FEFF 		bl	CyIntSetVector
 178              	.LVL17:
 242:.\Generated_Source\PSoC5/USBUART_1.c ****         CyIntSetPriority(USBUART_1_EP_1_VECT_NUM, USBUART_1_EP_1_PRIOR);
 179              		.loc 1 242 0
 180 00e0 0420     		movs	r0, #4
 181 00e2 0721     		movs	r1, #7
 182 00e4 FFF7FEFF 		bl	CyIntSetPriority
 183              	.LVL18:
 243:.\Generated_Source\PSoC5/USBUART_1.c ****     #endif   /*  USBUART_1_EP1_ISR_REMOVE */
 244:.\Generated_Source\PSoC5/USBUART_1.c **** 
 245:.\Generated_Source\PSoC5/USBUART_1.c ****     /* Set the Data Endpoint 2 Interrupt. */
 246:.\Generated_Source\PSoC5/USBUART_1.c ****     #if(USBUART_1_EP2_ISR_REMOVE == 0u)
 247:.\Generated_Source\PSoC5/USBUART_1.c ****         (void) CyIntSetVector(USBUART_1_EP_2_VECT_NUM,   &USBUART_1_EP_2_ISR);
 184              		.loc 1 247 0
 185 00e8 0520     		movs	r0, #5
 186 00ea 1749     		ldr	r1, .L5+44
 187 00ec FFF7FEFF 		bl	CyIntSetVector
 188              	.LVL19:
 248:.\Generated_Source\PSoC5/USBUART_1.c ****         CyIntSetPriority(USBUART_1_EP_2_VECT_NUM, USBUART_1_EP_2_PRIOR);
 189              		.loc 1 248 0
 190 00f0 0520     		movs	r0, #5
 191 00f2 0721     		movs	r1, #7
 192 00f4 FFF7FEFF 		bl	CyIntSetPriority
 193              	.LVL20:
 249:.\Generated_Source\PSoC5/USBUART_1.c ****     #endif   /*  USBUART_1_EP2_ISR_REMOVE */
 250:.\Generated_Source\PSoC5/USBUART_1.c **** 
 251:.\Generated_Source\PSoC5/USBUART_1.c ****     /* Set the Data Endpoint 3 Interrupt. */
 252:.\Generated_Source\PSoC5/USBUART_1.c ****     #if(USBUART_1_EP3_ISR_REMOVE == 0u)
 253:.\Generated_Source\PSoC5/USBUART_1.c ****         (void) CyIntSetVector(USBUART_1_EP_3_VECT_NUM,   &USBUART_1_EP_3_ISR);
 194              		.loc 1 253 0
 195 00f8 0620     		movs	r0, #6
 196 00fa 1449     		ldr	r1, .L5+48
 197 00fc FFF7FEFF 		bl	CyIntSetVector
 198              	.LVL21:
 254:.\Generated_Source\PSoC5/USBUART_1.c ****         CyIntSetPriority(USBUART_1_EP_3_VECT_NUM, USBUART_1_EP_3_PRIOR);
 199              		.loc 1 254 0
 200 0100 0620     		movs	r0, #6
ARM GAS  C:\Users\Alex\AppData\Local\Temp\ccbj9lYo.s 			page 9


 201 0102 0721     		movs	r1, #7
 202 0104 FFF7FEFF 		bl	CyIntSetPriority
 203              	.LVL22:
 255:.\Generated_Source\PSoC5/USBUART_1.c ****     #endif   /*  USBUART_1_EP3_ISR_REMOVE */
 256:.\Generated_Source\PSoC5/USBUART_1.c **** 
 257:.\Generated_Source\PSoC5/USBUART_1.c ****     /* Set the Data Endpoint 4 Interrupt. */
 258:.\Generated_Source\PSoC5/USBUART_1.c ****     #if(USBUART_1_EP4_ISR_REMOVE == 0u)
 259:.\Generated_Source\PSoC5/USBUART_1.c ****         (void) CyIntSetVector(USBUART_1_EP_4_VECT_NUM,   &USBUART_1_EP_4_ISR);
 260:.\Generated_Source\PSoC5/USBUART_1.c ****         CyIntSetPriority(USBUART_1_EP_4_VECT_NUM, USBUART_1_EP_4_PRIOR);
 261:.\Generated_Source\PSoC5/USBUART_1.c ****     #endif   /*  USBUART_1_EP4_ISR_REMOVE */
 262:.\Generated_Source\PSoC5/USBUART_1.c **** 
 263:.\Generated_Source\PSoC5/USBUART_1.c ****     /* Set the Data Endpoint 5 Interrupt. */
 264:.\Generated_Source\PSoC5/USBUART_1.c ****     #if(USBUART_1_EP5_ISR_REMOVE == 0u)
 265:.\Generated_Source\PSoC5/USBUART_1.c ****         (void) CyIntSetVector(USBUART_1_EP_5_VECT_NUM,   &USBUART_1_EP_5_ISR);
 266:.\Generated_Source\PSoC5/USBUART_1.c ****         CyIntSetPriority(USBUART_1_EP_5_VECT_NUM, USBUART_1_EP_5_PRIOR);
 267:.\Generated_Source\PSoC5/USBUART_1.c ****     #endif   /*  USBUART_1_EP5_ISR_REMOVE */
 268:.\Generated_Source\PSoC5/USBUART_1.c **** 
 269:.\Generated_Source\PSoC5/USBUART_1.c ****     /* Set the Data Endpoint 6 Interrupt. */
 270:.\Generated_Source\PSoC5/USBUART_1.c ****     #if(USBUART_1_EP6_ISR_REMOVE == 0u)
 271:.\Generated_Source\PSoC5/USBUART_1.c ****         (void) CyIntSetVector(USBUART_1_EP_6_VECT_NUM,   &USBUART_1_EP_6_ISR);
 272:.\Generated_Source\PSoC5/USBUART_1.c ****         CyIntSetPriority(USBUART_1_EP_6_VECT_NUM, USBUART_1_EP_6_PRIOR);
 273:.\Generated_Source\PSoC5/USBUART_1.c ****     #endif   /*  USBUART_1_EP6_ISR_REMOVE */
 274:.\Generated_Source\PSoC5/USBUART_1.c **** 
 275:.\Generated_Source\PSoC5/USBUART_1.c ****      /* Set the Data Endpoint 7 Interrupt. */
 276:.\Generated_Source\PSoC5/USBUART_1.c ****     #if(USBUART_1_EP7_ISR_REMOVE == 0u)
 277:.\Generated_Source\PSoC5/USBUART_1.c ****         (void) CyIntSetVector(USBUART_1_EP_7_VECT_NUM,   &USBUART_1_EP_7_ISR);
 278:.\Generated_Source\PSoC5/USBUART_1.c ****         CyIntSetPriority(USBUART_1_EP_7_VECT_NUM, USBUART_1_EP_7_PRIOR);
 279:.\Generated_Source\PSoC5/USBUART_1.c ****     #endif   /*  USBUART_1_EP7_ISR_REMOVE */
 280:.\Generated_Source\PSoC5/USBUART_1.c **** 
 281:.\Generated_Source\PSoC5/USBUART_1.c ****     /* Set the Data Endpoint 8 Interrupt. */
 282:.\Generated_Source\PSoC5/USBUART_1.c ****     #if(USBUART_1_EP8_ISR_REMOVE == 0u)
 283:.\Generated_Source\PSoC5/USBUART_1.c ****         (void) CyIntSetVector(USBUART_1_EP_8_VECT_NUM,   &USBUART_1_EP_8_ISR);
 284:.\Generated_Source\PSoC5/USBUART_1.c ****         CyIntSetPriority(USBUART_1_EP_8_VECT_NUM, USBUART_1_EP_8_PRIOR);
 285:.\Generated_Source\PSoC5/USBUART_1.c ****     #endif   /*  USBUART_1_EP8_ISR_REMOVE */
 286:.\Generated_Source\PSoC5/USBUART_1.c **** 
 287:.\Generated_Source\PSoC5/USBUART_1.c ****     #if((USBUART_1_EP_MM != USBUART_1__EP_MANUAL) && (USBUART_1_ARB_ISR_REMOVE == 0u))
 288:.\Generated_Source\PSoC5/USBUART_1.c ****         /* Set the ARB Interrupt. */
 289:.\Generated_Source\PSoC5/USBUART_1.c ****         (void) CyIntSetVector(USBUART_1_ARB_VECT_NUM,   &USBUART_1_ARB_ISR);
 204              		.loc 1 289 0
 205 0108 1620     		movs	r0, #22
 206 010a 1149     		ldr	r1, .L5+52
 207 010c FFF7FEFF 		bl	CyIntSetVector
 208              	.LVL23:
 290:.\Generated_Source\PSoC5/USBUART_1.c ****         CyIntSetPriority(USBUART_1_ARB_VECT_NUM, USBUART_1_ARB_PRIOR);
 209              		.loc 1 290 0
 210 0110 1620     		movs	r0, #22
 211 0112 0021     		movs	r1, #0
 212 0114 FFF7FEFF 		bl	CyIntSetPriority
 213              	.LVL24:
 214 0118 F8BD     		pop	{r3, r4, r5, r6, r7, pc}
 215              	.LVL25:
 216              	.L6:
 217 011a 00BF     		.align	2
 218              	.L5:
 219 011c A5430040 		.word	1073759141
 220 0120 9D600040 		.word	1073766557
 221 0124 94430040 		.word	1073759124
ARM GAS  C:\Users\Alex\AppData\Local\Temp\ccbj9lYo.s 			page 10


 222 0128 12600040 		.word	1073766418
 223 012c F8510040 		.word	1073762808
 224 0130 84600040 		.word	1073766532
 225 0134 00000000 		.word	USBUART_1_DmaTd
 226 0138 00000000 		.word	USBUART_1_BUS_RESET_ISR
 227 013c 00000000 		.word	USBUART_1_SOF_ISR
 228 0140 00000000 		.word	USBUART_1_EP_0_ISR
 229 0144 00000000 		.word	USBUART_1_EP_1_ISR
 230 0148 00000000 		.word	USBUART_1_EP_2_ISR
 231 014c 00000000 		.word	USBUART_1_EP_3_ISR
 232 0150 00000000 		.word	USBUART_1_ARB_ISR
 233              		.cfi_endproc
 234              	.LFE1:
 235              		.size	USBUART_1_Init, .-USBUART_1_Init
 236              		.section	.text.USBUART_1_InitComponent,"ax",%progbits
 237              		.align	2
 238              		.global	USBUART_1_InitComponent
 239              		.thumb
 240              		.thumb_func
 241              		.type	USBUART_1_InitComponent, %function
 242              	USBUART_1_InitComponent:
 243              	.LFB2:
 291:.\Generated_Source\PSoC5/USBUART_1.c ****     #endif   /*  USBUART_1_EP_MM != USBUART_1__EP_MANUAL */
 292:.\Generated_Source\PSoC5/USBUART_1.c **** 
 293:.\Generated_Source\PSoC5/USBUART_1.c **** }
 294:.\Generated_Source\PSoC5/USBUART_1.c **** 
 295:.\Generated_Source\PSoC5/USBUART_1.c **** 
 296:.\Generated_Source\PSoC5/USBUART_1.c **** /*******************************************************************************
 297:.\Generated_Source\PSoC5/USBUART_1.c **** * Function Name: USBUART_1_InitComponent
 298:.\Generated_Source\PSoC5/USBUART_1.c **** ********************************************************************************
 299:.\Generated_Source\PSoC5/USBUART_1.c **** *
 300:.\Generated_Source\PSoC5/USBUART_1.c **** * Summary:
 301:.\Generated_Source\PSoC5/USBUART_1.c **** *  Initialize the component, except for the HW which is done one time in
 302:.\Generated_Source\PSoC5/USBUART_1.c **** *  the Start function.  This function pulls up D+.
 303:.\Generated_Source\PSoC5/USBUART_1.c **** *
 304:.\Generated_Source\PSoC5/USBUART_1.c **** * Parameters:
 305:.\Generated_Source\PSoC5/USBUART_1.c **** *  device: Contains the device number of the desired device descriptor.
 306:.\Generated_Source\PSoC5/USBUART_1.c **** *          The device number can be found in the Device Descriptor Tab of
 307:.\Generated_Source\PSoC5/USBUART_1.c **** *          "Configure" dialog, under the settings of desired Device Descriptor,
 308:.\Generated_Source\PSoC5/USBUART_1.c **** *          in the "Device Number" field.
 309:.\Generated_Source\PSoC5/USBUART_1.c **** *  mode: The operating voltage. This determines whether the voltage regulator
 310:.\Generated_Source\PSoC5/USBUART_1.c **** *        is enabled for 5V operation or if pass through mode is used for 3.3V
 311:.\Generated_Source\PSoC5/USBUART_1.c **** *        operation. Symbolic names and their associated values are given in the
 312:.\Generated_Source\PSoC5/USBUART_1.c **** *        following table.
 313:.\Generated_Source\PSoC5/USBUART_1.c **** *       USBUART_1_3V_OPERATION - Disable voltage regulator and pass-thru
 314:.\Generated_Source\PSoC5/USBUART_1.c **** *                                       Vcc for pull-up
 315:.\Generated_Source\PSoC5/USBUART_1.c **** *       USBUART_1_5V_OPERATION - Enable voltage regulator and use
 316:.\Generated_Source\PSoC5/USBUART_1.c **** *                                       regulator for pull-up
 317:.\Generated_Source\PSoC5/USBUART_1.c **** *       USBUART_1_DWR_VDDD_OPERATION - Enable or Disable voltage
 318:.\Generated_Source\PSoC5/USBUART_1.c **** *                         regulator depend on Vddd Voltage configuration in DWR.
 319:.\Generated_Source\PSoC5/USBUART_1.c **** *
 320:.\Generated_Source\PSoC5/USBUART_1.c **** * Return:
 321:.\Generated_Source\PSoC5/USBUART_1.c **** *   None.
 322:.\Generated_Source\PSoC5/USBUART_1.c **** *
 323:.\Generated_Source\PSoC5/USBUART_1.c **** * Global variables:
 324:.\Generated_Source\PSoC5/USBUART_1.c **** *   USBUART_1_device: Contains the device number of the desired device
 325:.\Generated_Source\PSoC5/USBUART_1.c **** *       descriptor. The device number can be found in the Device Descriptor Tab
ARM GAS  C:\Users\Alex\AppData\Local\Temp\ccbj9lYo.s 			page 11


 326:.\Generated_Source\PSoC5/USBUART_1.c **** *       of "Configure" dialog, under the settings of desired Device Descriptor,
 327:.\Generated_Source\PSoC5/USBUART_1.c **** *       in the "Device Number" field.
 328:.\Generated_Source\PSoC5/USBUART_1.c **** *   USBUART_1_transferState: This variable used by the communication
 329:.\Generated_Source\PSoC5/USBUART_1.c **** *       functions to handle current transfer state. Initialized to
 330:.\Generated_Source\PSoC5/USBUART_1.c **** *       TRANS_STATE_IDLE in this API.
 331:.\Generated_Source\PSoC5/USBUART_1.c **** *   USBUART_1_configuration: Contains current configuration number
 332:.\Generated_Source\PSoC5/USBUART_1.c **** *       which is set by the Host using SET_CONFIGURATION request.
 333:.\Generated_Source\PSoC5/USBUART_1.c **** *       Initialized to zero in this API.
 334:.\Generated_Source\PSoC5/USBUART_1.c **** *   USBUART_1_deviceAddress: Contains current device address. This
 335:.\Generated_Source\PSoC5/USBUART_1.c **** *       variable is initialized to zero in this API. Host starts to communicate
 336:.\Generated_Source\PSoC5/USBUART_1.c **** *      to device with address 0 and then set it to whatever value using
 337:.\Generated_Source\PSoC5/USBUART_1.c **** *      SET_ADDRESS request.
 338:.\Generated_Source\PSoC5/USBUART_1.c **** *   USBUART_1_deviceStatus: initialized to 0.
 339:.\Generated_Source\PSoC5/USBUART_1.c **** *       This is two bit variable which contain power status in first bit
 340:.\Generated_Source\PSoC5/USBUART_1.c **** *       (DEVICE_STATUS_BUS_POWERED or DEVICE_STATUS_SELF_POWERED) and remote
 341:.\Generated_Source\PSoC5/USBUART_1.c **** *       wakeup status (DEVICE_STATUS_REMOTE_WAKEUP) in second bit.
 342:.\Generated_Source\PSoC5/USBUART_1.c **** *   USBUART_1_lastPacketSize initialized to 0;
 343:.\Generated_Source\PSoC5/USBUART_1.c **** *
 344:.\Generated_Source\PSoC5/USBUART_1.c **** * Reentrant:
 345:.\Generated_Source\PSoC5/USBUART_1.c **** *  No.
 346:.\Generated_Source\PSoC5/USBUART_1.c **** *
 347:.\Generated_Source\PSoC5/USBUART_1.c **** *******************************************************************************/
 348:.\Generated_Source\PSoC5/USBUART_1.c **** void USBUART_1_InitComponent(uint8 device, uint8 mode) 
 349:.\Generated_Source\PSoC5/USBUART_1.c **** {
 244              		.loc 1 349 0
 245              		.cfi_startproc
 246              		@ args = 0, pretend = 0, frame = 0
 247              		@ frame_needed = 0, uses_anonymous_args = 0
 248              	.LVL26:
 249 0000 38B5     		push	{r3, r4, r5, lr}
 250              		.cfi_def_cfa_offset 16
 251              		.cfi_offset 3, -16
 252              		.cfi_offset 4, -12
 253              		.cfi_offset 5, -8
 254              		.cfi_offset 14, -4
 255              	.LVL27:
 350:.\Generated_Source\PSoC5/USBUART_1.c ****     /* Initialize _hidProtocol variable to comply with
 351:.\Generated_Source\PSoC5/USBUART_1.c ****     *  HID 7.2.6 Set_Protocol Request:
 352:.\Generated_Source\PSoC5/USBUART_1.c ****     *  "When initialized, all devices default to report protocol."
 353:.\Generated_Source\PSoC5/USBUART_1.c ****     */
 354:.\Generated_Source\PSoC5/USBUART_1.c ****     #if defined(USBUART_1_ENABLE_HID_CLASS)
 355:.\Generated_Source\PSoC5/USBUART_1.c ****         uint8 i;
 356:.\Generated_Source\PSoC5/USBUART_1.c **** 
 357:.\Generated_Source\PSoC5/USBUART_1.c ****         for (i = 0u; i < USBUART_1_MAX_INTERFACES_NUMBER; i++)
 256              		.loc 1 357 0
 257 0002 0023     		movs	r3, #0
 258 0004 04E0     		b	.L8
 259              	.LVL28:
 260              	.L9:
 358:.\Generated_Source\PSoC5/USBUART_1.c ****         {
 359:.\Generated_Source\PSoC5/USBUART_1.c ****             USBUART_1_hidProtocol[i] = USBUART_1_PROTOCOL_REPORT;
 261              		.loc 1 359 0 discriminator 3
 262 0006 0124     		movs	r4, #1
 263 0008 244A     		ldr	r2, .L16
 264 000a D454     		strb	r4, [r2, r3]
 357:.\Generated_Source\PSoC5/USBUART_1.c ****         {
 265              		.loc 1 357 0 discriminator 3
ARM GAS  C:\Users\Alex\AppData\Local\Temp\ccbj9lYo.s 			page 12


 266 000c 2344     		add	r3, r3, r4
 267              	.LVL29:
 268 000e DBB2     		uxtb	r3, r3
 269              	.LVL30:
 270              	.L8:
 357:.\Generated_Source\PSoC5/USBUART_1.c ****         {
 271              		.loc 1 357 0 is_stmt 0 discriminator 1
 272 0010 012B     		cmp	r3, #1
 273 0012 F8D9     		bls	.L9
 360:.\Generated_Source\PSoC5/USBUART_1.c ****         }
 361:.\Generated_Source\PSoC5/USBUART_1.c ****     #endif /* USBUART_1_ENABLE_HID_CLASS */
 362:.\Generated_Source\PSoC5/USBUART_1.c **** 
 363:.\Generated_Source\PSoC5/USBUART_1.c ****     /* Enable Interrupts. */
 364:.\Generated_Source\PSoC5/USBUART_1.c ****     CyIntEnable(USBUART_1_BUS_RESET_VECT_NUM);
 274              		.loc 1 364 0 is_stmt 1
 275 0014 224B     		ldr	r3, .L16+4
 276              	.LVL31:
 277 0016 4FF40002 		mov	r2, #8388608
 278 001a 1A60     		str	r2, [r3]
 365:.\Generated_Source\PSoC5/USBUART_1.c ****     CyIntEnable(USBUART_1_EP_0_VECT_NUM);
 279              		.loc 1 365 0
 280 001c 4FF08072 		mov	r2, #16777216
 281 0020 1A60     		str	r2, [r3]
 366:.\Generated_Source\PSoC5/USBUART_1.c ****     #if(USBUART_1_EP1_ISR_REMOVE == 0u)
 367:.\Generated_Source\PSoC5/USBUART_1.c ****         CyIntEnable(USBUART_1_EP_1_VECT_NUM);
 282              		.loc 1 367 0
 283 0022 1022     		movs	r2, #16
 284 0024 1A60     		str	r2, [r3]
 368:.\Generated_Source\PSoC5/USBUART_1.c ****     #endif   /*  USBUART_1_EP1_ISR_REMOVE */
 369:.\Generated_Source\PSoC5/USBUART_1.c ****     #if(USBUART_1_EP2_ISR_REMOVE == 0u)
 370:.\Generated_Source\PSoC5/USBUART_1.c ****         CyIntEnable(USBUART_1_EP_2_VECT_NUM);
 285              		.loc 1 370 0
 286 0026 2022     		movs	r2, #32
 287 0028 1A60     		str	r2, [r3]
 371:.\Generated_Source\PSoC5/USBUART_1.c ****     #endif   /*  USBUART_1_EP2_ISR_REMOVE */
 372:.\Generated_Source\PSoC5/USBUART_1.c ****     #if(USBUART_1_EP3_ISR_REMOVE == 0u)
 373:.\Generated_Source\PSoC5/USBUART_1.c ****         CyIntEnable(USBUART_1_EP_3_VECT_NUM);
 288              		.loc 1 373 0
 289 002a 4024     		movs	r4, #64
 290 002c 1C60     		str	r4, [r3]
 374:.\Generated_Source\PSoC5/USBUART_1.c ****     #endif   /*  USBUART_1_EP3_ISR_REMOVE */
 375:.\Generated_Source\PSoC5/USBUART_1.c ****     #if(USBUART_1_EP4_ISR_REMOVE == 0u)
 376:.\Generated_Source\PSoC5/USBUART_1.c ****         CyIntEnable(USBUART_1_EP_4_VECT_NUM);
 377:.\Generated_Source\PSoC5/USBUART_1.c ****     #endif   /*  USBUART_1_EP4_ISR_REMOVE */
 378:.\Generated_Source\PSoC5/USBUART_1.c ****     #if(USBUART_1_EP5_ISR_REMOVE == 0u)
 379:.\Generated_Source\PSoC5/USBUART_1.c ****         CyIntEnable(USBUART_1_EP_5_VECT_NUM);
 380:.\Generated_Source\PSoC5/USBUART_1.c ****     #endif   /*  USBUART_1_EP5_ISR_REMOVE */
 381:.\Generated_Source\PSoC5/USBUART_1.c ****     #if(USBUART_1_EP6_ISR_REMOVE == 0u)
 382:.\Generated_Source\PSoC5/USBUART_1.c ****         CyIntEnable(USBUART_1_EP_6_VECT_NUM);
 383:.\Generated_Source\PSoC5/USBUART_1.c ****     #endif   /*  USBUART_1_EP6_ISR_REMOVE */
 384:.\Generated_Source\PSoC5/USBUART_1.c ****     #if(USBUART_1_EP7_ISR_REMOVE == 0u)
 385:.\Generated_Source\PSoC5/USBUART_1.c ****         CyIntEnable(USBUART_1_EP_7_VECT_NUM);
 386:.\Generated_Source\PSoC5/USBUART_1.c ****     #endif   /*  USBUART_1_EP7_ISR_REMOVE */
 387:.\Generated_Source\PSoC5/USBUART_1.c ****     #if(USBUART_1_EP8_ISR_REMOVE == 0u)
 388:.\Generated_Source\PSoC5/USBUART_1.c ****         CyIntEnable(USBUART_1_EP_8_VECT_NUM);
 389:.\Generated_Source\PSoC5/USBUART_1.c ****     #endif   /*  USBUART_1_EP8_ISR_REMOVE */
 390:.\Generated_Source\PSoC5/USBUART_1.c ****     #if((USBUART_1_EP_MM != USBUART_1__EP_MANUAL) && (USBUART_1_ARB_ISR_REMOVE == 0u))
ARM GAS  C:\Users\Alex\AppData\Local\Temp\ccbj9lYo.s 			page 13


 391:.\Generated_Source\PSoC5/USBUART_1.c ****         /* usb arb interrupt enable */
 392:.\Generated_Source\PSoC5/USBUART_1.c ****         USBUART_1_ARB_INT_EN_REG = USBUART_1_ARB_INT_MASK;
 291              		.loc 1 392 0
 292 002e 0725     		movs	r5, #7
 293 0030 1C4C     		ldr	r4, .L16+8
 294 0032 2570     		strb	r5, [r4]
 393:.\Generated_Source\PSoC5/USBUART_1.c ****         CyIntEnable(USBUART_1_ARB_VECT_NUM);
 295              		.loc 1 393 0
 296 0034 4FF48004 		mov	r4, #4194304
 297 0038 1C60     		str	r4, [r3]
 394:.\Generated_Source\PSoC5/USBUART_1.c ****     #endif   /*  USBUART_1_EP_MM != USBUART_1__EP_MANUAL */
 395:.\Generated_Source\PSoC5/USBUART_1.c **** 
 396:.\Generated_Source\PSoC5/USBUART_1.c ****     /* Arbiter configuration for DMA transfers */
 397:.\Generated_Source\PSoC5/USBUART_1.c ****     #if(USBUART_1_EP_MM != USBUART_1__EP_MANUAL)
 398:.\Generated_Source\PSoC5/USBUART_1.c ****         #if(USBUART_1_EP_MM == USBUART_1__EP_DMAMANUAL)
 399:.\Generated_Source\PSoC5/USBUART_1.c ****             USBUART_1_ARB_CFG_REG = USBUART_1_ARB_CFG_MANUAL_DMA;
 298              		.loc 1 399 0
 299 003a 1B4B     		ldr	r3, .L16+12
 300 003c 1A70     		strb	r2, [r3]
 400:.\Generated_Source\PSoC5/USBUART_1.c ****         #endif   /*  USBUART_1_EP_MM == USBUART_1__EP_DMAMANUAL */
 401:.\Generated_Source\PSoC5/USBUART_1.c ****         #if(USBUART_1_EP_MM == USBUART_1__EP_DMAAUTO)
 402:.\Generated_Source\PSoC5/USBUART_1.c ****             /*Set cfg cmplt this rises DMA request when the full configuration is done */
 403:.\Generated_Source\PSoC5/USBUART_1.c ****             USBUART_1_ARB_CFG_REG = USBUART_1_ARB_CFG_AUTO_DMA | USBUART_1_ARB_CFG_AUTO_MEM;
 404:.\Generated_Source\PSoC5/USBUART_1.c ****             #if(USBUART_1_EP_DMA_AUTO_OPT == 0u)
 405:.\Generated_Source\PSoC5/USBUART_1.c ****                 /* Init interrupt which handles verification of the successful DMA transaction */
 406:.\Generated_Source\PSoC5/USBUART_1.c ****                 USBUART_1_EP_DMA_Done_isr_StartEx(&USBUART_1_EP_DMA_DONE_ISR);
 407:.\Generated_Source\PSoC5/USBUART_1.c ****                 USBUART_1_EP17_DMA_Done_SR_InterruptEnable();
 408:.\Generated_Source\PSoC5/USBUART_1.c ****                 USBUART_1_EP8_DMA_Done_SR_InterruptEnable();
 409:.\Generated_Source\PSoC5/USBUART_1.c ****             #endif /* USBUART_1_EP_DMA_AUTO_OPT == 0u */
 410:.\Generated_Source\PSoC5/USBUART_1.c ****         #endif   /*  USBUART_1_EP_MM == USBUART_1__EP_DMAAUTO */
 411:.\Generated_Source\PSoC5/USBUART_1.c ****     #endif   /*  USBUART_1_EP_MM != USBUART_1__EP_MANUAL */
 412:.\Generated_Source\PSoC5/USBUART_1.c **** 
 413:.\Generated_Source\PSoC5/USBUART_1.c ****     USBUART_1_transferState = USBUART_1_TRANS_STATE_IDLE;
 301              		.loc 1 413 0
 302 003e 0022     		movs	r2, #0
 303 0040 1A4B     		ldr	r3, .L16+16
 304 0042 1A70     		strb	r2, [r3]
 414:.\Generated_Source\PSoC5/USBUART_1.c **** 
 415:.\Generated_Source\PSoC5/USBUART_1.c ****     /* USB Locking: Enabled, VRegulator: depend on mode or DWR Voltage configuration*/
 416:.\Generated_Source\PSoC5/USBUART_1.c ****     switch(mode)
 305              		.loc 1 416 0
 306 0044 11B1     		cbz	r1, .L11
 307 0046 0129     		cmp	r1, #1
 308 0048 04D0     		beq	.L12
 309 004a 07E0     		b	.L14
 310              	.L11:
 417:.\Generated_Source\PSoC5/USBUART_1.c ****     {
 418:.\Generated_Source\PSoC5/USBUART_1.c ****         case USBUART_1_3V_OPERATION:
 419:.\Generated_Source\PSoC5/USBUART_1.c ****             USBUART_1_CR1_REG = USBUART_1_CR1_ENABLE_LOCK;
 311              		.loc 1 419 0
 312 004c 0222     		movs	r2, #2
 313 004e 184B     		ldr	r3, .L16+20
 314 0050 1A70     		strb	r2, [r3]
 420:.\Generated_Source\PSoC5/USBUART_1.c ****             break;
 315              		.loc 1 420 0
 316 0052 06E0     		b	.L13
 317              	.L12:
ARM GAS  C:\Users\Alex\AppData\Local\Temp\ccbj9lYo.s 			page 14


 421:.\Generated_Source\PSoC5/USBUART_1.c ****         case USBUART_1_5V_OPERATION:
 422:.\Generated_Source\PSoC5/USBUART_1.c ****             USBUART_1_CR1_REG = USBUART_1_CR1_ENABLE_LOCK | USBUART_1_CR1_REG_ENABLE;
 318              		.loc 1 422 0
 319 0054 0322     		movs	r2, #3
 320 0056 164B     		ldr	r3, .L16+20
 321 0058 1A70     		strb	r2, [r3]
 423:.\Generated_Source\PSoC5/USBUART_1.c ****             break;
 322              		.loc 1 423 0
 323 005a 02E0     		b	.L13
 324              	.L14:
 424:.\Generated_Source\PSoC5/USBUART_1.c ****         default:   /*USBUART_1_DWR_VDDD_OPERATION */
 425:.\Generated_Source\PSoC5/USBUART_1.c ****             #if(USBUART_1_VDDD_MV < USBUART_1_3500MV)
 426:.\Generated_Source\PSoC5/USBUART_1.c ****                 USBUART_1_CR1_REG = USBUART_1_CR1_ENABLE_LOCK;
 427:.\Generated_Source\PSoC5/USBUART_1.c ****             #else
 428:.\Generated_Source\PSoC5/USBUART_1.c ****                 USBUART_1_CR1_REG = USBUART_1_CR1_ENABLE_LOCK | USBUART_1_CR1_REG_ENABLE;
 325              		.loc 1 428 0
 326 005c 0322     		movs	r2, #3
 327 005e 144B     		ldr	r3, .L16+20
 328 0060 1A70     		strb	r2, [r3]
 329              	.L13:
 429:.\Generated_Source\PSoC5/USBUART_1.c ****             #endif /*  USBUART_1_VDDD_MV < USBUART_1_3500MV */
 430:.\Generated_Source\PSoC5/USBUART_1.c ****             break;
 431:.\Generated_Source\PSoC5/USBUART_1.c ****     }
 432:.\Generated_Source\PSoC5/USBUART_1.c **** 
 433:.\Generated_Source\PSoC5/USBUART_1.c ****     /* Record the descriptor selection */
 434:.\Generated_Source\PSoC5/USBUART_1.c ****     USBUART_1_device = device;
 330              		.loc 1 434 0
 331 0062 144B     		ldr	r3, .L16+24
 332 0064 1870     		strb	r0, [r3]
 435:.\Generated_Source\PSoC5/USBUART_1.c **** 
 436:.\Generated_Source\PSoC5/USBUART_1.c ****     /* Clear all of the component data */
 437:.\Generated_Source\PSoC5/USBUART_1.c ****     USBUART_1_configuration = 0u;
 333              		.loc 1 437 0
 334 0066 0023     		movs	r3, #0
 335 0068 134A     		ldr	r2, .L16+28
 336 006a 1370     		strb	r3, [r2]
 438:.\Generated_Source\PSoC5/USBUART_1.c ****     USBUART_1_interfaceNumber = 0u;
 337              		.loc 1 438 0
 338 006c 134A     		ldr	r2, .L16+32
 339 006e 1370     		strb	r3, [r2]
 439:.\Generated_Source\PSoC5/USBUART_1.c ****     USBUART_1_configurationChanged = 0u;
 340              		.loc 1 439 0
 341 0070 134A     		ldr	r2, .L16+36
 342 0072 1370     		strb	r3, [r2]
 440:.\Generated_Source\PSoC5/USBUART_1.c ****     USBUART_1_deviceAddress  = 0u;
 343              		.loc 1 440 0
 344 0074 134A     		ldr	r2, .L16+40
 345 0076 1370     		strb	r3, [r2]
 441:.\Generated_Source\PSoC5/USBUART_1.c ****     USBUART_1_deviceStatus = 0u;
 346              		.loc 1 441 0
 347 0078 134A     		ldr	r2, .L16+44
 348 007a 1370     		strb	r3, [r2]
 442:.\Generated_Source\PSoC5/USBUART_1.c **** 
 443:.\Generated_Source\PSoC5/USBUART_1.c ****     USBUART_1_lastPacketSize = 0u;
 349              		.loc 1 443 0
 350 007c 134A     		ldr	r2, .L16+48
 351 007e 1370     		strb	r3, [r2]
ARM GAS  C:\Users\Alex\AppData\Local\Temp\ccbj9lYo.s 			page 15


 444:.\Generated_Source\PSoC5/USBUART_1.c **** 
 445:.\Generated_Source\PSoC5/USBUART_1.c ****     /*  ACK Setup, Stall IN/OUT */
 446:.\Generated_Source\PSoC5/USBUART_1.c ****     CY_SET_REG8(USBUART_1_EP0_CR_PTR, USBUART_1_MODE_STALL_IN_OUT);
 352              		.loc 1 446 0
 353 0080 0322     		movs	r2, #3
 354 0082 134B     		ldr	r3, .L16+52
 355 0084 1A70     		strb	r2, [r3]
 447:.\Generated_Source\PSoC5/USBUART_1.c **** 
 448:.\Generated_Source\PSoC5/USBUART_1.c ****     /* Enable the SIE with an address 0 */
 449:.\Generated_Source\PSoC5/USBUART_1.c ****     CY_SET_REG8(USBUART_1_CR0_PTR, USBUART_1_CR0_ENABLE);
 356              		.loc 1 449 0
 357 0086 8022     		movs	r2, #128
 358 0088 203B     		subs	r3, r3, #32
 359 008a 1A70     		strb	r2, [r3]
 450:.\Generated_Source\PSoC5/USBUART_1.c **** 
 451:.\Generated_Source\PSoC5/USBUART_1.c ****     /* Workaround for PSOC5LP */
 452:.\Generated_Source\PSoC5/USBUART_1.c ****     CyDelayCycles(1u);
 360              		.loc 1 452 0
 361 008c 0120     		movs	r0, #1
 362              	.LVL32:
 363 008e FFF7FEFF 		bl	CyDelayCycles
 364              	.LVL33:
 453:.\Generated_Source\PSoC5/USBUART_1.c **** 
 454:.\Generated_Source\PSoC5/USBUART_1.c ****     /* Finally, Enable d+ pullup and select iomode to USB mode*/
 455:.\Generated_Source\PSoC5/USBUART_1.c ****     CY_SET_REG8(USBUART_1_USBIO_CR1_PTR, USBUART_1_USBIO_CR1_USBPUEN);
 365              		.loc 1 455 0
 366 0092 0422     		movs	r2, #4
 367 0094 0F4B     		ldr	r3, .L16+56
 368 0096 1A70     		strb	r2, [r3]
 369 0098 38BD     		pop	{r3, r4, r5, pc}
 370              	.L17:
 371 009a 00BF     		.align	2
 372              	.L16:
 373 009c 00000000 		.word	USBUART_1_hidProtocol
 374 00a0 00E100E0 		.word	-536813312
 375 00a4 9E600040 		.word	1073766558
 376 00a8 9C600040 		.word	1073766556
 377 00ac 00000000 		.word	USBUART_1_transferState
 378 00b0 09600040 		.word	1073766409
 379 00b4 00000000 		.word	USBUART_1_device
 380 00b8 00000000 		.word	USBUART_1_configuration
 381 00bc 00000000 		.word	USBUART_1_interfaceNumber
 382 00c0 00000000 		.word	USBUART_1_configurationChanged
 383 00c4 00000000 		.word	USBUART_1_deviceAddress
 384 00c8 00000000 		.word	USBUART_1_deviceStatus
 385 00cc 00000000 		.word	USBUART_1_lastPacketSize
 386 00d0 28600040 		.word	1073766440
 387 00d4 12600040 		.word	1073766418
 388              		.cfi_endproc
 389              	.LFE2:
 390              		.size	USBUART_1_InitComponent, .-USBUART_1_InitComponent
 391              		.section	.text.USBUART_1_Start,"ax",%progbits
 392              		.align	2
 393              		.global	USBUART_1_Start
 394              		.thumb
 395              		.thumb_func
 396              		.type	USBUART_1_Start, %function
ARM GAS  C:\Users\Alex\AppData\Local\Temp\ccbj9lYo.s 			page 16


 397              	USBUART_1_Start:
 398              	.LFB0:
 130:.\Generated_Source\PSoC5/USBUART_1.c ****     /* If not Initialized then initialize all required hardware and software */
 399              		.loc 1 130 0
 400              		.cfi_startproc
 401              		@ args = 0, pretend = 0, frame = 0
 402              		@ frame_needed = 0, uses_anonymous_args = 0
 403              	.LVL34:
 404 0000 38B5     		push	{r3, r4, r5, lr}
 405              		.cfi_def_cfa_offset 16
 406              		.cfi_offset 3, -16
 407              		.cfi_offset 4, -12
 408              		.cfi_offset 5, -8
 409              		.cfi_offset 14, -4
 410 0002 0546     		mov	r5, r0
 411 0004 0C46     		mov	r4, r1
 132:.\Generated_Source\PSoC5/USBUART_1.c ****     {
 412              		.loc 1 132 0
 413 0006 064B     		ldr	r3, .L21
 414 0008 1B78     		ldrb	r3, [r3]	@ zero_extendqisi2
 415 000a 23B9     		cbnz	r3, .L19
 134:.\Generated_Source\PSoC5/USBUART_1.c ****         USBUART_1_initVar = 1u;
 416              		.loc 1 134 0
 417 000c FFF7FEFF 		bl	USBUART_1_Init
 418              	.LVL35:
 135:.\Generated_Source\PSoC5/USBUART_1.c ****     }
 419              		.loc 1 135 0
 420 0010 0122     		movs	r2, #1
 421 0012 034B     		ldr	r3, .L21
 422 0014 1A70     		strb	r2, [r3]
 423              	.L19:
 137:.\Generated_Source\PSoC5/USBUART_1.c **** }
 424              		.loc 1 137 0
 425 0016 2846     		mov	r0, r5
 426 0018 2146     		mov	r1, r4
 427 001a FFF7FEFF 		bl	USBUART_1_InitComponent
 428              	.LVL36:
 429 001e 38BD     		pop	{r3, r4, r5, pc}
 430              	.L22:
 431              		.align	2
 432              	.L21:
 433 0020 00000000 		.word	.LANCHOR0
 434              		.cfi_endproc
 435              	.LFE0:
 436              		.size	USBUART_1_Start, .-USBUART_1_Start
 437              		.section	.text.USBUART_1_ReInitComponent,"ax",%progbits
 438              		.align	2
 439              		.global	USBUART_1_ReInitComponent
 440              		.thumb
 441              		.thumb_func
 442              		.type	USBUART_1_ReInitComponent, %function
 443              	USBUART_1_ReInitComponent:
 444              	.LFB3:
 456:.\Generated_Source\PSoC5/USBUART_1.c **** }
 457:.\Generated_Source\PSoC5/USBUART_1.c **** 
 458:.\Generated_Source\PSoC5/USBUART_1.c **** 
 459:.\Generated_Source\PSoC5/USBUART_1.c **** /*******************************************************************************
ARM GAS  C:\Users\Alex\AppData\Local\Temp\ccbj9lYo.s 			page 17


 460:.\Generated_Source\PSoC5/USBUART_1.c **** * Function Name: USBUART_1_ReInitComponent
 461:.\Generated_Source\PSoC5/USBUART_1.c **** ********************************************************************************
 462:.\Generated_Source\PSoC5/USBUART_1.c **** *
 463:.\Generated_Source\PSoC5/USBUART_1.c **** * Summary:
 464:.\Generated_Source\PSoC5/USBUART_1.c **** *  This function reinitialize the component configuration and is
 465:.\Generated_Source\PSoC5/USBUART_1.c **** *  intend to be called from the Reset interrupt.
 466:.\Generated_Source\PSoC5/USBUART_1.c **** *
 467:.\Generated_Source\PSoC5/USBUART_1.c **** * Parameters:
 468:.\Generated_Source\PSoC5/USBUART_1.c **** *  None.
 469:.\Generated_Source\PSoC5/USBUART_1.c **** *
 470:.\Generated_Source\PSoC5/USBUART_1.c **** * Return:
 471:.\Generated_Source\PSoC5/USBUART_1.c **** *   None.
 472:.\Generated_Source\PSoC5/USBUART_1.c **** *
 473:.\Generated_Source\PSoC5/USBUART_1.c **** * Global variables:
 474:.\Generated_Source\PSoC5/USBUART_1.c **** *   USBUART_1_device: Contains the device number of the desired device
 475:.\Generated_Source\PSoC5/USBUART_1.c **** *        descriptor. The device number can be found in the Device Descriptor Tab
 476:.\Generated_Source\PSoC5/USBUART_1.c **** *       of "Configure" dialog, under the settings of desired Device Descriptor,
 477:.\Generated_Source\PSoC5/USBUART_1.c **** *       in the "Device Number" field.
 478:.\Generated_Source\PSoC5/USBUART_1.c **** *   USBUART_1_transferState: This variable used by the communication
 479:.\Generated_Source\PSoC5/USBUART_1.c **** *       functions to handle current transfer state. Initialized to
 480:.\Generated_Source\PSoC5/USBUART_1.c **** *       TRANS_STATE_IDLE in this API.
 481:.\Generated_Source\PSoC5/USBUART_1.c **** *   USBUART_1_configuration: Contains current configuration number
 482:.\Generated_Source\PSoC5/USBUART_1.c **** *       which is set by the Host using SET_CONFIGURATION request.
 483:.\Generated_Source\PSoC5/USBUART_1.c **** *       Initialized to zero in this API.
 484:.\Generated_Source\PSoC5/USBUART_1.c **** *   USBUART_1_deviceAddress: Contains current device address. This
 485:.\Generated_Source\PSoC5/USBUART_1.c **** *       variable is initialized to zero in this API. Host starts to communicate
 486:.\Generated_Source\PSoC5/USBUART_1.c **** *      to device with address 0 and then set it to whatever value using
 487:.\Generated_Source\PSoC5/USBUART_1.c **** *      SET_ADDRESS request.
 488:.\Generated_Source\PSoC5/USBUART_1.c **** *   USBUART_1_deviceStatus: initialized to 0.
 489:.\Generated_Source\PSoC5/USBUART_1.c **** *       This is two bit variable which contain power status in first bit
 490:.\Generated_Source\PSoC5/USBUART_1.c **** *       (DEVICE_STATUS_BUS_POWERED or DEVICE_STATUS_SELF_POWERED) and remote
 491:.\Generated_Source\PSoC5/USBUART_1.c **** *       wakeup status (DEVICE_STATUS_REMOTE_WAKEUP) in second bit.
 492:.\Generated_Source\PSoC5/USBUART_1.c **** *   USBUART_1_lastPacketSize initialized to 0;
 493:.\Generated_Source\PSoC5/USBUART_1.c **** *
 494:.\Generated_Source\PSoC5/USBUART_1.c **** * Reentrant:
 495:.\Generated_Source\PSoC5/USBUART_1.c **** *  No.
 496:.\Generated_Source\PSoC5/USBUART_1.c **** *
 497:.\Generated_Source\PSoC5/USBUART_1.c **** *******************************************************************************/
 498:.\Generated_Source\PSoC5/USBUART_1.c **** void USBUART_1_ReInitComponent(void) 
 499:.\Generated_Source\PSoC5/USBUART_1.c **** {
 445              		.loc 1 499 0
 446              		.cfi_startproc
 447              		@ args = 0, pretend = 0, frame = 0
 448              		@ frame_needed = 0, uses_anonymous_args = 0
 449              		@ link register save eliminated.
 450              	.LVL37:
 500:.\Generated_Source\PSoC5/USBUART_1.c ****     /* Initialize _hidProtocol variable to comply with HID 7.2.6 Set_Protocol
 501:.\Generated_Source\PSoC5/USBUART_1.c ****     *  Request: "When initialized, all devices default to report protocol."
 502:.\Generated_Source\PSoC5/USBUART_1.c ****     */
 503:.\Generated_Source\PSoC5/USBUART_1.c ****     #if defined(USBUART_1_ENABLE_HID_CLASS)
 504:.\Generated_Source\PSoC5/USBUART_1.c ****         uint8 i;
 505:.\Generated_Source\PSoC5/USBUART_1.c **** 
 506:.\Generated_Source\PSoC5/USBUART_1.c ****         for (i = 0u; i < USBUART_1_MAX_INTERFACES_NUMBER; i++)
 451              		.loc 1 506 0
 452 0000 0023     		movs	r3, #0
 453 0002 04E0     		b	.L24
 454              	.LVL38:
ARM GAS  C:\Users\Alex\AppData\Local\Temp\ccbj9lYo.s 			page 18


 455              	.L25:
 507:.\Generated_Source\PSoC5/USBUART_1.c ****         {
 508:.\Generated_Source\PSoC5/USBUART_1.c ****             USBUART_1_hidProtocol[i] = USBUART_1_PROTOCOL_REPORT;
 456              		.loc 1 508 0 discriminator 3
 457 0004 0121     		movs	r1, #1
 458 0006 0E4A     		ldr	r2, .L26
 459 0008 D154     		strb	r1, [r2, r3]
 506:.\Generated_Source\PSoC5/USBUART_1.c ****         {
 460              		.loc 1 506 0 discriminator 3
 461 000a 0B44     		add	r3, r3, r1
 462              	.LVL39:
 463 000c DBB2     		uxtb	r3, r3
 464              	.LVL40:
 465              	.L24:
 506:.\Generated_Source\PSoC5/USBUART_1.c ****         {
 466              		.loc 1 506 0 is_stmt 0 discriminator 1
 467 000e 012B     		cmp	r3, #1
 468 0010 F8D9     		bls	.L25
 509:.\Generated_Source\PSoC5/USBUART_1.c ****         }
 510:.\Generated_Source\PSoC5/USBUART_1.c ****     #endif /* USBUART_1_ENABLE_HID_CLASS */
 511:.\Generated_Source\PSoC5/USBUART_1.c **** 
 512:.\Generated_Source\PSoC5/USBUART_1.c ****     USBUART_1_transferState = USBUART_1_TRANS_STATE_IDLE;
 469              		.loc 1 512 0 is_stmt 1
 470 0012 0023     		movs	r3, #0
 471              	.LVL41:
 472 0014 0B4A     		ldr	r2, .L26+4
 473 0016 1370     		strb	r3, [r2]
 513:.\Generated_Source\PSoC5/USBUART_1.c **** 
 514:.\Generated_Source\PSoC5/USBUART_1.c ****     /* Clear all of the component data */
 515:.\Generated_Source\PSoC5/USBUART_1.c ****     USBUART_1_configuration = 0u;
 474              		.loc 1 515 0
 475 0018 0B4A     		ldr	r2, .L26+8
 476 001a 1370     		strb	r3, [r2]
 516:.\Generated_Source\PSoC5/USBUART_1.c ****     USBUART_1_interfaceNumber = 0u;
 477              		.loc 1 516 0
 478 001c 0B4A     		ldr	r2, .L26+12
 479 001e 1370     		strb	r3, [r2]
 517:.\Generated_Source\PSoC5/USBUART_1.c ****     USBUART_1_configurationChanged = 0u;
 480              		.loc 1 517 0
 481 0020 0B4A     		ldr	r2, .L26+16
 482 0022 1370     		strb	r3, [r2]
 518:.\Generated_Source\PSoC5/USBUART_1.c ****     USBUART_1_deviceAddress  = 0u;
 483              		.loc 1 518 0
 484 0024 0B4A     		ldr	r2, .L26+20
 485 0026 1370     		strb	r3, [r2]
 519:.\Generated_Source\PSoC5/USBUART_1.c ****     USBUART_1_deviceStatus = 0u;
 486              		.loc 1 519 0
 487 0028 0B4A     		ldr	r2, .L26+24
 488 002a 1370     		strb	r3, [r2]
 520:.\Generated_Source\PSoC5/USBUART_1.c **** 
 521:.\Generated_Source\PSoC5/USBUART_1.c ****     USBUART_1_lastPacketSize = 0u;
 489              		.loc 1 521 0
 490 002c 0B4A     		ldr	r2, .L26+28
 491 002e 1370     		strb	r3, [r2]
 522:.\Generated_Source\PSoC5/USBUART_1.c **** 
 523:.\Generated_Source\PSoC5/USBUART_1.c **** 
 524:.\Generated_Source\PSoC5/USBUART_1.c ****     /*  ACK Setup, Stall IN/OUT */
ARM GAS  C:\Users\Alex\AppData\Local\Temp\ccbj9lYo.s 			page 19


 525:.\Generated_Source\PSoC5/USBUART_1.c ****     CY_SET_REG8(USBUART_1_EP0_CR_PTR, USBUART_1_MODE_STALL_IN_OUT);
 492              		.loc 1 525 0
 493 0030 0322     		movs	r2, #3
 494 0032 0B4B     		ldr	r3, .L26+32
 495 0034 1A70     		strb	r2, [r3]
 526:.\Generated_Source\PSoC5/USBUART_1.c **** 
 527:.\Generated_Source\PSoC5/USBUART_1.c ****     /* Enable the SIE with an address 0 */
 528:.\Generated_Source\PSoC5/USBUART_1.c ****     CY_SET_REG8(USBUART_1_CR0_PTR, USBUART_1_CR0_ENABLE);
 496              		.loc 1 528 0
 497 0036 8022     		movs	r2, #128
 498 0038 203B     		subs	r3, r3, #32
 499 003a 1A70     		strb	r2, [r3]
 500 003c 7047     		bx	lr
 501              	.L27:
 502 003e 00BF     		.align	2
 503              	.L26:
 504 0040 00000000 		.word	USBUART_1_hidProtocol
 505 0044 00000000 		.word	USBUART_1_transferState
 506 0048 00000000 		.word	USBUART_1_configuration
 507 004c 00000000 		.word	USBUART_1_interfaceNumber
 508 0050 00000000 		.word	USBUART_1_configurationChanged
 509 0054 00000000 		.word	USBUART_1_deviceAddress
 510 0058 00000000 		.word	USBUART_1_deviceStatus
 511 005c 00000000 		.word	USBUART_1_lastPacketSize
 512 0060 28600040 		.word	1073766440
 513              		.cfi_endproc
 514              	.LFE3:
 515              		.size	USBUART_1_ReInitComponent, .-USBUART_1_ReInitComponent
 516              		.section	.text.USBUART_1_CheckActivity,"ax",%progbits
 517              		.align	2
 518              		.global	USBUART_1_CheckActivity
 519              		.thumb
 520              		.thumb_func
 521              		.type	USBUART_1_CheckActivity, %function
 522              	USBUART_1_CheckActivity:
 523              	.LFB5:
 529:.\Generated_Source\PSoC5/USBUART_1.c **** 
 530:.\Generated_Source\PSoC5/USBUART_1.c **** }
 531:.\Generated_Source\PSoC5/USBUART_1.c **** 
 532:.\Generated_Source\PSoC5/USBUART_1.c **** 
 533:.\Generated_Source\PSoC5/USBUART_1.c **** /*******************************************************************************
 534:.\Generated_Source\PSoC5/USBUART_1.c **** * Function Name: USBUART_1_Stop
 535:.\Generated_Source\PSoC5/USBUART_1.c **** ********************************************************************************
 536:.\Generated_Source\PSoC5/USBUART_1.c **** *
 537:.\Generated_Source\PSoC5/USBUART_1.c **** * Summary:
 538:.\Generated_Source\PSoC5/USBUART_1.c **** *  This function shuts down the USB function including to release
 539:.\Generated_Source\PSoC5/USBUART_1.c **** *  the D+ Pullup and disabling the SIE.
 540:.\Generated_Source\PSoC5/USBUART_1.c **** *
 541:.\Generated_Source\PSoC5/USBUART_1.c **** * Parameters:
 542:.\Generated_Source\PSoC5/USBUART_1.c **** *  None.
 543:.\Generated_Source\PSoC5/USBUART_1.c **** *
 544:.\Generated_Source\PSoC5/USBUART_1.c **** * Return:
 545:.\Generated_Source\PSoC5/USBUART_1.c **** *  None.
 546:.\Generated_Source\PSoC5/USBUART_1.c **** *
 547:.\Generated_Source\PSoC5/USBUART_1.c **** * Global variables:
 548:.\Generated_Source\PSoC5/USBUART_1.c **** *   USBUART_1_configuration: Contains current configuration number
 549:.\Generated_Source\PSoC5/USBUART_1.c **** *       which is set by the Host using SET_CONFIGURATION request.
ARM GAS  C:\Users\Alex\AppData\Local\Temp\ccbj9lYo.s 			page 20


 550:.\Generated_Source\PSoC5/USBUART_1.c **** *       Initialized to zero in this API.
 551:.\Generated_Source\PSoC5/USBUART_1.c **** *   USBUART_1_deviceAddress: Contains current device address. This
 552:.\Generated_Source\PSoC5/USBUART_1.c **** *       variable is initialized to zero in this API. Host starts to communicate
 553:.\Generated_Source\PSoC5/USBUART_1.c **** *      to device with address 0 and then set it to whatever value using
 554:.\Generated_Source\PSoC5/USBUART_1.c **** *      SET_ADDRESS request.
 555:.\Generated_Source\PSoC5/USBUART_1.c **** *   USBUART_1_deviceStatus: initialized to 0.
 556:.\Generated_Source\PSoC5/USBUART_1.c **** *       This is two bit variable which contain power status in first bit
 557:.\Generated_Source\PSoC5/USBUART_1.c **** *       (DEVICE_STATUS_BUS_POWERED or DEVICE_STATUS_SELF_POWERED) and remote
 558:.\Generated_Source\PSoC5/USBUART_1.c **** *       wakeup status (DEVICE_STATUS_REMOTE_WAKEUP) in second bit.
 559:.\Generated_Source\PSoC5/USBUART_1.c **** *   USBUART_1_configurationChanged: This variable is set to one after
 560:.\Generated_Source\PSoC5/USBUART_1.c **** *       SET_CONFIGURATION request and cleared in this function.
 561:.\Generated_Source\PSoC5/USBUART_1.c **** *   USBUART_1_intiVar variable is set to zero
 562:.\Generated_Source\PSoC5/USBUART_1.c **** *
 563:.\Generated_Source\PSoC5/USBUART_1.c **** *******************************************************************************/
 564:.\Generated_Source\PSoC5/USBUART_1.c **** void USBUART_1_Stop(void) 
 565:.\Generated_Source\PSoC5/USBUART_1.c **** {
 566:.\Generated_Source\PSoC5/USBUART_1.c **** 
 567:.\Generated_Source\PSoC5/USBUART_1.c ****     #if(USBUART_1_EP_MM != USBUART_1__EP_MANUAL)
 568:.\Generated_Source\PSoC5/USBUART_1.c ****         USBUART_1_Stop_DMA(USBUART_1_MAX_EP);     /* Stop all DMAs */
 569:.\Generated_Source\PSoC5/USBUART_1.c ****     #endif   /*  USBUART_1_EP_MM != USBUART_1__EP_MANUAL */
 570:.\Generated_Source\PSoC5/USBUART_1.c **** 
 571:.\Generated_Source\PSoC5/USBUART_1.c ****     /* Disable the SIE */
 572:.\Generated_Source\PSoC5/USBUART_1.c ****     USBUART_1_CR0_REG &= (uint8)(~USBUART_1_CR0_ENABLE);
 573:.\Generated_Source\PSoC5/USBUART_1.c ****     /* Disable the d+ pullup */
 574:.\Generated_Source\PSoC5/USBUART_1.c ****     USBUART_1_USBIO_CR1_REG &= (uint8)(~USBUART_1_USBIO_CR1_USBPUEN);
 575:.\Generated_Source\PSoC5/USBUART_1.c ****     /* Disable USB in ACT PM */
 576:.\Generated_Source\PSoC5/USBUART_1.c ****     USBUART_1_PM_ACT_CFG_REG &= (uint8)(~USBUART_1_PM_ACT_EN_FSUSB);
 577:.\Generated_Source\PSoC5/USBUART_1.c ****     /* Disable USB block for Standby Power Mode */
 578:.\Generated_Source\PSoC5/USBUART_1.c ****     USBUART_1_PM_STBY_CFG_REG &= (uint8)(~USBUART_1_PM_STBY_EN_FSUSB);
 579:.\Generated_Source\PSoC5/USBUART_1.c **** 
 580:.\Generated_Source\PSoC5/USBUART_1.c ****     /* Disable the reset and EP interrupts */
 581:.\Generated_Source\PSoC5/USBUART_1.c ****     CyIntDisable(USBUART_1_BUS_RESET_VECT_NUM);
 582:.\Generated_Source\PSoC5/USBUART_1.c ****     CyIntDisable(USBUART_1_EP_0_VECT_NUM);
 583:.\Generated_Source\PSoC5/USBUART_1.c ****     #if(USBUART_1_EP1_ISR_REMOVE == 0u)
 584:.\Generated_Source\PSoC5/USBUART_1.c ****         CyIntDisable(USBUART_1_EP_1_VECT_NUM);
 585:.\Generated_Source\PSoC5/USBUART_1.c ****     #endif   /*  USBUART_1_EP1_ISR_REMOVE */
 586:.\Generated_Source\PSoC5/USBUART_1.c ****     #if(USBUART_1_EP2_ISR_REMOVE == 0u)
 587:.\Generated_Source\PSoC5/USBUART_1.c ****         CyIntDisable(USBUART_1_EP_2_VECT_NUM);
 588:.\Generated_Source\PSoC5/USBUART_1.c ****     #endif   /*  USBUART_1_EP2_ISR_REMOVE */
 589:.\Generated_Source\PSoC5/USBUART_1.c ****     #if(USBUART_1_EP3_ISR_REMOVE == 0u)
 590:.\Generated_Source\PSoC5/USBUART_1.c ****         CyIntDisable(USBUART_1_EP_3_VECT_NUM);
 591:.\Generated_Source\PSoC5/USBUART_1.c ****     #endif   /*  USBUART_1_EP3_ISR_REMOVE */
 592:.\Generated_Source\PSoC5/USBUART_1.c ****     #if(USBUART_1_EP4_ISR_REMOVE == 0u)
 593:.\Generated_Source\PSoC5/USBUART_1.c ****         CyIntDisable(USBUART_1_EP_4_VECT_NUM);
 594:.\Generated_Source\PSoC5/USBUART_1.c ****     #endif   /*  USBUART_1_EP4_ISR_REMOVE */
 595:.\Generated_Source\PSoC5/USBUART_1.c ****     #if(USBUART_1_EP5_ISR_REMOVE == 0u)
 596:.\Generated_Source\PSoC5/USBUART_1.c ****         CyIntDisable(USBUART_1_EP_5_VECT_NUM);
 597:.\Generated_Source\PSoC5/USBUART_1.c ****     #endif   /*  USBUART_1_EP5_ISR_REMOVE */
 598:.\Generated_Source\PSoC5/USBUART_1.c ****     #if(USBUART_1_EP6_ISR_REMOVE == 0u)
 599:.\Generated_Source\PSoC5/USBUART_1.c ****         CyIntDisable(USBUART_1_EP_6_VECT_NUM);
 600:.\Generated_Source\PSoC5/USBUART_1.c ****     #endif   /*  USBUART_1_EP6_ISR_REMOVE */
 601:.\Generated_Source\PSoC5/USBUART_1.c ****     #if(USBUART_1_EP7_ISR_REMOVE == 0u)
 602:.\Generated_Source\PSoC5/USBUART_1.c ****         CyIntDisable(USBUART_1_EP_7_VECT_NUM);
 603:.\Generated_Source\PSoC5/USBUART_1.c ****     #endif   /*  USBUART_1_EP7_ISR_REMOVE */
 604:.\Generated_Source\PSoC5/USBUART_1.c ****     #if(USBUART_1_EP8_ISR_REMOVE == 0u)
 605:.\Generated_Source\PSoC5/USBUART_1.c ****         CyIntDisable(USBUART_1_EP_8_VECT_NUM);
 606:.\Generated_Source\PSoC5/USBUART_1.c ****     #endif   /*  USBUART_1_EP8_ISR_REMOVE */
ARM GAS  C:\Users\Alex\AppData\Local\Temp\ccbj9lYo.s 			page 21


 607:.\Generated_Source\PSoC5/USBUART_1.c **** 
 608:.\Generated_Source\PSoC5/USBUART_1.c ****     /* Clear all of the component data */
 609:.\Generated_Source\PSoC5/USBUART_1.c ****     USBUART_1_configuration = 0u;
 610:.\Generated_Source\PSoC5/USBUART_1.c ****     USBUART_1_interfaceNumber = 0u;
 611:.\Generated_Source\PSoC5/USBUART_1.c ****     USBUART_1_configurationChanged = 0u;
 612:.\Generated_Source\PSoC5/USBUART_1.c ****     USBUART_1_deviceAddress  = 0u;
 613:.\Generated_Source\PSoC5/USBUART_1.c ****     USBUART_1_deviceStatus = 0u;
 614:.\Generated_Source\PSoC5/USBUART_1.c ****     USBUART_1_initVar = 0u;
 615:.\Generated_Source\PSoC5/USBUART_1.c **** 
 616:.\Generated_Source\PSoC5/USBUART_1.c **** }
 617:.\Generated_Source\PSoC5/USBUART_1.c **** 
 618:.\Generated_Source\PSoC5/USBUART_1.c **** 
 619:.\Generated_Source\PSoC5/USBUART_1.c **** /*******************************************************************************
 620:.\Generated_Source\PSoC5/USBUART_1.c **** * Function Name: USBUART_1_CheckActivity
 621:.\Generated_Source\PSoC5/USBUART_1.c **** ********************************************************************************
 622:.\Generated_Source\PSoC5/USBUART_1.c **** *
 623:.\Generated_Source\PSoC5/USBUART_1.c **** * Summary:
 624:.\Generated_Source\PSoC5/USBUART_1.c **** *  Returns the activity status of the bus.  Clears the status hardware to
 625:.\Generated_Source\PSoC5/USBUART_1.c **** *  provide fresh activity status on the next call of this routine.
 626:.\Generated_Source\PSoC5/USBUART_1.c **** *
 627:.\Generated_Source\PSoC5/USBUART_1.c **** * Parameters:
 628:.\Generated_Source\PSoC5/USBUART_1.c **** *  None.
 629:.\Generated_Source\PSoC5/USBUART_1.c **** *
 630:.\Generated_Source\PSoC5/USBUART_1.c **** * Return:
 631:.\Generated_Source\PSoC5/USBUART_1.c **** *  1 - If bus activity was detected since the last call to this function
 632:.\Generated_Source\PSoC5/USBUART_1.c **** *  0 - If bus activity not was detected since the last call to this function
 633:.\Generated_Source\PSoC5/USBUART_1.c **** *
 634:.\Generated_Source\PSoC5/USBUART_1.c **** *******************************************************************************/
 635:.\Generated_Source\PSoC5/USBUART_1.c **** uint8 USBUART_1_CheckActivity(void) 
 636:.\Generated_Source\PSoC5/USBUART_1.c **** {
 524              		.loc 1 636 0
 525              		.cfi_startproc
 526              		@ args = 0, pretend = 0, frame = 0
 527              		@ frame_needed = 0, uses_anonymous_args = 0
 528              		@ link register save eliminated.
 637:.\Generated_Source\PSoC5/USBUART_1.c ****     uint8 r;
 638:.\Generated_Source\PSoC5/USBUART_1.c **** 
 639:.\Generated_Source\PSoC5/USBUART_1.c ****     r = CY_GET_REG8(USBUART_1_CR1_PTR);
 529              		.loc 1 639 0
 530 0000 044B     		ldr	r3, .L29
 531 0002 1878     		ldrb	r0, [r3]	@ zero_extendqisi2
 532 0004 C0B2     		uxtb	r0, r0
 533              	.LVL42:
 640:.\Generated_Source\PSoC5/USBUART_1.c ****     CY_SET_REG8(USBUART_1_CR1_PTR, (r & ((uint8)(~USBUART_1_CR1_BUS_ACTIVITY))));
 534              		.loc 1 640 0
 535 0006 00F0FB02 		and	r2, r0, #251
 536 000a 1A70     		strb	r2, [r3]
 641:.\Generated_Source\PSoC5/USBUART_1.c **** 
 642:.\Generated_Source\PSoC5/USBUART_1.c ****     return((r & USBUART_1_CR1_BUS_ACTIVITY) >> USBUART_1_CR1_BUS_ACTIVITY_SHIFT);
 643:.\Generated_Source\PSoC5/USBUART_1.c **** }
 537              		.loc 1 643 0
 538 000c C0F38000 		ubfx	r0, r0, #2, #1
 539              	.LVL43:
 540 0010 7047     		bx	lr
 541              	.L30:
 542 0012 00BF     		.align	2
 543              	.L29:
ARM GAS  C:\Users\Alex\AppData\Local\Temp\ccbj9lYo.s 			page 22


 544 0014 09600040 		.word	1073766409
 545              		.cfi_endproc
 546              	.LFE5:
 547              		.size	USBUART_1_CheckActivity, .-USBUART_1_CheckActivity
 548              		.section	.text.USBUART_1_GetConfiguration,"ax",%progbits
 549              		.align	2
 550              		.global	USBUART_1_GetConfiguration
 551              		.thumb
 552              		.thumb_func
 553              		.type	USBUART_1_GetConfiguration, %function
 554              	USBUART_1_GetConfiguration:
 555              	.LFB6:
 644:.\Generated_Source\PSoC5/USBUART_1.c **** 
 645:.\Generated_Source\PSoC5/USBUART_1.c **** 
 646:.\Generated_Source\PSoC5/USBUART_1.c **** /*******************************************************************************
 647:.\Generated_Source\PSoC5/USBUART_1.c **** * Function Name: USBUART_1_GetConfiguration
 648:.\Generated_Source\PSoC5/USBUART_1.c **** ********************************************************************************
 649:.\Generated_Source\PSoC5/USBUART_1.c **** *
 650:.\Generated_Source\PSoC5/USBUART_1.c **** * Summary:
 651:.\Generated_Source\PSoC5/USBUART_1.c **** *  Returns the current configuration setting
 652:.\Generated_Source\PSoC5/USBUART_1.c **** *
 653:.\Generated_Source\PSoC5/USBUART_1.c **** * Parameters:
 654:.\Generated_Source\PSoC5/USBUART_1.c **** *  None.
 655:.\Generated_Source\PSoC5/USBUART_1.c **** *
 656:.\Generated_Source\PSoC5/USBUART_1.c **** * Return:
 657:.\Generated_Source\PSoC5/USBUART_1.c **** *  configuration.
 658:.\Generated_Source\PSoC5/USBUART_1.c **** *
 659:.\Generated_Source\PSoC5/USBUART_1.c **** *******************************************************************************/
 660:.\Generated_Source\PSoC5/USBUART_1.c **** uint8 USBUART_1_GetConfiguration(void) 
 661:.\Generated_Source\PSoC5/USBUART_1.c **** {
 556              		.loc 1 661 0
 557              		.cfi_startproc
 558              		@ args = 0, pretend = 0, frame = 0
 559              		@ frame_needed = 0, uses_anonymous_args = 0
 560              		@ link register save eliminated.
 662:.\Generated_Source\PSoC5/USBUART_1.c ****     return(USBUART_1_configuration);
 561              		.loc 1 662 0
 562 0000 014B     		ldr	r3, .L32
 563 0002 1878     		ldrb	r0, [r3]	@ zero_extendqisi2
 663:.\Generated_Source\PSoC5/USBUART_1.c **** }
 564              		.loc 1 663 0
 565 0004 7047     		bx	lr
 566              	.L33:
 567 0006 00BF     		.align	2
 568              	.L32:
 569 0008 00000000 		.word	USBUART_1_configuration
 570              		.cfi_endproc
 571              	.LFE6:
 572              		.size	USBUART_1_GetConfiguration, .-USBUART_1_GetConfiguration
 573              		.section	.text.USBUART_1_IsConfigurationChanged,"ax",%progbits
 574              		.align	2
 575              		.global	USBUART_1_IsConfigurationChanged
 576              		.thumb
 577              		.thumb_func
 578              		.type	USBUART_1_IsConfigurationChanged, %function
 579              	USBUART_1_IsConfigurationChanged:
 580              	.LFB7:
ARM GAS  C:\Users\Alex\AppData\Local\Temp\ccbj9lYo.s 			page 23


 664:.\Generated_Source\PSoC5/USBUART_1.c **** 
 665:.\Generated_Source\PSoC5/USBUART_1.c **** 
 666:.\Generated_Source\PSoC5/USBUART_1.c **** /*******************************************************************************
 667:.\Generated_Source\PSoC5/USBUART_1.c **** * Function Name: USBUART_1_IsConfigurationChanged
 668:.\Generated_Source\PSoC5/USBUART_1.c **** ********************************************************************************
 669:.\Generated_Source\PSoC5/USBUART_1.c **** *
 670:.\Generated_Source\PSoC5/USBUART_1.c **** * Summary:
 671:.\Generated_Source\PSoC5/USBUART_1.c **** *  Returns the clear on read configuration state. It is usefull when PC send
 672:.\Generated_Source\PSoC5/USBUART_1.c **** *  double SET_CONFIGURATION request with same configuration number.
 673:.\Generated_Source\PSoC5/USBUART_1.c **** *
 674:.\Generated_Source\PSoC5/USBUART_1.c **** * Parameters:
 675:.\Generated_Source\PSoC5/USBUART_1.c **** *  None.
 676:.\Generated_Source\PSoC5/USBUART_1.c **** *
 677:.\Generated_Source\PSoC5/USBUART_1.c **** * Return:
 678:.\Generated_Source\PSoC5/USBUART_1.c **** *  Not zero value when new configuration has been changed, otherwise zero is
 679:.\Generated_Source\PSoC5/USBUART_1.c **** *  returned.
 680:.\Generated_Source\PSoC5/USBUART_1.c **** *
 681:.\Generated_Source\PSoC5/USBUART_1.c **** * Global variables:
 682:.\Generated_Source\PSoC5/USBUART_1.c **** *   USBUART_1_configurationChanged: This variable is set to one after
 683:.\Generated_Source\PSoC5/USBUART_1.c **** *       SET_CONFIGURATION request and cleared in this function.
 684:.\Generated_Source\PSoC5/USBUART_1.c **** *
 685:.\Generated_Source\PSoC5/USBUART_1.c **** *******************************************************************************/
 686:.\Generated_Source\PSoC5/USBUART_1.c **** uint8 USBUART_1_IsConfigurationChanged(void) 
 687:.\Generated_Source\PSoC5/USBUART_1.c **** {
 581              		.loc 1 687 0
 582              		.cfi_startproc
 583              		@ args = 0, pretend = 0, frame = 0
 584              		@ frame_needed = 0, uses_anonymous_args = 0
 585              		@ link register save eliminated.
 586              	.LVL44:
 688:.\Generated_Source\PSoC5/USBUART_1.c ****     uint8 res = 0u;
 689:.\Generated_Source\PSoC5/USBUART_1.c **** 
 690:.\Generated_Source\PSoC5/USBUART_1.c ****     if(USBUART_1_configurationChanged != 0u)
 587              		.loc 1 690 0
 588 0000 064B     		ldr	r3, .L37
 589 0002 1B78     		ldrb	r3, [r3]	@ zero_extendqisi2
 590 0004 13F0FF0F 		tst	r3, #255
 591 0008 05D0     		beq	.L36
 691:.\Generated_Source\PSoC5/USBUART_1.c ****     {
 692:.\Generated_Source\PSoC5/USBUART_1.c ****         res = USBUART_1_configurationChanged;
 592              		.loc 1 692 0
 593 000a 044B     		ldr	r3, .L37
 594 000c 1878     		ldrb	r0, [r3]	@ zero_extendqisi2
 595 000e C0B2     		uxtb	r0, r0
 596              	.LVL45:
 693:.\Generated_Source\PSoC5/USBUART_1.c ****         USBUART_1_configurationChanged = 0u;
 597              		.loc 1 693 0
 598 0010 0022     		movs	r2, #0
 599 0012 1A70     		strb	r2, [r3]
 600 0014 7047     		bx	lr
 601              	.LVL46:
 602              	.L36:
 688:.\Generated_Source\PSoC5/USBUART_1.c ****     uint8 res = 0u;
 603              		.loc 1 688 0
 604 0016 0020     		movs	r0, #0
 605              	.LVL47:
 694:.\Generated_Source\PSoC5/USBUART_1.c ****     }
ARM GAS  C:\Users\Alex\AppData\Local\Temp\ccbj9lYo.s 			page 24


 695:.\Generated_Source\PSoC5/USBUART_1.c **** 
 696:.\Generated_Source\PSoC5/USBUART_1.c ****     return(res);
 697:.\Generated_Source\PSoC5/USBUART_1.c **** }
 606              		.loc 1 697 0
 607 0018 7047     		bx	lr
 608              	.L38:
 609 001a 00BF     		.align	2
 610              	.L37:
 611 001c 00000000 		.word	USBUART_1_configurationChanged
 612              		.cfi_endproc
 613              	.LFE7:
 614              		.size	USBUART_1_IsConfigurationChanged, .-USBUART_1_IsConfigurationChanged
 615              		.section	.text.USBUART_1_GetInterfaceSetting,"ax",%progbits
 616              		.align	2
 617              		.global	USBUART_1_GetInterfaceSetting
 618              		.thumb
 619              		.thumb_func
 620              		.type	USBUART_1_GetInterfaceSetting, %function
 621              	USBUART_1_GetInterfaceSetting:
 622              	.LFB8:
 698:.\Generated_Source\PSoC5/USBUART_1.c **** 
 699:.\Generated_Source\PSoC5/USBUART_1.c **** 
 700:.\Generated_Source\PSoC5/USBUART_1.c **** /*******************************************************************************
 701:.\Generated_Source\PSoC5/USBUART_1.c **** * Function Name: USBUART_1_GetInterfaceSetting
 702:.\Generated_Source\PSoC5/USBUART_1.c **** ********************************************************************************
 703:.\Generated_Source\PSoC5/USBUART_1.c **** *
 704:.\Generated_Source\PSoC5/USBUART_1.c **** * Summary:
 705:.\Generated_Source\PSoC5/USBUART_1.c **** *  Returns the alternate setting from current interface
 706:.\Generated_Source\PSoC5/USBUART_1.c **** *
 707:.\Generated_Source\PSoC5/USBUART_1.c **** * Parameters:
 708:.\Generated_Source\PSoC5/USBUART_1.c **** *  uint8 interfaceNumber, interface number
 709:.\Generated_Source\PSoC5/USBUART_1.c **** *
 710:.\Generated_Source\PSoC5/USBUART_1.c **** * Return:
 711:.\Generated_Source\PSoC5/USBUART_1.c **** *  Alternate setting.
 712:.\Generated_Source\PSoC5/USBUART_1.c **** *
 713:.\Generated_Source\PSoC5/USBUART_1.c **** *******************************************************************************/
 714:.\Generated_Source\PSoC5/USBUART_1.c **** uint8  USBUART_1_GetInterfaceSetting(uint8 interfaceNumber)
 715:.\Generated_Source\PSoC5/USBUART_1.c ****                                                     
 716:.\Generated_Source\PSoC5/USBUART_1.c **** {
 623              		.loc 1 716 0
 624              		.cfi_startproc
 625              		@ args = 0, pretend = 0, frame = 0
 626              		@ frame_needed = 0, uses_anonymous_args = 0
 627              		@ link register save eliminated.
 628              	.LVL48:
 717:.\Generated_Source\PSoC5/USBUART_1.c ****     return(USBUART_1_interfaceSetting[interfaceNumber]);
 629              		.loc 1 717 0
 630 0000 014B     		ldr	r3, .L40
 631 0002 185C     		ldrb	r0, [r3, r0]	@ zero_extendqisi2
 632              	.LVL49:
 718:.\Generated_Source\PSoC5/USBUART_1.c **** }
 633              		.loc 1 718 0
 634 0004 7047     		bx	lr
 635              	.L41:
 636 0006 00BF     		.align	2
 637              	.L40:
 638 0008 00000000 		.word	USBUART_1_interfaceSetting
ARM GAS  C:\Users\Alex\AppData\Local\Temp\ccbj9lYo.s 			page 25


 639              		.cfi_endproc
 640              	.LFE8:
 641              		.size	USBUART_1_GetInterfaceSetting, .-USBUART_1_GetInterfaceSetting
 642              		.section	.text.USBUART_1_GetEPState,"ax",%progbits
 643              		.align	2
 644              		.global	USBUART_1_GetEPState
 645              		.thumb
 646              		.thumb_func
 647              		.type	USBUART_1_GetEPState, %function
 648              	USBUART_1_GetEPState:
 649              	.LFB9:
 719:.\Generated_Source\PSoC5/USBUART_1.c **** 
 720:.\Generated_Source\PSoC5/USBUART_1.c **** 
 721:.\Generated_Source\PSoC5/USBUART_1.c **** /*******************************************************************************
 722:.\Generated_Source\PSoC5/USBUART_1.c **** * Function Name: USBUART_1_GetEPState
 723:.\Generated_Source\PSoC5/USBUART_1.c **** ********************************************************************************
 724:.\Generated_Source\PSoC5/USBUART_1.c **** *
 725:.\Generated_Source\PSoC5/USBUART_1.c **** * Summary:
 726:.\Generated_Source\PSoC5/USBUART_1.c **** *  Returned the state of the requested endpoint.
 727:.\Generated_Source\PSoC5/USBUART_1.c **** *
 728:.\Generated_Source\PSoC5/USBUART_1.c **** * Parameters:
 729:.\Generated_Source\PSoC5/USBUART_1.c **** *  epNumber: Endpoint Number
 730:.\Generated_Source\PSoC5/USBUART_1.c **** *
 731:.\Generated_Source\PSoC5/USBUART_1.c **** * Return:
 732:.\Generated_Source\PSoC5/USBUART_1.c **** *  State of the requested endpoint.
 733:.\Generated_Source\PSoC5/USBUART_1.c **** *
 734:.\Generated_Source\PSoC5/USBUART_1.c **** *******************************************************************************/
 735:.\Generated_Source\PSoC5/USBUART_1.c **** uint8 USBUART_1_GetEPState(uint8 epNumber) 
 736:.\Generated_Source\PSoC5/USBUART_1.c **** {
 650              		.loc 1 736 0
 651              		.cfi_startproc
 652              		@ args = 0, pretend = 0, frame = 0
 653              		@ frame_needed = 0, uses_anonymous_args = 0
 654              		@ link register save eliminated.
 655              	.LVL50:
 737:.\Generated_Source\PSoC5/USBUART_1.c ****     return(USBUART_1_EP[epNumber].apiEpState);
 656              		.loc 1 737 0
 657 0000 00EB4000 		add	r0, r0, r0, lsl #1
 658              	.LVL51:
 659 0004 8000     		lsls	r0, r0, #2
 660 0006 024B     		ldr	r3, .L43
 661 0008 1844     		add	r0, r0, r3
 662 000a 4078     		ldrb	r0, [r0, #1]	@ zero_extendqisi2
 738:.\Generated_Source\PSoC5/USBUART_1.c **** }
 663              		.loc 1 738 0
 664 000c 7047     		bx	lr
 665              	.L44:
 666 000e 00BF     		.align	2
 667              	.L43:
 668 0010 00000000 		.word	USBUART_1_EP
 669              		.cfi_endproc
 670              	.LFE9:
 671              		.size	USBUART_1_GetEPState, .-USBUART_1_GetEPState
 672              		.section	.text.USBUART_1_GetEPCount,"ax",%progbits
 673              		.align	2
 674              		.global	USBUART_1_GetEPCount
 675              		.thumb
ARM GAS  C:\Users\Alex\AppData\Local\Temp\ccbj9lYo.s 			page 26


 676              		.thumb_func
 677              		.type	USBUART_1_GetEPCount, %function
 678              	USBUART_1_GetEPCount:
 679              	.LFB10:
 739:.\Generated_Source\PSoC5/USBUART_1.c **** 
 740:.\Generated_Source\PSoC5/USBUART_1.c **** 
 741:.\Generated_Source\PSoC5/USBUART_1.c **** /*******************************************************************************
 742:.\Generated_Source\PSoC5/USBUART_1.c **** * Function Name: USBUART_1_GetEPCount
 743:.\Generated_Source\PSoC5/USBUART_1.c **** ********************************************************************************
 744:.\Generated_Source\PSoC5/USBUART_1.c **** *
 745:.\Generated_Source\PSoC5/USBUART_1.c **** * Summary:
 746:.\Generated_Source\PSoC5/USBUART_1.c **** *  This function supports Data Endpoints only(EP1-EP8).
 747:.\Generated_Source\PSoC5/USBUART_1.c **** *  Returns the transfer count for the requested endpoint.  The value from
 748:.\Generated_Source\PSoC5/USBUART_1.c **** *  the count registers includes 2 counts for the two byte checksum of the
 749:.\Generated_Source\PSoC5/USBUART_1.c **** *  packet.  This function subtracts the two counts.
 750:.\Generated_Source\PSoC5/USBUART_1.c **** *
 751:.\Generated_Source\PSoC5/USBUART_1.c **** * Parameters:
 752:.\Generated_Source\PSoC5/USBUART_1.c **** *  epNumber: Data Endpoint Number.
 753:.\Generated_Source\PSoC5/USBUART_1.c **** *            Valid values are between 1 and 8.
 754:.\Generated_Source\PSoC5/USBUART_1.c **** *
 755:.\Generated_Source\PSoC5/USBUART_1.c **** * Return:
 756:.\Generated_Source\PSoC5/USBUART_1.c **** *  Returns the current byte count from the specified endpoint or 0 for an
 757:.\Generated_Source\PSoC5/USBUART_1.c **** *  invalid endpoint.
 758:.\Generated_Source\PSoC5/USBUART_1.c **** *
 759:.\Generated_Source\PSoC5/USBUART_1.c **** *******************************************************************************/
 760:.\Generated_Source\PSoC5/USBUART_1.c **** uint16 USBUART_1_GetEPCount(uint8 epNumber) 
 761:.\Generated_Source\PSoC5/USBUART_1.c **** {
 680              		.loc 1 761 0
 681              		.cfi_startproc
 682              		@ args = 0, pretend = 0, frame = 0
 683              		@ frame_needed = 0, uses_anonymous_args = 0
 684              		@ link register save eliminated.
 685              	.LVL52:
 762:.\Generated_Source\PSoC5/USBUART_1.c ****     uint8 ri;
 763:.\Generated_Source\PSoC5/USBUART_1.c ****     uint16 result = 0u;
 764:.\Generated_Source\PSoC5/USBUART_1.c **** 
 765:.\Generated_Source\PSoC5/USBUART_1.c ****     if((epNumber > USBUART_1_EP0) && (epNumber < USBUART_1_MAX_EP))
 686              		.loc 1 765 0
 687 0000 0138     		subs	r0, r0, #1
 688              	.LVL53:
 689 0002 C0B2     		uxtb	r0, r0
 690 0004 0728     		cmp	r0, #7
 691 0006 0CD8     		bhi	.L47
 766:.\Generated_Source\PSoC5/USBUART_1.c ****     {
 767:.\Generated_Source\PSoC5/USBUART_1.c ****         ri = ((epNumber - USBUART_1_EP1) << USBUART_1_EPX_CNTX_ADDR_SHIFT);
 692              		.loc 1 767 0
 693 0008 0001     		lsls	r0, r0, #4
 694 000a C0B2     		uxtb	r0, r0
 695              	.LVL54:
 768:.\Generated_Source\PSoC5/USBUART_1.c **** 
 769:.\Generated_Source\PSoC5/USBUART_1.c ****         result = (uint8)(CY_GET_REG8((reg8 *)(USBUART_1_SIE_EP1_CNT0_IND + ri)) &
 696              		.loc 1 769 0
 697 000c 064B     		ldr	r3, .L48
 698 000e C25C     		ldrb	r2, [r0, r3]	@ zero_extendqisi2
 699 0010 02F00F02 		and	r2, r2, #15
 700              	.LVL55:
 770:.\Generated_Source\PSoC5/USBUART_1.c ****                           USBUART_1_EPX_CNT0_MASK);
ARM GAS  C:\Users\Alex\AppData\Local\Temp\ccbj9lYo.s 			page 27


 771:.\Generated_Source\PSoC5/USBUART_1.c ****         result = (result << 8u) | CY_GET_REG8((reg8 *)(USBUART_1_SIE_EP1_CNT1_IND + ri));
 701              		.loc 1 771 0
 702 0014 0133     		adds	r3, r3, #1
 703 0016 C35C     		ldrb	r3, [r0, r3]	@ zero_extendqisi2
 704 0018 43EA0220 		orr	r0, r3, r2, lsl #8
 705              	.LVL56:
 772:.\Generated_Source\PSoC5/USBUART_1.c ****         result -= USBUART_1_EPX_CNTX_CRC_COUNT;
 706              		.loc 1 772 0
 707 001c 0238     		subs	r0, r0, #2
 708              	.LVL57:
 709 001e 80B2     		uxth	r0, r0
 710              	.LVL58:
 711 0020 7047     		bx	lr
 712              	.LVL59:
 713              	.L47:
 763:.\Generated_Source\PSoC5/USBUART_1.c **** 
 714              		.loc 1 763 0
 715 0022 0020     		movs	r0, #0
 716              	.LVL60:
 773:.\Generated_Source\PSoC5/USBUART_1.c ****     }
 774:.\Generated_Source\PSoC5/USBUART_1.c ****     return(result);
 775:.\Generated_Source\PSoC5/USBUART_1.c **** }
 717              		.loc 1 775 0
 718 0024 7047     		bx	lr
 719              	.L49:
 720 0026 00BF     		.align	2
 721              	.L48:
 722 0028 0C600040 		.word	1073766412
 723              		.cfi_endproc
 724              	.LFE10:
 725              		.size	USBUART_1_GetEPCount, .-USBUART_1_GetEPCount
 726              		.section	.text.USBUART_1_InitEP_DMA,"ax",%progbits
 727              		.align	2
 728              		.global	USBUART_1_InitEP_DMA
 729              		.thumb
 730              		.thumb_func
 731              		.type	USBUART_1_InitEP_DMA, %function
 732              	USBUART_1_InitEP_DMA:
 733              	.LFB11:
 776:.\Generated_Source\PSoC5/USBUART_1.c **** 
 777:.\Generated_Source\PSoC5/USBUART_1.c **** 
 778:.\Generated_Source\PSoC5/USBUART_1.c **** #if(USBUART_1_EP_MM != USBUART_1__EP_MANUAL)
 779:.\Generated_Source\PSoC5/USBUART_1.c **** 
 780:.\Generated_Source\PSoC5/USBUART_1.c **** 
 781:.\Generated_Source\PSoC5/USBUART_1.c ****     /*******************************************************************************
 782:.\Generated_Source\PSoC5/USBUART_1.c ****     * Function Name: USBUART_1_InitEP_DMA
 783:.\Generated_Source\PSoC5/USBUART_1.c ****     ********************************************************************************
 784:.\Generated_Source\PSoC5/USBUART_1.c ****     *
 785:.\Generated_Source\PSoC5/USBUART_1.c ****     * Summary:
 786:.\Generated_Source\PSoC5/USBUART_1.c ****     *  This function allocates and initializes a DMA channel to be used by the
 787:.\Generated_Source\PSoC5/USBUART_1.c ****     *  USBUART_1_LoadInEP() or USBUART_1_ReadOutEP() APIs for data
 788:.\Generated_Source\PSoC5/USBUART_1.c ****     *  transfer.
 789:.\Generated_Source\PSoC5/USBUART_1.c ****     *
 790:.\Generated_Source\PSoC5/USBUART_1.c ****     * Parameters:
 791:.\Generated_Source\PSoC5/USBUART_1.c ****     *  epNumber: Contains the data endpoint number.
 792:.\Generated_Source\PSoC5/USBUART_1.c ****     *            Valid values are between 1 and 8.
 793:.\Generated_Source\PSoC5/USBUART_1.c ****     *  *pData: Pointer to a data array that is related to the EP transfers.
ARM GAS  C:\Users\Alex\AppData\Local\Temp\ccbj9lYo.s 			page 28


 794:.\Generated_Source\PSoC5/USBUART_1.c ****     *
 795:.\Generated_Source\PSoC5/USBUART_1.c ****     * Return:
 796:.\Generated_Source\PSoC5/USBUART_1.c ****     *  None.
 797:.\Generated_Source\PSoC5/USBUART_1.c ****     *
 798:.\Generated_Source\PSoC5/USBUART_1.c ****     * Reentrant:
 799:.\Generated_Source\PSoC5/USBUART_1.c ****     *  No.
 800:.\Generated_Source\PSoC5/USBUART_1.c ****     *
 801:.\Generated_Source\PSoC5/USBUART_1.c ****     *******************************************************************************/
 802:.\Generated_Source\PSoC5/USBUART_1.c ****     void USBUART_1_InitEP_DMA(uint8 epNumber, const uint8* pData)
 803:.\Generated_Source\PSoC5/USBUART_1.c ****                                                                     
 804:.\Generated_Source\PSoC5/USBUART_1.c ****     {
 734              		.loc 1 804 0
 735              		.cfi_startproc
 736              		@ args = 0, pretend = 0, frame = 0
 737              		@ frame_needed = 0, uses_anonymous_args = 0
 738              	.LVL61:
 739 0000 10B5     		push	{r4, lr}
 740              		.cfi_def_cfa_offset 8
 741              		.cfi_offset 4, -8
 742              		.cfi_offset 14, -4
 743 0002 0446     		mov	r4, r0
 805:.\Generated_Source\PSoC5/USBUART_1.c ****         uint16 src;
 806:.\Generated_Source\PSoC5/USBUART_1.c ****         uint16 dst;
 807:.\Generated_Source\PSoC5/USBUART_1.c ****         #if (CY_PSOC3)                  /* PSoC 3 */
 808:.\Generated_Source\PSoC5/USBUART_1.c ****             src = HI16(CYDEV_SRAM_BASE);
 809:.\Generated_Source\PSoC5/USBUART_1.c ****             dst = HI16(CYDEV_PERIPH_BASE);
 810:.\Generated_Source\PSoC5/USBUART_1.c ****             pData = pData;
 811:.\Generated_Source\PSoC5/USBUART_1.c ****         #else                           /* PSoC 5 */
 812:.\Generated_Source\PSoC5/USBUART_1.c ****             if((USBUART_1_EP[epNumber].addr & USBUART_1_DIR_IN) != 0u )
 744              		.loc 1 812 0
 745 0004 00EB4000 		add	r0, r0, r0, lsl #1
 746              	.LVL62:
 747 0008 8000     		lsls	r0, r0, #2
 748 000a 184B     		ldr	r3, .L59
 749 000c 1844     		add	r0, r0, r3
 750 000e 0379     		ldrb	r3, [r0, #4]	@ zero_extendqisi2
 751 0010 13F0800F 		tst	r3, #128
 752 0014 03D0     		beq	.L51
 813:.\Generated_Source\PSoC5/USBUART_1.c ****             {   /* for the IN EP source is the SRAM memory buffer */
 814:.\Generated_Source\PSoC5/USBUART_1.c ****                 src = HI16(pData);
 753              		.loc 1 814 0
 754 0016 0A0C     		lsrs	r2, r1, #16
 755              	.LVL63:
 815:.\Generated_Source\PSoC5/USBUART_1.c ****                 dst = HI16(CYDEV_PERIPH_BASE);
 756              		.loc 1 815 0
 757 0018 4FF48043 		mov	r3, #16384
 758 001c 02E0     		b	.L52
 759              	.LVL64:
 760              	.L51:
 816:.\Generated_Source\PSoC5/USBUART_1.c ****             }
 817:.\Generated_Source\PSoC5/USBUART_1.c ****             else
 818:.\Generated_Source\PSoC5/USBUART_1.c ****             {   /* for the OUT EP source is the SIE register */
 819:.\Generated_Source\PSoC5/USBUART_1.c ****                 src = HI16(CYDEV_PERIPH_BASE);
 820:.\Generated_Source\PSoC5/USBUART_1.c ****                 dst = HI16(pData);
 761              		.loc 1 820 0
 762 001e 0B0C     		lsrs	r3, r1, #16
 763              	.LVL65:
ARM GAS  C:\Users\Alex\AppData\Local\Temp\ccbj9lYo.s 			page 29


 819:.\Generated_Source\PSoC5/USBUART_1.c ****                 dst = HI16(pData);
 764              		.loc 1 819 0
 765 0020 4FF48042 		mov	r2, #16384
 766              	.LVL66:
 767              	.L52:
 821:.\Generated_Source\PSoC5/USBUART_1.c ****             }
 822:.\Generated_Source\PSoC5/USBUART_1.c ****         #endif  /*  C51 */
 823:.\Generated_Source\PSoC5/USBUART_1.c ****         switch(epNumber)
 768              		.loc 1 823 0
 769 0024 022C     		cmp	r4, #2
 770 0026 0AD0     		beq	.L54
 771 0028 032C     		cmp	r4, #3
 772 002a 0FD0     		beq	.L55
 773 002c 012C     		cmp	r4, #1
 774 002e 13D1     		bne	.L53
 824:.\Generated_Source\PSoC5/USBUART_1.c ****         {
 825:.\Generated_Source\PSoC5/USBUART_1.c ****             case USBUART_1_EP1:
 826:.\Generated_Source\PSoC5/USBUART_1.c ****                 #if(USBUART_1_DMA1_REMOVE == 0u)
 827:.\Generated_Source\PSoC5/USBUART_1.c ****                     USBUART_1_DmaChan[epNumber] = USBUART_1_ep1_DmaInitialize(
 775              		.loc 1 827 0
 776 0030 0020     		movs	r0, #0
 777 0032 0146     		mov	r1, r0
 778              	.LVL67:
 779 0034 FFF7FEFF 		bl	USBUART_1_ep1_DmaInitialize
 780              	.LVL68:
 781 0038 0D4B     		ldr	r3, .L59+4
 782 003a 1855     		strb	r0, [r3, r4]
 828:.\Generated_Source\PSoC5/USBUART_1.c ****                         USBUART_1_DMA_BYTES_PER_BURST, USBUART_1_DMA_REQUEST_PER_BURST, src, dst);
 829:.\Generated_Source\PSoC5/USBUART_1.c ****                 #endif   /*  USBUART_1_DMA1_REMOVE */
 830:.\Generated_Source\PSoC5/USBUART_1.c ****                 break;
 783              		.loc 1 830 0
 784 003c 0CE0     		b	.L53
 785              	.LVL69:
 786              	.L54:
 831:.\Generated_Source\PSoC5/USBUART_1.c ****             case USBUART_1_EP2:
 832:.\Generated_Source\PSoC5/USBUART_1.c ****                 #if(USBUART_1_DMA2_REMOVE == 0u)
 833:.\Generated_Source\PSoC5/USBUART_1.c ****                     USBUART_1_DmaChan[epNumber] = USBUART_1_ep2_DmaInitialize(
 787              		.loc 1 833 0
 788 003e 0020     		movs	r0, #0
 789 0040 0146     		mov	r1, r0
 790              	.LVL70:
 791 0042 FFF7FEFF 		bl	USBUART_1_ep2_DmaInitialize
 792              	.LVL71:
 793 0046 0A4B     		ldr	r3, .L59+4
 794 0048 1855     		strb	r0, [r3, r4]
 834:.\Generated_Source\PSoC5/USBUART_1.c ****                         USBUART_1_DMA_BYTES_PER_BURST, USBUART_1_DMA_REQUEST_PER_BURST, src, dst);
 835:.\Generated_Source\PSoC5/USBUART_1.c ****                 #endif   /*  USBUART_1_DMA2_REMOVE */
 836:.\Generated_Source\PSoC5/USBUART_1.c ****                 break;
 795              		.loc 1 836 0
 796 004a 05E0     		b	.L53
 797              	.LVL72:
 798              	.L55:
 837:.\Generated_Source\PSoC5/USBUART_1.c ****             case USBUART_1_EP3:
 838:.\Generated_Source\PSoC5/USBUART_1.c ****                 #if(USBUART_1_DMA3_REMOVE == 0u)
 839:.\Generated_Source\PSoC5/USBUART_1.c ****                     USBUART_1_DmaChan[epNumber] = USBUART_1_ep3_DmaInitialize(
 799              		.loc 1 839 0
 800 004c 0020     		movs	r0, #0
ARM GAS  C:\Users\Alex\AppData\Local\Temp\ccbj9lYo.s 			page 30


 801 004e 0146     		mov	r1, r0
 802              	.LVL73:
 803 0050 FFF7FEFF 		bl	USBUART_1_ep3_DmaInitialize
 804              	.LVL74:
 805 0054 064B     		ldr	r3, .L59+4
 806 0056 1855     		strb	r0, [r3, r4]
 807              	.L53:
 840:.\Generated_Source\PSoC5/USBUART_1.c ****                         USBUART_1_DMA_BYTES_PER_BURST, USBUART_1_DMA_REQUEST_PER_BURST, src, dst);
 841:.\Generated_Source\PSoC5/USBUART_1.c ****                 #endif   /*  USBUART_1_DMA3_REMOVE */
 842:.\Generated_Source\PSoC5/USBUART_1.c ****                 break;
 843:.\Generated_Source\PSoC5/USBUART_1.c ****             case USBUART_1_EP4:
 844:.\Generated_Source\PSoC5/USBUART_1.c ****                 #if(USBUART_1_DMA4_REMOVE == 0u)
 845:.\Generated_Source\PSoC5/USBUART_1.c ****                     USBUART_1_DmaChan[epNumber] = USBUART_1_ep4_DmaInitialize(
 846:.\Generated_Source\PSoC5/USBUART_1.c ****                         USBUART_1_DMA_BYTES_PER_BURST, USBUART_1_DMA_REQUEST_PER_BURST, src, dst);
 847:.\Generated_Source\PSoC5/USBUART_1.c ****                 #endif   /*  USBUART_1_DMA4_REMOVE */
 848:.\Generated_Source\PSoC5/USBUART_1.c ****                 break;
 849:.\Generated_Source\PSoC5/USBUART_1.c ****             case USBUART_1_EP5:
 850:.\Generated_Source\PSoC5/USBUART_1.c ****                 #if(USBUART_1_DMA5_REMOVE == 0u)
 851:.\Generated_Source\PSoC5/USBUART_1.c ****                     USBUART_1_DmaChan[epNumber] = USBUART_1_ep5_DmaInitialize(
 852:.\Generated_Source\PSoC5/USBUART_1.c ****                         USBUART_1_DMA_BYTES_PER_BURST, USBUART_1_DMA_REQUEST_PER_BURST, src, dst);
 853:.\Generated_Source\PSoC5/USBUART_1.c ****                 #endif   /*  USBUART_1_DMA5_REMOVE */
 854:.\Generated_Source\PSoC5/USBUART_1.c ****                 break;
 855:.\Generated_Source\PSoC5/USBUART_1.c ****             case USBUART_1_EP6:
 856:.\Generated_Source\PSoC5/USBUART_1.c ****                 #if(USBUART_1_DMA6_REMOVE == 0u)
 857:.\Generated_Source\PSoC5/USBUART_1.c ****                     USBUART_1_DmaChan[epNumber] = USBUART_1_ep6_DmaInitialize(
 858:.\Generated_Source\PSoC5/USBUART_1.c ****                         USBUART_1_DMA_BYTES_PER_BURST, USBUART_1_DMA_REQUEST_PER_BURST, src, dst);
 859:.\Generated_Source\PSoC5/USBUART_1.c ****                 #endif   /*  USBUART_1_DMA6_REMOVE */
 860:.\Generated_Source\PSoC5/USBUART_1.c ****                 break;
 861:.\Generated_Source\PSoC5/USBUART_1.c ****             case USBUART_1_EP7:
 862:.\Generated_Source\PSoC5/USBUART_1.c ****                 #if(USBUART_1_DMA7_REMOVE == 0u)
 863:.\Generated_Source\PSoC5/USBUART_1.c ****                     USBUART_1_DmaChan[epNumber] = USBUART_1_ep7_DmaInitialize(
 864:.\Generated_Source\PSoC5/USBUART_1.c ****                         USBUART_1_DMA_BYTES_PER_BURST, USBUART_1_DMA_REQUEST_PER_BURST, src, dst);
 865:.\Generated_Source\PSoC5/USBUART_1.c ****                 #endif   /*  USBUART_1_DMA7_REMOVE */
 866:.\Generated_Source\PSoC5/USBUART_1.c ****                 break;
 867:.\Generated_Source\PSoC5/USBUART_1.c ****             case USBUART_1_EP8:
 868:.\Generated_Source\PSoC5/USBUART_1.c ****                 #if(USBUART_1_DMA8_REMOVE == 0u)
 869:.\Generated_Source\PSoC5/USBUART_1.c ****                     USBUART_1_DmaChan[epNumber] = USBUART_1_ep8_DmaInitialize(
 870:.\Generated_Source\PSoC5/USBUART_1.c ****                         USBUART_1_DMA_BYTES_PER_BURST, USBUART_1_DMA_REQUEST_PER_BURST, src, dst);
 871:.\Generated_Source\PSoC5/USBUART_1.c ****                 #endif   /*  USBUART_1_DMA8_REMOVE */
 872:.\Generated_Source\PSoC5/USBUART_1.c ****                 break;
 873:.\Generated_Source\PSoC5/USBUART_1.c ****             default:
 874:.\Generated_Source\PSoC5/USBUART_1.c ****                 /* Do not support EP0 DMA transfers */
 875:.\Generated_Source\PSoC5/USBUART_1.c ****                 break;
 876:.\Generated_Source\PSoC5/USBUART_1.c ****         }
 877:.\Generated_Source\PSoC5/USBUART_1.c ****         if((epNumber > USBUART_1_EP0) && (epNumber < USBUART_1_MAX_EP))
 808              		.loc 1 877 0
 809 0058 631E     		subs	r3, r4, #1
 810 005a DBB2     		uxtb	r3, r3
 811 005c 072B     		cmp	r3, #7
 812 005e 03D8     		bhi	.L50
 878:.\Generated_Source\PSoC5/USBUART_1.c ****         {
 879:.\Generated_Source\PSoC5/USBUART_1.c ****             USBUART_1_DmaTd[epNumber] = CyDmaTdAllocate();
 813              		.loc 1 879 0
 814 0060 FFF7FEFF 		bl	CyDmaTdAllocate
 815              	.LVL75:
 816 0064 034B     		ldr	r3, .L59+8
 817 0066 1855     		strb	r0, [r3, r4]
ARM GAS  C:\Users\Alex\AppData\Local\Temp\ccbj9lYo.s 			page 31


 818              	.L50:
 819 0068 10BD     		pop	{r4, pc}
 820              	.L60:
 821 006a 00BF     		.align	2
 822              	.L59:
 823 006c 00000000 		.word	USBUART_1_EP
 824 0070 00000000 		.word	USBUART_1_DmaChan
 825 0074 00000000 		.word	USBUART_1_DmaTd
 826              		.cfi_endproc
 827              	.LFE11:
 828              		.size	USBUART_1_InitEP_DMA, .-USBUART_1_InitEP_DMA
 829              		.section	.text.USBUART_1_Stop_DMA,"ax",%progbits
 830              		.align	2
 831              		.global	USBUART_1_Stop_DMA
 832              		.thumb
 833              		.thumb_func
 834              		.type	USBUART_1_Stop_DMA, %function
 835              	USBUART_1_Stop_DMA:
 836              	.LFB12:
 880:.\Generated_Source\PSoC5/USBUART_1.c ****             #if ((USBUART_1_EP_MM == USBUART_1__EP_DMAAUTO) && (USBUART_1_EP_DMA_AUTO_OPT == 0u))
 881:.\Generated_Source\PSoC5/USBUART_1.c ****                 USBUART_1_DmaNextTd[epNumber] = CyDmaTdAllocate();
 882:.\Generated_Source\PSoC5/USBUART_1.c ****             #endif /*  ((USBUART_1_EP_MM == USBUART_1__EP_DMAAUTO) && (USBUART_1_EP_DMA_AUTO_OPT ==
 883:.\Generated_Source\PSoC5/USBUART_1.c **** 
 884:.\Generated_Source\PSoC5/USBUART_1.c ****         }
 885:.\Generated_Source\PSoC5/USBUART_1.c ****     }
 886:.\Generated_Source\PSoC5/USBUART_1.c **** 
 887:.\Generated_Source\PSoC5/USBUART_1.c **** 
 888:.\Generated_Source\PSoC5/USBUART_1.c ****     /*******************************************************************************
 889:.\Generated_Source\PSoC5/USBUART_1.c ****     * Function Name: USBUART_1_Stop_DMA
 890:.\Generated_Source\PSoC5/USBUART_1.c ****     ********************************************************************************
 891:.\Generated_Source\PSoC5/USBUART_1.c ****     *
 892:.\Generated_Source\PSoC5/USBUART_1.c ****     * Summary: Stops and free DMA
 893:.\Generated_Source\PSoC5/USBUART_1.c ****     *
 894:.\Generated_Source\PSoC5/USBUART_1.c ****     * Parameters:
 895:.\Generated_Source\PSoC5/USBUART_1.c ****     *  epNumber: Contains the data endpoint number or
 896:.\Generated_Source\PSoC5/USBUART_1.c ****     *           USBUART_1_MAX_EP to stop all DMAs
 897:.\Generated_Source\PSoC5/USBUART_1.c ****     *
 898:.\Generated_Source\PSoC5/USBUART_1.c ****     * Return:
 899:.\Generated_Source\PSoC5/USBUART_1.c ****     *  None.
 900:.\Generated_Source\PSoC5/USBUART_1.c ****     *
 901:.\Generated_Source\PSoC5/USBUART_1.c ****     * Reentrant:
 902:.\Generated_Source\PSoC5/USBUART_1.c ****     *  No.
 903:.\Generated_Source\PSoC5/USBUART_1.c ****     *
 904:.\Generated_Source\PSoC5/USBUART_1.c ****     *******************************************************************************/
 905:.\Generated_Source\PSoC5/USBUART_1.c ****     void USBUART_1_Stop_DMA(uint8 epNumber) 
 906:.\Generated_Source\PSoC5/USBUART_1.c ****     {
 837              		.loc 1 906 0
 838              		.cfi_startproc
 839              		@ args = 0, pretend = 0, frame = 0
 840              		@ frame_needed = 0, uses_anonymous_args = 0
 841              	.LVL76:
 842 0000 70B5     		push	{r4, r5, r6, lr}
 843              		.cfi_def_cfa_offset 16
 844              		.cfi_offset 4, -16
 845              		.cfi_offset 5, -12
 846              		.cfi_offset 6, -8
 847              		.cfi_offset 14, -4
ARM GAS  C:\Users\Alex\AppData\Local\Temp\ccbj9lYo.s 			page 32


 848 0002 0646     		mov	r6, r0
 907:.\Generated_Source\PSoC5/USBUART_1.c ****         uint8 i;
 908:.\Generated_Source\PSoC5/USBUART_1.c ****         i = (epNumber < USBUART_1_MAX_EP) ? epNumber : USBUART_1_EP1;
 849              		.loc 1 908 0
 850 0004 0828     		cmp	r0, #8
 851 0006 01D9     		bls	.L66
 852 0008 0124     		movs	r4, #1
 853 000a 00E0     		b	.L65
 854              	.L66:
 855 000c 0446     		mov	r4, r0
 856              	.LVL77:
 857              	.L65:
 909:.\Generated_Source\PSoC5/USBUART_1.c ****         do
 910:.\Generated_Source\PSoC5/USBUART_1.c ****         {
 911:.\Generated_Source\PSoC5/USBUART_1.c ****             if(USBUART_1_DmaTd[i] != DMA_INVALID_TD)
 858              		.loc 1 911 0
 859 000e 0A4B     		ldr	r3, .L68
 860 0010 1B5D     		ldrb	r3, [r3, r4]	@ zero_extendqisi2
 861 0012 FF2B     		cmp	r3, #255
 862 0014 09D0     		beq	.L63
 912:.\Generated_Source\PSoC5/USBUART_1.c ****             {
 913:.\Generated_Source\PSoC5/USBUART_1.c ****                 (void) CyDmaChDisable(USBUART_1_DmaChan[i]);
 863              		.loc 1 913 0
 864 0016 094B     		ldr	r3, .L68+4
 865 0018 185D     		ldrb	r0, [r3, r4]	@ zero_extendqisi2
 866 001a FFF7FEFF 		bl	CyDmaChDisable
 867              	.LVL78:
 914:.\Generated_Source\PSoC5/USBUART_1.c ****                 CyDmaTdFree(USBUART_1_DmaTd[i]);
 868              		.loc 1 914 0
 869 001e 064D     		ldr	r5, .L68
 870 0020 285D     		ldrb	r0, [r5, r4]	@ zero_extendqisi2
 871 0022 FFF7FEFF 		bl	CyDmaTdFree
 872              	.LVL79:
 915:.\Generated_Source\PSoC5/USBUART_1.c ****                 USBUART_1_DmaTd[i] = DMA_INVALID_TD;
 873              		.loc 1 915 0
 874 0026 FF23     		movs	r3, #255
 875 0028 2B55     		strb	r3, [r5, r4]
 876              	.L63:
 916:.\Generated_Source\PSoC5/USBUART_1.c ****             }
 917:.\Generated_Source\PSoC5/USBUART_1.c ****             #if ((USBUART_1_EP_MM == USBUART_1__EP_DMAAUTO) && (USBUART_1_EP_DMA_AUTO_OPT == 0u))
 918:.\Generated_Source\PSoC5/USBUART_1.c ****                 if(USBUART_1_DmaNextTd[i] != DMA_INVALID_TD)
 919:.\Generated_Source\PSoC5/USBUART_1.c ****                 {
 920:.\Generated_Source\PSoC5/USBUART_1.c ****                     CyDmaTdFree(USBUART_1_DmaNextTd[i]);
 921:.\Generated_Source\PSoC5/USBUART_1.c ****                     USBUART_1_DmaNextTd[i] = DMA_INVALID_TD;
 922:.\Generated_Source\PSoC5/USBUART_1.c ****                 }
 923:.\Generated_Source\PSoC5/USBUART_1.c ****             #endif /* ((USBUART_1_EP_MM == USBUART_1__EP_DMAAUTO) && (USBUART_1_EP_DMA_AUTO_OPT == 
 924:.\Generated_Source\PSoC5/USBUART_1.c ****             i++;
 877              		.loc 1 924 0
 878 002a 0134     		adds	r4, r4, #1
 879              	.LVL80:
 880 002c E4B2     		uxtb	r4, r4
 881              	.LVL81:
 925:.\Generated_Source\PSoC5/USBUART_1.c ****         }while((i < USBUART_1_MAX_EP) && (epNumber == USBUART_1_MAX_EP));
 882              		.loc 1 925 0
 883 002e 082C     		cmp	r4, #8
 884 0030 01D8     		bhi	.L61
 885              		.loc 1 925 0 is_stmt 0 discriminator 1
ARM GAS  C:\Users\Alex\AppData\Local\Temp\ccbj9lYo.s 			page 33


 886 0032 092E     		cmp	r6, #9
 887 0034 EBD0     		beq	.L65
 888              	.L61:
 889 0036 70BD     		pop	{r4, r5, r6, pc}
 890              	.LVL82:
 891              	.L69:
 892              		.align	2
 893              	.L68:
 894 0038 00000000 		.word	USBUART_1_DmaTd
 895 003c 00000000 		.word	USBUART_1_DmaChan
 896              		.cfi_endproc
 897              	.LFE12:
 898              		.size	USBUART_1_Stop_DMA, .-USBUART_1_Stop_DMA
 899              		.section	.text.USBUART_1_Stop,"ax",%progbits
 900              		.align	2
 901              		.global	USBUART_1_Stop
 902              		.thumb
 903              		.thumb_func
 904              		.type	USBUART_1_Stop, %function
 905              	USBUART_1_Stop:
 906              	.LFB4:
 565:.\Generated_Source\PSoC5/USBUART_1.c **** 
 907              		.loc 1 565 0 is_stmt 1
 908              		.cfi_startproc
 909              		@ args = 0, pretend = 0, frame = 0
 910              		@ frame_needed = 0, uses_anonymous_args = 0
 911 0000 08B5     		push	{r3, lr}
 912              		.cfi_def_cfa_offset 8
 913              		.cfi_offset 3, -8
 914              		.cfi_offset 14, -4
 568:.\Generated_Source\PSoC5/USBUART_1.c ****     #endif   /*  USBUART_1_EP_MM != USBUART_1__EP_MANUAL */
 915              		.loc 1 568 0
 916 0002 0920     		movs	r0, #9
 917 0004 FFF7FEFF 		bl	USBUART_1_Stop_DMA
 918              	.LVL83:
 572:.\Generated_Source\PSoC5/USBUART_1.c ****     /* Disable the d+ pullup */
 919              		.loc 1 572 0
 920 0008 184A     		ldr	r2, .L72
 921 000a 1378     		ldrb	r3, [r2]	@ zero_extendqisi2
 922 000c 03F07F03 		and	r3, r3, #127
 923 0010 1370     		strb	r3, [r2]
 574:.\Generated_Source\PSoC5/USBUART_1.c ****     /* Disable USB in ACT PM */
 924              		.loc 1 574 0
 925 0012 0A32     		adds	r2, r2, #10
 926 0014 1378     		ldrb	r3, [r2]	@ zero_extendqisi2
 927 0016 03F0FB03 		and	r3, r3, #251
 928 001a 1370     		strb	r3, [r2]
 576:.\Generated_Source\PSoC5/USBUART_1.c ****     /* Disable USB block for Standby Power Mode */
 929              		.loc 1 576 0
 930 001c A2F5E352 		sub	r2, r2, #7264
 931 0020 0D3A     		subs	r2, r2, #13
 932 0022 1378     		ldrb	r3, [r2]	@ zero_extendqisi2
 933 0024 03F0FE03 		and	r3, r3, #254
 934 0028 1370     		strb	r3, [r2]
 578:.\Generated_Source\PSoC5/USBUART_1.c **** 
 935              		.loc 1 578 0
 936 002a 1032     		adds	r2, r2, #16
ARM GAS  C:\Users\Alex\AppData\Local\Temp\ccbj9lYo.s 			page 34


 937 002c 1378     		ldrb	r3, [r2]	@ zero_extendqisi2
 938 002e 03F0FE03 		and	r3, r3, #254
 939 0032 1370     		strb	r3, [r2]
 581:.\Generated_Source\PSoC5/USBUART_1.c ****     CyIntDisable(USBUART_1_EP_0_VECT_NUM);
 940              		.loc 1 581 0
 941 0034 0E4B     		ldr	r3, .L72+4
 942 0036 4FF40002 		mov	r2, #8388608
 943 003a 1A60     		str	r2, [r3]
 582:.\Generated_Source\PSoC5/USBUART_1.c ****     #if(USBUART_1_EP1_ISR_REMOVE == 0u)
 944              		.loc 1 582 0
 945 003c 4FF08072 		mov	r2, #16777216
 946 0040 1A60     		str	r2, [r3]
 584:.\Generated_Source\PSoC5/USBUART_1.c ****     #endif   /*  USBUART_1_EP1_ISR_REMOVE */
 947              		.loc 1 584 0
 948 0042 1022     		movs	r2, #16
 949 0044 1A60     		str	r2, [r3]
 587:.\Generated_Source\PSoC5/USBUART_1.c ****     #endif   /*  USBUART_1_EP2_ISR_REMOVE */
 950              		.loc 1 587 0
 951 0046 2022     		movs	r2, #32
 952 0048 1A60     		str	r2, [r3]
 590:.\Generated_Source\PSoC5/USBUART_1.c ****     #endif   /*  USBUART_1_EP3_ISR_REMOVE */
 953              		.loc 1 590 0
 954 004a 4022     		movs	r2, #64
 955 004c 1A60     		str	r2, [r3]
 609:.\Generated_Source\PSoC5/USBUART_1.c ****     USBUART_1_interfaceNumber = 0u;
 956              		.loc 1 609 0
 957 004e 0023     		movs	r3, #0
 958 0050 084A     		ldr	r2, .L72+8
 959 0052 1370     		strb	r3, [r2]
 610:.\Generated_Source\PSoC5/USBUART_1.c ****     USBUART_1_configurationChanged = 0u;
 960              		.loc 1 610 0
 961 0054 084A     		ldr	r2, .L72+12
 962 0056 1370     		strb	r3, [r2]
 611:.\Generated_Source\PSoC5/USBUART_1.c ****     USBUART_1_deviceAddress  = 0u;
 963              		.loc 1 611 0
 964 0058 084A     		ldr	r2, .L72+16
 965 005a 1370     		strb	r3, [r2]
 612:.\Generated_Source\PSoC5/USBUART_1.c ****     USBUART_1_deviceStatus = 0u;
 966              		.loc 1 612 0
 967 005c 084A     		ldr	r2, .L72+20
 968 005e 1370     		strb	r3, [r2]
 613:.\Generated_Source\PSoC5/USBUART_1.c ****     USBUART_1_initVar = 0u;
 969              		.loc 1 613 0
 970 0060 084A     		ldr	r2, .L72+24
 971 0062 1370     		strb	r3, [r2]
 614:.\Generated_Source\PSoC5/USBUART_1.c **** 
 972              		.loc 1 614 0
 973 0064 084A     		ldr	r2, .L72+28
 974 0066 1370     		strb	r3, [r2]
 975 0068 08BD     		pop	{r3, pc}
 976              	.L73:
 977 006a 00BF     		.align	2
 978              	.L72:
 979 006c 08600040 		.word	1073766408
 980 0070 80E100E0 		.word	-536813184
 981 0074 00000000 		.word	USBUART_1_configuration
 982 0078 00000000 		.word	USBUART_1_interfaceNumber
ARM GAS  C:\Users\Alex\AppData\Local\Temp\ccbj9lYo.s 			page 35


 983 007c 00000000 		.word	USBUART_1_configurationChanged
 984 0080 00000000 		.word	USBUART_1_deviceAddress
 985 0084 00000000 		.word	USBUART_1_deviceStatus
 986 0088 00000000 		.word	.LANCHOR0
 987              		.cfi_endproc
 988              	.LFE4:
 989              		.size	USBUART_1_Stop, .-USBUART_1_Stop
 990              		.section	.text.USBUART_1_LoadInEP,"ax",%progbits
 991              		.align	2
 992              		.global	USBUART_1_LoadInEP
 993              		.thumb
 994              		.thumb_func
 995              		.type	USBUART_1_LoadInEP, %function
 996              	USBUART_1_LoadInEP:
 997              	.LFB13:
 926:.\Generated_Source\PSoC5/USBUART_1.c ****     }
 927:.\Generated_Source\PSoC5/USBUART_1.c **** 
 928:.\Generated_Source\PSoC5/USBUART_1.c **** #endif /*  USBUART_1_EP_MM != USBUART_1__EP_MANUAL */
 929:.\Generated_Source\PSoC5/USBUART_1.c **** 
 930:.\Generated_Source\PSoC5/USBUART_1.c **** 
 931:.\Generated_Source\PSoC5/USBUART_1.c **** #if ((USBUART_1_EP_MM == USBUART_1__EP_DMAAUTO) && (USBUART_1_EP_DMA_AUTO_OPT == 0u))
 932:.\Generated_Source\PSoC5/USBUART_1.c **** 
 933:.\Generated_Source\PSoC5/USBUART_1.c **** 
 934:.\Generated_Source\PSoC5/USBUART_1.c ****     /*******************************************************************************
 935:.\Generated_Source\PSoC5/USBUART_1.c ****     * Function Name: USBUART_1_LoadNextInEP
 936:.\Generated_Source\PSoC5/USBUART_1.c ****     ********************************************************************************
 937:.\Generated_Source\PSoC5/USBUART_1.c ****     *
 938:.\Generated_Source\PSoC5/USBUART_1.c ****     * Summary:
 939:.\Generated_Source\PSoC5/USBUART_1.c ****     *  This internal function is used for IN endpoint DMA reconfiguration in
 940:.\Generated_Source\PSoC5/USBUART_1.c ****     *  Auto DMA mode.
 941:.\Generated_Source\PSoC5/USBUART_1.c ****     *
 942:.\Generated_Source\PSoC5/USBUART_1.c ****     * Parameters:
 943:.\Generated_Source\PSoC5/USBUART_1.c ****     *  epNumber: Contains the data endpoint number.
 944:.\Generated_Source\PSoC5/USBUART_1.c ****     *  mode:   0 - Configure DMA to send the the rest of data.
 945:.\Generated_Source\PSoC5/USBUART_1.c ****     *          1 - Configure DMA to repeat 2 last bytes of the first burst.
 946:.\Generated_Source\PSoC5/USBUART_1.c ****     *
 947:.\Generated_Source\PSoC5/USBUART_1.c ****     * Return:
 948:.\Generated_Source\PSoC5/USBUART_1.c ****     *  None.
 949:.\Generated_Source\PSoC5/USBUART_1.c ****     *
 950:.\Generated_Source\PSoC5/USBUART_1.c ****     *******************************************************************************/
 951:.\Generated_Source\PSoC5/USBUART_1.c ****     void USBUART_1_LoadNextInEP(uint8 epNumber, uint8 mode) 
 952:.\Generated_Source\PSoC5/USBUART_1.c ****     {
 953:.\Generated_Source\PSoC5/USBUART_1.c ****         reg16 *convert;
 954:.\Generated_Source\PSoC5/USBUART_1.c **** 
 955:.\Generated_Source\PSoC5/USBUART_1.c ****         if(mode == 0u)
 956:.\Generated_Source\PSoC5/USBUART_1.c ****         {
 957:.\Generated_Source\PSoC5/USBUART_1.c ****             /* Configure DMA to send the the rest of data */
 958:.\Generated_Source\PSoC5/USBUART_1.c ****             /* CyDmaTdSetConfiguration API is optimised to change only transfer length and configur
 959:.\Generated_Source\PSoC5/USBUART_1.c ****             convert = (reg16 *) &CY_DMA_TDMEM_STRUCT_PTR[USBUART_1_DmaTd[epNumber]].TD0[0u];
 960:.\Generated_Source\PSoC5/USBUART_1.c ****             /* Set transfer length */
 961:.\Generated_Source\PSoC5/USBUART_1.c ****             CY_SET_REG16(convert, USBUART_1_inLength[epNumber] - USBUART_1_DMA_BYTES_PER_BURST);
 962:.\Generated_Source\PSoC5/USBUART_1.c ****             /* CyDmaTdSetAddress API is optimized to change only source address */
 963:.\Generated_Source\PSoC5/USBUART_1.c ****             convert = (reg16 *) &CY_DMA_TDMEM_STRUCT_PTR[USBUART_1_DmaTd[epNumber]].TD1[0u];
 964:.\Generated_Source\PSoC5/USBUART_1.c ****             CY_SET_REG16(convert, LO16((uint32)USBUART_1_inDataPointer[epNumber] +
 965:.\Generated_Source\PSoC5/USBUART_1.c ****                                             USBUART_1_DMA_BYTES_PER_BURST));
 966:.\Generated_Source\PSoC5/USBUART_1.c ****             USBUART_1_inBufFull[epNumber] = 1u;
 967:.\Generated_Source\PSoC5/USBUART_1.c ****         }
ARM GAS  C:\Users\Alex\AppData\Local\Temp\ccbj9lYo.s 			page 36


 968:.\Generated_Source\PSoC5/USBUART_1.c ****         else
 969:.\Generated_Source\PSoC5/USBUART_1.c ****         {
 970:.\Generated_Source\PSoC5/USBUART_1.c ****             /* Configure DMA to repeat 2 last bytes of the first burst. */
 971:.\Generated_Source\PSoC5/USBUART_1.c ****             /* CyDmaTdSetConfiguration API is optimised to change only transfer length and configur
 972:.\Generated_Source\PSoC5/USBUART_1.c ****             convert = (reg16 *) &CY_DMA_TDMEM_STRUCT_PTR[USBUART_1_DmaTd[epNumber]].TD0[0u];
 973:.\Generated_Source\PSoC5/USBUART_1.c ****             /* Set transfer length */
 974:.\Generated_Source\PSoC5/USBUART_1.c ****             CY_SET_REG16(convert, USBUART_1_DMA_BYTES_REPEAT);
 975:.\Generated_Source\PSoC5/USBUART_1.c ****             /* CyDmaTdSetAddress API is optimized to change only source address */
 976:.\Generated_Source\PSoC5/USBUART_1.c ****             convert = (reg16 *) &CY_DMA_TDMEM_STRUCT_PTR[USBUART_1_DmaTd[epNumber]].TD1[0u];
 977:.\Generated_Source\PSoC5/USBUART_1.c ****             CY_SET_REG16(convert,  LO16((uint32)USBUART_1_inDataPointer[epNumber] +
 978:.\Generated_Source\PSoC5/USBUART_1.c ****                                    USBUART_1_DMA_BYTES_PER_BURST - USBUART_1_DMA_BYTES_REPEAT));
 979:.\Generated_Source\PSoC5/USBUART_1.c ****         }
 980:.\Generated_Source\PSoC5/USBUART_1.c **** 
 981:.\Generated_Source\PSoC5/USBUART_1.c ****         /* CyDmaChSetInitialTd API is optimised to init TD */
 982:.\Generated_Source\PSoC5/USBUART_1.c ****         CY_DMA_CH_STRUCT_PTR[USBUART_1_DmaChan[epNumber]].basic_status[1u] = USBUART_1_DmaTd[epNumb
 983:.\Generated_Source\PSoC5/USBUART_1.c ****     }
 984:.\Generated_Source\PSoC5/USBUART_1.c **** #endif /* ((USBUART_1_EP_MM == USBUART_1__EP_DMAAUTO) && (USBUART_1_EP_DMA_AUTO_OPT == 0u)) */
 985:.\Generated_Source\PSoC5/USBUART_1.c **** 
 986:.\Generated_Source\PSoC5/USBUART_1.c **** 
 987:.\Generated_Source\PSoC5/USBUART_1.c **** /*******************************************************************************
 988:.\Generated_Source\PSoC5/USBUART_1.c **** * Function Name: USBUART_1_LoadInEP
 989:.\Generated_Source\PSoC5/USBUART_1.c **** ********************************************************************************
 990:.\Generated_Source\PSoC5/USBUART_1.c **** *
 991:.\Generated_Source\PSoC5/USBUART_1.c **** * Summary:
 992:.\Generated_Source\PSoC5/USBUART_1.c **** *  Loads and enables the specified USB data endpoint for an IN transfer.
 993:.\Generated_Source\PSoC5/USBUART_1.c **** *
 994:.\Generated_Source\PSoC5/USBUART_1.c **** * Parameters:
 995:.\Generated_Source\PSoC5/USBUART_1.c **** *  epNumber: Contains the data endpoint number.
 996:.\Generated_Source\PSoC5/USBUART_1.c **** *            Valid values are between 1 and 8.
 997:.\Generated_Source\PSoC5/USBUART_1.c **** *  *pData: A pointer to a data array from which the data for the endpoint space
 998:.\Generated_Source\PSoC5/USBUART_1.c **** *          is loaded.
 999:.\Generated_Source\PSoC5/USBUART_1.c **** *  length: The number of bytes to transfer from the array and then send as a
1000:.\Generated_Source\PSoC5/USBUART_1.c **** *          result of an IN request. Valid values are between 0 and 512.
1001:.\Generated_Source\PSoC5/USBUART_1.c **** *
1002:.\Generated_Source\PSoC5/USBUART_1.c **** * Return:
1003:.\Generated_Source\PSoC5/USBUART_1.c **** *  None.
1004:.\Generated_Source\PSoC5/USBUART_1.c **** *
1005:.\Generated_Source\PSoC5/USBUART_1.c **** * Reentrant:
1006:.\Generated_Source\PSoC5/USBUART_1.c **** *  No.
1007:.\Generated_Source\PSoC5/USBUART_1.c **** *
1008:.\Generated_Source\PSoC5/USBUART_1.c **** *******************************************************************************/
1009:.\Generated_Source\PSoC5/USBUART_1.c **** void USBUART_1_LoadInEP(uint8 epNumber, const uint8 pData[], uint16 length)
1010:.\Generated_Source\PSoC5/USBUART_1.c ****                                                                         
1011:.\Generated_Source\PSoC5/USBUART_1.c **** {
 998              		.loc 1 1011 0
 999              		.cfi_startproc
 1000              		@ args = 0, pretend = 0, frame = 0
 1001              		@ frame_needed = 0, uses_anonymous_args = 0
 1002              	.LVL84:
 1003 0000 2DE9F047 		push	{r4, r5, r6, r7, r8, r9, r10, lr}
 1004              		.cfi_def_cfa_offset 32
 1005              		.cfi_offset 4, -32
 1006              		.cfi_offset 5, -28
 1007              		.cfi_offset 6, -24
 1008              		.cfi_offset 7, -20
 1009              		.cfi_offset 8, -16
 1010              		.cfi_offset 9, -12
ARM GAS  C:\Users\Alex\AppData\Local\Temp\ccbj9lYo.s 			page 37


 1011              		.cfi_offset 10, -8
 1012              		.cfi_offset 14, -4
 1013 0004 0446     		mov	r4, r0
1012:.\Generated_Source\PSoC5/USBUART_1.c ****     uint8 ri;
1013:.\Generated_Source\PSoC5/USBUART_1.c ****     reg8 *p;
1014:.\Generated_Source\PSoC5/USBUART_1.c ****     #if(USBUART_1_EP_MM == USBUART_1__EP_MANUAL)
1015:.\Generated_Source\PSoC5/USBUART_1.c ****         uint16 i;
1016:.\Generated_Source\PSoC5/USBUART_1.c ****     #endif /*  USBUART_1_EP_MM == USBUART_1__EP_MANUAL */
1017:.\Generated_Source\PSoC5/USBUART_1.c **** 
1018:.\Generated_Source\PSoC5/USBUART_1.c ****     if((epNumber > USBUART_1_EP0) && (epNumber < USBUART_1_MAX_EP))
 1014              		.loc 1 1018 0
 1015 0006 451E     		subs	r5, r0, #1
 1016 0008 EDB2     		uxtb	r5, r5
 1017 000a 072D     		cmp	r5, #7
 1018 000c 6FD8     		bhi	.L74
 1019 000e 0F46     		mov	r7, r1
 1020 0010 1646     		mov	r6, r2
1019:.\Generated_Source\PSoC5/USBUART_1.c ****     {
1020:.\Generated_Source\PSoC5/USBUART_1.c ****         ri = ((epNumber - USBUART_1_EP1) << USBUART_1_EPX_CNTX_ADDR_SHIFT);
 1021              		.loc 1 1020 0
 1022 0012 2D01     		lsls	r5, r5, #4
 1023 0014 EDB2     		uxtb	r5, r5
1021:.\Generated_Source\PSoC5/USBUART_1.c ****         p = (reg8 *)(USBUART_1_ARB_RW1_DR_IND + ri);
 1024              		.loc 1 1021 0
 1025 0016 DFF8EC80 		ldr	r8, .L80+16
 1026 001a A844     		add	r8, r8, r5
 1027              	.LVL85:
1022:.\Generated_Source\PSoC5/USBUART_1.c **** 
1023:.\Generated_Source\PSoC5/USBUART_1.c ****         #if(USBUART_1_EP_MM != USBUART_1__EP_DMAAUTO)
1024:.\Generated_Source\PSoC5/USBUART_1.c ****             /* Limits length to available buffer space, auto MM could send packets up to 1024 bytes
1025:.\Generated_Source\PSoC5/USBUART_1.c ****             if(length > (USBUART_1_EPX_DATA_BUF_MAX - USBUART_1_EP[epNumber].buffOffset))
 1028              		.loc 1 1025 0
 1029 001c 00EB4003 		add	r3, r0, r0, lsl #1
 1030 0020 9B00     		lsls	r3, r3, #2
 1031 0022 344A     		ldr	r2, .L80
 1032              	.LVL86:
 1033 0024 1344     		add	r3, r3, r2
 1034 0026 DB88     		ldrh	r3, [r3, #6]
 1035 0028 9BB2     		uxth	r3, r3
 1036 002a C3F50073 		rsb	r3, r3, #512
 1037 002e 9E42     		cmp	r6, r3
 1038 0030 07D9     		bls	.L76
1026:.\Generated_Source\PSoC5/USBUART_1.c ****             {
1027:.\Generated_Source\PSoC5/USBUART_1.c ****                 length = USBUART_1_EPX_DATA_BUF_MAX - USBUART_1_EP[epNumber].buffOffset;
 1039              		.loc 1 1027 0
 1040 0032 00EB4003 		add	r3, r0, r0, lsl #1
 1041 0036 9B00     		lsls	r3, r3, #2
 1042 0038 1344     		add	r3, r3, r2
 1043 003a DE88     		ldrh	r6, [r3, #6]
 1044 003c C6F50076 		rsb	r6, r6, #512
 1045 0040 B6B2     		uxth	r6, r6
 1046              	.LVL87:
 1047              	.L76:
1028:.\Generated_Source\PSoC5/USBUART_1.c ****             }
1029:.\Generated_Source\PSoC5/USBUART_1.c ****         #endif /*  USBUART_1_EP_MM != USBUART_1__EP_DMAAUTO */
1030:.\Generated_Source\PSoC5/USBUART_1.c **** 
1031:.\Generated_Source\PSoC5/USBUART_1.c ****         /* Set the count and data toggle */
ARM GAS  C:\Users\Alex\AppData\Local\Temp\ccbj9lYo.s 			page 38


1032:.\Generated_Source\PSoC5/USBUART_1.c ****         CY_SET_REG8((reg8 *)(USBUART_1_SIE_EP1_CNT0_IND + ri),
 1048              		.loc 1 1032 0
 1049 0042 04EB4403 		add	r3, r4, r4, lsl #1
 1050 0046 9B00     		lsls	r3, r3, #2
 1051 0048 2A4A     		ldr	r2, .L80
 1052 004a 1344     		add	r3, r3, r2
 1053 004c DB78     		ldrb	r3, [r3, #3]	@ zero_extendqisi2
 1054 004e 43EA1623 		orr	r3, r3, r6, lsr #8
 1055 0052 294A     		ldr	r2, .L80+4
 1056 0054 AB54     		strb	r3, [r5, r2]
1033:.\Generated_Source\PSoC5/USBUART_1.c ****                             (length >> 8u) | (USBUART_1_EP[epNumber].epToggle));
1034:.\Generated_Source\PSoC5/USBUART_1.c ****         CY_SET_REG8((reg8 *)(USBUART_1_SIE_EP1_CNT1_IND + ri),  length & 0xFFu);
 1057              		.loc 1 1034 0
 1058 0056 F3B2     		uxtb	r3, r6
 1059 0058 0132     		adds	r2, r2, #1
 1060 005a AB54     		strb	r3, [r5, r2]
1035:.\Generated_Source\PSoC5/USBUART_1.c **** 
1036:.\Generated_Source\PSoC5/USBUART_1.c ****         #if(USBUART_1_EP_MM == USBUART_1__EP_MANUAL)
1037:.\Generated_Source\PSoC5/USBUART_1.c ****             if(pData != NULL)
1038:.\Generated_Source\PSoC5/USBUART_1.c ****             {
1039:.\Generated_Source\PSoC5/USBUART_1.c ****                 /* Copy the data using the arbiter data register */
1040:.\Generated_Source\PSoC5/USBUART_1.c ****                 for (i = 0u; i < length; i++)
1041:.\Generated_Source\PSoC5/USBUART_1.c ****                 {
1042:.\Generated_Source\PSoC5/USBUART_1.c ****                     CY_SET_REG8(p, pData[i]);
1043:.\Generated_Source\PSoC5/USBUART_1.c ****                 }
1044:.\Generated_Source\PSoC5/USBUART_1.c ****             }
1045:.\Generated_Source\PSoC5/USBUART_1.c ****             USBUART_1_EP[epNumber].apiEpState = USBUART_1_NO_EVENT_PENDING;
1046:.\Generated_Source\PSoC5/USBUART_1.c ****             /* Write the Mode register */
1047:.\Generated_Source\PSoC5/USBUART_1.c ****             CY_SET_REG8((reg8 *)(USBUART_1_SIE_EP1_CR0_IND + ri), USBUART_1_EP[epNumber].epMode);
1048:.\Generated_Source\PSoC5/USBUART_1.c ****         #else
1049:.\Generated_Source\PSoC5/USBUART_1.c ****             /* Init DMA if it was not initialized */
1050:.\Generated_Source\PSoC5/USBUART_1.c ****             if (USBUART_1_DmaTd[epNumber] == DMA_INVALID_TD)
 1061              		.loc 1 1050 0
 1062 005c 274B     		ldr	r3, .L80+8
 1063 005e 1B5D     		ldrb	r3, [r3, r4]	@ zero_extendqisi2
 1064 0060 FF2B     		cmp	r3, #255
 1065 0062 03D1     		bne	.L77
1051:.\Generated_Source\PSoC5/USBUART_1.c ****             {
1052:.\Generated_Source\PSoC5/USBUART_1.c ****                 USBUART_1_InitEP_DMA(epNumber, pData);
 1066              		.loc 1 1052 0
 1067 0064 2046     		mov	r0, r4
 1068              	.LVL88:
 1069 0066 3946     		mov	r1, r7
 1070              	.LVL89:
 1071 0068 FFF7FEFF 		bl	USBUART_1_InitEP_DMA
 1072              	.LVL90:
 1073              	.L77:
1053:.\Generated_Source\PSoC5/USBUART_1.c ****             }
1054:.\Generated_Source\PSoC5/USBUART_1.c ****         #endif /*  USBUART_1_EP_MM == USBUART_1__EP_MANUAL */
1055:.\Generated_Source\PSoC5/USBUART_1.c **** 
1056:.\Generated_Source\PSoC5/USBUART_1.c ****         #if(USBUART_1_EP_MM == USBUART_1__EP_DMAMANUAL)
1057:.\Generated_Source\PSoC5/USBUART_1.c ****             USBUART_1_EP[epNumber].apiEpState = USBUART_1_NO_EVENT_PENDING;
 1074              		.loc 1 1057 0
 1075 006c 04EB4403 		add	r3, r4, r4, lsl #1
 1076 0070 9B00     		lsls	r3, r3, #2
 1077 0072 204A     		ldr	r2, .L80
 1078 0074 1344     		add	r3, r3, r2
ARM GAS  C:\Users\Alex\AppData\Local\Temp\ccbj9lYo.s 			page 39


 1079 0076 0022     		movs	r2, #0
 1080 0078 5A70     		strb	r2, [r3, #1]
1058:.\Generated_Source\PSoC5/USBUART_1.c ****             if ((pData != NULL) && (length > 0u))
 1081              		.loc 1 1058 0
 1082 007a 7FB3     		cbz	r7, .L78
 1083              		.loc 1 1058 0 is_stmt 0 discriminator 1
 1084 007c 76B3     		cbz	r6, .L78
1059:.\Generated_Source\PSoC5/USBUART_1.c ****             {
1060:.\Generated_Source\PSoC5/USBUART_1.c ****                 /* Enable DMA in mode2 for transferring data */
1061:.\Generated_Source\PSoC5/USBUART_1.c ****                 (void) CyDmaChDisable(USBUART_1_DmaChan[epNumber]);
 1085              		.loc 1 1061 0 is_stmt 1
 1086 007e DFF88890 		ldr	r9, .L80+20
 1087 0082 19F80400 		ldrb	r0, [r9, r4]	@ zero_extendqisi2
 1088 0086 FFF7FEFF 		bl	CyDmaChDisable
 1089              	.LVL91:
1062:.\Generated_Source\PSoC5/USBUART_1.c ****                 (void) CyDmaTdSetConfiguration(USBUART_1_DmaTd[epNumber], length, CY_DMA_DISABLE_TD
 1090              		.loc 1 1062 0
 1091 008a DFF870A0 		ldr	r10, .L80+8
 1092 008e 1AF80400 		ldrb	r0, [r10, r4]	@ zero_extendqisi2
 1093 0092 3146     		mov	r1, r6
 1094 0094 FE22     		movs	r2, #254
 1095 0096 1123     		movs	r3, #17
 1096 0098 FFF7FEFF 		bl	CyDmaTdSetConfiguration
 1097              	.LVL92:
1063:.\Generated_Source\PSoC5/USBUART_1.c ****                                                                                  TD_TERMIN_EN | TD_
1064:.\Generated_Source\PSoC5/USBUART_1.c ****                 (void) CyDmaTdSetAddress(USBUART_1_DmaTd[epNumber],  LO16((uint32)pData), LO16((uin
 1098              		.loc 1 1064 0
 1099 009c 1FFA88F2 		uxth	r2, r8
 1100 00a0 1AF80400 		ldrb	r0, [r10, r4]	@ zero_extendqisi2
 1101 00a4 B9B2     		uxth	r1, r7
 1102 00a6 FFF7FEFF 		bl	CyDmaTdSetAddress
 1103              	.LVL93:
1065:.\Generated_Source\PSoC5/USBUART_1.c ****                 /* Enable the DMA */
1066:.\Generated_Source\PSoC5/USBUART_1.c ****                 (void) CyDmaChSetInitialTd(USBUART_1_DmaChan[epNumber], USBUART_1_DmaTd[epNumber]);
 1104              		.loc 1 1066 0
 1105 00aa 19F80400 		ldrb	r0, [r9, r4]	@ zero_extendqisi2
 1106 00ae 1AF80410 		ldrb	r1, [r10, r4]	@ zero_extendqisi2
 1107 00b2 FFF7FEFF 		bl	CyDmaChSetInitialTd
 1108              	.LVL94:
1067:.\Generated_Source\PSoC5/USBUART_1.c ****                 (void) CyDmaChEnable(USBUART_1_DmaChan[epNumber], 1u);
 1109              		.loc 1 1067 0
 1110 00b6 19F80400 		ldrb	r0, [r9, r4]	@ zero_extendqisi2
 1111 00ba 0121     		movs	r1, #1
 1112 00bc FFF7FEFF 		bl	CyDmaChEnable
 1113              	.LVL95:
1068:.\Generated_Source\PSoC5/USBUART_1.c ****                 /* Generate DMA request */
1069:.\Generated_Source\PSoC5/USBUART_1.c ****                 * (reg8 *)(USBUART_1_ARB_EP1_CFG_IND + ri) |= USBUART_1_ARB_EPX_CFG_DMA_REQ;
 1114              		.loc 1 1069 0
 1115 00c0 05F18045 		add	r5, r5, #1073741824
 1116 00c4 05F5C145 		add	r5, r5, #24704
 1117 00c8 2B78     		ldrb	r3, [r5]	@ zero_extendqisi2
 1118 00ca 43F00203 		orr	r3, r3, #2
 1119 00ce 2B70     		strb	r3, [r5]
1070:.\Generated_Source\PSoC5/USBUART_1.c ****                 * (reg8 *)(USBUART_1_ARB_EP1_CFG_IND + ri) &= ((uint8)(~USBUART_1_ARB_EPX_CFG_DMA_R
 1120              		.loc 1 1070 0
 1121 00d0 2B78     		ldrb	r3, [r5]	@ zero_extendqisi2
 1122 00d2 03F0FD03 		and	r3, r3, #253
ARM GAS  C:\Users\Alex\AppData\Local\Temp\ccbj9lYo.s 			page 40


 1123 00d6 2B70     		strb	r3, [r5]
 1124 00d8 BDE8F087 		pop	{r4, r5, r6, r7, r8, r9, r10, pc}
 1125              	.LVL96:
 1126              	.L78:
1071:.\Generated_Source\PSoC5/USBUART_1.c ****                 /* Mode register will be written in arb ISR after DMA transfer complete */
1072:.\Generated_Source\PSoC5/USBUART_1.c ****             }
1073:.\Generated_Source\PSoC5/USBUART_1.c ****             else
1074:.\Generated_Source\PSoC5/USBUART_1.c ****             {
1075:.\Generated_Source\PSoC5/USBUART_1.c ****                 /* When zero-length packet - write the Mode register directly */
1076:.\Generated_Source\PSoC5/USBUART_1.c ****                 CY_SET_REG8((reg8 *)(USBUART_1_SIE_EP1_CR0_IND + ri), USBUART_1_EP[epNumber].epMode
 1127              		.loc 1 1076 0
 1128 00dc 04EB4404 		add	r4, r4, r4, lsl #1
 1129 00e0 A400     		lsls	r4, r4, #2
 1130 00e2 044B     		ldr	r3, .L80
 1131 00e4 1C44     		add	r4, r4, r3
 1132 00e6 6379     		ldrb	r3, [r4, #5]	@ zero_extendqisi2
 1133 00e8 DBB2     		uxtb	r3, r3
 1134 00ea 054A     		ldr	r2, .L80+12
 1135 00ec AB54     		strb	r3, [r5, r2]
 1136              	.LVL97:
 1137              	.L74:
 1138 00ee BDE8F087 		pop	{r4, r5, r6, r7, r8, r9, r10, pc}
 1139              	.L81:
 1140 00f2 00BF     		.align	2
 1141              	.L80:
 1142 00f4 00000000 		.word	USBUART_1_EP
 1143 00f8 0C600040 		.word	1073766412
 1144 00fc 00000000 		.word	USBUART_1_DmaTd
 1145 0100 0E600040 		.word	1073766414
 1146 0104 88600040 		.word	1073766536
 1147 0108 00000000 		.word	USBUART_1_DmaChan
 1148              		.cfi_endproc
 1149              	.LFE13:
 1150              		.size	USBUART_1_LoadInEP, .-USBUART_1_LoadInEP
 1151              		.section	.text.USBUART_1_ReadOutEP,"ax",%progbits
 1152              		.align	2
 1153              		.global	USBUART_1_ReadOutEP
 1154              		.thumb
 1155              		.thumb_func
 1156              		.type	USBUART_1_ReadOutEP, %function
 1157              	USBUART_1_ReadOutEP:
 1158              	.LFB14:
1077:.\Generated_Source\PSoC5/USBUART_1.c ****             }
1078:.\Generated_Source\PSoC5/USBUART_1.c ****         #endif /*  USBUART_1_EP_MM == USBUART_1__EP_DMAMANUAL */
1079:.\Generated_Source\PSoC5/USBUART_1.c **** 
1080:.\Generated_Source\PSoC5/USBUART_1.c ****         #if(USBUART_1_EP_MM == USBUART_1__EP_DMAAUTO)
1081:.\Generated_Source\PSoC5/USBUART_1.c ****             if (pData != NULL)
1082:.\Generated_Source\PSoC5/USBUART_1.c ****             {
1083:.\Generated_Source\PSoC5/USBUART_1.c ****                 /* Enable DMA in mode3 for transferring data */
1084:.\Generated_Source\PSoC5/USBUART_1.c ****                 (void) CyDmaChDisable(USBUART_1_DmaChan[epNumber]);
1085:.\Generated_Source\PSoC5/USBUART_1.c ****             #if (USBUART_1_EP_DMA_AUTO_OPT == 0u)
1086:.\Generated_Source\PSoC5/USBUART_1.c ****                 USBUART_1_inLength[epNumber] = length;
1087:.\Generated_Source\PSoC5/USBUART_1.c ****                 USBUART_1_inDataPointer[epNumber] = pData;
1088:.\Generated_Source\PSoC5/USBUART_1.c ****                 /* Configure DMA to send the data only for the first burst */
1089:.\Generated_Source\PSoC5/USBUART_1.c ****                 (void) CyDmaTdSetConfiguration(USBUART_1_DmaTd[epNumber],
1090:.\Generated_Source\PSoC5/USBUART_1.c ****                     (length > USBUART_1_DMA_BYTES_PER_BURST) ? USBUART_1_DMA_BYTES_PER_BURST : leng
1091:.\Generated_Source\PSoC5/USBUART_1.c ****                     USBUART_1_DmaNextTd[epNumber], TD_TERMIN_EN | TD_INC_SRC_ADR);
ARM GAS  C:\Users\Alex\AppData\Local\Temp\ccbj9lYo.s 			page 41


1092:.\Generated_Source\PSoC5/USBUART_1.c ****                 (void) CyDmaTdSetAddress(USBUART_1_DmaTd[epNumber],  LO16((uint32)pData), LO16((uin
1093:.\Generated_Source\PSoC5/USBUART_1.c ****                 /* The second TD will be executed only when the first one fails.
1094:.\Generated_Source\PSoC5/USBUART_1.c ****                 *  The intention of this TD is to generate NRQ interrupt
1095:.\Generated_Source\PSoC5/USBUART_1.c ****                 *  and repeat 2 last bytes of the first burst.
1096:.\Generated_Source\PSoC5/USBUART_1.c ****                 */
1097:.\Generated_Source\PSoC5/USBUART_1.c ****                 (void) CyDmaTdSetConfiguration(USBUART_1_DmaNextTd[epNumber], 1u,
1098:.\Generated_Source\PSoC5/USBUART_1.c ****                                                USBUART_1_DmaNextTd[epNumber],
1099:.\Generated_Source\PSoC5/USBUART_1.c ****                                                USBUART_1_epX_TD_TERMOUT_EN[epNumber]);
1100:.\Generated_Source\PSoC5/USBUART_1.c ****                 /* Configure DmaNextTd to clear Data ready status */
1101:.\Generated_Source\PSoC5/USBUART_1.c ****                 (void) CyDmaTdSetAddress(USBUART_1_DmaNextTd[epNumber],  LO16((uint32)&clearInDataR
1102:.\Generated_Source\PSoC5/USBUART_1.c ****                                                                 LO16((uint32)(USBUART_1_ARB_EP1_CFG
1103:.\Generated_Source\PSoC5/USBUART_1.c ****             #else /* Configure DMA to send all data*/
1104:.\Generated_Source\PSoC5/USBUART_1.c ****                 (void) CyDmaTdSetConfiguration(USBUART_1_DmaTd[epNumber], length,
1105:.\Generated_Source\PSoC5/USBUART_1.c ****                                                USBUART_1_DmaTd[epNumber], TD_TERMIN_EN | TD_INC_SRC
1106:.\Generated_Source\PSoC5/USBUART_1.c ****                 (void) CyDmaTdSetAddress(USBUART_1_DmaTd[epNumber],  LO16((uint32)pData), LO16((uin
1107:.\Generated_Source\PSoC5/USBUART_1.c ****             #endif /* USBUART_1_EP_DMA_AUTO_OPT == 0u */
1108:.\Generated_Source\PSoC5/USBUART_1.c **** 
1109:.\Generated_Source\PSoC5/USBUART_1.c ****                 /* Clear Any potential pending DMA requests before starting the DMA channel to tran
1110:.\Generated_Source\PSoC5/USBUART_1.c ****                 (void) CyDmaClearPendingDrq(USBUART_1_DmaChan[epNumber]);
1111:.\Generated_Source\PSoC5/USBUART_1.c ****                 /* Enable the DMA */
1112:.\Generated_Source\PSoC5/USBUART_1.c ****                 (void) CyDmaChSetInitialTd(USBUART_1_DmaChan[epNumber], USBUART_1_DmaTd[epNumber]);
1113:.\Generated_Source\PSoC5/USBUART_1.c ****                 (void) CyDmaChEnable(USBUART_1_DmaChan[epNumber], 1u);
1114:.\Generated_Source\PSoC5/USBUART_1.c ****             }
1115:.\Generated_Source\PSoC5/USBUART_1.c ****             else
1116:.\Generated_Source\PSoC5/USBUART_1.c ****             {
1117:.\Generated_Source\PSoC5/USBUART_1.c ****                 USBUART_1_EP[epNumber].apiEpState = USBUART_1_NO_EVENT_PENDING;
1118:.\Generated_Source\PSoC5/USBUART_1.c ****                 if(length > 0u)
1119:.\Generated_Source\PSoC5/USBUART_1.c ****                 {
1120:.\Generated_Source\PSoC5/USBUART_1.c ****                 #if (USBUART_1_EP_DMA_AUTO_OPT == 0u)
1121:.\Generated_Source\PSoC5/USBUART_1.c ****                     USBUART_1_inLength[epNumber] = length;
1122:.\Generated_Source\PSoC5/USBUART_1.c ****                     USBUART_1_inBufFull[epNumber] = 0u;
1123:.\Generated_Source\PSoC5/USBUART_1.c ****                     (void) CyDmaChDisable(USBUART_1_DmaChan[epNumber]);
1124:.\Generated_Source\PSoC5/USBUART_1.c ****                     /* Configure DMA to send the data only for the first burst */
1125:.\Generated_Source\PSoC5/USBUART_1.c ****                     (void) CyDmaTdSetConfiguration(
1126:.\Generated_Source\PSoC5/USBUART_1.c ****                         USBUART_1_DmaTd[epNumber], (length > USBUART_1_DMA_BYTES_PER_BURST) ?
1127:.\Generated_Source\PSoC5/USBUART_1.c ****                         USBUART_1_DMA_BYTES_PER_BURST : length,
1128:.\Generated_Source\PSoC5/USBUART_1.c ****                         USBUART_1_DmaNextTd[epNumber], TD_TERMIN_EN | TD_INC_SRC_ADR );
1129:.\Generated_Source\PSoC5/USBUART_1.c ****                     (void) CyDmaTdSetAddress(USBUART_1_DmaTd[epNumber],
1130:.\Generated_Source\PSoC5/USBUART_1.c ****                                              LO16((uint32)USBUART_1_inDataPointer[epNumber]), LO16(
1131:.\Generated_Source\PSoC5/USBUART_1.c ****                     /* Clear Any potential pending DMA requests before starting the DMA channel to 
1132:.\Generated_Source\PSoC5/USBUART_1.c ****                     (void) CyDmaClearPendingDrq(USBUART_1_DmaChan[epNumber]);
1133:.\Generated_Source\PSoC5/USBUART_1.c ****                     /* Enable the DMA */
1134:.\Generated_Source\PSoC5/USBUART_1.c ****                     (void) CyDmaChSetInitialTd(USBUART_1_DmaChan[epNumber], USBUART_1_DmaTd[epNumbe
1135:.\Generated_Source\PSoC5/USBUART_1.c ****                     (void) CyDmaChEnable(USBUART_1_DmaChan[epNumber], 1u);
1136:.\Generated_Source\PSoC5/USBUART_1.c ****                 #endif /* (USBUART_1_EP_DMA_AUTO_OPT == 0u) */
1137:.\Generated_Source\PSoC5/USBUART_1.c **** 
1138:.\Generated_Source\PSoC5/USBUART_1.c ****                     /* Set Data ready status, This will generate DMA request */
1139:.\Generated_Source\PSoC5/USBUART_1.c ****                     #ifndef USBUART_1_MANUAL_IN_EP_ARM
1140:.\Generated_Source\PSoC5/USBUART_1.c ****                         * (reg8 *)(USBUART_1_ARB_EP1_CFG_IND + ri) |= USBUART_1_ARB_EPX_CFG_IN_DATA
1141:.\Generated_Source\PSoC5/USBUART_1.c ****                     #endif  /* USBUART_1_MANUAL_IN_EP_ARM */
1142:.\Generated_Source\PSoC5/USBUART_1.c ****                     /* Mode register will be written in arb ISR(In Buffer Full) after first DMA tra
1143:.\Generated_Source\PSoC5/USBUART_1.c ****                 }
1144:.\Generated_Source\PSoC5/USBUART_1.c ****                 else
1145:.\Generated_Source\PSoC5/USBUART_1.c ****                 {
1146:.\Generated_Source\PSoC5/USBUART_1.c ****                     /* When zero-length packet - write the Mode register directly */
1147:.\Generated_Source\PSoC5/USBUART_1.c ****                     CY_SET_REG8((reg8 *)(USBUART_1_SIE_EP1_CR0_IND + ri), USBUART_1_EP[epNumber].ep
1148:.\Generated_Source\PSoC5/USBUART_1.c ****                 }
ARM GAS  C:\Users\Alex\AppData\Local\Temp\ccbj9lYo.s 			page 42


1149:.\Generated_Source\PSoC5/USBUART_1.c ****             }
1150:.\Generated_Source\PSoC5/USBUART_1.c ****         #endif /*  USBUART_1_EP_MM == USBUART_1__EP_DMAAUTO */
1151:.\Generated_Source\PSoC5/USBUART_1.c ****     }
1152:.\Generated_Source\PSoC5/USBUART_1.c **** }
1153:.\Generated_Source\PSoC5/USBUART_1.c **** 
1154:.\Generated_Source\PSoC5/USBUART_1.c **** 
1155:.\Generated_Source\PSoC5/USBUART_1.c **** /*******************************************************************************
1156:.\Generated_Source\PSoC5/USBUART_1.c **** * Function Name: USBUART_1_ReadOutEP
1157:.\Generated_Source\PSoC5/USBUART_1.c **** ********************************************************************************
1158:.\Generated_Source\PSoC5/USBUART_1.c **** *
1159:.\Generated_Source\PSoC5/USBUART_1.c **** * Summary:
1160:.\Generated_Source\PSoC5/USBUART_1.c **** *  Read data from an endpoint.  The application must call
1161:.\Generated_Source\PSoC5/USBUART_1.c **** *  USBUART_1_GetEPState to see if an event is pending.
1162:.\Generated_Source\PSoC5/USBUART_1.c **** *
1163:.\Generated_Source\PSoC5/USBUART_1.c **** * Parameters:
1164:.\Generated_Source\PSoC5/USBUART_1.c **** *  epNumber: Contains the data endpoint number.
1165:.\Generated_Source\PSoC5/USBUART_1.c **** *            Valid values are between 1 and 8.
1166:.\Generated_Source\PSoC5/USBUART_1.c **** *  pData: A pointer to a data array from which the data for the endpoint space
1167:.\Generated_Source\PSoC5/USBUART_1.c **** *         is loaded.
1168:.\Generated_Source\PSoC5/USBUART_1.c **** *  length: The number of bytes to transfer from the USB Out endpoint and loads
1169:.\Generated_Source\PSoC5/USBUART_1.c **** *          it into data array. Valid values are between 0 and 1023. The function
1170:.\Generated_Source\PSoC5/USBUART_1.c **** *          moves fewer than the requested number of bytes if the host sends
1171:.\Generated_Source\PSoC5/USBUART_1.c **** *          fewer bytes than requested.
1172:.\Generated_Source\PSoC5/USBUART_1.c **** *
1173:.\Generated_Source\PSoC5/USBUART_1.c **** * Returns:
1174:.\Generated_Source\PSoC5/USBUART_1.c **** *  Number of bytes received, 0 for an invalid endpoint.
1175:.\Generated_Source\PSoC5/USBUART_1.c **** *
1176:.\Generated_Source\PSoC5/USBUART_1.c **** * Reentrant:
1177:.\Generated_Source\PSoC5/USBUART_1.c **** *  No.
1178:.\Generated_Source\PSoC5/USBUART_1.c **** *
1179:.\Generated_Source\PSoC5/USBUART_1.c **** *******************************************************************************/
1180:.\Generated_Source\PSoC5/USBUART_1.c **** uint16 USBUART_1_ReadOutEP(uint8 epNumber, uint8 pData[], uint16 length)
1181:.\Generated_Source\PSoC5/USBUART_1.c ****                                                                         
1182:.\Generated_Source\PSoC5/USBUART_1.c **** {
 1159              		.loc 1 1182 0
 1160              		.cfi_startproc
 1161              		@ args = 0, pretend = 0, frame = 0
 1162              		@ frame_needed = 0, uses_anonymous_args = 0
 1163              	.LVL98:
 1164 0000 2DE9F047 		push	{r4, r5, r6, r7, r8, r9, r10, lr}
 1165              		.cfi_def_cfa_offset 32
 1166              		.cfi_offset 4, -32
 1167              		.cfi_offset 5, -28
 1168              		.cfi_offset 6, -24
 1169              		.cfi_offset 7, -20
 1170              		.cfi_offset 8, -16
 1171              		.cfi_offset 9, -12
 1172              		.cfi_offset 10, -8
 1173              		.cfi_offset 14, -4
 1174 0004 0546     		mov	r5, r0
1183:.\Generated_Source\PSoC5/USBUART_1.c ****     uint8 ri;
1184:.\Generated_Source\PSoC5/USBUART_1.c ****     reg8 *p;
1185:.\Generated_Source\PSoC5/USBUART_1.c ****     #if(USBUART_1_EP_MM == USBUART_1__EP_MANUAL)
1186:.\Generated_Source\PSoC5/USBUART_1.c ****         uint16 i;
1187:.\Generated_Source\PSoC5/USBUART_1.c ****     #endif /*  USBUART_1_EP_MM == USBUART_1__EP_MANUAL */
1188:.\Generated_Source\PSoC5/USBUART_1.c ****     #if(USBUART_1_EP_MM != USBUART_1__EP_DMAAUTO)
1189:.\Generated_Source\PSoC5/USBUART_1.c ****         uint16 xferCount;
ARM GAS  C:\Users\Alex\AppData\Local\Temp\ccbj9lYo.s 			page 43


1190:.\Generated_Source\PSoC5/USBUART_1.c ****     #endif /*  USBUART_1_EP_MM != USBUART_1__EP_DMAAUTO */
1191:.\Generated_Source\PSoC5/USBUART_1.c **** 
1192:.\Generated_Source\PSoC5/USBUART_1.c ****     if((epNumber > USBUART_1_EP0) && (epNumber < USBUART_1_MAX_EP) && (pData != NULL))
 1175              		.loc 1 1192 0
 1176 0006 431E     		subs	r3, r0, #1
 1177 0008 DBB2     		uxtb	r3, r3
 1178 000a 072B     		cmp	r3, #7
 1179 000c 44D8     		bhi	.L86
 1180 000e 0F46     		mov	r7, r1
 1181 0010 9046     		mov	r8, r2
 1182              		.loc 1 1192 0 is_stmt 0 discriminator 1
 1183 0012 0029     		cmp	r1, #0
 1184 0014 42D0     		beq	.L87
1193:.\Generated_Source\PSoC5/USBUART_1.c ****     {
1194:.\Generated_Source\PSoC5/USBUART_1.c ****         ri = ((epNumber - USBUART_1_EP1) << USBUART_1_EPX_CNTX_ADDR_SHIFT);
 1185              		.loc 1 1194 0 is_stmt 1
 1186 0016 1B01     		lsls	r3, r3, #4
 1187 0018 DCB2     		uxtb	r4, r3
1195:.\Generated_Source\PSoC5/USBUART_1.c ****         p = (reg8 *)(USBUART_1_ARB_RW1_DR_IND + ri);
 1188              		.loc 1 1195 0
 1189 001a DFF88C90 		ldr	r9, .L89+4
 1190 001e A144     		add	r9, r9, r4
 1191              	.LVL99:
1196:.\Generated_Source\PSoC5/USBUART_1.c **** 
1197:.\Generated_Source\PSoC5/USBUART_1.c ****         #if(USBUART_1_EP_MM != USBUART_1__EP_DMAAUTO)
1198:.\Generated_Source\PSoC5/USBUART_1.c ****             /* Determine which is smaller the requested data or the available data */
1199:.\Generated_Source\PSoC5/USBUART_1.c ****             xferCount = USBUART_1_GetEPCount(epNumber);
 1192              		.loc 1 1199 0
 1193 0020 FFF7FEFF 		bl	USBUART_1_GetEPCount
 1194              	.LVL100:
 1195 0024 0646     		mov	r6, r0
 1196              	.LVL101:
1200:.\Generated_Source\PSoC5/USBUART_1.c ****             if (length > xferCount)
 1197              		.loc 1 1200 0
 1198 0026 8045     		cmp	r8, r0
 1199 0028 00D8     		bhi	.L84
 1200 002a 4646     		mov	r6, r8
 1201              	.L84:
 1202              	.LVL102:
1201:.\Generated_Source\PSoC5/USBUART_1.c ****             {
1202:.\Generated_Source\PSoC5/USBUART_1.c ****                 length = xferCount;
1203:.\Generated_Source\PSoC5/USBUART_1.c ****             }
1204:.\Generated_Source\PSoC5/USBUART_1.c ****         #endif /*  USBUART_1_EP_MM != USBUART_1__EP_DMAAUTO */
1205:.\Generated_Source\PSoC5/USBUART_1.c **** 
1206:.\Generated_Source\PSoC5/USBUART_1.c ****         #if(USBUART_1_EP_MM == USBUART_1__EP_MANUAL)
1207:.\Generated_Source\PSoC5/USBUART_1.c ****             /* Copy the data using the arbiter data register */
1208:.\Generated_Source\PSoC5/USBUART_1.c ****             for (i = 0u; i < length; i++)
1209:.\Generated_Source\PSoC5/USBUART_1.c ****             {
1210:.\Generated_Source\PSoC5/USBUART_1.c ****                 pData[i] = CY_GET_REG8(p);
1211:.\Generated_Source\PSoC5/USBUART_1.c ****             }
1212:.\Generated_Source\PSoC5/USBUART_1.c **** 
1213:.\Generated_Source\PSoC5/USBUART_1.c ****             /* (re)arming of OUT endpoint */
1214:.\Generated_Source\PSoC5/USBUART_1.c ****             USBUART_1_EnableOutEP(epNumber);
1215:.\Generated_Source\PSoC5/USBUART_1.c ****         #else
1216:.\Generated_Source\PSoC5/USBUART_1.c ****             /*Init DMA if it was not initialized */
1217:.\Generated_Source\PSoC5/USBUART_1.c ****             if(USBUART_1_DmaTd[epNumber] == DMA_INVALID_TD)
 1203              		.loc 1 1217 0
ARM GAS  C:\Users\Alex\AppData\Local\Temp\ccbj9lYo.s 			page 44


 1204 002c 1D4B     		ldr	r3, .L89
 1205 002e 5B5D     		ldrb	r3, [r3, r5]	@ zero_extendqisi2
 1206 0030 FF2B     		cmp	r3, #255
 1207 0032 03D1     		bne	.L85
1218:.\Generated_Source\PSoC5/USBUART_1.c ****             {
1219:.\Generated_Source\PSoC5/USBUART_1.c ****                 USBUART_1_InitEP_DMA(epNumber, pData);
 1208              		.loc 1 1219 0
 1209 0034 2846     		mov	r0, r5
 1210              	.LVL103:
 1211 0036 3946     		mov	r1, r7
 1212 0038 FFF7FEFF 		bl	USBUART_1_InitEP_DMA
 1213              	.LVL104:
 1214              	.L85:
1220:.\Generated_Source\PSoC5/USBUART_1.c ****             }
1221:.\Generated_Source\PSoC5/USBUART_1.c **** 
1222:.\Generated_Source\PSoC5/USBUART_1.c ****         #endif /*  USBUART_1_EP_MM == USBUART_1__EP_MANUAL */
1223:.\Generated_Source\PSoC5/USBUART_1.c **** 
1224:.\Generated_Source\PSoC5/USBUART_1.c ****         #if(USBUART_1_EP_MM == USBUART_1__EP_DMAMANUAL)
1225:.\Generated_Source\PSoC5/USBUART_1.c ****             /* Enable DMA in mode2 for transferring data */
1226:.\Generated_Source\PSoC5/USBUART_1.c ****             (void) CyDmaChDisable(USBUART_1_DmaChan[epNumber]);
 1215              		.loc 1 1226 0
 1216 003c DFF86C80 		ldr	r8, .L89+8
 1217 0040 18F80500 		ldrb	r0, [r8, r5]	@ zero_extendqisi2
 1218 0044 FFF7FEFF 		bl	CyDmaChDisable
 1219              	.LVL105:
1227:.\Generated_Source\PSoC5/USBUART_1.c ****             (void) CyDmaTdSetConfiguration(USBUART_1_DmaTd[epNumber], length, CY_DMA_DISABLE_TD,
 1220              		.loc 1 1227 0
 1221 0048 DFF858A0 		ldr	r10, .L89
 1222 004c 1AF80500 		ldrb	r0, [r10, r5]	@ zero_extendqisi2
 1223 0050 3146     		mov	r1, r6
 1224 0052 FE22     		movs	r2, #254
 1225 0054 1223     		movs	r3, #18
 1226 0056 FFF7FEFF 		bl	CyDmaTdSetConfiguration
 1227              	.LVL106:
1228:.\Generated_Source\PSoC5/USBUART_1.c ****                                                                                 TD_TERMIN_EN | TD_I
1229:.\Generated_Source\PSoC5/USBUART_1.c ****             (void) CyDmaTdSetAddress(USBUART_1_DmaTd[epNumber],  LO16((uint32)p), LO16((uint32)pDat
 1228              		.loc 1 1229 0
 1229 005a 1FFA89F1 		uxth	r1, r9
 1230 005e 1AF80500 		ldrb	r0, [r10, r5]	@ zero_extendqisi2
 1231 0062 BAB2     		uxth	r2, r7
 1232 0064 FFF7FEFF 		bl	CyDmaTdSetAddress
 1233              	.LVL107:
1230:.\Generated_Source\PSoC5/USBUART_1.c ****             /* Enable the DMA */
1231:.\Generated_Source\PSoC5/USBUART_1.c ****             (void) CyDmaChSetInitialTd(USBUART_1_DmaChan[epNumber], USBUART_1_DmaTd[epNumber]);
 1234              		.loc 1 1231 0
 1235 0068 18F80500 		ldrb	r0, [r8, r5]	@ zero_extendqisi2
 1236 006c 1AF80510 		ldrb	r1, [r10, r5]	@ zero_extendqisi2
 1237 0070 FFF7FEFF 		bl	CyDmaChSetInitialTd
 1238              	.LVL108:
1232:.\Generated_Source\PSoC5/USBUART_1.c ****             (void) CyDmaChEnable(USBUART_1_DmaChan[epNumber], 1u);
 1239              		.loc 1 1232 0
 1240 0074 18F80500 		ldrb	r0, [r8, r5]	@ zero_extendqisi2
 1241 0078 0121     		movs	r1, #1
 1242 007a FFF7FEFF 		bl	CyDmaChEnable
 1243              	.LVL109:
1233:.\Generated_Source\PSoC5/USBUART_1.c **** 
1234:.\Generated_Source\PSoC5/USBUART_1.c ****             /* Generate DMA request */
ARM GAS  C:\Users\Alex\AppData\Local\Temp\ccbj9lYo.s 			page 45


1235:.\Generated_Source\PSoC5/USBUART_1.c ****             * (reg8 *)(USBUART_1_ARB_EP1_CFG_IND + ri) |= USBUART_1_ARB_EPX_CFG_DMA_REQ;
 1244              		.loc 1 1235 0
 1245 007e 04F18043 		add	r3, r4, #1073741824
 1246 0082 03F5C143 		add	r3, r3, #24704
 1247 0086 1A78     		ldrb	r2, [r3]	@ zero_extendqisi2
 1248 0088 42F00202 		orr	r2, r2, #2
 1249 008c 1A70     		strb	r2, [r3]
1236:.\Generated_Source\PSoC5/USBUART_1.c ****             * (reg8 *)(USBUART_1_ARB_EP1_CFG_IND + ri) &= ((uint8)(~USBUART_1_ARB_EPX_CFG_DMA_REQ))
 1250              		.loc 1 1236 0
 1251 008e 1A78     		ldrb	r2, [r3]	@ zero_extendqisi2
 1252 0090 02F0FD02 		and	r2, r2, #253
 1253 0094 1A70     		strb	r2, [r3]
 1254 0096 02E0     		b	.L83
 1255              	.LVL110:
 1256              	.L86:
1237:.\Generated_Source\PSoC5/USBUART_1.c ****             /* Out EP will be (re)armed in arb ISR after transfer complete */
1238:.\Generated_Source\PSoC5/USBUART_1.c ****         #endif /*  USBUART_1_EP_MM == USBUART_1__EP_DMAMANUAL */
1239:.\Generated_Source\PSoC5/USBUART_1.c **** 
1240:.\Generated_Source\PSoC5/USBUART_1.c ****         #if(USBUART_1_EP_MM == USBUART_1__EP_DMAAUTO)
1241:.\Generated_Source\PSoC5/USBUART_1.c ****             /* Enable DMA in mode3 for transferring data */
1242:.\Generated_Source\PSoC5/USBUART_1.c ****             (void) CyDmaChDisable(USBUART_1_DmaChan[epNumber]);
1243:.\Generated_Source\PSoC5/USBUART_1.c ****             (void) CyDmaTdSetConfiguration(USBUART_1_DmaTd[epNumber], length, USBUART_1_DmaTd[epNum
1244:.\Generated_Source\PSoC5/USBUART_1.c ****                                                                                 TD_TERMIN_EN | TD_I
1245:.\Generated_Source\PSoC5/USBUART_1.c ****             (void) CyDmaTdSetAddress(USBUART_1_DmaTd[epNumber],  LO16((uint32)p), LO16((uint32)pDat
1246:.\Generated_Source\PSoC5/USBUART_1.c **** 
1247:.\Generated_Source\PSoC5/USBUART_1.c ****             /* Clear Any potential pending DMA requests before starting the DMA channel to transfer
1248:.\Generated_Source\PSoC5/USBUART_1.c ****             (void) CyDmaClearPendingDrq(USBUART_1_DmaChan[epNumber]);
1249:.\Generated_Source\PSoC5/USBUART_1.c ****             /* Enable the DMA */
1250:.\Generated_Source\PSoC5/USBUART_1.c ****             (void) CyDmaChSetInitialTd(USBUART_1_DmaChan[epNumber], USBUART_1_DmaTd[epNumber]);
1251:.\Generated_Source\PSoC5/USBUART_1.c ****             (void) CyDmaChEnable(USBUART_1_DmaChan[epNumber], 1u);
1252:.\Generated_Source\PSoC5/USBUART_1.c ****             /* Out EP will be (re)armed in arb ISR after transfer complete */
1253:.\Generated_Source\PSoC5/USBUART_1.c ****         #endif /*  USBUART_1_EP_MM == USBUART_1__EP_DMAAUTO */
1254:.\Generated_Source\PSoC5/USBUART_1.c **** 
1255:.\Generated_Source\PSoC5/USBUART_1.c ****     }
1256:.\Generated_Source\PSoC5/USBUART_1.c ****     else
1257:.\Generated_Source\PSoC5/USBUART_1.c ****     {
1258:.\Generated_Source\PSoC5/USBUART_1.c ****         length = 0u;
 1257              		.loc 1 1258 0
 1258 0098 0026     		movs	r6, #0
 1259 009a 00E0     		b	.L83
 1260              	.L87:
 1261 009c 0026     		movs	r6, #0
 1262              	.LVL111:
 1263              	.L83:
1259:.\Generated_Source\PSoC5/USBUART_1.c ****     }
1260:.\Generated_Source\PSoC5/USBUART_1.c **** 
1261:.\Generated_Source\PSoC5/USBUART_1.c ****     return(length);
1262:.\Generated_Source\PSoC5/USBUART_1.c **** }
 1264              		.loc 1 1262 0
 1265 009e 3046     		mov	r0, r6
 1266 00a0 BDE8F087 		pop	{r4, r5, r6, r7, r8, r9, r10, pc}
 1267              	.LVL112:
 1268              	.L90:
 1269              		.align	2
 1270              	.L89:
 1271 00a4 00000000 		.word	USBUART_1_DmaTd
 1272 00a8 88600040 		.word	1073766536
ARM GAS  C:\Users\Alex\AppData\Local\Temp\ccbj9lYo.s 			page 46


 1273 00ac 00000000 		.word	USBUART_1_DmaChan
 1274              		.cfi_endproc
 1275              	.LFE14:
 1276              		.size	USBUART_1_ReadOutEP, .-USBUART_1_ReadOutEP
 1277              		.section	.text.USBUART_1_EnableOutEP,"ax",%progbits
 1278              		.align	2
 1279              		.global	USBUART_1_EnableOutEP
 1280              		.thumb
 1281              		.thumb_func
 1282              		.type	USBUART_1_EnableOutEP, %function
 1283              	USBUART_1_EnableOutEP:
 1284              	.LFB15:
1263:.\Generated_Source\PSoC5/USBUART_1.c **** 
1264:.\Generated_Source\PSoC5/USBUART_1.c **** 
1265:.\Generated_Source\PSoC5/USBUART_1.c **** /*******************************************************************************
1266:.\Generated_Source\PSoC5/USBUART_1.c **** * Function Name: USBUART_1_EnableOutEP
1267:.\Generated_Source\PSoC5/USBUART_1.c **** ********************************************************************************
1268:.\Generated_Source\PSoC5/USBUART_1.c **** *
1269:.\Generated_Source\PSoC5/USBUART_1.c **** * Summary:
1270:.\Generated_Source\PSoC5/USBUART_1.c **** *  This function enables an OUT endpoint.  It should not be
1271:.\Generated_Source\PSoC5/USBUART_1.c **** *  called for an IN endpoint.
1272:.\Generated_Source\PSoC5/USBUART_1.c **** *
1273:.\Generated_Source\PSoC5/USBUART_1.c **** * Parameters:
1274:.\Generated_Source\PSoC5/USBUART_1.c **** *  epNumber: Endpoint Number
1275:.\Generated_Source\PSoC5/USBUART_1.c **** *            Valid values are between 1 and 8.
1276:.\Generated_Source\PSoC5/USBUART_1.c **** *
1277:.\Generated_Source\PSoC5/USBUART_1.c **** * Return:
1278:.\Generated_Source\PSoC5/USBUART_1.c **** *   None.
1279:.\Generated_Source\PSoC5/USBUART_1.c **** *
1280:.\Generated_Source\PSoC5/USBUART_1.c **** * Global variables:
1281:.\Generated_Source\PSoC5/USBUART_1.c **** *  USBUART_1_EP[epNumber].apiEpState - set to NO_EVENT_PENDING
1282:.\Generated_Source\PSoC5/USBUART_1.c **** *
1283:.\Generated_Source\PSoC5/USBUART_1.c **** * Reentrant:
1284:.\Generated_Source\PSoC5/USBUART_1.c **** *  No.
1285:.\Generated_Source\PSoC5/USBUART_1.c **** *
1286:.\Generated_Source\PSoC5/USBUART_1.c **** *******************************************************************************/
1287:.\Generated_Source\PSoC5/USBUART_1.c **** void USBUART_1_EnableOutEP(uint8 epNumber) 
1288:.\Generated_Source\PSoC5/USBUART_1.c **** {
 1285              		.loc 1 1288 0
 1286              		.cfi_startproc
 1287              		@ args = 0, pretend = 0, frame = 0
 1288              		@ frame_needed = 0, uses_anonymous_args = 0
 1289              		@ link register save eliminated.
 1290              	.LVL113:
1289:.\Generated_Source\PSoC5/USBUART_1.c ****     uint8 ri;
1290:.\Generated_Source\PSoC5/USBUART_1.c **** 
1291:.\Generated_Source\PSoC5/USBUART_1.c ****     if((epNumber > USBUART_1_EP0) && (epNumber < USBUART_1_MAX_EP))
 1291              		.loc 1 1291 0
 1292 0000 431E     		subs	r3, r0, #1
 1293 0002 DBB2     		uxtb	r3, r3
 1294 0004 072B     		cmp	r3, #7
 1295 0006 0ED8     		bhi	.L95
1288:.\Generated_Source\PSoC5/USBUART_1.c ****     uint8 ri;
 1296              		.loc 1 1288 0
 1297 0008 30B4     		push	{r4, r5}
 1298              		.cfi_def_cfa_offset 8
 1299              		.cfi_offset 4, -8
ARM GAS  C:\Users\Alex\AppData\Local\Temp\ccbj9lYo.s 			page 47


 1300              		.cfi_offset 5, -4
1292:.\Generated_Source\PSoC5/USBUART_1.c ****     {
1293:.\Generated_Source\PSoC5/USBUART_1.c ****         ri = ((epNumber - USBUART_1_EP1) << USBUART_1_EPX_CNTX_ADDR_SHIFT);
 1301              		.loc 1 1293 0
 1302 000a 1B01     		lsls	r3, r3, #4
 1303 000c DBB2     		uxtb	r3, r3
 1304              	.LVL114:
1294:.\Generated_Source\PSoC5/USBUART_1.c ****         USBUART_1_EP[epNumber].apiEpState = USBUART_1_NO_EVENT_PENDING;
 1305              		.loc 1 1294 0
 1306 000e 0649     		ldr	r1, .L96
 1307 0010 4400     		lsls	r4, r0, #1
 1308 0012 2218     		adds	r2, r4, r0
 1309 0014 9200     		lsls	r2, r2, #2
 1310 0016 0A44     		add	r2, r2, r1
 1311 0018 0025     		movs	r5, #0
 1312 001a 5570     		strb	r5, [r2, #1]
1295:.\Generated_Source\PSoC5/USBUART_1.c ****         /* Write the Mode register */
1296:.\Generated_Source\PSoC5/USBUART_1.c ****         CY_SET_REG8((reg8 *)(USBUART_1_SIE_EP1_CR0_IND + ri), USBUART_1_EP[epNumber].epMode);
 1313              		.loc 1 1296 0
 1314 001c 5279     		ldrb	r2, [r2, #5]	@ zero_extendqisi2
 1315 001e D2B2     		uxtb	r2, r2
 1316 0020 0249     		ldr	r1, .L96+4
 1317 0022 5A54     		strb	r2, [r3, r1]
1297:.\Generated_Source\PSoC5/USBUART_1.c ****     }
1298:.\Generated_Source\PSoC5/USBUART_1.c **** }
 1318              		.loc 1 1298 0
 1319 0024 30BC     		pop	{r4, r5}
 1320              		.cfi_restore 5
 1321              		.cfi_restore 4
 1322              		.cfi_def_cfa_offset 0
 1323              	.LVL115:
 1324              	.L95:
 1325 0026 7047     		bx	lr
 1326              	.L97:
 1327              		.align	2
 1328              	.L96:
 1329 0028 00000000 		.word	USBUART_1_EP
 1330 002c 0E600040 		.word	1073766414
 1331              		.cfi_endproc
 1332              	.LFE15:
 1333              		.size	USBUART_1_EnableOutEP, .-USBUART_1_EnableOutEP
 1334              		.section	.text.USBUART_1_DisableOutEP,"ax",%progbits
 1335              		.align	2
 1336              		.global	USBUART_1_DisableOutEP
 1337              		.thumb
 1338              		.thumb_func
 1339              		.type	USBUART_1_DisableOutEP, %function
 1340              	USBUART_1_DisableOutEP:
 1341              	.LFB16:
1299:.\Generated_Source\PSoC5/USBUART_1.c **** 
1300:.\Generated_Source\PSoC5/USBUART_1.c **** 
1301:.\Generated_Source\PSoC5/USBUART_1.c **** /*******************************************************************************
1302:.\Generated_Source\PSoC5/USBUART_1.c **** * Function Name: USBUART_1_DisableOutEP
1303:.\Generated_Source\PSoC5/USBUART_1.c **** ********************************************************************************
1304:.\Generated_Source\PSoC5/USBUART_1.c **** *
1305:.\Generated_Source\PSoC5/USBUART_1.c **** * Summary:
1306:.\Generated_Source\PSoC5/USBUART_1.c **** *  This function disables an OUT endpoint.  It should not be
ARM GAS  C:\Users\Alex\AppData\Local\Temp\ccbj9lYo.s 			page 48


1307:.\Generated_Source\PSoC5/USBUART_1.c **** *  called for an IN endpoint.
1308:.\Generated_Source\PSoC5/USBUART_1.c **** *
1309:.\Generated_Source\PSoC5/USBUART_1.c **** * Parameters:
1310:.\Generated_Source\PSoC5/USBUART_1.c **** *  epNumber: Endpoint Number
1311:.\Generated_Source\PSoC5/USBUART_1.c **** *            Valid values are between 1 and 8.
1312:.\Generated_Source\PSoC5/USBUART_1.c **** *
1313:.\Generated_Source\PSoC5/USBUART_1.c **** * Return:
1314:.\Generated_Source\PSoC5/USBUART_1.c **** *  None.
1315:.\Generated_Source\PSoC5/USBUART_1.c **** *
1316:.\Generated_Source\PSoC5/USBUART_1.c **** *******************************************************************************/
1317:.\Generated_Source\PSoC5/USBUART_1.c **** void USBUART_1_DisableOutEP(uint8 epNumber) 
1318:.\Generated_Source\PSoC5/USBUART_1.c **** {
 1342              		.loc 1 1318 0
 1343              		.cfi_startproc
 1344              		@ args = 0, pretend = 0, frame = 0
 1345              		@ frame_needed = 0, uses_anonymous_args = 0
 1346              		@ link register save eliminated.
 1347              	.LVL116:
1319:.\Generated_Source\PSoC5/USBUART_1.c ****     uint8 ri ;
1320:.\Generated_Source\PSoC5/USBUART_1.c **** 
1321:.\Generated_Source\PSoC5/USBUART_1.c ****     if((epNumber > USBUART_1_EP0) && (epNumber < USBUART_1_MAX_EP))
 1348              		.loc 1 1321 0
 1349 0000 0138     		subs	r0, r0, #1
 1350              	.LVL117:
 1351 0002 C0B2     		uxtb	r0, r0
 1352 0004 0728     		cmp	r0, #7
 1353 0006 04D8     		bhi	.L98
1322:.\Generated_Source\PSoC5/USBUART_1.c ****     {
1323:.\Generated_Source\PSoC5/USBUART_1.c ****         ri = ((epNumber - USBUART_1_EP1) << USBUART_1_EPX_CNTX_ADDR_SHIFT);
 1354              		.loc 1 1323 0
 1355 0008 0001     		lsls	r0, r0, #4
 1356 000a C0B2     		uxtb	r0, r0
 1357              	.LVL118:
1324:.\Generated_Source\PSoC5/USBUART_1.c ****         /* Write the Mode register */
1325:.\Generated_Source\PSoC5/USBUART_1.c ****         CY_SET_REG8((reg8 *)(USBUART_1_SIE_EP1_CR0_IND + ri), USBUART_1_MODE_NAK_OUT);
 1358              		.loc 1 1325 0
 1359 000c 0822     		movs	r2, #8
 1360 000e 014B     		ldr	r3, .L100
 1361 0010 C254     		strb	r2, [r0, r3]
 1362              	.LVL119:
 1363              	.L98:
 1364 0012 7047     		bx	lr
 1365              	.L101:
 1366              		.align	2
 1367              	.L100:
 1368 0014 0E600040 		.word	1073766414
 1369              		.cfi_endproc
 1370              	.LFE16:
 1371              		.size	USBUART_1_DisableOutEP, .-USBUART_1_DisableOutEP
 1372              		.section	.text.USBUART_1_Force,"ax",%progbits
 1373              		.align	2
 1374              		.global	USBUART_1_Force
 1375              		.thumb
 1376              		.thumb_func
 1377              		.type	USBUART_1_Force, %function
 1378              	USBUART_1_Force:
 1379              	.LFB17:
ARM GAS  C:\Users\Alex\AppData\Local\Temp\ccbj9lYo.s 			page 49


1326:.\Generated_Source\PSoC5/USBUART_1.c ****     }
1327:.\Generated_Source\PSoC5/USBUART_1.c **** }
1328:.\Generated_Source\PSoC5/USBUART_1.c **** 
1329:.\Generated_Source\PSoC5/USBUART_1.c **** 
1330:.\Generated_Source\PSoC5/USBUART_1.c **** /*******************************************************************************
1331:.\Generated_Source\PSoC5/USBUART_1.c **** * Function Name: USBUART_1_Force
1332:.\Generated_Source\PSoC5/USBUART_1.c **** ********************************************************************************
1333:.\Generated_Source\PSoC5/USBUART_1.c **** *
1334:.\Generated_Source\PSoC5/USBUART_1.c **** * Summary:
1335:.\Generated_Source\PSoC5/USBUART_1.c **** *  Forces the bus state
1336:.\Generated_Source\PSoC5/USBUART_1.c **** *
1337:.\Generated_Source\PSoC5/USBUART_1.c **** * Parameters:
1338:.\Generated_Source\PSoC5/USBUART_1.c **** *  bState
1339:.\Generated_Source\PSoC5/USBUART_1.c **** *    USBUART_1_FORCE_J
1340:.\Generated_Source\PSoC5/USBUART_1.c **** *    USBUART_1_FORCE_K
1341:.\Generated_Source\PSoC5/USBUART_1.c **** *    USBUART_1_FORCE_SE0
1342:.\Generated_Source\PSoC5/USBUART_1.c **** *    USBUART_1_FORCE_NONE
1343:.\Generated_Source\PSoC5/USBUART_1.c **** *
1344:.\Generated_Source\PSoC5/USBUART_1.c **** * Return:
1345:.\Generated_Source\PSoC5/USBUART_1.c **** *  None.
1346:.\Generated_Source\PSoC5/USBUART_1.c **** *
1347:.\Generated_Source\PSoC5/USBUART_1.c **** *******************************************************************************/
1348:.\Generated_Source\PSoC5/USBUART_1.c **** void USBUART_1_Force(uint8 bState) 
1349:.\Generated_Source\PSoC5/USBUART_1.c **** {
 1380              		.loc 1 1349 0
 1381              		.cfi_startproc
 1382              		@ args = 0, pretend = 0, frame = 0
 1383              		@ frame_needed = 0, uses_anonymous_args = 0
 1384              		@ link register save eliminated.
 1385              	.LVL120:
1350:.\Generated_Source\PSoC5/USBUART_1.c ****     CY_SET_REG8(USBUART_1_USBIO_CR0_PTR, bState);
 1386              		.loc 1 1350 0
 1387 0000 014B     		ldr	r3, .L103
 1388 0002 1870     		strb	r0, [r3]
 1389 0004 7047     		bx	lr
 1390              	.L104:
 1391 0006 00BF     		.align	2
 1392              	.L103:
 1393 0008 10600040 		.word	1073766416
 1394              		.cfi_endproc
 1395              	.LFE17:
 1396              		.size	USBUART_1_Force, .-USBUART_1_Force
 1397              		.section	.text.USBUART_1_GetEPAckState,"ax",%progbits
 1398              		.align	2
 1399              		.global	USBUART_1_GetEPAckState
 1400              		.thumb
 1401              		.thumb_func
 1402              		.type	USBUART_1_GetEPAckState, %function
 1403              	USBUART_1_GetEPAckState:
 1404              	.LFB18:
1351:.\Generated_Source\PSoC5/USBUART_1.c **** }
1352:.\Generated_Source\PSoC5/USBUART_1.c **** 
1353:.\Generated_Source\PSoC5/USBUART_1.c **** 
1354:.\Generated_Source\PSoC5/USBUART_1.c **** /*******************************************************************************
1355:.\Generated_Source\PSoC5/USBUART_1.c **** * Function Name: USBUART_1_GetEPAckState
1356:.\Generated_Source\PSoC5/USBUART_1.c **** ********************************************************************************
1357:.\Generated_Source\PSoC5/USBUART_1.c **** *
ARM GAS  C:\Users\Alex\AppData\Local\Temp\ccbj9lYo.s 			page 50


1358:.\Generated_Source\PSoC5/USBUART_1.c **** * Summary:
1359:.\Generated_Source\PSoC5/USBUART_1.c **** *  Returns the ACK of the CR0 Register (ACKD)
1360:.\Generated_Source\PSoC5/USBUART_1.c **** *
1361:.\Generated_Source\PSoC5/USBUART_1.c **** * Parameters:
1362:.\Generated_Source\PSoC5/USBUART_1.c **** *  epNumber: Endpoint Number
1363:.\Generated_Source\PSoC5/USBUART_1.c **** *            Valid values are between 1 and 8.
1364:.\Generated_Source\PSoC5/USBUART_1.c **** *
1365:.\Generated_Source\PSoC5/USBUART_1.c **** * Returns
1366:.\Generated_Source\PSoC5/USBUART_1.c **** *  0 if nothing has been ACKD, non-=zero something has been ACKD
1367:.\Generated_Source\PSoC5/USBUART_1.c **** *
1368:.\Generated_Source\PSoC5/USBUART_1.c **** *******************************************************************************/
1369:.\Generated_Source\PSoC5/USBUART_1.c **** uint8 USBUART_1_GetEPAckState(uint8 epNumber) 
1370:.\Generated_Source\PSoC5/USBUART_1.c **** {
 1405              		.loc 1 1370 0
 1406              		.cfi_startproc
 1407              		@ args = 0, pretend = 0, frame = 0
 1408              		@ frame_needed = 0, uses_anonymous_args = 0
 1409              		@ link register save eliminated.
 1410              	.LVL121:
1371:.\Generated_Source\PSoC5/USBUART_1.c ****     uint8 ri;
1372:.\Generated_Source\PSoC5/USBUART_1.c ****     uint8 cr = 0u;
1373:.\Generated_Source\PSoC5/USBUART_1.c **** 
1374:.\Generated_Source\PSoC5/USBUART_1.c ****     if((epNumber > USBUART_1_EP0) && (epNumber < USBUART_1_MAX_EP))
 1411              		.loc 1 1374 0
 1412 0000 0138     		subs	r0, r0, #1
 1413              	.LVL122:
 1414 0002 C0B2     		uxtb	r0, r0
 1415 0004 0728     		cmp	r0, #7
 1416 0006 07D8     		bhi	.L107
1375:.\Generated_Source\PSoC5/USBUART_1.c ****     {
1376:.\Generated_Source\PSoC5/USBUART_1.c ****         ri = ((epNumber - USBUART_1_EP1) << USBUART_1_EPX_CNTX_ADDR_SHIFT);
 1417              		.loc 1 1376 0
 1418 0008 0001     		lsls	r0, r0, #4
 1419 000a C0B2     		uxtb	r0, r0
 1420              	.LVL123:
1377:.\Generated_Source\PSoC5/USBUART_1.c ****         cr = CY_GET_REG8((reg8 *)(USBUART_1_SIE_EP1_CR0_IND + ri)) & USBUART_1_MODE_ACKD;
 1421              		.loc 1 1377 0
 1422 000c 034B     		ldr	r3, .L108
 1423 000e C05C     		ldrb	r0, [r0, r3]	@ zero_extendqisi2
 1424              	.LVL124:
 1425 0010 00F01000 		and	r0, r0, #16
 1426 0014 C0B2     		uxtb	r0, r0
 1427              	.LVL125:
 1428 0016 7047     		bx	lr
 1429              	.LVL126:
 1430              	.L107:
1372:.\Generated_Source\PSoC5/USBUART_1.c **** 
 1431              		.loc 1 1372 0
 1432 0018 0020     		movs	r0, #0
 1433              	.LVL127:
1378:.\Generated_Source\PSoC5/USBUART_1.c ****     }
1379:.\Generated_Source\PSoC5/USBUART_1.c **** 
1380:.\Generated_Source\PSoC5/USBUART_1.c ****     return(cr);
1381:.\Generated_Source\PSoC5/USBUART_1.c **** }
 1434              		.loc 1 1381 0
 1435 001a 7047     		bx	lr
 1436              	.L109:
ARM GAS  C:\Users\Alex\AppData\Local\Temp\ccbj9lYo.s 			page 51


 1437              		.align	2
 1438              	.L108:
 1439 001c 0E600040 		.word	1073766414
 1440              		.cfi_endproc
 1441              	.LFE18:
 1442              		.size	USBUART_1_GetEPAckState, .-USBUART_1_GetEPAckState
 1443              		.section	.text.USBUART_1_SetPowerStatus,"ax",%progbits
 1444              		.align	2
 1445              		.global	USBUART_1_SetPowerStatus
 1446              		.thumb
 1447              		.thumb_func
 1448              		.type	USBUART_1_SetPowerStatus, %function
 1449              	USBUART_1_SetPowerStatus:
 1450              	.LFB19:
1382:.\Generated_Source\PSoC5/USBUART_1.c **** 
1383:.\Generated_Source\PSoC5/USBUART_1.c **** 
1384:.\Generated_Source\PSoC5/USBUART_1.c **** /*******************************************************************************
1385:.\Generated_Source\PSoC5/USBUART_1.c **** * Function Name: USBUART_1_SetPowerStatus
1386:.\Generated_Source\PSoC5/USBUART_1.c **** ********************************************************************************
1387:.\Generated_Source\PSoC5/USBUART_1.c **** *
1388:.\Generated_Source\PSoC5/USBUART_1.c **** * Summary:
1389:.\Generated_Source\PSoC5/USBUART_1.c **** *  Sets the device power status for reporting in the Get Device Status
1390:.\Generated_Source\PSoC5/USBUART_1.c **** *  request
1391:.\Generated_Source\PSoC5/USBUART_1.c **** *
1392:.\Generated_Source\PSoC5/USBUART_1.c **** * Parameters:
1393:.\Generated_Source\PSoC5/USBUART_1.c **** *  powerStatus: USBUART_1_DEVICE_STATUS_BUS_POWERED(0) - Bus Powered,
1394:.\Generated_Source\PSoC5/USBUART_1.c **** *               USBUART_1_DEVICE_STATUS_SELF_POWERED(1) - Self Powered
1395:.\Generated_Source\PSoC5/USBUART_1.c **** *
1396:.\Generated_Source\PSoC5/USBUART_1.c **** * Return:
1397:.\Generated_Source\PSoC5/USBUART_1.c **** *   None.
1398:.\Generated_Source\PSoC5/USBUART_1.c **** *
1399:.\Generated_Source\PSoC5/USBUART_1.c **** * Global variables:
1400:.\Generated_Source\PSoC5/USBUART_1.c **** *  USBUART_1_deviceStatus - set power status
1401:.\Generated_Source\PSoC5/USBUART_1.c **** *
1402:.\Generated_Source\PSoC5/USBUART_1.c **** * Reentrant:
1403:.\Generated_Source\PSoC5/USBUART_1.c **** *  No.
1404:.\Generated_Source\PSoC5/USBUART_1.c **** *
1405:.\Generated_Source\PSoC5/USBUART_1.c **** *******************************************************************************/
1406:.\Generated_Source\PSoC5/USBUART_1.c **** void USBUART_1_SetPowerStatus(uint8 powerStatus) 
1407:.\Generated_Source\PSoC5/USBUART_1.c **** {
 1451              		.loc 1 1407 0
 1452              		.cfi_startproc
 1453              		@ args = 0, pretend = 0, frame = 0
 1454              		@ frame_needed = 0, uses_anonymous_args = 0
 1455              		@ link register save eliminated.
 1456              	.LVL128:
1408:.\Generated_Source\PSoC5/USBUART_1.c ****     if (powerStatus != USBUART_1_DEVICE_STATUS_BUS_POWERED)
 1457              		.loc 1 1408 0
 1458 0000 28B1     		cbz	r0, .L111
1409:.\Generated_Source\PSoC5/USBUART_1.c ****     {
1410:.\Generated_Source\PSoC5/USBUART_1.c ****         USBUART_1_deviceStatus |=  USBUART_1_DEVICE_STATUS_SELF_POWERED;
 1459              		.loc 1 1410 0
 1460 0002 064A     		ldr	r2, .L113
 1461 0004 1378     		ldrb	r3, [r2]	@ zero_extendqisi2
 1462 0006 43F00103 		orr	r3, r3, #1
 1463 000a 1370     		strb	r3, [r2]
 1464 000c 7047     		bx	lr
ARM GAS  C:\Users\Alex\AppData\Local\Temp\ccbj9lYo.s 			page 52


 1465              	.L111:
1411:.\Generated_Source\PSoC5/USBUART_1.c ****     }
1412:.\Generated_Source\PSoC5/USBUART_1.c ****     else
1413:.\Generated_Source\PSoC5/USBUART_1.c ****     {
1414:.\Generated_Source\PSoC5/USBUART_1.c ****         USBUART_1_deviceStatus &=  ((uint8)(~USBUART_1_DEVICE_STATUS_SELF_POWERED));
 1466              		.loc 1 1414 0
 1467 000e 034A     		ldr	r2, .L113
 1468 0010 1378     		ldrb	r3, [r2]	@ zero_extendqisi2
 1469 0012 03F0FE03 		and	r3, r3, #254
 1470 0016 1370     		strb	r3, [r2]
 1471 0018 7047     		bx	lr
 1472              	.L114:
 1473 001a 00BF     		.align	2
 1474              	.L113:
 1475 001c 00000000 		.word	USBUART_1_deviceStatus
 1476              		.cfi_endproc
 1477              	.LFE19:
 1478              		.size	USBUART_1_SetPowerStatus, .-USBUART_1_SetPowerStatus
 1479              		.section	.text.USBUART_1_RWUEnabled,"ax",%progbits
 1480              		.align	2
 1481              		.global	USBUART_1_RWUEnabled
 1482              		.thumb
 1483              		.thumb_func
 1484              		.type	USBUART_1_RWUEnabled, %function
 1485              	USBUART_1_RWUEnabled:
 1486              	.LFB20:
1415:.\Generated_Source\PSoC5/USBUART_1.c ****     }
1416:.\Generated_Source\PSoC5/USBUART_1.c **** }
1417:.\Generated_Source\PSoC5/USBUART_1.c **** 
1418:.\Generated_Source\PSoC5/USBUART_1.c **** 
1419:.\Generated_Source\PSoC5/USBUART_1.c **** #if (USBUART_1_MON_VBUS == 1u)
1420:.\Generated_Source\PSoC5/USBUART_1.c **** 
1421:.\Generated_Source\PSoC5/USBUART_1.c ****     /*******************************************************************************
1422:.\Generated_Source\PSoC5/USBUART_1.c ****     * Function Name: USBUART_1_VBusPresent
1423:.\Generated_Source\PSoC5/USBUART_1.c ****     ********************************************************************************
1424:.\Generated_Source\PSoC5/USBUART_1.c ****     *
1425:.\Generated_Source\PSoC5/USBUART_1.c ****     * Summary:
1426:.\Generated_Source\PSoC5/USBUART_1.c ****     *  Determines VBUS presence for Self Powered Devices.
1427:.\Generated_Source\PSoC5/USBUART_1.c ****     *
1428:.\Generated_Source\PSoC5/USBUART_1.c ****     * Parameters:
1429:.\Generated_Source\PSoC5/USBUART_1.c ****     *  None.
1430:.\Generated_Source\PSoC5/USBUART_1.c ****     *
1431:.\Generated_Source\PSoC5/USBUART_1.c ****     * Return:
1432:.\Generated_Source\PSoC5/USBUART_1.c ****     *  1 if VBUS is present, otherwise 0.
1433:.\Generated_Source\PSoC5/USBUART_1.c ****     *
1434:.\Generated_Source\PSoC5/USBUART_1.c ****     *******************************************************************************/
1435:.\Generated_Source\PSoC5/USBUART_1.c ****     uint8 USBUART_1_VBusPresent(void) 
1436:.\Generated_Source\PSoC5/USBUART_1.c ****     {
1437:.\Generated_Source\PSoC5/USBUART_1.c ****         return((0u != (CY_GET_REG8(USBUART_1_VBUS_PS_PTR) & USBUART_1_VBUS_MASK)) ? 1u : 0u);
1438:.\Generated_Source\PSoC5/USBUART_1.c ****     }
1439:.\Generated_Source\PSoC5/USBUART_1.c **** 
1440:.\Generated_Source\PSoC5/USBUART_1.c **** #endif /* USBUART_1_MON_VBUS */
1441:.\Generated_Source\PSoC5/USBUART_1.c **** 
1442:.\Generated_Source\PSoC5/USBUART_1.c **** 
1443:.\Generated_Source\PSoC5/USBUART_1.c **** /*******************************************************************************
1444:.\Generated_Source\PSoC5/USBUART_1.c **** * Function Name: USBUART_1_RWUEnabled
1445:.\Generated_Source\PSoC5/USBUART_1.c **** ********************************************************************************
ARM GAS  C:\Users\Alex\AppData\Local\Temp\ccbj9lYo.s 			page 53


1446:.\Generated_Source\PSoC5/USBUART_1.c **** *
1447:.\Generated_Source\PSoC5/USBUART_1.c **** * Summary:
1448:.\Generated_Source\PSoC5/USBUART_1.c **** *  Returns TRUE if Remote Wake Up is enabled, otherwise FALSE
1449:.\Generated_Source\PSoC5/USBUART_1.c **** *
1450:.\Generated_Source\PSoC5/USBUART_1.c **** * Parameters:
1451:.\Generated_Source\PSoC5/USBUART_1.c **** *   None.
1452:.\Generated_Source\PSoC5/USBUART_1.c **** *
1453:.\Generated_Source\PSoC5/USBUART_1.c **** * Return:
1454:.\Generated_Source\PSoC5/USBUART_1.c **** *  TRUE -  Remote Wake Up Enabled
1455:.\Generated_Source\PSoC5/USBUART_1.c **** *  FALSE - Remote Wake Up Disabled
1456:.\Generated_Source\PSoC5/USBUART_1.c **** *
1457:.\Generated_Source\PSoC5/USBUART_1.c **** * Global variables:
1458:.\Generated_Source\PSoC5/USBUART_1.c **** *  USBUART_1_deviceStatus - checked to determine remote status
1459:.\Generated_Source\PSoC5/USBUART_1.c **** *
1460:.\Generated_Source\PSoC5/USBUART_1.c **** *******************************************************************************/
1461:.\Generated_Source\PSoC5/USBUART_1.c **** uint8 USBUART_1_RWUEnabled(void) 
1462:.\Generated_Source\PSoC5/USBUART_1.c **** {
 1487              		.loc 1 1462 0
 1488              		.cfi_startproc
 1489              		@ args = 0, pretend = 0, frame = 0
 1490              		@ frame_needed = 0, uses_anonymous_args = 0
 1491              		@ link register save eliminated.
 1492              	.LVL129:
1463:.\Generated_Source\PSoC5/USBUART_1.c ****     uint8 result = USBUART_1_FALSE;
1464:.\Generated_Source\PSoC5/USBUART_1.c ****     if((USBUART_1_deviceStatus & USBUART_1_DEVICE_STATUS_REMOTE_WAKEUP) != 0u)
 1493              		.loc 1 1464 0
 1494 0000 044B     		ldr	r3, .L118
 1495 0002 1B78     		ldrb	r3, [r3]	@ zero_extendqisi2
 1496 0004 13F0020F 		tst	r3, #2
 1497 0008 01D1     		bne	.L117
1463:.\Generated_Source\PSoC5/USBUART_1.c ****     uint8 result = USBUART_1_FALSE;
 1498              		.loc 1 1463 0
 1499 000a 0020     		movs	r0, #0
 1500 000c 7047     		bx	lr
 1501              	.L117:
1465:.\Generated_Source\PSoC5/USBUART_1.c ****     {
1466:.\Generated_Source\PSoC5/USBUART_1.c ****         result = USBUART_1_TRUE;
 1502              		.loc 1 1466 0
 1503 000e 0120     		movs	r0, #1
 1504              	.LVL130:
1467:.\Generated_Source\PSoC5/USBUART_1.c ****     }
1468:.\Generated_Source\PSoC5/USBUART_1.c **** 
1469:.\Generated_Source\PSoC5/USBUART_1.c ****     return(result);
1470:.\Generated_Source\PSoC5/USBUART_1.c **** }
 1505              		.loc 1 1470 0
 1506 0010 7047     		bx	lr
 1507              	.L119:
 1508 0012 00BF     		.align	2
 1509              	.L118:
 1510 0014 00000000 		.word	USBUART_1_deviceStatus
 1511              		.cfi_endproc
 1512              	.LFE20:
 1513              		.size	USBUART_1_RWUEnabled, .-USBUART_1_RWUEnabled
 1514              		.comm	USBUART_1_DmaTd,9,4
 1515              		.comm	USBUART_1_DmaChan,9,4
 1516              		.global	USBUART_1_initVar
 1517              		.bss
ARM GAS  C:\Users\Alex\AppData\Local\Temp\ccbj9lYo.s 			page 54


 1518              		.set	.LANCHOR0,. + 0
 1519              		.type	USBUART_1_initVar, %object
 1520              		.size	USBUART_1_initVar, 1
 1521              	USBUART_1_initVar:
 1522 0000 00       		.space	1
 1523              		.text
 1524              	.Letext0:
 1525              		.file 2 "Generated_Source\\PSoC5/cytypes.h"
 1526              		.file 3 ".\\Generated_Source\\PSoC5\\USBUART_1.h"
 1527              		.file 4 ".\\Generated_Source\\PSoC5\\USBUART_1_pvt.h"
 1528              		.file 5 "Generated_Source\\PSoC5/CyLib.h"
 1529              		.file 6 ".\\Generated_Source\\PSoC5\\USBUART_1_ep1_dma.h"
 1530              		.file 7 ".\\Generated_Source\\PSoC5\\USBUART_1_ep2_dma.h"
 1531              		.file 8 ".\\Generated_Source\\PSoC5\\USBUART_1_ep3_dma.h"
 1532              		.file 9 "Generated_Source\\PSoC5/CyDmac.h"
 1533              		.section	.debug_info,"",%progbits
 1534              	.Ldebug_info0:
 1535 0000 960B0000 		.4byte	0xb96
 1536 0004 0400     		.2byte	0x4
 1537 0006 00000000 		.4byte	.Ldebug_abbrev0
 1538 000a 04       		.byte	0x4
 1539 000b 01       		.uleb128 0x1
 1540 000c 62050000 		.4byte	.LASF91
 1541 0010 01       		.byte	0x1
 1542 0011 CF020000 		.4byte	.LASF92
 1543 0015 5A040000 		.4byte	.LASF93
 1544 0019 00000000 		.4byte	.Ldebug_ranges0+0
 1545 001d 00000000 		.4byte	0
 1546 0021 00000000 		.4byte	.Ldebug_line0
 1547 0025 02       		.uleb128 0x2
 1548 0026 01       		.byte	0x1
 1549 0027 06       		.byte	0x6
 1550 0028 FB000000 		.4byte	.LASF0
 1551 002c 02       		.uleb128 0x2
 1552 002d 01       		.byte	0x1
 1553 002e 08       		.byte	0x8
 1554 002f 33040000 		.4byte	.LASF1
 1555 0033 02       		.uleb128 0x2
 1556 0034 02       		.byte	0x2
 1557 0035 05       		.byte	0x5
 1558 0036 50040000 		.4byte	.LASF2
 1559 003a 02       		.uleb128 0x2
 1560 003b 02       		.byte	0x2
 1561 003c 07       		.byte	0x7
 1562 003d 55020000 		.4byte	.LASF3
 1563 0041 02       		.uleb128 0x2
 1564 0042 04       		.byte	0x4
 1565 0043 05       		.byte	0x5
 1566 0044 1D010000 		.4byte	.LASF4
 1567 0048 02       		.uleb128 0x2
 1568 0049 04       		.byte	0x4
 1569 004a 07       		.byte	0x7
 1570 004b 06020000 		.4byte	.LASF5
 1571 004f 02       		.uleb128 0x2
 1572 0050 08       		.byte	0x8
 1573 0051 05       		.byte	0x5
 1574 0052 ED000000 		.4byte	.LASF6
ARM GAS  C:\Users\Alex\AppData\Local\Temp\ccbj9lYo.s 			page 55


 1575 0056 02       		.uleb128 0x2
 1576 0057 08       		.byte	0x8
 1577 0058 07       		.byte	0x7
 1578 0059 99000000 		.4byte	.LASF7
 1579 005d 03       		.uleb128 0x3
 1580 005e 04       		.byte	0x4
 1581 005f 05       		.byte	0x5
 1582 0060 696E7400 		.ascii	"int\000"
 1583 0064 02       		.uleb128 0x2
 1584 0065 04       		.byte	0x4
 1585 0066 07       		.byte	0x7
 1586 0067 F9010000 		.4byte	.LASF8
 1587 006b 04       		.uleb128 0x4
 1588 006c 26010000 		.4byte	.LASF9
 1589 0070 02       		.byte	0x2
 1590 0071 C2       		.byte	0xc2
 1591 0072 2C000000 		.4byte	0x2c
 1592 0076 04       		.uleb128 0x4
 1593 0077 00000000 		.4byte	.LASF10
 1594 007b 02       		.byte	0x2
 1595 007c C3       		.byte	0xc3
 1596 007d 3A000000 		.4byte	0x3a
 1597 0081 04       		.uleb128 0x4
 1598 0082 89010000 		.4byte	.LASF11
 1599 0086 02       		.byte	0x2
 1600 0087 C4       		.byte	0xc4
 1601 0088 48000000 		.4byte	0x48
 1602 008c 02       		.uleb128 0x2
 1603 008d 04       		.byte	0x4
 1604 008e 04       		.byte	0x4
 1605 008f D4030000 		.4byte	.LASF12
 1606 0093 02       		.uleb128 0x2
 1607 0094 08       		.byte	0x8
 1608 0095 04       		.byte	0x4
 1609 0096 57010000 		.4byte	.LASF13
 1610 009a 02       		.uleb128 0x2
 1611 009b 01       		.byte	0x1
 1612 009c 08       		.byte	0x8
 1613 009d C7040000 		.4byte	.LASF14
 1614 00a1 05       		.uleb128 0x5
 1615 00a2 6A060000 		.4byte	.LASF15
 1616 00a6 02       		.byte	0x2
 1617 00a7 6401     		.2byte	0x164
 1618 00a9 48000000 		.4byte	0x48
 1619 00ad 05       		.uleb128 0x5
 1620 00ae 2E040000 		.4byte	.LASF16
 1621 00b2 02       		.byte	0x2
 1622 00b3 6C01     		.2byte	0x16c
 1623 00b5 B9000000 		.4byte	0xb9
 1624 00b9 06       		.uleb128 0x6
 1625 00ba 6B000000 		.4byte	0x6b
 1626 00be 05       		.uleb128 0x5
 1627 00bf FE020000 		.4byte	.LASF17
 1628 00c3 02       		.byte	0x2
 1629 00c4 6E01     		.2byte	0x16e
 1630 00c6 CA000000 		.4byte	0xca
 1631 00ca 06       		.uleb128 0x6
ARM GAS  C:\Users\Alex\AppData\Local\Temp\ccbj9lYo.s 			page 56


 1632 00cb 81000000 		.4byte	0x81
 1633 00cf 05       		.uleb128 0x5
 1634 00d0 D1040000 		.4byte	.LASF18
 1635 00d4 02       		.byte	0x2
 1636 00d5 7E01     		.2byte	0x17e
 1637 00d7 DB000000 		.4byte	0xdb
 1638 00db 07       		.uleb128 0x7
 1639 00dc 04       		.byte	0x4
 1640 00dd E1000000 		.4byte	0xe1
 1641 00e1 08       		.uleb128 0x8
 1642 00e2 02       		.uleb128 0x2
 1643 00e3 04       		.byte	0x4
 1644 00e4 07       		.byte	0x7
 1645 00e5 0E030000 		.4byte	.LASF19
 1646 00e9 09       		.uleb128 0x9
 1647 00ea 0C       		.byte	0xc
 1648 00eb 03       		.byte	0x3
 1649 00ec 7D       		.byte	0x7d
 1650 00ed 5E010000 		.4byte	0x15e
 1651 00f1 0A       		.uleb128 0xa
 1652 00f2 5B030000 		.4byte	.LASF20
 1653 00f6 03       		.byte	0x3
 1654 00f7 7F       		.byte	0x7f
 1655 00f8 6B000000 		.4byte	0x6b
 1656 00fc 00       		.byte	0
 1657 00fd 0A       		.uleb128 0xa
 1658 00fe F0030000 		.4byte	.LASF21
 1659 0102 03       		.byte	0x3
 1660 0103 80       		.byte	0x80
 1661 0104 6B000000 		.4byte	0x6b
 1662 0108 01       		.byte	0x1
 1663 0109 0A       		.uleb128 0xa
 1664 010a 04030000 		.4byte	.LASF22
 1665 010e 03       		.byte	0x3
 1666 010f 81       		.byte	0x81
 1667 0110 6B000000 		.4byte	0x6b
 1668 0114 02       		.byte	0x2
 1669 0115 0A       		.uleb128 0xa
 1670 0116 2C010000 		.4byte	.LASF23
 1671 011a 03       		.byte	0x3
 1672 011b 82       		.byte	0x82
 1673 011c 6B000000 		.4byte	0x6b
 1674 0120 03       		.byte	0x3
 1675 0121 0A       		.uleb128 0xa
 1676 0122 B0000000 		.4byte	.LASF24
 1677 0126 03       		.byte	0x3
 1678 0127 83       		.byte	0x83
 1679 0128 6B000000 		.4byte	0x6b
 1680 012c 04       		.byte	0x4
 1681 012d 0A       		.uleb128 0xa
 1682 012e AD010000 		.4byte	.LASF25
 1683 0132 03       		.byte	0x3
 1684 0133 84       		.byte	0x84
 1685 0134 6B000000 		.4byte	0x6b
 1686 0138 05       		.byte	0x5
 1687 0139 0A       		.uleb128 0xa
 1688 013a 01050000 		.4byte	.LASF26
ARM GAS  C:\Users\Alex\AppData\Local\Temp\ccbj9lYo.s 			page 57


 1689 013e 03       		.byte	0x3
 1690 013f 85       		.byte	0x85
 1691 0140 76000000 		.4byte	0x76
 1692 0144 06       		.byte	0x6
 1693 0145 0A       		.uleb128 0xa
 1694 0146 F6040000 		.4byte	.LASF27
 1695 014a 03       		.byte	0x3
 1696 014b 86       		.byte	0x86
 1697 014c 76000000 		.4byte	0x76
 1698 0150 08       		.byte	0x8
 1699 0151 0A       		.uleb128 0xa
 1700 0152 F4020000 		.4byte	.LASF28
 1701 0156 03       		.byte	0x3
 1702 0157 87       		.byte	0x87
 1703 0158 6B000000 		.4byte	0x6b
 1704 015c 0A       		.byte	0xa
 1705 015d 00       		.byte	0
 1706 015e 04       		.uleb128 0x4
 1707 015f C9010000 		.4byte	.LASF29
 1708 0163 03       		.byte	0x3
 1709 0164 88       		.byte	0x88
 1710 0165 E9000000 		.4byte	0xe9
 1711 0169 0B       		.uleb128 0xb
 1712 016a 5E000000 		.4byte	.LASF31
 1713 016e 01       		.byte	0x1
 1714 016f 9E       		.byte	0x9e
 1715 0170 00000000 		.4byte	.LFB1
 1716 0174 54010000 		.4byte	.LFE1-.LFB1
 1717 0178 01       		.uleb128 0x1
 1718 0179 9C       		.byte	0x9c
 1719 017a 30030000 		.4byte	0x330
 1720 017e 0C       		.uleb128 0xc
 1721 017f 37050000 		.4byte	.LASF30
 1722 0183 01       		.byte	0x1
 1723 0184 A0       		.byte	0xa0
 1724 0185 6B000000 		.4byte	0x6b
 1725 0189 00000000 		.4byte	.LLST0
 1726 018d 0D       		.uleb128 0xd
 1727 018e 6900     		.ascii	"i\000"
 1728 0190 01       		.byte	0x1
 1729 0191 A2       		.byte	0xa2
 1730 0192 76000000 		.4byte	0x76
 1731 0196 13000000 		.4byte	.LLST1
 1732 019a 0E       		.uleb128 0xe
 1733 019b 06000000 		.4byte	.LVL0
 1734 019f 1B0A0000 		.4byte	0xa1b
 1735 01a3 0F       		.uleb128 0xf
 1736 01a4 3C000000 		.4byte	.LVL2
 1737 01a8 260A0000 		.4byte	0xa26
 1738 01ac B6010000 		.4byte	0x1b6
 1739 01b0 10       		.uleb128 0x10
 1740 01b1 01       		.uleb128 0x1
 1741 01b2 50       		.byte	0x50
 1742 01b3 01       		.uleb128 0x1
 1743 01b4 30       		.byte	0x30
 1744 01b5 00       		.byte	0
 1745 01b6 0F       		.uleb128 0xf
ARM GAS  C:\Users\Alex\AppData\Local\Temp\ccbj9lYo.s 			page 58


 1746 01b7 5C000000 		.4byte	.LVL3
 1747 01bb 260A0000 		.4byte	0xa26
 1748 01bf CA010000 		.4byte	0x1ca
 1749 01c3 10       		.uleb128 0x10
 1750 01c4 01       		.uleb128 0x1
 1751 01c5 50       		.byte	0x50
 1752 01c6 02       		.uleb128 0x2
 1753 01c7 77       		.byte	0x77
 1754 01c8 00       		.sleb128 0
 1755 01c9 00       		.byte	0
 1756 01ca 0F       		.uleb128 0xf
 1757 01cb 62000000 		.4byte	.LVL4
 1758 01cf 260A0000 		.4byte	0xa26
 1759 01d3 DE010000 		.4byte	0x1de
 1760 01d7 10       		.uleb128 0x10
 1761 01d8 01       		.uleb128 0x1
 1762 01d9 50       		.byte	0x50
 1763 01da 02       		.uleb128 0x2
 1764 01db 08       		.byte	0x8
 1765 01dc 28       		.byte	0x28
 1766 01dd 00       		.byte	0
 1767 01de 0F       		.uleb128 0xf
 1768 01df 80000000 		.4byte	.LVL5
 1769 01e3 260A0000 		.4byte	0xa26
 1770 01e7 F2010000 		.4byte	0x1f2
 1771 01eb 10       		.uleb128 0x10
 1772 01ec 01       		.uleb128 0x1
 1773 01ed 50       		.byte	0x50
 1774 01ee 02       		.uleb128 0x2
 1775 01ef 76       		.byte	0x76
 1776 01f0 00       		.sleb128 0
 1777 01f1 00       		.byte	0
 1778 01f2 0F       		.uleb128 0xf
 1779 01f3 A8000000 		.4byte	.LVL10
 1780 01f7 370A0000 		.4byte	0xa37
 1781 01fb 06020000 		.4byte	0x206
 1782 01ff 10       		.uleb128 0x10
 1783 0200 01       		.uleb128 0x1
 1784 0201 50       		.byte	0x50
 1785 0202 02       		.uleb128 0x2
 1786 0203 75       		.byte	0x75
 1787 0204 00       		.sleb128 0
 1788 0205 00       		.byte	0
 1789 0206 0F       		.uleb128 0xf
 1790 0207 B0000000 		.4byte	.LVL11
 1791 020b 480A0000 		.4byte	0xa48
 1792 020f 19020000 		.4byte	0x219
 1793 0213 10       		.uleb128 0x10
 1794 0214 01       		.uleb128 0x1
 1795 0215 50       		.byte	0x50
 1796 0216 01       		.uleb128 0x1
 1797 0217 47       		.byte	0x47
 1798 0218 00       		.byte	0
 1799 0219 0F       		.uleb128 0xf
 1800 021a B8000000 		.4byte	.LVL12
 1801 021e 620A0000 		.4byte	0xa62
 1802 0222 31020000 		.4byte	0x231
ARM GAS  C:\Users\Alex\AppData\Local\Temp\ccbj9lYo.s 			page 59


 1803 0226 10       		.uleb128 0x10
 1804 0227 01       		.uleb128 0x1
 1805 0228 51       		.byte	0x51
 1806 0229 01       		.uleb128 0x1
 1807 022a 37       		.byte	0x37
 1808 022b 10       		.uleb128 0x10
 1809 022c 01       		.uleb128 0x1
 1810 022d 50       		.byte	0x50
 1811 022e 01       		.uleb128 0x1
 1812 022f 47       		.byte	0x47
 1813 0230 00       		.byte	0
 1814 0231 0F       		.uleb128 0xf
 1815 0232 C0000000 		.4byte	.LVL13
 1816 0236 480A0000 		.4byte	0xa48
 1817 023a 44020000 		.4byte	0x244
 1818 023e 10       		.uleb128 0x10
 1819 023f 01       		.uleb128 0x1
 1820 0240 50       		.byte	0x50
 1821 0241 01       		.uleb128 0x1
 1822 0242 45       		.byte	0x45
 1823 0243 00       		.byte	0
 1824 0244 0F       		.uleb128 0xf
 1825 0245 C8000000 		.4byte	.LVL14
 1826 0249 620A0000 		.4byte	0xa62
 1827 024d 5C020000 		.4byte	0x25c
 1828 0251 10       		.uleb128 0x10
 1829 0252 01       		.uleb128 0x1
 1830 0253 51       		.byte	0x51
 1831 0254 01       		.uleb128 0x1
 1832 0255 37       		.byte	0x37
 1833 0256 10       		.uleb128 0x10
 1834 0257 01       		.uleb128 0x1
 1835 0258 50       		.byte	0x50
 1836 0259 01       		.uleb128 0x1
 1837 025a 45       		.byte	0x45
 1838 025b 00       		.byte	0
 1839 025c 0F       		.uleb128 0xf
 1840 025d D0000000 		.4byte	.LVL15
 1841 0261 480A0000 		.4byte	0xa48
 1842 0265 6F020000 		.4byte	0x26f
 1843 0269 10       		.uleb128 0x10
 1844 026a 01       		.uleb128 0x1
 1845 026b 50       		.byte	0x50
 1846 026c 01       		.uleb128 0x1
 1847 026d 48       		.byte	0x48
 1848 026e 00       		.byte	0
 1849 026f 0F       		.uleb128 0xf
 1850 0270 D8000000 		.4byte	.LVL16
 1851 0274 620A0000 		.4byte	0xa62
 1852 0278 87020000 		.4byte	0x287
 1853 027c 10       		.uleb128 0x10
 1854 027d 01       		.uleb128 0x1
 1855 027e 51       		.byte	0x51
 1856 027f 01       		.uleb128 0x1
 1857 0280 37       		.byte	0x37
 1858 0281 10       		.uleb128 0x10
 1859 0282 01       		.uleb128 0x1
ARM GAS  C:\Users\Alex\AppData\Local\Temp\ccbj9lYo.s 			page 60


 1860 0283 50       		.byte	0x50
 1861 0284 01       		.uleb128 0x1
 1862 0285 48       		.byte	0x48
 1863 0286 00       		.byte	0
 1864 0287 0F       		.uleb128 0xf
 1865 0288 E0000000 		.4byte	.LVL17
 1866 028c 480A0000 		.4byte	0xa48
 1867 0290 9A020000 		.4byte	0x29a
 1868 0294 10       		.uleb128 0x10
 1869 0295 01       		.uleb128 0x1
 1870 0296 50       		.byte	0x50
 1871 0297 01       		.uleb128 0x1
 1872 0298 34       		.byte	0x34
 1873 0299 00       		.byte	0
 1874 029a 0F       		.uleb128 0xf
 1875 029b E8000000 		.4byte	.LVL18
 1876 029f 620A0000 		.4byte	0xa62
 1877 02a3 B2020000 		.4byte	0x2b2
 1878 02a7 10       		.uleb128 0x10
 1879 02a8 01       		.uleb128 0x1
 1880 02a9 51       		.byte	0x51
 1881 02aa 01       		.uleb128 0x1
 1882 02ab 37       		.byte	0x37
 1883 02ac 10       		.uleb128 0x10
 1884 02ad 01       		.uleb128 0x1
 1885 02ae 50       		.byte	0x50
 1886 02af 01       		.uleb128 0x1
 1887 02b0 34       		.byte	0x34
 1888 02b1 00       		.byte	0
 1889 02b2 0F       		.uleb128 0xf
 1890 02b3 F0000000 		.4byte	.LVL19
 1891 02b7 480A0000 		.4byte	0xa48
 1892 02bb C5020000 		.4byte	0x2c5
 1893 02bf 10       		.uleb128 0x10
 1894 02c0 01       		.uleb128 0x1
 1895 02c1 50       		.byte	0x50
 1896 02c2 01       		.uleb128 0x1
 1897 02c3 35       		.byte	0x35
 1898 02c4 00       		.byte	0
 1899 02c5 0F       		.uleb128 0xf
 1900 02c6 F8000000 		.4byte	.LVL20
 1901 02ca 620A0000 		.4byte	0xa62
 1902 02ce DD020000 		.4byte	0x2dd
 1903 02d2 10       		.uleb128 0x10
 1904 02d3 01       		.uleb128 0x1
 1905 02d4 51       		.byte	0x51
 1906 02d5 01       		.uleb128 0x1
 1907 02d6 37       		.byte	0x37
 1908 02d7 10       		.uleb128 0x10
 1909 02d8 01       		.uleb128 0x1
 1910 02d9 50       		.byte	0x50
 1911 02da 01       		.uleb128 0x1
 1912 02db 35       		.byte	0x35
 1913 02dc 00       		.byte	0
 1914 02dd 0F       		.uleb128 0xf
 1915 02de 00010000 		.4byte	.LVL21
 1916 02e2 480A0000 		.4byte	0xa48
ARM GAS  C:\Users\Alex\AppData\Local\Temp\ccbj9lYo.s 			page 61


 1917 02e6 F0020000 		.4byte	0x2f0
 1918 02ea 10       		.uleb128 0x10
 1919 02eb 01       		.uleb128 0x1
 1920 02ec 50       		.byte	0x50
 1921 02ed 01       		.uleb128 0x1
 1922 02ee 36       		.byte	0x36
 1923 02ef 00       		.byte	0
 1924 02f0 0F       		.uleb128 0xf
 1925 02f1 08010000 		.4byte	.LVL22
 1926 02f5 620A0000 		.4byte	0xa62
 1927 02f9 08030000 		.4byte	0x308
 1928 02fd 10       		.uleb128 0x10
 1929 02fe 01       		.uleb128 0x1
 1930 02ff 51       		.byte	0x51
 1931 0300 01       		.uleb128 0x1
 1932 0301 37       		.byte	0x37
 1933 0302 10       		.uleb128 0x10
 1934 0303 01       		.uleb128 0x1
 1935 0304 50       		.byte	0x50
 1936 0305 01       		.uleb128 0x1
 1937 0306 36       		.byte	0x36
 1938 0307 00       		.byte	0
 1939 0308 0F       		.uleb128 0xf
 1940 0309 10010000 		.4byte	.LVL23
 1941 030d 480A0000 		.4byte	0xa48
 1942 0311 1B030000 		.4byte	0x31b
 1943 0315 10       		.uleb128 0x10
 1944 0316 01       		.uleb128 0x1
 1945 0317 50       		.byte	0x50
 1946 0318 01       		.uleb128 0x1
 1947 0319 46       		.byte	0x46
 1948 031a 00       		.byte	0
 1949 031b 11       		.uleb128 0x11
 1950 031c 18010000 		.4byte	.LVL24
 1951 0320 620A0000 		.4byte	0xa62
 1952 0324 10       		.uleb128 0x10
 1953 0325 01       		.uleb128 0x1
 1954 0326 51       		.byte	0x51
 1955 0327 01       		.uleb128 0x1
 1956 0328 30       		.byte	0x30
 1957 0329 10       		.uleb128 0x10
 1958 032a 01       		.uleb128 0x1
 1959 032b 50       		.byte	0x50
 1960 032c 01       		.uleb128 0x1
 1961 032d 46       		.byte	0x46
 1962 032e 00       		.byte	0
 1963 032f 00       		.byte	0
 1964 0330 12       		.uleb128 0x12
 1965 0331 0C050000 		.4byte	.LASF32
 1966 0335 01       		.byte	0x1
 1967 0336 5C01     		.2byte	0x15c
 1968 0338 00000000 		.4byte	.LFB2
 1969 033c D8000000 		.4byte	.LFE2-.LFB2
 1970 0340 01       		.uleb128 0x1
 1971 0341 9C       		.byte	0x9c
 1972 0342 84030000 		.4byte	0x384
 1973 0346 13       		.uleb128 0x13
ARM GAS  C:\Users\Alex\AppData\Local\Temp\ccbj9lYo.s 			page 62


 1974 0347 E6000000 		.4byte	.LASF33
 1975 034b 01       		.byte	0x1
 1976 034c 5C01     		.2byte	0x15c
 1977 034e 6B000000 		.4byte	0x6b
 1978 0352 3D000000 		.4byte	.LLST2
 1979 0356 13       		.uleb128 0x13
 1980 0357 CC040000 		.4byte	.LASF34
 1981 035b 01       		.byte	0x1
 1982 035c 5C01     		.2byte	0x15c
 1983 035e 6B000000 		.4byte	0x6b
 1984 0362 5E000000 		.4byte	.LLST3
 1985 0366 14       		.uleb128 0x14
 1986 0367 6900     		.ascii	"i\000"
 1987 0369 01       		.byte	0x1
 1988 036a 6301     		.2byte	0x163
 1989 036c 6B000000 		.4byte	0x6b
 1990 0370 7F000000 		.4byte	.LLST4
 1991 0374 11       		.uleb128 0x11
 1992 0375 92000000 		.4byte	.LVL33
 1993 0379 780A0000 		.4byte	0xa78
 1994 037d 10       		.uleb128 0x10
 1995 037e 01       		.uleb128 0x1
 1996 037f 50       		.byte	0x50
 1997 0380 01       		.uleb128 0x1
 1998 0381 31       		.byte	0x31
 1999 0382 00       		.byte	0
 2000 0383 00       		.byte	0
 2001 0384 0B       		.uleb128 0xb
 2002 0385 FB030000 		.4byte	.LASF35
 2003 0389 01       		.byte	0x1
 2004 038a 81       		.byte	0x81
 2005 038b 00000000 		.4byte	.LFB0
 2006 038f 24000000 		.4byte	.LFE0-.LFB0
 2007 0393 01       		.uleb128 0x1
 2008 0394 9C       		.byte	0x9c
 2009 0395 D7030000 		.4byte	0x3d7
 2010 0399 15       		.uleb128 0x15
 2011 039a E6000000 		.4byte	.LASF33
 2012 039e 01       		.byte	0x1
 2013 039f 81       		.byte	0x81
 2014 03a0 6B000000 		.4byte	0x6b
 2015 03a4 A9000000 		.4byte	.LLST5
 2016 03a8 15       		.uleb128 0x15
 2017 03a9 CC040000 		.4byte	.LASF34
 2018 03ad 01       		.byte	0x1
 2019 03ae 81       		.byte	0x81
 2020 03af 6B000000 		.4byte	0x6b
 2021 03b3 CA000000 		.4byte	.LLST6
 2022 03b7 0E       		.uleb128 0xe
 2023 03b8 10000000 		.4byte	.LVL35
 2024 03bc 69010000 		.4byte	0x169
 2025 03c0 11       		.uleb128 0x11
 2026 03c1 1E000000 		.4byte	.LVL36
 2027 03c5 30030000 		.4byte	0x330
 2028 03c9 10       		.uleb128 0x10
 2029 03ca 01       		.uleb128 0x1
 2030 03cb 51       		.byte	0x51
ARM GAS  C:\Users\Alex\AppData\Local\Temp\ccbj9lYo.s 			page 63


 2031 03cc 02       		.uleb128 0x2
 2032 03cd 74       		.byte	0x74
 2033 03ce 00       		.sleb128 0
 2034 03cf 10       		.uleb128 0x10
 2035 03d0 01       		.uleb128 0x1
 2036 03d1 50       		.byte	0x50
 2037 03d2 02       		.uleb128 0x2
 2038 03d3 75       		.byte	0x75
 2039 03d4 00       		.sleb128 0
 2040 03d5 00       		.byte	0
 2041 03d6 00       		.byte	0
 2042 03d7 12       		.uleb128 0x12
 2043 03d8 96030000 		.4byte	.LASF36
 2044 03dc 01       		.byte	0x1
 2045 03dd F201     		.2byte	0x1f2
 2046 03df 00000000 		.4byte	.LFB3
 2047 03e3 64000000 		.4byte	.LFE3-.LFB3
 2048 03e7 01       		.uleb128 0x1
 2049 03e8 9C       		.byte	0x9c
 2050 03e9 FC030000 		.4byte	0x3fc
 2051 03ed 14       		.uleb128 0x14
 2052 03ee 6900     		.ascii	"i\000"
 2053 03f0 01       		.byte	0x1
 2054 03f1 F801     		.2byte	0x1f8
 2055 03f3 6B000000 		.4byte	0x6b
 2056 03f7 EB000000 		.4byte	.LLST7
 2057 03fb 00       		.byte	0
 2058 03fc 16       		.uleb128 0x16
 2059 03fd 35010000 		.4byte	.LASF37
 2060 0401 01       		.byte	0x1
 2061 0402 7B02     		.2byte	0x27b
 2062 0404 6B000000 		.4byte	0x6b
 2063 0408 00000000 		.4byte	.LFB5
 2064 040c 18000000 		.4byte	.LFE5-.LFB5
 2065 0410 01       		.uleb128 0x1
 2066 0411 9C       		.byte	0x9c
 2067 0412 25040000 		.4byte	0x425
 2068 0416 14       		.uleb128 0x14
 2069 0417 7200     		.ascii	"r\000"
 2070 0419 01       		.byte	0x1
 2071 041a 7D02     		.2byte	0x27d
 2072 041c 6B000000 		.4byte	0x6b
 2073 0420 15010000 		.4byte	.LLST8
 2074 0424 00       		.byte	0
 2075 0425 17       		.uleb128 0x17
 2076 0426 09060000 		.4byte	.LASF94
 2077 042a 01       		.byte	0x1
 2078 042b 9402     		.2byte	0x294
 2079 042d 6B000000 		.4byte	0x6b
 2080 0431 00000000 		.4byte	.LFB6
 2081 0435 0C000000 		.4byte	.LFE6-.LFB6
 2082 0439 01       		.uleb128 0x1
 2083 043a 9C       		.byte	0x9c
 2084 043b 16       		.uleb128 0x16
 2085 043c 97060000 		.4byte	.LASF38
 2086 0440 01       		.byte	0x1
 2087 0441 AE02     		.2byte	0x2ae
ARM GAS  C:\Users\Alex\AppData\Local\Temp\ccbj9lYo.s 			page 64


 2088 0443 6B000000 		.4byte	0x6b
 2089 0447 00000000 		.4byte	.LFB7
 2090 044b 20000000 		.4byte	.LFE7-.LFB7
 2091 044f 01       		.uleb128 0x1
 2092 0450 9C       		.byte	0x9c
 2093 0451 66040000 		.4byte	0x466
 2094 0455 14       		.uleb128 0x14
 2095 0456 72657300 		.ascii	"res\000"
 2096 045a 01       		.byte	0x1
 2097 045b B002     		.2byte	0x2b0
 2098 045d 6B000000 		.4byte	0x6b
 2099 0461 28010000 		.4byte	.LLST9
 2100 0465 00       		.byte	0
 2101 0466 16       		.uleb128 0x16
 2102 0467 7B000000 		.4byte	.LASF39
 2103 046b 01       		.byte	0x1
 2104 046c CA02     		.2byte	0x2ca
 2105 046e 6B000000 		.4byte	0x6b
 2106 0472 00000000 		.4byte	.LFB8
 2107 0476 0C000000 		.4byte	.LFE8-.LFB8
 2108 047a 01       		.uleb128 0x1
 2109 047b 9C       		.byte	0x9c
 2110 047c 91040000 		.4byte	0x491
 2111 0480 13       		.uleb128 0x13
 2112 0481 CD000000 		.4byte	.LASF40
 2113 0485 01       		.byte	0x1
 2114 0486 CA02     		.2byte	0x2ca
 2115 0488 6B000000 		.4byte	0x6b
 2116 048c 5E010000 		.4byte	.LLST10
 2117 0490 00       		.byte	0
 2118 0491 16       		.uleb128 0x16
 2119 0492 B4010000 		.4byte	.LASF41
 2120 0496 01       		.byte	0x1
 2121 0497 DF02     		.2byte	0x2df
 2122 0499 6B000000 		.4byte	0x6b
 2123 049d 00000000 		.4byte	.LFB9
 2124 04a1 14000000 		.4byte	.LFE9-.LFB9
 2125 04a5 01       		.uleb128 0x1
 2126 04a6 9C       		.byte	0x9c
 2127 04a7 BC040000 		.4byte	0x4bc
 2128 04ab 13       		.uleb128 0x13
 2129 04ac DD000000 		.4byte	.LASF42
 2130 04b0 01       		.byte	0x1
 2131 04b1 DF02     		.2byte	0x2df
 2132 04b3 6B000000 		.4byte	0x6b
 2133 04b7 7F010000 		.4byte	.LLST11
 2134 04bb 00       		.byte	0
 2135 04bc 16       		.uleb128 0x16
 2136 04bd 8B020000 		.4byte	.LASF43
 2137 04c1 01       		.byte	0x1
 2138 04c2 F802     		.2byte	0x2f8
 2139 04c4 76000000 		.4byte	0x76
 2140 04c8 00000000 		.4byte	.LFB10
 2141 04cc 2C000000 		.4byte	.LFE10-.LFB10
 2142 04d0 01       		.uleb128 0x1
 2143 04d1 9C       		.byte	0x9c
 2144 04d2 06050000 		.4byte	0x506
ARM GAS  C:\Users\Alex\AppData\Local\Temp\ccbj9lYo.s 			page 65


 2145 04d6 13       		.uleb128 0x13
 2146 04d7 DD000000 		.4byte	.LASF42
 2147 04db 01       		.byte	0x1
 2148 04dc F802     		.2byte	0x2f8
 2149 04de 6B000000 		.4byte	0x6b
 2150 04e2 A0010000 		.4byte	.LLST12
 2151 04e6 14       		.uleb128 0x14
 2152 04e7 726900   		.ascii	"ri\000"
 2153 04ea 01       		.byte	0x1
 2154 04eb FA02     		.2byte	0x2fa
 2155 04ed 6B000000 		.4byte	0x6b
 2156 04f1 C1010000 		.4byte	.LLST13
 2157 04f5 18       		.uleb128 0x18
 2158 04f6 90060000 		.4byte	.LASF44
 2159 04fa 01       		.byte	0x1
 2160 04fb FB02     		.2byte	0x2fb
 2161 04fd 76000000 		.4byte	0x76
 2162 0501 D4010000 		.4byte	.LLST14
 2163 0505 00       		.byte	0
 2164 0506 12       		.uleb128 0x12
 2165 0507 88040000 		.4byte	.LASF45
 2166 050b 01       		.byte	0x1
 2167 050c 2203     		.2byte	0x322
 2168 050e 00000000 		.4byte	.LFB11
 2169 0512 78000000 		.4byte	.LFE11-.LFB11
 2170 0516 01       		.uleb128 0x1
 2171 0517 9C       		.byte	0x9c
 2172 0518 AE050000 		.4byte	0x5ae
 2173 051c 13       		.uleb128 0x13
 2174 051d DD000000 		.4byte	.LASF42
 2175 0521 01       		.byte	0x1
 2176 0522 2203     		.2byte	0x322
 2177 0524 6B000000 		.4byte	0x6b
 2178 0528 32020000 		.4byte	.LLST15
 2179 052c 13       		.uleb128 0x13
 2180 052d 90010000 		.4byte	.LASF46
 2181 0531 01       		.byte	0x1
 2182 0532 2203     		.2byte	0x322
 2183 0534 AE050000 		.4byte	0x5ae
 2184 0538 53020000 		.4byte	.LLST16
 2185 053c 14       		.uleb128 0x14
 2186 053d 73726300 		.ascii	"src\000"
 2187 0541 01       		.byte	0x1
 2188 0542 2503     		.2byte	0x325
 2189 0544 76000000 		.4byte	0x76
 2190 0548 A6020000 		.4byte	.LLST17
 2191 054c 14       		.uleb128 0x14
 2192 054d 64737400 		.ascii	"dst\000"
 2193 0551 01       		.byte	0x1
 2194 0552 2603     		.2byte	0x326
 2195 0554 76000000 		.4byte	0x76
 2196 0558 E8020000 		.4byte	.LLST18
 2197 055c 0F       		.uleb128 0xf
 2198 055d 38000000 		.4byte	.LVL68
 2199 0561 890A0000 		.4byte	0xa89
 2200 0565 74050000 		.4byte	0x574
 2201 0569 10       		.uleb128 0x10
ARM GAS  C:\Users\Alex\AppData\Local\Temp\ccbj9lYo.s 			page 66


 2202 056a 01       		.uleb128 0x1
 2203 056b 51       		.byte	0x51
 2204 056c 01       		.uleb128 0x1
 2205 056d 30       		.byte	0x30
 2206 056e 10       		.uleb128 0x10
 2207 056f 01       		.uleb128 0x1
 2208 0570 50       		.byte	0x50
 2209 0571 01       		.uleb128 0x1
 2210 0572 30       		.byte	0x30
 2211 0573 00       		.byte	0
 2212 0574 0F       		.uleb128 0xf
 2213 0575 46000000 		.4byte	.LVL71
 2214 0579 AD0A0000 		.4byte	0xaad
 2215 057d 8C050000 		.4byte	0x58c
 2216 0581 10       		.uleb128 0x10
 2217 0582 01       		.uleb128 0x1
 2218 0583 51       		.byte	0x51
 2219 0584 01       		.uleb128 0x1
 2220 0585 30       		.byte	0x30
 2221 0586 10       		.uleb128 0x10
 2222 0587 01       		.uleb128 0x1
 2223 0588 50       		.byte	0x50
 2224 0589 01       		.uleb128 0x1
 2225 058a 30       		.byte	0x30
 2226 058b 00       		.byte	0
 2227 058c 0F       		.uleb128 0xf
 2228 058d 54000000 		.4byte	.LVL74
 2229 0591 D10A0000 		.4byte	0xad1
 2230 0595 A4050000 		.4byte	0x5a4
 2231 0599 10       		.uleb128 0x10
 2232 059a 01       		.uleb128 0x1
 2233 059b 51       		.byte	0x51
 2234 059c 01       		.uleb128 0x1
 2235 059d 30       		.byte	0x30
 2236 059e 10       		.uleb128 0x10
 2237 059f 01       		.uleb128 0x1
 2238 05a0 50       		.byte	0x50
 2239 05a1 01       		.uleb128 0x1
 2240 05a2 30       		.byte	0x30
 2241 05a3 00       		.byte	0
 2242 05a4 0E       		.uleb128 0xe
 2243 05a5 64000000 		.4byte	.LVL75
 2244 05a9 F50A0000 		.4byte	0xaf5
 2245 05ad 00       		.byte	0
 2246 05ae 07       		.uleb128 0x7
 2247 05af 04       		.byte	0x4
 2248 05b0 B4050000 		.4byte	0x5b4
 2249 05b4 19       		.uleb128 0x19
 2250 05b5 6B000000 		.4byte	0x6b
 2251 05b9 12       		.uleb128 0x12
 2252 05ba B0030000 		.4byte	.LASF47
 2253 05be 01       		.byte	0x1
 2254 05bf 8903     		.2byte	0x389
 2255 05c1 00000000 		.4byte	.LFB12
 2256 05c5 40000000 		.4byte	.LFE12-.LFB12
 2257 05c9 01       		.uleb128 0x1
 2258 05ca 9C       		.byte	0x9c
ARM GAS  C:\Users\Alex\AppData\Local\Temp\ccbj9lYo.s 			page 67


 2259 05cb 00060000 		.4byte	0x600
 2260 05cf 13       		.uleb128 0x13
 2261 05d0 DD000000 		.4byte	.LASF42
 2262 05d4 01       		.byte	0x1
 2263 05d5 8903     		.2byte	0x389
 2264 05d7 6B000000 		.4byte	0x6b
 2265 05db 1F030000 		.4byte	.LLST19
 2266 05df 14       		.uleb128 0x14
 2267 05e0 6900     		.ascii	"i\000"
 2268 05e2 01       		.byte	0x1
 2269 05e3 8B03     		.2byte	0x38b
 2270 05e5 6B000000 		.4byte	0x6b
 2271 05e9 40030000 		.4byte	.LLST20
 2272 05ed 0E       		.uleb128 0xe
 2273 05ee 1E000000 		.4byte	.LVL78
 2274 05f2 000B0000 		.4byte	0xb00
 2275 05f6 0E       		.uleb128 0xe
 2276 05f7 26000000 		.4byte	.LVL79
 2277 05fb 150B0000 		.4byte	0xb15
 2278 05ff 00       		.byte	0
 2279 0600 12       		.uleb128 0x12
 2280 0601 41040000 		.4byte	.LASF48
 2281 0605 01       		.byte	0x1
 2282 0606 3402     		.2byte	0x234
 2283 0608 00000000 		.4byte	.LFB4
 2284 060c 8C000000 		.4byte	.LFE4-.LFB4
 2285 0610 01       		.uleb128 0x1
 2286 0611 9C       		.byte	0x9c
 2287 0612 26060000 		.4byte	0x626
 2288 0616 11       		.uleb128 0x11
 2289 0617 08000000 		.4byte	.LVL83
 2290 061b B9050000 		.4byte	0x5b9
 2291 061f 10       		.uleb128 0x10
 2292 0620 01       		.uleb128 0x1
 2293 0621 50       		.byte	0x50
 2294 0622 01       		.uleb128 0x1
 2295 0623 39       		.byte	0x39
 2296 0624 00       		.byte	0
 2297 0625 00       		.byte	0
 2298 0626 12       		.uleb128 0x12
 2299 0627 24050000 		.4byte	.LASF49
 2300 062b 01       		.byte	0x1
 2301 062c F103     		.2byte	0x3f1
 2302 062e 00000000 		.4byte	.LFB13
 2303 0632 0C010000 		.4byte	.LFE13-.LFB13
 2304 0636 01       		.uleb128 0x1
 2305 0637 9C       		.byte	0x9c
 2306 0638 FA060000 		.4byte	0x6fa
 2307 063c 13       		.uleb128 0x13
 2308 063d DD000000 		.4byte	.LASF42
 2309 0641 01       		.byte	0x1
 2310 0642 F103     		.2byte	0x3f1
 2311 0644 6B000000 		.4byte	0x6b
 2312 0648 5E030000 		.4byte	.LLST21
 2313 064c 13       		.uleb128 0x13
 2314 064d 90010000 		.4byte	.LASF46
 2315 0651 01       		.byte	0x1
ARM GAS  C:\Users\Alex\AppData\Local\Temp\ccbj9lYo.s 			page 68


 2316 0652 F103     		.2byte	0x3f1
 2317 0654 AE050000 		.4byte	0x5ae
 2318 0658 7F030000 		.4byte	.LLST22
 2319 065c 13       		.uleb128 0x13
 2320 065d C0040000 		.4byte	.LASF50
 2321 0661 01       		.byte	0x1
 2322 0662 F103     		.2byte	0x3f1
 2323 0664 76000000 		.4byte	0x76
 2324 0668 AB030000 		.4byte	.LLST23
 2325 066c 1A       		.uleb128 0x1a
 2326 066d 726900   		.ascii	"ri\000"
 2327 0670 01       		.byte	0x1
 2328 0671 F403     		.2byte	0x3f4
 2329 0673 6B000000 		.4byte	0x6b
 2330 0677 14       		.uleb128 0x14
 2331 0678 7000     		.ascii	"p\000"
 2332 067a 01       		.byte	0x1
 2333 067b F503     		.2byte	0x3f5
 2334 067d FA060000 		.4byte	0x6fa
 2335 0681 D7030000 		.4byte	.LLST24
 2336 0685 0F       		.uleb128 0xf
 2337 0686 6C000000 		.4byte	.LVL90
 2338 068a 06050000 		.4byte	0x506
 2339 068e 9F060000 		.4byte	0x69f
 2340 0692 10       		.uleb128 0x10
 2341 0693 01       		.uleb128 0x1
 2342 0694 51       		.byte	0x51
 2343 0695 02       		.uleb128 0x2
 2344 0696 77       		.byte	0x77
 2345 0697 00       		.sleb128 0
 2346 0698 10       		.uleb128 0x10
 2347 0699 01       		.uleb128 0x1
 2348 069a 50       		.byte	0x50
 2349 069b 02       		.uleb128 0x2
 2350 069c 74       		.byte	0x74
 2351 069d 00       		.sleb128 0
 2352 069e 00       		.byte	0
 2353 069f 0E       		.uleb128 0xe
 2354 06a0 8A000000 		.4byte	.LVL91
 2355 06a4 000B0000 		.4byte	0xb00
 2356 06a8 0F       		.uleb128 0xf
 2357 06a9 9C000000 		.4byte	.LVL92
 2358 06ad 260B0000 		.4byte	0xb26
 2359 06b1 C7060000 		.4byte	0x6c7
 2360 06b5 10       		.uleb128 0x10
 2361 06b6 01       		.uleb128 0x1
 2362 06b7 53       		.byte	0x53
 2363 06b8 01       		.uleb128 0x1
 2364 06b9 41       		.byte	0x41
 2365 06ba 10       		.uleb128 0x10
 2366 06bb 01       		.uleb128 0x1
 2367 06bc 52       		.byte	0x52
 2368 06bd 02       		.uleb128 0x2
 2369 06be 09       		.byte	0x9
 2370 06bf FE       		.byte	0xfe
 2371 06c0 10       		.uleb128 0x10
 2372 06c1 01       		.uleb128 0x1
ARM GAS  C:\Users\Alex\AppData\Local\Temp\ccbj9lYo.s 			page 69


 2373 06c2 51       		.byte	0x51
 2374 06c3 02       		.uleb128 0x2
 2375 06c4 76       		.byte	0x76
 2376 06c5 00       		.sleb128 0
 2377 06c6 00       		.byte	0
 2378 06c7 0F       		.uleb128 0xf
 2379 06c8 AA000000 		.4byte	.LVL93
 2380 06cc 4A0B0000 		.4byte	0xb4a
 2381 06d0 E1060000 		.4byte	0x6e1
 2382 06d4 10       		.uleb128 0x10
 2383 06d5 01       		.uleb128 0x1
 2384 06d6 52       		.byte	0x52
 2385 06d7 02       		.uleb128 0x2
 2386 06d8 78       		.byte	0x78
 2387 06d9 00       		.sleb128 0
 2388 06da 10       		.uleb128 0x10
 2389 06db 01       		.uleb128 0x1
 2390 06dc 51       		.byte	0x51
 2391 06dd 02       		.uleb128 0x2
 2392 06de 77       		.byte	0x77
 2393 06df 00       		.sleb128 0
 2394 06e0 00       		.byte	0
 2395 06e1 0E       		.uleb128 0xe
 2396 06e2 B6000000 		.4byte	.LVL94
 2397 06e6 690B0000 		.4byte	0xb69
 2398 06ea 11       		.uleb128 0x11
 2399 06eb C0000000 		.4byte	.LVL95
 2400 06ef 830B0000 		.4byte	0xb83
 2401 06f3 10       		.uleb128 0x10
 2402 06f4 01       		.uleb128 0x1
 2403 06f5 51       		.byte	0x51
 2404 06f6 01       		.uleb128 0x1
 2405 06f7 31       		.byte	0x31
 2406 06f8 00       		.byte	0
 2407 06f9 00       		.byte	0
 2408 06fa 07       		.uleb128 0x7
 2409 06fb 04       		.byte	0x4
 2410 06fc AD000000 		.4byte	0xad
 2411 0700 16       		.uleb128 0x16
 2412 0701 68020000 		.4byte	.LASF51
 2413 0705 01       		.byte	0x1
 2414 0706 9C04     		.2byte	0x49c
 2415 0708 76000000 		.4byte	0x76
 2416 070c 00000000 		.4byte	.LFB14
 2417 0710 B0000000 		.4byte	.LFE14-.LFB14
 2418 0714 01       		.uleb128 0x1
 2419 0715 9C       		.byte	0x9c
 2420 0716 FC070000 		.4byte	0x7fc
 2421 071a 13       		.uleb128 0x13
 2422 071b DD000000 		.4byte	.LASF42
 2423 071f 01       		.byte	0x1
 2424 0720 9C04     		.2byte	0x49c
 2425 0722 6B000000 		.4byte	0x6b
 2426 0726 EA030000 		.4byte	.LLST25
 2427 072a 13       		.uleb128 0x13
 2428 072b 90010000 		.4byte	.LASF46
 2429 072f 01       		.byte	0x1
ARM GAS  C:\Users\Alex\AppData\Local\Temp\ccbj9lYo.s 			page 70


 2430 0730 9C04     		.2byte	0x49c
 2431 0732 FC070000 		.4byte	0x7fc
 2432 0736 24040000 		.4byte	.LLST26
 2433 073a 13       		.uleb128 0x13
 2434 073b C0040000 		.4byte	.LASF50
 2435 073f 01       		.byte	0x1
 2436 0740 9C04     		.2byte	0x49c
 2437 0742 76000000 		.4byte	0x76
 2438 0746 5B040000 		.4byte	.LLST27
 2439 074a 1A       		.uleb128 0x1a
 2440 074b 726900   		.ascii	"ri\000"
 2441 074e 01       		.byte	0x1
 2442 074f 9F04     		.2byte	0x49f
 2443 0751 6B000000 		.4byte	0x6b
 2444 0755 14       		.uleb128 0x14
 2445 0756 7000     		.ascii	"p\000"
 2446 0758 01       		.byte	0x1
 2447 0759 A004     		.2byte	0x4a0
 2448 075b FA060000 		.4byte	0x6fa
 2449 075f 9D040000 		.4byte	.LLST28
 2450 0763 18       		.uleb128 0x18
 2451 0764 3C060000 		.4byte	.LASF52
 2452 0768 01       		.byte	0x1
 2453 0769 A504     		.2byte	0x4a5
 2454 076b 76000000 		.4byte	0x76
 2455 076f B0040000 		.4byte	.LLST29
 2456 0773 0F       		.uleb128 0xf
 2457 0774 24000000 		.4byte	.LVL100
 2458 0778 BC040000 		.4byte	0x4bc
 2459 077c 87070000 		.4byte	0x787
 2460 0780 10       		.uleb128 0x10
 2461 0781 01       		.uleb128 0x1
 2462 0782 50       		.byte	0x50
 2463 0783 02       		.uleb128 0x2
 2464 0784 75       		.byte	0x75
 2465 0785 00       		.sleb128 0
 2466 0786 00       		.byte	0
 2467 0787 0F       		.uleb128 0xf
 2468 0788 3C000000 		.4byte	.LVL104
 2469 078c 06050000 		.4byte	0x506
 2470 0790 A1070000 		.4byte	0x7a1
 2471 0794 10       		.uleb128 0x10
 2472 0795 01       		.uleb128 0x1
 2473 0796 51       		.byte	0x51
 2474 0797 02       		.uleb128 0x2
 2475 0798 77       		.byte	0x77
 2476 0799 00       		.sleb128 0
 2477 079a 10       		.uleb128 0x10
 2478 079b 01       		.uleb128 0x1
 2479 079c 50       		.byte	0x50
 2480 079d 02       		.uleb128 0x2
 2481 079e 75       		.byte	0x75
 2482 079f 00       		.sleb128 0
 2483 07a0 00       		.byte	0
 2484 07a1 0E       		.uleb128 0xe
 2485 07a2 48000000 		.4byte	.LVL105
 2486 07a6 000B0000 		.4byte	0xb00
ARM GAS  C:\Users\Alex\AppData\Local\Temp\ccbj9lYo.s 			page 71


 2487 07aa 0F       		.uleb128 0xf
 2488 07ab 5A000000 		.4byte	.LVL106
 2489 07af 260B0000 		.4byte	0xb26
 2490 07b3 C9070000 		.4byte	0x7c9
 2491 07b7 10       		.uleb128 0x10
 2492 07b8 01       		.uleb128 0x1
 2493 07b9 53       		.byte	0x53
 2494 07ba 01       		.uleb128 0x1
 2495 07bb 42       		.byte	0x42
 2496 07bc 10       		.uleb128 0x10
 2497 07bd 01       		.uleb128 0x1
 2498 07be 52       		.byte	0x52
 2499 07bf 02       		.uleb128 0x2
 2500 07c0 09       		.byte	0x9
 2501 07c1 FE       		.byte	0xfe
 2502 07c2 10       		.uleb128 0x10
 2503 07c3 01       		.uleb128 0x1
 2504 07c4 51       		.byte	0x51
 2505 07c5 02       		.uleb128 0x2
 2506 07c6 76       		.byte	0x76
 2507 07c7 00       		.sleb128 0
 2508 07c8 00       		.byte	0
 2509 07c9 0F       		.uleb128 0xf
 2510 07ca 68000000 		.4byte	.LVL107
 2511 07ce 4A0B0000 		.4byte	0xb4a
 2512 07d2 E3070000 		.4byte	0x7e3
 2513 07d6 10       		.uleb128 0x10
 2514 07d7 01       		.uleb128 0x1
 2515 07d8 52       		.byte	0x52
 2516 07d9 02       		.uleb128 0x2
 2517 07da 77       		.byte	0x77
 2518 07db 00       		.sleb128 0
 2519 07dc 10       		.uleb128 0x10
 2520 07dd 01       		.uleb128 0x1
 2521 07de 51       		.byte	0x51
 2522 07df 02       		.uleb128 0x2
 2523 07e0 79       		.byte	0x79
 2524 07e1 00       		.sleb128 0
 2525 07e2 00       		.byte	0
 2526 07e3 0E       		.uleb128 0xe
 2527 07e4 74000000 		.4byte	.LVL108
 2528 07e8 690B0000 		.4byte	0xb69
 2529 07ec 11       		.uleb128 0x11
 2530 07ed 7E000000 		.4byte	.LVL109
 2531 07f1 830B0000 		.4byte	0xb83
 2532 07f5 10       		.uleb128 0x10
 2533 07f6 01       		.uleb128 0x1
 2534 07f7 51       		.byte	0x51
 2535 07f8 01       		.uleb128 0x1
 2536 07f9 31       		.byte	0x31
 2537 07fa 00       		.byte	0
 2538 07fb 00       		.byte	0
 2539 07fc 07       		.uleb128 0x7
 2540 07fd 04       		.byte	0x4
 2541 07fe 6B000000 		.4byte	0x6b
 2542 0802 12       		.uleb128 0x12
 2543 0803 07010000 		.4byte	.LASF53
ARM GAS  C:\Users\Alex\AppData\Local\Temp\ccbj9lYo.s 			page 72


 2544 0807 01       		.byte	0x1
 2545 0808 0705     		.2byte	0x507
 2546 080a 00000000 		.4byte	.LFB15
 2547 080e 30000000 		.4byte	.LFE15-.LFB15
 2548 0812 01       		.uleb128 0x1
 2549 0813 9C       		.byte	0x9c
 2550 0814 36080000 		.4byte	0x836
 2551 0818 1B       		.uleb128 0x1b
 2552 0819 DD000000 		.4byte	.LASF42
 2553 081d 01       		.byte	0x1
 2554 081e 0705     		.2byte	0x507
 2555 0820 6B000000 		.4byte	0x6b
 2556 0824 01       		.uleb128 0x1
 2557 0825 50       		.byte	0x50
 2558 0826 14       		.uleb128 0x14
 2559 0827 726900   		.ascii	"ri\000"
 2560 082a 01       		.byte	0x1
 2561 082b 0905     		.2byte	0x509
 2562 082d 6B000000 		.4byte	0x6b
 2563 0831 C3040000 		.4byte	.LLST30
 2564 0835 00       		.byte	0
 2565 0836 12       		.uleb128 0x12
 2566 0837 96010000 		.4byte	.LASF54
 2567 083b 01       		.byte	0x1
 2568 083c 2505     		.2byte	0x525
 2569 083e 00000000 		.4byte	.LFB16
 2570 0842 18000000 		.4byte	.LFE16-.LFB16
 2571 0846 01       		.uleb128 0x1
 2572 0847 9C       		.byte	0x9c
 2573 0848 6C080000 		.4byte	0x86c
 2574 084c 13       		.uleb128 0x13
 2575 084d DD000000 		.4byte	.LASF42
 2576 0851 01       		.byte	0x1
 2577 0852 2505     		.2byte	0x525
 2578 0854 6B000000 		.4byte	0x6b
 2579 0858 D6040000 		.4byte	.LLST31
 2580 085c 14       		.uleb128 0x14
 2581 085d 726900   		.ascii	"ri\000"
 2582 0860 01       		.byte	0x1
 2583 0861 2705     		.2byte	0x527
 2584 0863 6B000000 		.4byte	0x6b
 2585 0867 F7040000 		.4byte	.LLST32
 2586 086b 00       		.byte	0
 2587 086c 12       		.uleb128 0x12
 2588 086d 46060000 		.4byte	.LASF55
 2589 0871 01       		.byte	0x1
 2590 0872 4405     		.2byte	0x544
 2591 0874 00000000 		.4byte	.LFB17
 2592 0878 0C000000 		.4byte	.LFE17-.LFB17
 2593 087c 01       		.uleb128 0x1
 2594 087d 9C       		.byte	0x9c
 2595 087e 91080000 		.4byte	0x891
 2596 0882 1B       		.uleb128 0x1b
 2597 0883 B9040000 		.4byte	.LASF56
 2598 0887 01       		.byte	0x1
 2599 0888 4405     		.2byte	0x544
 2600 088a 6B000000 		.4byte	0x6b
ARM GAS  C:\Users\Alex\AppData\Local\Temp\ccbj9lYo.s 			page 73


 2601 088e 01       		.uleb128 0x1
 2602 088f 50       		.byte	0x50
 2603 0890 00       		.byte	0
 2604 0891 16       		.uleb128 0x16
 2605 0892 DE040000 		.4byte	.LASF57
 2606 0896 01       		.byte	0x1
 2607 0897 5905     		.2byte	0x559
 2608 0899 6B000000 		.4byte	0x6b
 2609 089d 00000000 		.4byte	.LFB18
 2610 08a1 20000000 		.4byte	.LFE18-.LFB18
 2611 08a5 01       		.uleb128 0x1
 2612 08a6 9C       		.byte	0x9c
 2613 08a7 DA080000 		.4byte	0x8da
 2614 08ab 13       		.uleb128 0x13
 2615 08ac DD000000 		.4byte	.LASF42
 2616 08b0 01       		.byte	0x1
 2617 08b1 5905     		.2byte	0x559
 2618 08b3 6B000000 		.4byte	0x6b
 2619 08b7 0A050000 		.4byte	.LLST33
 2620 08bb 14       		.uleb128 0x14
 2621 08bc 726900   		.ascii	"ri\000"
 2622 08bf 01       		.byte	0x1
 2623 08c0 5B05     		.2byte	0x55b
 2624 08c2 6B000000 		.4byte	0x6b
 2625 08c6 2B050000 		.4byte	.LLST34
 2626 08ca 14       		.uleb128 0x14
 2627 08cb 637200   		.ascii	"cr\000"
 2628 08ce 01       		.byte	0x1
 2629 08cf 5C05     		.2byte	0x55c
 2630 08d1 6B000000 		.4byte	0x6b
 2631 08d5 3E050000 		.4byte	.LLST35
 2632 08d9 00       		.byte	0
 2633 08da 12       		.uleb128 0x12
 2634 08db 2A020000 		.4byte	.LASF58
 2635 08df 01       		.byte	0x1
 2636 08e0 7E05     		.2byte	0x57e
 2637 08e2 00000000 		.4byte	.LFB19
 2638 08e6 20000000 		.4byte	.LFE19-.LFB19
 2639 08ea 01       		.uleb128 0x1
 2640 08eb 9C       		.byte	0x9c
 2641 08ec FF080000 		.4byte	0x8ff
 2642 08f0 1B       		.uleb128 0x1b
 2643 08f1 5E010000 		.4byte	.LASF59
 2644 08f5 01       		.byte	0x1
 2645 08f6 7E05     		.2byte	0x57e
 2646 08f8 6B000000 		.4byte	0x6b
 2647 08fc 01       		.uleb128 0x1
 2648 08fd 50       		.byte	0x50
 2649 08fe 00       		.byte	0
 2650 08ff 16       		.uleb128 0x16
 2651 0900 19040000 		.4byte	.LASF60
 2652 0904 01       		.byte	0x1
 2653 0905 B505     		.2byte	0x5b5
 2654 0907 6B000000 		.4byte	0x6b
 2655 090b 00000000 		.4byte	.LFB20
 2656 090f 18000000 		.4byte	.LFE20-.LFB20
 2657 0913 01       		.uleb128 0x1
ARM GAS  C:\Users\Alex\AppData\Local\Temp\ccbj9lYo.s 			page 74


 2658 0914 9C       		.byte	0x9c
 2659 0915 2A090000 		.4byte	0x92a
 2660 0919 18       		.uleb128 0x18
 2661 091a 90060000 		.4byte	.LASF44
 2662 091e 01       		.byte	0x1
 2663 091f B705     		.2byte	0x5b7
 2664 0921 6B000000 		.4byte	0x6b
 2665 0925 74050000 		.4byte	.LLST36
 2666 0929 00       		.byte	0
 2667 092a 1C       		.uleb128 0x1c
 2668 092b 18020000 		.4byte	.LASF61
 2669 092f 01       		.byte	0x1
 2670 0930 3B       		.byte	0x3b
 2671 0931 6B000000 		.4byte	0x6b
 2672 0935 05       		.uleb128 0x5
 2673 0936 03       		.byte	0x3
 2674 0937 00000000 		.4byte	USBUART_1_initVar
 2675 093b 1D       		.uleb128 0x1d
 2676 093c 31000000 		.4byte	.LASF62
 2677 0940 03       		.byte	0x3
 2678 0941 4F02     		.2byte	0x24f
 2679 0943 B9000000 		.4byte	0xb9
 2680 0947 1D       		.uleb128 0x1d
 2681 0948 24060000 		.4byte	.LASF63
 2682 094c 03       		.byte	0x3
 2683 094d 5002     		.2byte	0x250
 2684 094f B9000000 		.4byte	0xb9
 2685 0953 1D       		.uleb128 0x1d
 2686 0954 62030000 		.4byte	.LASF64
 2687 0958 03       		.byte	0x3
 2688 0959 5102     		.2byte	0x251
 2689 095b B9000000 		.4byte	0xb9
 2690 095f 1D       		.uleb128 0x1d
 2691 0960 6A010000 		.4byte	.LASF65
 2692 0964 03       		.byte	0x3
 2693 0965 5202     		.2byte	0x252
 2694 0967 B9000000 		.4byte	0xb9
 2695 096b 1D       		.uleb128 0x1d
 2696 096c E2010000 		.4byte	.LASF66
 2697 0970 03       		.byte	0x3
 2698 0971 5302     		.2byte	0x253
 2699 0973 B9000000 		.4byte	0xb9
 2700 0977 1E       		.uleb128 0x1e
 2701 0978 6B000000 		.4byte	0x6b
 2702 097c 87090000 		.4byte	0x987
 2703 0980 1F       		.uleb128 0x1f
 2704 0981 E2000000 		.4byte	0xe2
 2705 0985 01       		.byte	0x1
 2706 0986 00       		.byte	0
 2707 0987 1D       		.uleb128 0x1d
 2708 0988 33030000 		.4byte	.LASF67
 2709 098c 03       		.byte	0x3
 2710 098d 5702     		.2byte	0x257
 2711 098f 93090000 		.4byte	0x993
 2712 0993 06       		.uleb128 0x6
 2713 0994 77090000 		.4byte	0x977
 2714 0998 20       		.uleb128 0x20
ARM GAS  C:\Users\Alex\AppData\Local\Temp\ccbj9lYo.s 			page 75


 2715 0999 48050000 		.4byte	.LASF68
 2716 099d 04       		.byte	0x4
 2717 099e 2E       		.byte	0x2e
 2718 099f B9000000 		.4byte	0xb9
 2719 09a3 20       		.uleb128 0x20
 2720 09a4 07000000 		.4byte	.LASF69
 2721 09a8 04       		.byte	0x4
 2722 09a9 2F       		.byte	0x2f
 2723 09aa AE090000 		.4byte	0x9ae
 2724 09ae 06       		.uleb128 0x6
 2725 09af 77090000 		.4byte	0x977
 2726 09b3 20       		.uleb128 0x20
 2727 09b4 B7020000 		.4byte	.LASF70
 2728 09b8 04       		.byte	0x4
 2729 09b9 31       		.byte	0x31
 2730 09ba B9000000 		.4byte	0xb9
 2731 09be 1E       		.uleb128 0x1e
 2732 09bf 5E010000 		.4byte	0x15e
 2733 09c3 CE090000 		.4byte	0x9ce
 2734 09c7 1F       		.uleb128 0x1f
 2735 09c8 E2000000 		.4byte	0xe2
 2736 09cc 08       		.byte	0x8
 2737 09cd 00       		.byte	0
 2738 09ce 20       		.uleb128 0x20
 2739 09cf 83060000 		.4byte	.LASF71
 2740 09d3 04       		.byte	0x4
 2741 09d4 35       		.byte	0x35
 2742 09d5 D9090000 		.4byte	0x9d9
 2743 09d9 06       		.uleb128 0x6
 2744 09da BE090000 		.4byte	0x9be
 2745 09de 1E       		.uleb128 0x1e
 2746 09df 6B000000 		.4byte	0x6b
 2747 09e3 EE090000 		.4byte	0x9ee
 2748 09e7 1F       		.uleb128 0x1f
 2749 09e8 E2000000 		.4byte	0xe2
 2750 09ec 08       		.byte	0x8
 2751 09ed 00       		.byte	0
 2752 09ee 1C       		.uleb128 0x1c
 2753 09ef 43020000 		.4byte	.LASF72
 2754 09f3 01       		.byte	0x1
 2755 09f4 3D       		.byte	0x3d
 2756 09f5 DE090000 		.4byte	0x9de
 2757 09f9 05       		.uleb128 0x5
 2758 09fa 03       		.byte	0x3
 2759 09fb 00000000 		.4byte	USBUART_1_DmaChan
 2760 09ff 1C       		.uleb128 0x1c
 2761 0a00 73060000 		.4byte	.LASF73
 2762 0a04 01       		.byte	0x1
 2763 0a05 3E       		.byte	0x3e
 2764 0a06 DE090000 		.4byte	0x9de
 2765 0a0a 05       		.uleb128 0x5
 2766 0a0b 03       		.byte	0x3
 2767 0a0c 00000000 		.4byte	USBUART_1_DmaTd
 2768 0a10 20       		.uleb128 0x20
 2769 0a11 F0050000 		.4byte	.LASF74
 2770 0a15 04       		.byte	0x4
 2771 0a16 45       		.byte	0x45
ARM GAS  C:\Users\Alex\AppData\Local\Temp\ccbj9lYo.s 			page 76


 2772 0a17 B9000000 		.4byte	0xb9
 2773 0a1b 21       		.uleb128 0x21
 2774 0a1c A0020000 		.4byte	.LASF83
 2775 0a20 05       		.byte	0x5
 2776 0a21 7E       		.byte	0x7e
 2777 0a22 6B000000 		.4byte	0x6b
 2778 0a26 22       		.uleb128 0x22
 2779 0a27 4D010000 		.4byte	.LASF75
 2780 0a2b 05       		.byte	0x5
 2781 0a2c 78       		.byte	0x78
 2782 0a2d 370A0000 		.4byte	0xa37
 2783 0a31 23       		.uleb128 0x23
 2784 0a32 76000000 		.4byte	0x76
 2785 0a36 00       		.byte	0
 2786 0a37 22       		.uleb128 0x22
 2787 0a38 DA030000 		.4byte	.LASF76
 2788 0a3c 05       		.byte	0x5
 2789 0a3d 7F       		.byte	0x7f
 2790 0a3e 480A0000 		.4byte	0xa48
 2791 0a42 23       		.uleb128 0x23
 2792 0a43 6B000000 		.4byte	0x6b
 2793 0a47 00       		.byte	0
 2794 0a48 24       		.uleb128 0x24
 2795 0a49 7C020000 		.4byte	.LASF79
 2796 0a4d 05       		.byte	0x5
 2797 0a4e 89       		.byte	0x89
 2798 0a4f CF000000 		.4byte	0xcf
 2799 0a53 620A0000 		.4byte	0xa62
 2800 0a57 23       		.uleb128 0x23
 2801 0a58 6B000000 		.4byte	0x6b
 2802 0a5c 23       		.uleb128 0x23
 2803 0a5d CF000000 		.4byte	0xcf
 2804 0a61 00       		.byte	0
 2805 0a62 22       		.uleb128 0x22
 2806 0a63 C3030000 		.4byte	.LASF77
 2807 0a67 05       		.byte	0x5
 2808 0a68 8C       		.byte	0x8c
 2809 0a69 780A0000 		.4byte	0xa78
 2810 0a6d 23       		.uleb128 0x23
 2811 0a6e 6B000000 		.4byte	0x6b
 2812 0a72 23       		.uleb128 0x23
 2813 0a73 6B000000 		.4byte	0x6b
 2814 0a77 00       		.byte	0
 2815 0a78 22       		.uleb128 0x22
 2816 0a79 0B040000 		.4byte	.LASF78
 2817 0a7d 05       		.byte	0x5
 2818 0a7e 7A       		.byte	0x7a
 2819 0a7f 890A0000 		.4byte	0xa89
 2820 0a83 23       		.uleb128 0x23
 2821 0a84 81000000 		.4byte	0x81
 2822 0a88 00       		.byte	0
 2823 0a89 24       		.uleb128 0x24
 2824 0a8a 7A030000 		.4byte	.LASF80
 2825 0a8e 06       		.byte	0x6
 2826 0a8f 1E       		.byte	0x1e
 2827 0a90 6B000000 		.4byte	0x6b
 2828 0a94 AD0A0000 		.4byte	0xaad
ARM GAS  C:\Users\Alex\AppData\Local\Temp\ccbj9lYo.s 			page 77


 2829 0a98 23       		.uleb128 0x23
 2830 0a99 6B000000 		.4byte	0x6b
 2831 0a9d 23       		.uleb128 0x23
 2832 0a9e 6B000000 		.4byte	0x6b
 2833 0aa2 23       		.uleb128 0x23
 2834 0aa3 76000000 		.4byte	0x76
 2835 0aa7 23       		.uleb128 0x23
 2836 0aa8 76000000 		.4byte	0x76
 2837 0aac 00       		.byte	0
 2838 0aad 24       		.uleb128 0x24
 2839 0aae 9D040000 		.4byte	.LASF81
 2840 0ab2 07       		.byte	0x7
 2841 0ab3 1E       		.byte	0x1e
 2842 0ab4 6B000000 		.4byte	0x6b
 2843 0ab8 D10A0000 		.4byte	0xad1
 2844 0abc 23       		.uleb128 0x23
 2845 0abd 6B000000 		.4byte	0x6b
 2846 0ac1 23       		.uleb128 0x23
 2847 0ac2 6B000000 		.4byte	0x6b
 2848 0ac6 23       		.uleb128 0x23
 2849 0ac7 76000000 		.4byte	0x76
 2850 0acb 23       		.uleb128 0x23
 2851 0acc 76000000 		.4byte	0x76
 2852 0ad0 00       		.byte	0
 2853 0ad1 24       		.uleb128 0x24
 2854 0ad2 17030000 		.4byte	.LASF82
 2855 0ad6 08       		.byte	0x8
 2856 0ad7 1E       		.byte	0x1e
 2857 0ad8 6B000000 		.4byte	0x6b
 2858 0adc F50A0000 		.4byte	0xaf5
 2859 0ae0 23       		.uleb128 0x23
 2860 0ae1 6B000000 		.4byte	0x6b
 2861 0ae5 23       		.uleb128 0x23
 2862 0ae6 6B000000 		.4byte	0x6b
 2863 0aea 23       		.uleb128 0x23
 2864 0aeb 76000000 		.4byte	0x76
 2865 0aef 23       		.uleb128 0x23
 2866 0af0 76000000 		.4byte	0x76
 2867 0af4 00       		.byte	0
 2868 0af5 21       		.uleb128 0x21
 2869 0af6 42000000 		.4byte	.LASF84
 2870 0afa 09       		.byte	0x9
 2871 0afb 39       		.byte	0x39
 2872 0afc 6B000000 		.4byte	0x6b
 2873 0b00 24       		.uleb128 0x24
 2874 0b01 22000000 		.4byte	.LASF85
 2875 0b05 09       		.byte	0x9
 2876 0b06 2B       		.byte	0x2b
 2877 0b07 A1000000 		.4byte	0xa1
 2878 0b0b 150B0000 		.4byte	0xb15
 2879 0b0f 23       		.uleb128 0x23
 2880 0b10 6B000000 		.4byte	0x6b
 2881 0b14 00       		.byte	0
 2882 0b15 22       		.uleb128 0x22
 2883 0b16 52000000 		.4byte	.LASF86
 2884 0b1a 09       		.byte	0x9
 2885 0b1b 3A       		.byte	0x3a
ARM GAS  C:\Users\Alex\AppData\Local\Temp\ccbj9lYo.s 			page 78


 2886 0b1c 260B0000 		.4byte	0xb26
 2887 0b20 23       		.uleb128 0x23
 2888 0b21 6B000000 		.4byte	0x6b
 2889 0b25 00       		.byte	0
 2890 0b26 24       		.uleb128 0x24
 2891 0b27 B5000000 		.4byte	.LASF87
 2892 0b2b 09       		.byte	0x9
 2893 0b2c 3C       		.byte	0x3c
 2894 0b2d A1000000 		.4byte	0xa1
 2895 0b31 4A0B0000 		.4byte	0xb4a
 2896 0b35 23       		.uleb128 0x23
 2897 0b36 6B000000 		.4byte	0x6b
 2898 0b3a 23       		.uleb128 0x23
 2899 0b3b 76000000 		.4byte	0x76
 2900 0b3f 23       		.uleb128 0x23
 2901 0b40 6B000000 		.4byte	0x6b
 2902 0b44 23       		.uleb128 0x23
 2903 0b45 6B000000 		.4byte	0x6b
 2904 0b49 00       		.byte	0
 2905 0b4a 24       		.uleb128 0x24
 2906 0b4b 49030000 		.4byte	.LASF88
 2907 0b4f 09       		.byte	0x9
 2908 0b50 40       		.byte	0x40
 2909 0b51 A1000000 		.4byte	0xa1
 2910 0b55 690B0000 		.4byte	0xb69
 2911 0b59 23       		.uleb128 0x23
 2912 0b5a 6B000000 		.4byte	0x6b
 2913 0b5e 23       		.uleb128 0x23
 2914 0b5f 76000000 		.4byte	0x76
 2915 0b63 23       		.uleb128 0x23
 2916 0b64 76000000 		.4byte	0x76
 2917 0b68 00       		.byte	0
 2918 0b69 24       		.uleb128 0x24
 2919 0b6a 56060000 		.4byte	.LASF89
 2920 0b6e 09       		.byte	0x9
 2921 0b6f 30       		.byte	0x30
 2922 0b70 A1000000 		.4byte	0xa1
 2923 0b74 830B0000 		.4byte	0xb83
 2924 0b78 23       		.uleb128 0x23
 2925 0b79 6B000000 		.4byte	0x6b
 2926 0b7d 23       		.uleb128 0x23
 2927 0b7e 6B000000 		.4byte	0x6b
 2928 0b82 00       		.byte	0
 2929 0b83 25       		.uleb128 0x25
 2930 0b84 6D000000 		.4byte	.LASF90
 2931 0b88 09       		.byte	0x9
 2932 0b89 2A       		.byte	0x2a
 2933 0b8a A1000000 		.4byte	0xa1
 2934 0b8e 23       		.uleb128 0x23
 2935 0b8f 6B000000 		.4byte	0x6b
 2936 0b93 23       		.uleb128 0x23
 2937 0b94 6B000000 		.4byte	0x6b
 2938 0b98 00       		.byte	0
 2939 0b99 00       		.byte	0
 2940              		.section	.debug_abbrev,"",%progbits
 2941              	.Ldebug_abbrev0:
 2942 0000 01       		.uleb128 0x1
ARM GAS  C:\Users\Alex\AppData\Local\Temp\ccbj9lYo.s 			page 79


 2943 0001 11       		.uleb128 0x11
 2944 0002 01       		.byte	0x1
 2945 0003 25       		.uleb128 0x25
 2946 0004 0E       		.uleb128 0xe
 2947 0005 13       		.uleb128 0x13
 2948 0006 0B       		.uleb128 0xb
 2949 0007 03       		.uleb128 0x3
 2950 0008 0E       		.uleb128 0xe
 2951 0009 1B       		.uleb128 0x1b
 2952 000a 0E       		.uleb128 0xe
 2953 000b 55       		.uleb128 0x55
 2954 000c 17       		.uleb128 0x17
 2955 000d 11       		.uleb128 0x11
 2956 000e 01       		.uleb128 0x1
 2957 000f 10       		.uleb128 0x10
 2958 0010 17       		.uleb128 0x17
 2959 0011 00       		.byte	0
 2960 0012 00       		.byte	0
 2961 0013 02       		.uleb128 0x2
 2962 0014 24       		.uleb128 0x24
 2963 0015 00       		.byte	0
 2964 0016 0B       		.uleb128 0xb
 2965 0017 0B       		.uleb128 0xb
 2966 0018 3E       		.uleb128 0x3e
 2967 0019 0B       		.uleb128 0xb
 2968 001a 03       		.uleb128 0x3
 2969 001b 0E       		.uleb128 0xe
 2970 001c 00       		.byte	0
 2971 001d 00       		.byte	0
 2972 001e 03       		.uleb128 0x3
 2973 001f 24       		.uleb128 0x24
 2974 0020 00       		.byte	0
 2975 0021 0B       		.uleb128 0xb
 2976 0022 0B       		.uleb128 0xb
 2977 0023 3E       		.uleb128 0x3e
 2978 0024 0B       		.uleb128 0xb
 2979 0025 03       		.uleb128 0x3
 2980 0026 08       		.uleb128 0x8
 2981 0027 00       		.byte	0
 2982 0028 00       		.byte	0
 2983 0029 04       		.uleb128 0x4
 2984 002a 16       		.uleb128 0x16
 2985 002b 00       		.byte	0
 2986 002c 03       		.uleb128 0x3
 2987 002d 0E       		.uleb128 0xe
 2988 002e 3A       		.uleb128 0x3a
 2989 002f 0B       		.uleb128 0xb
 2990 0030 3B       		.uleb128 0x3b
 2991 0031 0B       		.uleb128 0xb
 2992 0032 49       		.uleb128 0x49
 2993 0033 13       		.uleb128 0x13
 2994 0034 00       		.byte	0
 2995 0035 00       		.byte	0
 2996 0036 05       		.uleb128 0x5
 2997 0037 16       		.uleb128 0x16
 2998 0038 00       		.byte	0
 2999 0039 03       		.uleb128 0x3
ARM GAS  C:\Users\Alex\AppData\Local\Temp\ccbj9lYo.s 			page 80


 3000 003a 0E       		.uleb128 0xe
 3001 003b 3A       		.uleb128 0x3a
 3002 003c 0B       		.uleb128 0xb
 3003 003d 3B       		.uleb128 0x3b
 3004 003e 05       		.uleb128 0x5
 3005 003f 49       		.uleb128 0x49
 3006 0040 13       		.uleb128 0x13
 3007 0041 00       		.byte	0
 3008 0042 00       		.byte	0
 3009 0043 06       		.uleb128 0x6
 3010 0044 35       		.uleb128 0x35
 3011 0045 00       		.byte	0
 3012 0046 49       		.uleb128 0x49
 3013 0047 13       		.uleb128 0x13
 3014 0048 00       		.byte	0
 3015 0049 00       		.byte	0
 3016 004a 07       		.uleb128 0x7
 3017 004b 0F       		.uleb128 0xf
 3018 004c 00       		.byte	0
 3019 004d 0B       		.uleb128 0xb
 3020 004e 0B       		.uleb128 0xb
 3021 004f 49       		.uleb128 0x49
 3022 0050 13       		.uleb128 0x13
 3023 0051 00       		.byte	0
 3024 0052 00       		.byte	0
 3025 0053 08       		.uleb128 0x8
 3026 0054 15       		.uleb128 0x15
 3027 0055 00       		.byte	0
 3028 0056 27       		.uleb128 0x27
 3029 0057 19       		.uleb128 0x19
 3030 0058 00       		.byte	0
 3031 0059 00       		.byte	0
 3032 005a 09       		.uleb128 0x9
 3033 005b 13       		.uleb128 0x13
 3034 005c 01       		.byte	0x1
 3035 005d 0B       		.uleb128 0xb
 3036 005e 0B       		.uleb128 0xb
 3037 005f 3A       		.uleb128 0x3a
 3038 0060 0B       		.uleb128 0xb
 3039 0061 3B       		.uleb128 0x3b
 3040 0062 0B       		.uleb128 0xb
 3041 0063 01       		.uleb128 0x1
 3042 0064 13       		.uleb128 0x13
 3043 0065 00       		.byte	0
 3044 0066 00       		.byte	0
 3045 0067 0A       		.uleb128 0xa
 3046 0068 0D       		.uleb128 0xd
 3047 0069 00       		.byte	0
 3048 006a 03       		.uleb128 0x3
 3049 006b 0E       		.uleb128 0xe
 3050 006c 3A       		.uleb128 0x3a
 3051 006d 0B       		.uleb128 0xb
 3052 006e 3B       		.uleb128 0x3b
 3053 006f 0B       		.uleb128 0xb
 3054 0070 49       		.uleb128 0x49
 3055 0071 13       		.uleb128 0x13
 3056 0072 38       		.uleb128 0x38
ARM GAS  C:\Users\Alex\AppData\Local\Temp\ccbj9lYo.s 			page 81


 3057 0073 0B       		.uleb128 0xb
 3058 0074 00       		.byte	0
 3059 0075 00       		.byte	0
 3060 0076 0B       		.uleb128 0xb
 3061 0077 2E       		.uleb128 0x2e
 3062 0078 01       		.byte	0x1
 3063 0079 3F       		.uleb128 0x3f
 3064 007a 19       		.uleb128 0x19
 3065 007b 03       		.uleb128 0x3
 3066 007c 0E       		.uleb128 0xe
 3067 007d 3A       		.uleb128 0x3a
 3068 007e 0B       		.uleb128 0xb
 3069 007f 3B       		.uleb128 0x3b
 3070 0080 0B       		.uleb128 0xb
 3071 0081 27       		.uleb128 0x27
 3072 0082 19       		.uleb128 0x19
 3073 0083 11       		.uleb128 0x11
 3074 0084 01       		.uleb128 0x1
 3075 0085 12       		.uleb128 0x12
 3076 0086 06       		.uleb128 0x6
 3077 0087 40       		.uleb128 0x40
 3078 0088 18       		.uleb128 0x18
 3079 0089 9742     		.uleb128 0x2117
 3080 008b 19       		.uleb128 0x19
 3081 008c 01       		.uleb128 0x1
 3082 008d 13       		.uleb128 0x13
 3083 008e 00       		.byte	0
 3084 008f 00       		.byte	0
 3085 0090 0C       		.uleb128 0xc
 3086 0091 34       		.uleb128 0x34
 3087 0092 00       		.byte	0
 3088 0093 03       		.uleb128 0x3
 3089 0094 0E       		.uleb128 0xe
 3090 0095 3A       		.uleb128 0x3a
 3091 0096 0B       		.uleb128 0xb
 3092 0097 3B       		.uleb128 0x3b
 3093 0098 0B       		.uleb128 0xb
 3094 0099 49       		.uleb128 0x49
 3095 009a 13       		.uleb128 0x13
 3096 009b 02       		.uleb128 0x2
 3097 009c 17       		.uleb128 0x17
 3098 009d 00       		.byte	0
 3099 009e 00       		.byte	0
 3100 009f 0D       		.uleb128 0xd
 3101 00a0 34       		.uleb128 0x34
 3102 00a1 00       		.byte	0
 3103 00a2 03       		.uleb128 0x3
 3104 00a3 08       		.uleb128 0x8
 3105 00a4 3A       		.uleb128 0x3a
 3106 00a5 0B       		.uleb128 0xb
 3107 00a6 3B       		.uleb128 0x3b
 3108 00a7 0B       		.uleb128 0xb
 3109 00a8 49       		.uleb128 0x49
 3110 00a9 13       		.uleb128 0x13
 3111 00aa 02       		.uleb128 0x2
 3112 00ab 17       		.uleb128 0x17
 3113 00ac 00       		.byte	0
ARM GAS  C:\Users\Alex\AppData\Local\Temp\ccbj9lYo.s 			page 82


 3114 00ad 00       		.byte	0
 3115 00ae 0E       		.uleb128 0xe
 3116 00af 898201   		.uleb128 0x4109
 3117 00b2 00       		.byte	0
 3118 00b3 11       		.uleb128 0x11
 3119 00b4 01       		.uleb128 0x1
 3120 00b5 31       		.uleb128 0x31
 3121 00b6 13       		.uleb128 0x13
 3122 00b7 00       		.byte	0
 3123 00b8 00       		.byte	0
 3124 00b9 0F       		.uleb128 0xf
 3125 00ba 898201   		.uleb128 0x4109
 3126 00bd 01       		.byte	0x1
 3127 00be 11       		.uleb128 0x11
 3128 00bf 01       		.uleb128 0x1
 3129 00c0 31       		.uleb128 0x31
 3130 00c1 13       		.uleb128 0x13
 3131 00c2 01       		.uleb128 0x1
 3132 00c3 13       		.uleb128 0x13
 3133 00c4 00       		.byte	0
 3134 00c5 00       		.byte	0
 3135 00c6 10       		.uleb128 0x10
 3136 00c7 8A8201   		.uleb128 0x410a
 3137 00ca 00       		.byte	0
 3138 00cb 02       		.uleb128 0x2
 3139 00cc 18       		.uleb128 0x18
 3140 00cd 9142     		.uleb128 0x2111
 3141 00cf 18       		.uleb128 0x18
 3142 00d0 00       		.byte	0
 3143 00d1 00       		.byte	0
 3144 00d2 11       		.uleb128 0x11
 3145 00d3 898201   		.uleb128 0x4109
 3146 00d6 01       		.byte	0x1
 3147 00d7 11       		.uleb128 0x11
 3148 00d8 01       		.uleb128 0x1
 3149 00d9 31       		.uleb128 0x31
 3150 00da 13       		.uleb128 0x13
 3151 00db 00       		.byte	0
 3152 00dc 00       		.byte	0
 3153 00dd 12       		.uleb128 0x12
 3154 00de 2E       		.uleb128 0x2e
 3155 00df 01       		.byte	0x1
 3156 00e0 3F       		.uleb128 0x3f
 3157 00e1 19       		.uleb128 0x19
 3158 00e2 03       		.uleb128 0x3
 3159 00e3 0E       		.uleb128 0xe
 3160 00e4 3A       		.uleb128 0x3a
 3161 00e5 0B       		.uleb128 0xb
 3162 00e6 3B       		.uleb128 0x3b
 3163 00e7 05       		.uleb128 0x5
 3164 00e8 27       		.uleb128 0x27
 3165 00e9 19       		.uleb128 0x19
 3166 00ea 11       		.uleb128 0x11
 3167 00eb 01       		.uleb128 0x1
 3168 00ec 12       		.uleb128 0x12
 3169 00ed 06       		.uleb128 0x6
 3170 00ee 40       		.uleb128 0x40
ARM GAS  C:\Users\Alex\AppData\Local\Temp\ccbj9lYo.s 			page 83


 3171 00ef 18       		.uleb128 0x18
 3172 00f0 9742     		.uleb128 0x2117
 3173 00f2 19       		.uleb128 0x19
 3174 00f3 01       		.uleb128 0x1
 3175 00f4 13       		.uleb128 0x13
 3176 00f5 00       		.byte	0
 3177 00f6 00       		.byte	0
 3178 00f7 13       		.uleb128 0x13
 3179 00f8 05       		.uleb128 0x5
 3180 00f9 00       		.byte	0
 3181 00fa 03       		.uleb128 0x3
 3182 00fb 0E       		.uleb128 0xe
 3183 00fc 3A       		.uleb128 0x3a
 3184 00fd 0B       		.uleb128 0xb
 3185 00fe 3B       		.uleb128 0x3b
 3186 00ff 05       		.uleb128 0x5
 3187 0100 49       		.uleb128 0x49
 3188 0101 13       		.uleb128 0x13
 3189 0102 02       		.uleb128 0x2
 3190 0103 17       		.uleb128 0x17
 3191 0104 00       		.byte	0
 3192 0105 00       		.byte	0
 3193 0106 14       		.uleb128 0x14
 3194 0107 34       		.uleb128 0x34
 3195 0108 00       		.byte	0
 3196 0109 03       		.uleb128 0x3
 3197 010a 08       		.uleb128 0x8
 3198 010b 3A       		.uleb128 0x3a
 3199 010c 0B       		.uleb128 0xb
 3200 010d 3B       		.uleb128 0x3b
 3201 010e 05       		.uleb128 0x5
 3202 010f 49       		.uleb128 0x49
 3203 0110 13       		.uleb128 0x13
 3204 0111 02       		.uleb128 0x2
 3205 0112 17       		.uleb128 0x17
 3206 0113 00       		.byte	0
 3207 0114 00       		.byte	0
 3208 0115 15       		.uleb128 0x15
 3209 0116 05       		.uleb128 0x5
 3210 0117 00       		.byte	0
 3211 0118 03       		.uleb128 0x3
 3212 0119 0E       		.uleb128 0xe
 3213 011a 3A       		.uleb128 0x3a
 3214 011b 0B       		.uleb128 0xb
 3215 011c 3B       		.uleb128 0x3b
 3216 011d 0B       		.uleb128 0xb
 3217 011e 49       		.uleb128 0x49
 3218 011f 13       		.uleb128 0x13
 3219 0120 02       		.uleb128 0x2
 3220 0121 17       		.uleb128 0x17
 3221 0122 00       		.byte	0
 3222 0123 00       		.byte	0
 3223 0124 16       		.uleb128 0x16
 3224 0125 2E       		.uleb128 0x2e
 3225 0126 01       		.byte	0x1
 3226 0127 3F       		.uleb128 0x3f
 3227 0128 19       		.uleb128 0x19
ARM GAS  C:\Users\Alex\AppData\Local\Temp\ccbj9lYo.s 			page 84


 3228 0129 03       		.uleb128 0x3
 3229 012a 0E       		.uleb128 0xe
 3230 012b 3A       		.uleb128 0x3a
 3231 012c 0B       		.uleb128 0xb
 3232 012d 3B       		.uleb128 0x3b
 3233 012e 05       		.uleb128 0x5
 3234 012f 27       		.uleb128 0x27
 3235 0130 19       		.uleb128 0x19
 3236 0131 49       		.uleb128 0x49
 3237 0132 13       		.uleb128 0x13
 3238 0133 11       		.uleb128 0x11
 3239 0134 01       		.uleb128 0x1
 3240 0135 12       		.uleb128 0x12
 3241 0136 06       		.uleb128 0x6
 3242 0137 40       		.uleb128 0x40
 3243 0138 18       		.uleb128 0x18
 3244 0139 9742     		.uleb128 0x2117
 3245 013b 19       		.uleb128 0x19
 3246 013c 01       		.uleb128 0x1
 3247 013d 13       		.uleb128 0x13
 3248 013e 00       		.byte	0
 3249 013f 00       		.byte	0
 3250 0140 17       		.uleb128 0x17
 3251 0141 2E       		.uleb128 0x2e
 3252 0142 00       		.byte	0
 3253 0143 3F       		.uleb128 0x3f
 3254 0144 19       		.uleb128 0x19
 3255 0145 03       		.uleb128 0x3
 3256 0146 0E       		.uleb128 0xe
 3257 0147 3A       		.uleb128 0x3a
 3258 0148 0B       		.uleb128 0xb
 3259 0149 3B       		.uleb128 0x3b
 3260 014a 05       		.uleb128 0x5
 3261 014b 27       		.uleb128 0x27
 3262 014c 19       		.uleb128 0x19
 3263 014d 49       		.uleb128 0x49
 3264 014e 13       		.uleb128 0x13
 3265 014f 11       		.uleb128 0x11
 3266 0150 01       		.uleb128 0x1
 3267 0151 12       		.uleb128 0x12
 3268 0152 06       		.uleb128 0x6
 3269 0153 40       		.uleb128 0x40
 3270 0154 18       		.uleb128 0x18
 3271 0155 9742     		.uleb128 0x2117
 3272 0157 19       		.uleb128 0x19
 3273 0158 00       		.byte	0
 3274 0159 00       		.byte	0
 3275 015a 18       		.uleb128 0x18
 3276 015b 34       		.uleb128 0x34
 3277 015c 00       		.byte	0
 3278 015d 03       		.uleb128 0x3
 3279 015e 0E       		.uleb128 0xe
 3280 015f 3A       		.uleb128 0x3a
 3281 0160 0B       		.uleb128 0xb
 3282 0161 3B       		.uleb128 0x3b
 3283 0162 05       		.uleb128 0x5
 3284 0163 49       		.uleb128 0x49
ARM GAS  C:\Users\Alex\AppData\Local\Temp\ccbj9lYo.s 			page 85


 3285 0164 13       		.uleb128 0x13
 3286 0165 02       		.uleb128 0x2
 3287 0166 17       		.uleb128 0x17
 3288 0167 00       		.byte	0
 3289 0168 00       		.byte	0
 3290 0169 19       		.uleb128 0x19
 3291 016a 26       		.uleb128 0x26
 3292 016b 00       		.byte	0
 3293 016c 49       		.uleb128 0x49
 3294 016d 13       		.uleb128 0x13
 3295 016e 00       		.byte	0
 3296 016f 00       		.byte	0
 3297 0170 1A       		.uleb128 0x1a
 3298 0171 34       		.uleb128 0x34
 3299 0172 00       		.byte	0
 3300 0173 03       		.uleb128 0x3
 3301 0174 08       		.uleb128 0x8
 3302 0175 3A       		.uleb128 0x3a
 3303 0176 0B       		.uleb128 0xb
 3304 0177 3B       		.uleb128 0x3b
 3305 0178 05       		.uleb128 0x5
 3306 0179 49       		.uleb128 0x49
 3307 017a 13       		.uleb128 0x13
 3308 017b 00       		.byte	0
 3309 017c 00       		.byte	0
 3310 017d 1B       		.uleb128 0x1b
 3311 017e 05       		.uleb128 0x5
 3312 017f 00       		.byte	0
 3313 0180 03       		.uleb128 0x3
 3314 0181 0E       		.uleb128 0xe
 3315 0182 3A       		.uleb128 0x3a
 3316 0183 0B       		.uleb128 0xb
 3317 0184 3B       		.uleb128 0x3b
 3318 0185 05       		.uleb128 0x5
 3319 0186 49       		.uleb128 0x49
 3320 0187 13       		.uleb128 0x13
 3321 0188 02       		.uleb128 0x2
 3322 0189 18       		.uleb128 0x18
 3323 018a 00       		.byte	0
 3324 018b 00       		.byte	0
 3325 018c 1C       		.uleb128 0x1c
 3326 018d 34       		.uleb128 0x34
 3327 018e 00       		.byte	0
 3328 018f 03       		.uleb128 0x3
 3329 0190 0E       		.uleb128 0xe
 3330 0191 3A       		.uleb128 0x3a
 3331 0192 0B       		.uleb128 0xb
 3332 0193 3B       		.uleb128 0x3b
 3333 0194 0B       		.uleb128 0xb
 3334 0195 49       		.uleb128 0x49
 3335 0196 13       		.uleb128 0x13
 3336 0197 3F       		.uleb128 0x3f
 3337 0198 19       		.uleb128 0x19
 3338 0199 02       		.uleb128 0x2
 3339 019a 18       		.uleb128 0x18
 3340 019b 00       		.byte	0
 3341 019c 00       		.byte	0
ARM GAS  C:\Users\Alex\AppData\Local\Temp\ccbj9lYo.s 			page 86


 3342 019d 1D       		.uleb128 0x1d
 3343 019e 34       		.uleb128 0x34
 3344 019f 00       		.byte	0
 3345 01a0 03       		.uleb128 0x3
 3346 01a1 0E       		.uleb128 0xe
 3347 01a2 3A       		.uleb128 0x3a
 3348 01a3 0B       		.uleb128 0xb
 3349 01a4 3B       		.uleb128 0x3b
 3350 01a5 05       		.uleb128 0x5
 3351 01a6 49       		.uleb128 0x49
 3352 01a7 13       		.uleb128 0x13
 3353 01a8 3F       		.uleb128 0x3f
 3354 01a9 19       		.uleb128 0x19
 3355 01aa 3C       		.uleb128 0x3c
 3356 01ab 19       		.uleb128 0x19
 3357 01ac 00       		.byte	0
 3358 01ad 00       		.byte	0
 3359 01ae 1E       		.uleb128 0x1e
 3360 01af 01       		.uleb128 0x1
 3361 01b0 01       		.byte	0x1
 3362 01b1 49       		.uleb128 0x49
 3363 01b2 13       		.uleb128 0x13
 3364 01b3 01       		.uleb128 0x1
 3365 01b4 13       		.uleb128 0x13
 3366 01b5 00       		.byte	0
 3367 01b6 00       		.byte	0
 3368 01b7 1F       		.uleb128 0x1f
 3369 01b8 21       		.uleb128 0x21
 3370 01b9 00       		.byte	0
 3371 01ba 49       		.uleb128 0x49
 3372 01bb 13       		.uleb128 0x13
 3373 01bc 2F       		.uleb128 0x2f
 3374 01bd 0B       		.uleb128 0xb
 3375 01be 00       		.byte	0
 3376 01bf 00       		.byte	0
 3377 01c0 20       		.uleb128 0x20
 3378 01c1 34       		.uleb128 0x34
 3379 01c2 00       		.byte	0
 3380 01c3 03       		.uleb128 0x3
 3381 01c4 0E       		.uleb128 0xe
 3382 01c5 3A       		.uleb128 0x3a
 3383 01c6 0B       		.uleb128 0xb
 3384 01c7 3B       		.uleb128 0x3b
 3385 01c8 0B       		.uleb128 0xb
 3386 01c9 49       		.uleb128 0x49
 3387 01ca 13       		.uleb128 0x13
 3388 01cb 3F       		.uleb128 0x3f
 3389 01cc 19       		.uleb128 0x19
 3390 01cd 3C       		.uleb128 0x3c
 3391 01ce 19       		.uleb128 0x19
 3392 01cf 00       		.byte	0
 3393 01d0 00       		.byte	0
 3394 01d1 21       		.uleb128 0x21
 3395 01d2 2E       		.uleb128 0x2e
 3396 01d3 00       		.byte	0
 3397 01d4 3F       		.uleb128 0x3f
 3398 01d5 19       		.uleb128 0x19
ARM GAS  C:\Users\Alex\AppData\Local\Temp\ccbj9lYo.s 			page 87


 3399 01d6 03       		.uleb128 0x3
 3400 01d7 0E       		.uleb128 0xe
 3401 01d8 3A       		.uleb128 0x3a
 3402 01d9 0B       		.uleb128 0xb
 3403 01da 3B       		.uleb128 0x3b
 3404 01db 0B       		.uleb128 0xb
 3405 01dc 27       		.uleb128 0x27
 3406 01dd 19       		.uleb128 0x19
 3407 01de 49       		.uleb128 0x49
 3408 01df 13       		.uleb128 0x13
 3409 01e0 3C       		.uleb128 0x3c
 3410 01e1 19       		.uleb128 0x19
 3411 01e2 00       		.byte	0
 3412 01e3 00       		.byte	0
 3413 01e4 22       		.uleb128 0x22
 3414 01e5 2E       		.uleb128 0x2e
 3415 01e6 01       		.byte	0x1
 3416 01e7 3F       		.uleb128 0x3f
 3417 01e8 19       		.uleb128 0x19
 3418 01e9 03       		.uleb128 0x3
 3419 01ea 0E       		.uleb128 0xe
 3420 01eb 3A       		.uleb128 0x3a
 3421 01ec 0B       		.uleb128 0xb
 3422 01ed 3B       		.uleb128 0x3b
 3423 01ee 0B       		.uleb128 0xb
 3424 01ef 27       		.uleb128 0x27
 3425 01f0 19       		.uleb128 0x19
 3426 01f1 3C       		.uleb128 0x3c
 3427 01f2 19       		.uleb128 0x19
 3428 01f3 01       		.uleb128 0x1
 3429 01f4 13       		.uleb128 0x13
 3430 01f5 00       		.byte	0
 3431 01f6 00       		.byte	0
 3432 01f7 23       		.uleb128 0x23
 3433 01f8 05       		.uleb128 0x5
 3434 01f9 00       		.byte	0
 3435 01fa 49       		.uleb128 0x49
 3436 01fb 13       		.uleb128 0x13
 3437 01fc 00       		.byte	0
 3438 01fd 00       		.byte	0
 3439 01fe 24       		.uleb128 0x24
 3440 01ff 2E       		.uleb128 0x2e
 3441 0200 01       		.byte	0x1
 3442 0201 3F       		.uleb128 0x3f
 3443 0202 19       		.uleb128 0x19
 3444 0203 03       		.uleb128 0x3
 3445 0204 0E       		.uleb128 0xe
 3446 0205 3A       		.uleb128 0x3a
 3447 0206 0B       		.uleb128 0xb
 3448 0207 3B       		.uleb128 0x3b
 3449 0208 0B       		.uleb128 0xb
 3450 0209 27       		.uleb128 0x27
 3451 020a 19       		.uleb128 0x19
 3452 020b 49       		.uleb128 0x49
 3453 020c 13       		.uleb128 0x13
 3454 020d 3C       		.uleb128 0x3c
 3455 020e 19       		.uleb128 0x19
ARM GAS  C:\Users\Alex\AppData\Local\Temp\ccbj9lYo.s 			page 88


 3456 020f 01       		.uleb128 0x1
 3457 0210 13       		.uleb128 0x13
 3458 0211 00       		.byte	0
 3459 0212 00       		.byte	0
 3460 0213 25       		.uleb128 0x25
 3461 0214 2E       		.uleb128 0x2e
 3462 0215 01       		.byte	0x1
 3463 0216 3F       		.uleb128 0x3f
 3464 0217 19       		.uleb128 0x19
 3465 0218 03       		.uleb128 0x3
 3466 0219 0E       		.uleb128 0xe
 3467 021a 3A       		.uleb128 0x3a
 3468 021b 0B       		.uleb128 0xb
 3469 021c 3B       		.uleb128 0x3b
 3470 021d 0B       		.uleb128 0xb
 3471 021e 27       		.uleb128 0x27
 3472 021f 19       		.uleb128 0x19
 3473 0220 49       		.uleb128 0x49
 3474 0221 13       		.uleb128 0x13
 3475 0222 3C       		.uleb128 0x3c
 3476 0223 19       		.uleb128 0x19
 3477 0224 00       		.byte	0
 3478 0225 00       		.byte	0
 3479 0226 00       		.byte	0
 3480              		.section	.debug_loc,"",%progbits
 3481              	.Ldebug_loc0:
 3482              	.LLST0:
 3483 0000 08000000 		.4byte	.LVL1
 3484 0004 1A010000 		.4byte	.LVL25
 3485 0008 0100     		.2byte	0x1
 3486 000a 55       		.byte	0x55
 3487 000b 00000000 		.4byte	0
 3488 000f 00000000 		.4byte	0
 3489              	.LLST1:
 3490 0013 92000000 		.4byte	.LVL6
 3491 0017 94000000 		.4byte	.LVL7
 3492 001b 0200     		.2byte	0x2
 3493 001d 30       		.byte	0x30
 3494 001e 9F       		.byte	0x9f
 3495 001f 94000000 		.4byte	.LVL7
 3496 0023 9C000000 		.4byte	.LVL8
 3497 0027 0100     		.2byte	0x1
 3498 0029 53       		.byte	0x53
 3499 002a 9E000000 		.4byte	.LVL9
 3500 002e A7000000 		.4byte	.LVL10-1
 3501 0032 0100     		.2byte	0x1
 3502 0034 53       		.byte	0x53
 3503 0035 00000000 		.4byte	0
 3504 0039 00000000 		.4byte	0
 3505              	.LLST2:
 3506 003d 00000000 		.4byte	.LVL26
 3507 0041 8E000000 		.4byte	.LVL32
 3508 0045 0100     		.2byte	0x1
 3509 0047 50       		.byte	0x50
 3510 0048 8E000000 		.4byte	.LVL32
 3511 004c D8000000 		.4byte	.LFE2
 3512 0050 0400     		.2byte	0x4
ARM GAS  C:\Users\Alex\AppData\Local\Temp\ccbj9lYo.s 			page 89


 3513 0052 F3       		.byte	0xf3
 3514 0053 01       		.uleb128 0x1
 3515 0054 50       		.byte	0x50
 3516 0055 9F       		.byte	0x9f
 3517 0056 00000000 		.4byte	0
 3518 005a 00000000 		.4byte	0
 3519              	.LLST3:
 3520 005e 00000000 		.4byte	.LVL26
 3521 0062 91000000 		.4byte	.LVL33-1
 3522 0066 0100     		.2byte	0x1
 3523 0068 51       		.byte	0x51
 3524 0069 91000000 		.4byte	.LVL33-1
 3525 006d D8000000 		.4byte	.LFE2
 3526 0071 0400     		.2byte	0x4
 3527 0073 F3       		.byte	0xf3
 3528 0074 01       		.uleb128 0x1
 3529 0075 51       		.byte	0x51
 3530 0076 9F       		.byte	0x9f
 3531 0077 00000000 		.4byte	0
 3532 007b 00000000 		.4byte	0
 3533              	.LLST4:
 3534 007f 02000000 		.4byte	.LVL27
 3535 0083 06000000 		.4byte	.LVL28
 3536 0087 0200     		.2byte	0x2
 3537 0089 30       		.byte	0x30
 3538 008a 9F       		.byte	0x9f
 3539 008b 06000000 		.4byte	.LVL28
 3540 008f 0E000000 		.4byte	.LVL29
 3541 0093 0100     		.2byte	0x1
 3542 0095 53       		.byte	0x53
 3543 0096 10000000 		.4byte	.LVL30
 3544 009a 16000000 		.4byte	.LVL31
 3545 009e 0100     		.2byte	0x1
 3546 00a0 53       		.byte	0x53
 3547 00a1 00000000 		.4byte	0
 3548 00a5 00000000 		.4byte	0
 3549              	.LLST5:
 3550 00a9 00000000 		.4byte	.LVL34
 3551 00ad 0F000000 		.4byte	.LVL35-1
 3552 00b1 0100     		.2byte	0x1
 3553 00b3 50       		.byte	0x50
 3554 00b4 0F000000 		.4byte	.LVL35-1
 3555 00b8 24000000 		.4byte	.LFE0
 3556 00bc 0400     		.2byte	0x4
 3557 00be F3       		.byte	0xf3
 3558 00bf 01       		.uleb128 0x1
 3559 00c0 50       		.byte	0x50
 3560 00c1 9F       		.byte	0x9f
 3561 00c2 00000000 		.4byte	0
 3562 00c6 00000000 		.4byte	0
 3563              	.LLST6:
 3564 00ca 00000000 		.4byte	.LVL34
 3565 00ce 0F000000 		.4byte	.LVL35-1
 3566 00d2 0100     		.2byte	0x1
 3567 00d4 51       		.byte	0x51
 3568 00d5 0F000000 		.4byte	.LVL35-1
 3569 00d9 24000000 		.4byte	.LFE0
ARM GAS  C:\Users\Alex\AppData\Local\Temp\ccbj9lYo.s 			page 90


 3570 00dd 0400     		.2byte	0x4
 3571 00df F3       		.byte	0xf3
 3572 00e0 01       		.uleb128 0x1
 3573 00e1 51       		.byte	0x51
 3574 00e2 9F       		.byte	0x9f
 3575 00e3 00000000 		.4byte	0
 3576 00e7 00000000 		.4byte	0
 3577              	.LLST7:
 3578 00eb 00000000 		.4byte	.LVL37
 3579 00ef 04000000 		.4byte	.LVL38
 3580 00f3 0200     		.2byte	0x2
 3581 00f5 30       		.byte	0x30
 3582 00f6 9F       		.byte	0x9f
 3583 00f7 04000000 		.4byte	.LVL38
 3584 00fb 0C000000 		.4byte	.LVL39
 3585 00ff 0100     		.2byte	0x1
 3586 0101 53       		.byte	0x53
 3587 0102 0E000000 		.4byte	.LVL40
 3588 0106 14000000 		.4byte	.LVL41
 3589 010a 0100     		.2byte	0x1
 3590 010c 53       		.byte	0x53
 3591 010d 00000000 		.4byte	0
 3592 0111 00000000 		.4byte	0
 3593              	.LLST8:
 3594 0115 06000000 		.4byte	.LVL42
 3595 0119 10000000 		.4byte	.LVL43
 3596 011d 0100     		.2byte	0x1
 3597 011f 50       		.byte	0x50
 3598 0120 00000000 		.4byte	0
 3599 0124 00000000 		.4byte	0
 3600              	.LLST9:
 3601 0128 00000000 		.4byte	.LVL44
 3602 012c 10000000 		.4byte	.LVL45
 3603 0130 0200     		.2byte	0x2
 3604 0132 30       		.byte	0x30
 3605 0133 9F       		.byte	0x9f
 3606 0134 10000000 		.4byte	.LVL45
 3607 0138 16000000 		.4byte	.LVL46
 3608 013c 0100     		.2byte	0x1
 3609 013e 50       		.byte	0x50
 3610 013f 16000000 		.4byte	.LVL46
 3611 0143 18000000 		.4byte	.LVL47
 3612 0147 0200     		.2byte	0x2
 3613 0149 30       		.byte	0x30
 3614 014a 9F       		.byte	0x9f
 3615 014b 18000000 		.4byte	.LVL47
 3616 014f 20000000 		.4byte	.LFE7
 3617 0153 0100     		.2byte	0x1
 3618 0155 50       		.byte	0x50
 3619 0156 00000000 		.4byte	0
 3620 015a 00000000 		.4byte	0
 3621              	.LLST10:
 3622 015e 00000000 		.4byte	.LVL48
 3623 0162 04000000 		.4byte	.LVL49
 3624 0166 0100     		.2byte	0x1
 3625 0168 50       		.byte	0x50
 3626 0169 04000000 		.4byte	.LVL49
ARM GAS  C:\Users\Alex\AppData\Local\Temp\ccbj9lYo.s 			page 91


 3627 016d 0C000000 		.4byte	.LFE8
 3628 0171 0400     		.2byte	0x4
 3629 0173 F3       		.byte	0xf3
 3630 0174 01       		.uleb128 0x1
 3631 0175 50       		.byte	0x50
 3632 0176 9F       		.byte	0x9f
 3633 0177 00000000 		.4byte	0
 3634 017b 00000000 		.4byte	0
 3635              	.LLST11:
 3636 017f 00000000 		.4byte	.LVL50
 3637 0183 04000000 		.4byte	.LVL51
 3638 0187 0100     		.2byte	0x1
 3639 0189 50       		.byte	0x50
 3640 018a 04000000 		.4byte	.LVL51
 3641 018e 14000000 		.4byte	.LFE9
 3642 0192 0400     		.2byte	0x4
 3643 0194 F3       		.byte	0xf3
 3644 0195 01       		.uleb128 0x1
 3645 0196 50       		.byte	0x50
 3646 0197 9F       		.byte	0x9f
 3647 0198 00000000 		.4byte	0
 3648 019c 00000000 		.4byte	0
 3649              	.LLST12:
 3650 01a0 00000000 		.4byte	.LVL52
 3651 01a4 02000000 		.4byte	.LVL53
 3652 01a8 0100     		.2byte	0x1
 3653 01aa 50       		.byte	0x50
 3654 01ab 02000000 		.4byte	.LVL53
 3655 01af 2C000000 		.4byte	.LFE10
 3656 01b3 0400     		.2byte	0x4
 3657 01b5 F3       		.byte	0xf3
 3658 01b6 01       		.uleb128 0x1
 3659 01b7 50       		.byte	0x50
 3660 01b8 9F       		.byte	0x9f
 3661 01b9 00000000 		.4byte	0
 3662 01bd 00000000 		.4byte	0
 3663              	.LLST13:
 3664 01c1 0C000000 		.4byte	.LVL54
 3665 01c5 1C000000 		.4byte	.LVL56
 3666 01c9 0100     		.2byte	0x1
 3667 01cb 50       		.byte	0x50
 3668 01cc 00000000 		.4byte	0
 3669 01d0 00000000 		.4byte	0
 3670              	.LLST14:
 3671 01d4 00000000 		.4byte	.LVL52
 3672 01d8 14000000 		.4byte	.LVL55
 3673 01dc 0200     		.2byte	0x2
 3674 01de 30       		.byte	0x30
 3675 01df 9F       		.byte	0x9f
 3676 01e0 14000000 		.4byte	.LVL55
 3677 01e4 1C000000 		.4byte	.LVL56
 3678 01e8 0600     		.2byte	0x6
 3679 01ea 72       		.byte	0x72
 3680 01eb 00       		.sleb128 0
 3681 01ec 08       		.byte	0x8
 3682 01ed FF       		.byte	0xff
 3683 01ee 1A       		.byte	0x1a
ARM GAS  C:\Users\Alex\AppData\Local\Temp\ccbj9lYo.s 			page 92


 3684 01ef 9F       		.byte	0x9f
 3685 01f0 1C000000 		.4byte	.LVL56
 3686 01f4 1E000000 		.4byte	.LVL57
 3687 01f8 0100     		.2byte	0x1
 3688 01fa 50       		.byte	0x50
 3689 01fb 1E000000 		.4byte	.LVL57
 3690 01ff 20000000 		.4byte	.LVL58
 3691 0203 0300     		.2byte	0x3
 3692 0205 70       		.byte	0x70
 3693 0206 02       		.sleb128 2
 3694 0207 9F       		.byte	0x9f
 3695 0208 20000000 		.4byte	.LVL58
 3696 020c 22000000 		.4byte	.LVL59
 3697 0210 0100     		.2byte	0x1
 3698 0212 50       		.byte	0x50
 3699 0213 22000000 		.4byte	.LVL59
 3700 0217 24000000 		.4byte	.LVL60
 3701 021b 0200     		.2byte	0x2
 3702 021d 30       		.byte	0x30
 3703 021e 9F       		.byte	0x9f
 3704 021f 24000000 		.4byte	.LVL60
 3705 0223 2C000000 		.4byte	.LFE10
 3706 0227 0100     		.2byte	0x1
 3707 0229 50       		.byte	0x50
 3708 022a 00000000 		.4byte	0
 3709 022e 00000000 		.4byte	0
 3710              	.LLST15:
 3711 0232 00000000 		.4byte	.LVL61
 3712 0236 08000000 		.4byte	.LVL62
 3713 023a 0100     		.2byte	0x1
 3714 023c 50       		.byte	0x50
 3715 023d 08000000 		.4byte	.LVL62
 3716 0241 78000000 		.4byte	.LFE11
 3717 0245 0400     		.2byte	0x4
 3718 0247 F3       		.byte	0xf3
 3719 0248 01       		.uleb128 0x1
 3720 0249 50       		.byte	0x50
 3721 024a 9F       		.byte	0x9f
 3722 024b 00000000 		.4byte	0
 3723 024f 00000000 		.4byte	0
 3724              	.LLST16:
 3725 0253 00000000 		.4byte	.LVL61
 3726 0257 34000000 		.4byte	.LVL67
 3727 025b 0100     		.2byte	0x1
 3728 025d 51       		.byte	0x51
 3729 025e 34000000 		.4byte	.LVL67
 3730 0262 3E000000 		.4byte	.LVL69
 3731 0266 0400     		.2byte	0x4
 3732 0268 F3       		.byte	0xf3
 3733 0269 01       		.uleb128 0x1
 3734 026a 51       		.byte	0x51
 3735 026b 9F       		.byte	0x9f
 3736 026c 3E000000 		.4byte	.LVL69
 3737 0270 42000000 		.4byte	.LVL70
 3738 0274 0100     		.2byte	0x1
 3739 0276 51       		.byte	0x51
 3740 0277 42000000 		.4byte	.LVL70
ARM GAS  C:\Users\Alex\AppData\Local\Temp\ccbj9lYo.s 			page 93


 3741 027b 4C000000 		.4byte	.LVL72
 3742 027f 0400     		.2byte	0x4
 3743 0281 F3       		.byte	0xf3
 3744 0282 01       		.uleb128 0x1
 3745 0283 51       		.byte	0x51
 3746 0284 9F       		.byte	0x9f
 3747 0285 4C000000 		.4byte	.LVL72
 3748 0289 50000000 		.4byte	.LVL73
 3749 028d 0100     		.2byte	0x1
 3750 028f 51       		.byte	0x51
 3751 0290 50000000 		.4byte	.LVL73
 3752 0294 78000000 		.4byte	.LFE11
 3753 0298 0400     		.2byte	0x4
 3754 029a F3       		.byte	0xf3
 3755 029b 01       		.uleb128 0x1
 3756 029c 51       		.byte	0x51
 3757 029d 9F       		.byte	0x9f
 3758 029e 00000000 		.4byte	0
 3759 02a2 00000000 		.4byte	0
 3760              	.LLST17:
 3761 02a6 18000000 		.4byte	.LVL63
 3762 02aa 1E000000 		.4byte	.LVL64
 3763 02ae 0100     		.2byte	0x1
 3764 02b0 52       		.byte	0x52
 3765 02b1 1E000000 		.4byte	.LVL64
 3766 02b5 24000000 		.4byte	.LVL66
 3767 02b9 0400     		.2byte	0x4
 3768 02bb 0A       		.byte	0xa
 3769 02bc 0040     		.2byte	0x4000
 3770 02be 9F       		.byte	0x9f
 3771 02bf 24000000 		.4byte	.LVL66
 3772 02c3 37000000 		.4byte	.LVL68-1
 3773 02c7 0100     		.2byte	0x1
 3774 02c9 52       		.byte	0x52
 3775 02ca 3E000000 		.4byte	.LVL69
 3776 02ce 45000000 		.4byte	.LVL71-1
 3777 02d2 0100     		.2byte	0x1
 3778 02d4 52       		.byte	0x52
 3779 02d5 4C000000 		.4byte	.LVL72
 3780 02d9 53000000 		.4byte	.LVL74-1
 3781 02dd 0100     		.2byte	0x1
 3782 02df 52       		.byte	0x52
 3783 02e0 00000000 		.4byte	0
 3784 02e4 00000000 		.4byte	0
 3785              	.LLST18:
 3786 02e8 18000000 		.4byte	.LVL63
 3787 02ec 1E000000 		.4byte	.LVL64
 3788 02f0 0400     		.2byte	0x4
 3789 02f2 0A       		.byte	0xa
 3790 02f3 0040     		.2byte	0x4000
 3791 02f5 9F       		.byte	0x9f
 3792 02f6 20000000 		.4byte	.LVL65
 3793 02fa 37000000 		.4byte	.LVL68-1
 3794 02fe 0100     		.2byte	0x1
 3795 0300 53       		.byte	0x53
 3796 0301 3E000000 		.4byte	.LVL69
 3797 0305 45000000 		.4byte	.LVL71-1
ARM GAS  C:\Users\Alex\AppData\Local\Temp\ccbj9lYo.s 			page 94


 3798 0309 0100     		.2byte	0x1
 3799 030b 53       		.byte	0x53
 3800 030c 4C000000 		.4byte	.LVL72
 3801 0310 53000000 		.4byte	.LVL74-1
 3802 0314 0100     		.2byte	0x1
 3803 0316 53       		.byte	0x53
 3804 0317 00000000 		.4byte	0
 3805 031b 00000000 		.4byte	0
 3806              	.LLST19:
 3807 031f 00000000 		.4byte	.LVL76
 3808 0323 0E000000 		.4byte	.LVL77
 3809 0327 0100     		.2byte	0x1
 3810 0329 50       		.byte	0x50
 3811 032a 0E000000 		.4byte	.LVL77
 3812 032e 40000000 		.4byte	.LFE12
 3813 0332 0400     		.2byte	0x4
 3814 0334 F3       		.byte	0xf3
 3815 0335 01       		.uleb128 0x1
 3816 0336 50       		.byte	0x50
 3817 0337 9F       		.byte	0x9f
 3818 0338 00000000 		.4byte	0
 3819 033c 00000000 		.4byte	0
 3820              	.LLST20:
 3821 0340 0E000000 		.4byte	.LVL77
 3822 0344 2C000000 		.4byte	.LVL80
 3823 0348 0100     		.2byte	0x1
 3824 034a 54       		.byte	0x54
 3825 034b 2E000000 		.4byte	.LVL81
 3826 034f 38000000 		.4byte	.LVL82
 3827 0353 0100     		.2byte	0x1
 3828 0355 54       		.byte	0x54
 3829 0356 00000000 		.4byte	0
 3830 035a 00000000 		.4byte	0
 3831              	.LLST21:
 3832 035e 00000000 		.4byte	.LVL84
 3833 0362 66000000 		.4byte	.LVL88
 3834 0366 0100     		.2byte	0x1
 3835 0368 50       		.byte	0x50
 3836 0369 66000000 		.4byte	.LVL88
 3837 036d 0C010000 		.4byte	.LFE13
 3838 0371 0400     		.2byte	0x4
 3839 0373 F3       		.byte	0xf3
 3840 0374 01       		.uleb128 0x1
 3841 0375 50       		.byte	0x50
 3842 0376 9F       		.byte	0x9f
 3843 0377 00000000 		.4byte	0
 3844 037b 00000000 		.4byte	0
 3845              	.LLST22:
 3846 037f 00000000 		.4byte	.LVL84
 3847 0383 68000000 		.4byte	.LVL89
 3848 0387 0100     		.2byte	0x1
 3849 0389 51       		.byte	0x51
 3850 038a 68000000 		.4byte	.LVL89
 3851 038e EE000000 		.4byte	.LVL97
 3852 0392 0100     		.2byte	0x1
 3853 0394 57       		.byte	0x57
 3854 0395 EE000000 		.4byte	.LVL97
ARM GAS  C:\Users\Alex\AppData\Local\Temp\ccbj9lYo.s 			page 95


 3855 0399 0C010000 		.4byte	.LFE13
 3856 039d 0400     		.2byte	0x4
 3857 039f F3       		.byte	0xf3
 3858 03a0 01       		.uleb128 0x1
 3859 03a1 51       		.byte	0x51
 3860 03a2 9F       		.byte	0x9f
 3861 03a3 00000000 		.4byte	0
 3862 03a7 00000000 		.4byte	0
 3863              	.LLST23:
 3864 03ab 00000000 		.4byte	.LVL84
 3865 03af 24000000 		.4byte	.LVL86
 3866 03b3 0100     		.2byte	0x1
 3867 03b5 52       		.byte	0x52
 3868 03b6 24000000 		.4byte	.LVL86
 3869 03ba 42000000 		.4byte	.LVL87
 3870 03be 0400     		.2byte	0x4
 3871 03c0 F3       		.byte	0xf3
 3872 03c1 01       		.uleb128 0x1
 3873 03c2 52       		.byte	0x52
 3874 03c3 9F       		.byte	0x9f
 3875 03c4 42000000 		.4byte	.LVL87
 3876 03c8 EE000000 		.4byte	.LVL97
 3877 03cc 0100     		.2byte	0x1
 3878 03ce 56       		.byte	0x56
 3879 03cf 00000000 		.4byte	0
 3880 03d3 00000000 		.4byte	0
 3881              	.LLST24:
 3882 03d7 1C000000 		.4byte	.LVL85
 3883 03db EE000000 		.4byte	.LVL97
 3884 03df 0100     		.2byte	0x1
 3885 03e1 58       		.byte	0x58
 3886 03e2 00000000 		.4byte	0
 3887 03e6 00000000 		.4byte	0
 3888              	.LLST25:
 3889 03ea 00000000 		.4byte	.LVL98
 3890 03ee 23000000 		.4byte	.LVL100-1
 3891 03f2 0100     		.2byte	0x1
 3892 03f4 50       		.byte	0x50
 3893 03f5 23000000 		.4byte	.LVL100-1
 3894 03f9 98000000 		.4byte	.LVL110
 3895 03fd 0400     		.2byte	0x4
 3896 03ff F3       		.byte	0xf3
 3897 0400 01       		.uleb128 0x1
 3898 0401 50       		.byte	0x50
 3899 0402 9F       		.byte	0x9f
 3900 0403 98000000 		.4byte	.LVL110
 3901 0407 9E000000 		.4byte	.LVL111
 3902 040b 0100     		.2byte	0x1
 3903 040d 50       		.byte	0x50
 3904 040e 9E000000 		.4byte	.LVL111
 3905 0412 B0000000 		.4byte	.LFE14
 3906 0416 0400     		.2byte	0x4
 3907 0418 F3       		.byte	0xf3
 3908 0419 01       		.uleb128 0x1
 3909 041a 50       		.byte	0x50
 3910 041b 9F       		.byte	0x9f
 3911 041c 00000000 		.4byte	0
ARM GAS  C:\Users\Alex\AppData\Local\Temp\ccbj9lYo.s 			page 96


 3912 0420 00000000 		.4byte	0
 3913              	.LLST26:
 3914 0424 00000000 		.4byte	.LVL98
 3915 0428 23000000 		.4byte	.LVL100-1
 3916 042c 0100     		.2byte	0x1
 3917 042e 51       		.byte	0x51
 3918 042f 23000000 		.4byte	.LVL100-1
 3919 0433 98000000 		.4byte	.LVL110
 3920 0437 0100     		.2byte	0x1
 3921 0439 57       		.byte	0x57
 3922 043a 98000000 		.4byte	.LVL110
 3923 043e 9E000000 		.4byte	.LVL111
 3924 0442 0100     		.2byte	0x1
 3925 0444 51       		.byte	0x51
 3926 0445 9E000000 		.4byte	.LVL111
 3927 0449 B0000000 		.4byte	.LFE14
 3928 044d 0400     		.2byte	0x4
 3929 044f F3       		.byte	0xf3
 3930 0450 01       		.uleb128 0x1
 3931 0451 51       		.byte	0x51
 3932 0452 9F       		.byte	0x9f
 3933 0453 00000000 		.4byte	0
 3934 0457 00000000 		.4byte	0
 3935              	.LLST27:
 3936 045b 00000000 		.4byte	.LVL98
 3937 045f 23000000 		.4byte	.LVL100-1
 3938 0463 0100     		.2byte	0x1
 3939 0465 52       		.byte	0x52
 3940 0466 23000000 		.4byte	.LVL100-1
 3941 046a 2C000000 		.4byte	.LVL102
 3942 046e 0400     		.2byte	0x4
 3943 0470 F3       		.byte	0xf3
 3944 0471 01       		.uleb128 0x1
 3945 0472 52       		.byte	0x52
 3946 0473 9F       		.byte	0x9f
 3947 0474 2C000000 		.4byte	.LVL102
 3948 0478 98000000 		.4byte	.LVL110
 3949 047c 0100     		.2byte	0x1
 3950 047e 56       		.byte	0x56
 3951 047f 98000000 		.4byte	.LVL110
 3952 0483 9E000000 		.4byte	.LVL111
 3953 0487 0100     		.2byte	0x1
 3954 0489 52       		.byte	0x52
 3955 048a 9E000000 		.4byte	.LVL111
 3956 048e A4000000 		.4byte	.LVL112
 3957 0492 0100     		.2byte	0x1
 3958 0494 56       		.byte	0x56
 3959 0495 00000000 		.4byte	0
 3960 0499 00000000 		.4byte	0
 3961              	.LLST28:
 3962 049d 20000000 		.4byte	.LVL99
 3963 04a1 98000000 		.4byte	.LVL110
 3964 04a5 0100     		.2byte	0x1
 3965 04a7 59       		.byte	0x59
 3966 04a8 00000000 		.4byte	0
 3967 04ac 00000000 		.4byte	0
 3968              	.LLST29:
ARM GAS  C:\Users\Alex\AppData\Local\Temp\ccbj9lYo.s 			page 97


 3969 04b0 26000000 		.4byte	.LVL101
 3970 04b4 36000000 		.4byte	.LVL103
 3971 04b8 0100     		.2byte	0x1
 3972 04ba 50       		.byte	0x50
 3973 04bb 00000000 		.4byte	0
 3974 04bf 00000000 		.4byte	0
 3975              	.LLST30:
 3976 04c3 0E000000 		.4byte	.LVL114
 3977 04c7 26000000 		.4byte	.LVL115
 3978 04cb 0100     		.2byte	0x1
 3979 04cd 53       		.byte	0x53
 3980 04ce 00000000 		.4byte	0
 3981 04d2 00000000 		.4byte	0
 3982              	.LLST31:
 3983 04d6 00000000 		.4byte	.LVL116
 3984 04da 02000000 		.4byte	.LVL117
 3985 04de 0100     		.2byte	0x1
 3986 04e0 50       		.byte	0x50
 3987 04e1 02000000 		.4byte	.LVL117
 3988 04e5 18000000 		.4byte	.LFE16
 3989 04e9 0400     		.2byte	0x4
 3990 04eb F3       		.byte	0xf3
 3991 04ec 01       		.uleb128 0x1
 3992 04ed 50       		.byte	0x50
 3993 04ee 9F       		.byte	0x9f
 3994 04ef 00000000 		.4byte	0
 3995 04f3 00000000 		.4byte	0
 3996              	.LLST32:
 3997 04f7 0C000000 		.4byte	.LVL118
 3998 04fb 12000000 		.4byte	.LVL119
 3999 04ff 0100     		.2byte	0x1
 4000 0501 50       		.byte	0x50
 4001 0502 00000000 		.4byte	0
 4002 0506 00000000 		.4byte	0
 4003              	.LLST33:
 4004 050a 00000000 		.4byte	.LVL121
 4005 050e 02000000 		.4byte	.LVL122
 4006 0512 0100     		.2byte	0x1
 4007 0514 50       		.byte	0x50
 4008 0515 02000000 		.4byte	.LVL122
 4009 0519 20000000 		.4byte	.LFE18
 4010 051d 0400     		.2byte	0x4
 4011 051f F3       		.byte	0xf3
 4012 0520 01       		.uleb128 0x1
 4013 0521 50       		.byte	0x50
 4014 0522 9F       		.byte	0x9f
 4015 0523 00000000 		.4byte	0
 4016 0527 00000000 		.4byte	0
 4017              	.LLST34:
 4018 052b 0C000000 		.4byte	.LVL123
 4019 052f 10000000 		.4byte	.LVL124
 4020 0533 0100     		.2byte	0x1
 4021 0535 50       		.byte	0x50
 4022 0536 00000000 		.4byte	0
 4023 053a 00000000 		.4byte	0
 4024              	.LLST35:
 4025 053e 00000000 		.4byte	.LVL121
ARM GAS  C:\Users\Alex\AppData\Local\Temp\ccbj9lYo.s 			page 98


 4026 0542 16000000 		.4byte	.LVL125
 4027 0546 0200     		.2byte	0x2
 4028 0548 30       		.byte	0x30
 4029 0549 9F       		.byte	0x9f
 4030 054a 16000000 		.4byte	.LVL125
 4031 054e 18000000 		.4byte	.LVL126
 4032 0552 0100     		.2byte	0x1
 4033 0554 50       		.byte	0x50
 4034 0555 18000000 		.4byte	.LVL126
 4035 0559 1A000000 		.4byte	.LVL127
 4036 055d 0200     		.2byte	0x2
 4037 055f 30       		.byte	0x30
 4038 0560 9F       		.byte	0x9f
 4039 0561 1A000000 		.4byte	.LVL127
 4040 0565 20000000 		.4byte	.LFE18
 4041 0569 0100     		.2byte	0x1
 4042 056b 50       		.byte	0x50
 4043 056c 00000000 		.4byte	0
 4044 0570 00000000 		.4byte	0
 4045              	.LLST36:
 4046 0574 00000000 		.4byte	.LVL129
 4047 0578 10000000 		.4byte	.LVL130
 4048 057c 0200     		.2byte	0x2
 4049 057e 30       		.byte	0x30
 4050 057f 9F       		.byte	0x9f
 4051 0580 10000000 		.4byte	.LVL130
 4052 0584 18000000 		.4byte	.LFE20
 4053 0588 0100     		.2byte	0x1
 4054 058a 50       		.byte	0x50
 4055 058b 00000000 		.4byte	0
 4056 058f 00000000 		.4byte	0
 4057              		.section	.debug_aranges,"",%progbits
 4058 0000 BC000000 		.4byte	0xbc
 4059 0004 0200     		.2byte	0x2
 4060 0006 00000000 		.4byte	.Ldebug_info0
 4061 000a 04       		.byte	0x4
 4062 000b 00       		.byte	0
 4063 000c 0000     		.2byte	0
 4064 000e 0000     		.2byte	0
 4065 0010 00000000 		.4byte	.LFB1
 4066 0014 54010000 		.4byte	.LFE1-.LFB1
 4067 0018 00000000 		.4byte	.LFB2
 4068 001c D8000000 		.4byte	.LFE2-.LFB2
 4069 0020 00000000 		.4byte	.LFB0
 4070 0024 24000000 		.4byte	.LFE0-.LFB0
 4071 0028 00000000 		.4byte	.LFB3
 4072 002c 64000000 		.4byte	.LFE3-.LFB3
 4073 0030 00000000 		.4byte	.LFB5
 4074 0034 18000000 		.4byte	.LFE5-.LFB5
 4075 0038 00000000 		.4byte	.LFB6
 4076 003c 0C000000 		.4byte	.LFE6-.LFB6
 4077 0040 00000000 		.4byte	.LFB7
 4078 0044 20000000 		.4byte	.LFE7-.LFB7
 4079 0048 00000000 		.4byte	.LFB8
 4080 004c 0C000000 		.4byte	.LFE8-.LFB8
 4081 0050 00000000 		.4byte	.LFB9
 4082 0054 14000000 		.4byte	.LFE9-.LFB9
ARM GAS  C:\Users\Alex\AppData\Local\Temp\ccbj9lYo.s 			page 99


 4083 0058 00000000 		.4byte	.LFB10
 4084 005c 2C000000 		.4byte	.LFE10-.LFB10
 4085 0060 00000000 		.4byte	.LFB11
 4086 0064 78000000 		.4byte	.LFE11-.LFB11
 4087 0068 00000000 		.4byte	.LFB12
 4088 006c 40000000 		.4byte	.LFE12-.LFB12
 4089 0070 00000000 		.4byte	.LFB4
 4090 0074 8C000000 		.4byte	.LFE4-.LFB4
 4091 0078 00000000 		.4byte	.LFB13
 4092 007c 0C010000 		.4byte	.LFE13-.LFB13
 4093 0080 00000000 		.4byte	.LFB14
 4094 0084 B0000000 		.4byte	.LFE14-.LFB14
 4095 0088 00000000 		.4byte	.LFB15
 4096 008c 30000000 		.4byte	.LFE15-.LFB15
 4097 0090 00000000 		.4byte	.LFB16
 4098 0094 18000000 		.4byte	.LFE16-.LFB16
 4099 0098 00000000 		.4byte	.LFB17
 4100 009c 0C000000 		.4byte	.LFE17-.LFB17
 4101 00a0 00000000 		.4byte	.LFB18
 4102 00a4 20000000 		.4byte	.LFE18-.LFB18
 4103 00a8 00000000 		.4byte	.LFB19
 4104 00ac 20000000 		.4byte	.LFE19-.LFB19
 4105 00b0 00000000 		.4byte	.LFB20
 4106 00b4 18000000 		.4byte	.LFE20-.LFB20
 4107 00b8 00000000 		.4byte	0
 4108 00bc 00000000 		.4byte	0
 4109              		.section	.debug_ranges,"",%progbits
 4110              	.Ldebug_ranges0:
 4111 0000 00000000 		.4byte	.LFB1
 4112 0004 54010000 		.4byte	.LFE1
 4113 0008 00000000 		.4byte	.LFB2
 4114 000c D8000000 		.4byte	.LFE2
 4115 0010 00000000 		.4byte	.LFB0
 4116 0014 24000000 		.4byte	.LFE0
 4117 0018 00000000 		.4byte	.LFB3
 4118 001c 64000000 		.4byte	.LFE3
 4119 0020 00000000 		.4byte	.LFB5
 4120 0024 18000000 		.4byte	.LFE5
 4121 0028 00000000 		.4byte	.LFB6
 4122 002c 0C000000 		.4byte	.LFE6
 4123 0030 00000000 		.4byte	.LFB7
 4124 0034 20000000 		.4byte	.LFE7
 4125 0038 00000000 		.4byte	.LFB8
 4126 003c 0C000000 		.4byte	.LFE8
 4127 0040 00000000 		.4byte	.LFB9
 4128 0044 14000000 		.4byte	.LFE9
 4129 0048 00000000 		.4byte	.LFB10
 4130 004c 2C000000 		.4byte	.LFE10
 4131 0050 00000000 		.4byte	.LFB11
 4132 0054 78000000 		.4byte	.LFE11
 4133 0058 00000000 		.4byte	.LFB12
 4134 005c 40000000 		.4byte	.LFE12
 4135 0060 00000000 		.4byte	.LFB4
 4136 0064 8C000000 		.4byte	.LFE4
 4137 0068 00000000 		.4byte	.LFB13
 4138 006c 0C010000 		.4byte	.LFE13
 4139 0070 00000000 		.4byte	.LFB14
ARM GAS  C:\Users\Alex\AppData\Local\Temp\ccbj9lYo.s 			page 100


 4140 0074 B0000000 		.4byte	.LFE14
 4141 0078 00000000 		.4byte	.LFB15
 4142 007c 30000000 		.4byte	.LFE15
 4143 0080 00000000 		.4byte	.LFB16
 4144 0084 18000000 		.4byte	.LFE16
 4145 0088 00000000 		.4byte	.LFB17
 4146 008c 0C000000 		.4byte	.LFE17
 4147 0090 00000000 		.4byte	.LFB18
 4148 0094 20000000 		.4byte	.LFE18
 4149 0098 00000000 		.4byte	.LFB19
 4150 009c 20000000 		.4byte	.LFE19
 4151 00a0 00000000 		.4byte	.LFB20
 4152 00a4 18000000 		.4byte	.LFE20
 4153 00a8 00000000 		.4byte	0
 4154 00ac 00000000 		.4byte	0
 4155              		.section	.debug_line,"",%progbits
 4156              	.Ldebug_line0:
 4157 0000 56030000 		.section	.debug_str,"MS",%progbits,1
 4157      0200DD00 
 4157      00000201 
 4157      FB0E0D00 
 4157      01010101 
 4158              	.LASF10:
 4159 0000 75696E74 		.ascii	"uint16\000"
 4159      313600
 4160              	.LASF69:
 4161 0007 55534255 		.ascii	"USBUART_1_interfaceSetting\000"
 4161      4152545F 
 4161      315F696E 
 4161      74657266 
 4161      61636553 
 4162              	.LASF85:
 4163 0022 4379446D 		.ascii	"CyDmaChDisable\000"
 4163      61436844 
 4163      69736162 
 4163      6C6500
 4164              	.LASF62:
 4165 0031 55534255 		.ascii	"USBUART_1_device\000"
 4165      4152545F 
 4165      315F6465 
 4165      76696365 
 4165      00
 4166              	.LASF84:
 4167 0042 4379446D 		.ascii	"CyDmaTdAllocate\000"
 4167      61546441 
 4167      6C6C6F63 
 4167      61746500 
 4168              	.LASF86:
 4169 0052 4379446D 		.ascii	"CyDmaTdFree\000"
 4169      61546446 
 4169      72656500 
 4170              	.LASF31:
 4171 005e 55534255 		.ascii	"USBUART_1_Init\000"
 4171      4152545F 
 4171      315F496E 
 4171      697400
 4172              	.LASF90:
ARM GAS  C:\Users\Alex\AppData\Local\Temp\ccbj9lYo.s 			page 101


 4173 006d 4379446D 		.ascii	"CyDmaChEnable\000"
 4173      61436845 
 4173      6E61626C 
 4173      6500
 4174              	.LASF39:
 4175 007b 55534255 		.ascii	"USBUART_1_GetInterfaceSetting\000"
 4175      4152545F 
 4175      315F4765 
 4175      74496E74 
 4175      65726661 
 4176              	.LASF7:
 4177 0099 6C6F6E67 		.ascii	"long long unsigned int\000"
 4177      206C6F6E 
 4177      6720756E 
 4177      7369676E 
 4177      65642069 
 4178              	.LASF24:
 4179 00b0 61646472 		.ascii	"addr\000"
 4179      00
 4180              	.LASF87:
 4181 00b5 4379446D 		.ascii	"CyDmaTdSetConfiguration\000"
 4181      61546453 
 4181      6574436F 
 4181      6E666967 
 4181      75726174 
 4182              	.LASF40:
 4183 00cd 696E7465 		.ascii	"interfaceNumber\000"
 4183      72666163 
 4183      654E756D 
 4183      62657200 
 4184              	.LASF42:
 4185 00dd 65704E75 		.ascii	"epNumber\000"
 4185      6D626572 
 4185      00
 4186              	.LASF33:
 4187 00e6 64657669 		.ascii	"device\000"
 4187      636500
 4188              	.LASF6:
 4189 00ed 6C6F6E67 		.ascii	"long long int\000"
 4189      206C6F6E 
 4189      6720696E 
 4189      7400
 4190              	.LASF0:
 4191 00fb 7369676E 		.ascii	"signed char\000"
 4191      65642063 
 4191      68617200 
 4192              	.LASF53:
 4193 0107 55534255 		.ascii	"USBUART_1_EnableOutEP\000"
 4193      4152545F 
 4193      315F456E 
 4193      61626C65 
 4193      4F757445 
 4194              	.LASF4:
 4195 011d 6C6F6E67 		.ascii	"long int\000"
 4195      20696E74 
 4195      00
 4196              	.LASF9:
ARM GAS  C:\Users\Alex\AppData\Local\Temp\ccbj9lYo.s 			page 102


 4197 0126 75696E74 		.ascii	"uint8\000"
 4197      3800
 4198              	.LASF23:
 4199 012c 6570546F 		.ascii	"epToggle\000"
 4199      67676C65 
 4199      00
 4200              	.LASF37:
 4201 0135 55534255 		.ascii	"USBUART_1_CheckActivity\000"
 4201      4152545F 
 4201      315F4368 
 4201      65636B41 
 4201      63746976 
 4202              	.LASF75:
 4203 014d 43794465 		.ascii	"CyDelayUs\000"
 4203      6C617955 
 4203      7300
 4204              	.LASF13:
 4205 0157 646F7562 		.ascii	"double\000"
 4205      6C6500
 4206              	.LASF59:
 4207 015e 706F7765 		.ascii	"powerStatus\000"
 4207      72537461 
 4207      74757300 
 4208              	.LASF65:
 4209 016a 55534255 		.ascii	"USBUART_1_configurationChanged\000"
 4209      4152545F 
 4209      315F636F 
 4209      6E666967 
 4209      75726174 
 4210              	.LASF11:
 4211 0189 75696E74 		.ascii	"uint32\000"
 4211      333200
 4212              	.LASF46:
 4213 0190 70446174 		.ascii	"pData\000"
 4213      6100
 4214              	.LASF54:
 4215 0196 55534255 		.ascii	"USBUART_1_DisableOutEP\000"
 4215      4152545F 
 4215      315F4469 
 4215      7361626C 
 4215      654F7574 
 4216              	.LASF25:
 4217 01ad 65704D6F 		.ascii	"epMode\000"
 4217      646500
 4218              	.LASF41:
 4219 01b4 55534255 		.ascii	"USBUART_1_GetEPState\000"
 4219      4152545F 
 4219      315F4765 
 4219      74455053 
 4219      74617465 
 4220              	.LASF29:
 4221 01c9 545F5553 		.ascii	"T_USBUART_1_EP_CTL_BLOCK\000"
 4221      42554152 
 4221      545F315F 
 4221      45505F43 
 4221      544C5F42 
 4222              	.LASF66:
ARM GAS  C:\Users\Alex\AppData\Local\Temp\ccbj9lYo.s 			page 103


 4223 01e2 55534255 		.ascii	"USBUART_1_deviceStatus\000"
 4223      4152545F 
 4223      315F6465 
 4223      76696365 
 4223      53746174 
 4224              	.LASF8:
 4225 01f9 756E7369 		.ascii	"unsigned int\000"
 4225      676E6564 
 4225      20696E74 
 4225      00
 4226              	.LASF5:
 4227 0206 6C6F6E67 		.ascii	"long unsigned int\000"
 4227      20756E73 
 4227      69676E65 
 4227      6420696E 
 4227      7400
 4228              	.LASF61:
 4229 0218 55534255 		.ascii	"USBUART_1_initVar\000"
 4229      4152545F 
 4229      315F696E 
 4229      69745661 
 4229      7200
 4230              	.LASF58:
 4231 022a 55534255 		.ascii	"USBUART_1_SetPowerStatus\000"
 4231      4152545F 
 4231      315F5365 
 4231      74506F77 
 4231      65725374 
 4232              	.LASF72:
 4233 0243 55534255 		.ascii	"USBUART_1_DmaChan\000"
 4233      4152545F 
 4233      315F446D 
 4233      61436861 
 4233      6E00
 4234              	.LASF3:
 4235 0255 73686F72 		.ascii	"short unsigned int\000"
 4235      7420756E 
 4235      7369676E 
 4235      65642069 
 4235      6E7400
 4236              	.LASF51:
 4237 0268 55534255 		.ascii	"USBUART_1_ReadOutEP\000"
 4237      4152545F 
 4237      315F5265 
 4237      61644F75 
 4237      74455000 
 4238              	.LASF79:
 4239 027c 4379496E 		.ascii	"CyIntSetVector\000"
 4239      74536574 
 4239      56656374 
 4239      6F7200
 4240              	.LASF43:
 4241 028b 55534255 		.ascii	"USBUART_1_GetEPCount\000"
 4241      4152545F 
 4241      315F4765 
 4241      74455043 
 4241      6F756E74 
ARM GAS  C:\Users\Alex\AppData\Local\Temp\ccbj9lYo.s 			page 104


 4242              	.LASF83:
 4243 02a0 4379456E 		.ascii	"CyEnterCriticalSection\000"
 4243      74657243 
 4243      72697469 
 4243      63616C53 
 4243      65637469 
 4244              	.LASF70:
 4245 02b7 55534255 		.ascii	"USBUART_1_deviceAddress\000"
 4245      4152545F 
 4245      315F6465 
 4245      76696365 
 4245      41646472 
 4246              	.LASF92:
 4247 02cf 2E5C4765 		.ascii	".\\Generated_Source\\PSoC5\\USBUART_1.c\000"
 4247      6E657261 
 4247      7465645F 
 4247      536F7572 
 4247      63655C50 
 4248              	.LASF28:
 4249 02f4 696E7465 		.ascii	"interface\000"
 4249      72666163 
 4249      6500
 4250              	.LASF17:
 4251 02fe 72656733 		.ascii	"reg32\000"
 4251      3200
 4252              	.LASF22:
 4253 0304 68774570 		.ascii	"hwEpState\000"
 4253      53746174 
 4253      6500
 4254              	.LASF19:
 4255 030e 73697A65 		.ascii	"sizetype\000"
 4255      74797065 
 4255      00
 4256              	.LASF82:
 4257 0317 55534255 		.ascii	"USBUART_1_ep3_DmaInitialize\000"
 4257      4152545F 
 4257      315F6570 
 4257      335F446D 
 4257      61496E69 
 4258              	.LASF67:
 4259 0333 55534255 		.ascii	"USBUART_1_hidProtocol\000"
 4259      4152545F 
 4259      315F6869 
 4259      6450726F 
 4259      746F636F 
 4260              	.LASF88:
 4261 0349 4379446D 		.ascii	"CyDmaTdSetAddress\000"
 4261      61546453 
 4261      65744164 
 4261      64726573 
 4261      7300
 4262              	.LASF20:
 4263 035b 61747472 		.ascii	"attrib\000"
 4263      696200
 4264              	.LASF64:
 4265 0362 55534255 		.ascii	"USBUART_1_configuration\000"
 4265      4152545F 
ARM GAS  C:\Users\Alex\AppData\Local\Temp\ccbj9lYo.s 			page 105


 4265      315F636F 
 4265      6E666967 
 4265      75726174 
 4266              	.LASF80:
 4267 037a 55534255 		.ascii	"USBUART_1_ep1_DmaInitialize\000"
 4267      4152545F 
 4267      315F6570 
 4267      315F446D 
 4267      61496E69 
 4268              	.LASF36:
 4269 0396 55534255 		.ascii	"USBUART_1_ReInitComponent\000"
 4269      4152545F 
 4269      315F5265 
 4269      496E6974 
 4269      436F6D70 
 4270              	.LASF47:
 4271 03b0 55534255 		.ascii	"USBUART_1_Stop_DMA\000"
 4271      4152545F 
 4271      315F5374 
 4271      6F705F44 
 4271      4D4100
 4272              	.LASF77:
 4273 03c3 4379496E 		.ascii	"CyIntSetPriority\000"
 4273      74536574 
 4273      5072696F 
 4273      72697479 
 4273      00
 4274              	.LASF12:
 4275 03d4 666C6F61 		.ascii	"float\000"
 4275      7400
 4276              	.LASF76:
 4277 03da 43794578 		.ascii	"CyExitCriticalSection\000"
 4277      69744372 
 4277      69746963 
 4277      616C5365 
 4277      6374696F 
 4278              	.LASF21:
 4279 03f0 61706945 		.ascii	"apiEpState\000"
 4279      70537461 
 4279      746500
 4280              	.LASF35:
 4281 03fb 55534255 		.ascii	"USBUART_1_Start\000"
 4281      4152545F 
 4281      315F5374 
 4281      61727400 
 4282              	.LASF78:
 4283 040b 43794465 		.ascii	"CyDelayCycles\000"
 4283      6C617943 
 4283      79636C65 
 4283      7300
 4284              	.LASF60:
 4285 0419 55534255 		.ascii	"USBUART_1_RWUEnabled\000"
 4285      4152545F 
 4285      315F5257 
 4285      55456E61 
 4285      626C6564 
 4286              	.LASF16:
ARM GAS  C:\Users\Alex\AppData\Local\Temp\ccbj9lYo.s 			page 106


 4287 042e 72656738 		.ascii	"reg8\000"
 4287      00
 4288              	.LASF1:
 4289 0433 756E7369 		.ascii	"unsigned char\000"
 4289      676E6564 
 4289      20636861 
 4289      7200
 4290              	.LASF48:
 4291 0441 55534255 		.ascii	"USBUART_1_Stop\000"
 4291      4152545F 
 4291      315F5374 
 4291      6F7000
 4292              	.LASF2:
 4293 0450 73686F72 		.ascii	"short int\000"
 4293      7420696E 
 4293      7400
 4294              	.LASF93:
 4295 045a 433A5C46 		.ascii	"C:\\FlexSEA_alx87grd\\execute\\execute_1_0.cydsn\000"
 4295      6C657853 
 4295      45415F61 
 4295      6C783837 
 4295      6772645C 
 4296              	.LASF45:
 4297 0488 55534255 		.ascii	"USBUART_1_InitEP_DMA\000"
 4297      4152545F 
 4297      315F496E 
 4297      69744550 
 4297      5F444D41 
 4298              	.LASF81:
 4299 049d 55534255 		.ascii	"USBUART_1_ep2_DmaInitialize\000"
 4299      4152545F 
 4299      315F6570 
 4299      325F446D 
 4299      61496E69 
 4300              	.LASF56:
 4301 04b9 62537461 		.ascii	"bState\000"
 4301      746500
 4302              	.LASF50:
 4303 04c0 6C656E67 		.ascii	"length\000"
 4303      746800
 4304              	.LASF14:
 4305 04c7 63686172 		.ascii	"char\000"
 4305      00
 4306              	.LASF34:
 4307 04cc 6D6F6465 		.ascii	"mode\000"
 4307      00
 4308              	.LASF18:
 4309 04d1 63796973 		.ascii	"cyisraddress\000"
 4309      72616464 
 4309      72657373 
 4309      00
 4310              	.LASF57:
 4311 04de 55534255 		.ascii	"USBUART_1_GetEPAckState\000"
 4311      4152545F 
 4311      315F4765 
 4311      74455041 
 4311      636B5374 
ARM GAS  C:\Users\Alex\AppData\Local\Temp\ccbj9lYo.s 			page 107


 4312              	.LASF27:
 4313 04f6 62756666 		.ascii	"bufferSize\000"
 4313      65725369 
 4313      7A6500
 4314              	.LASF26:
 4315 0501 62756666 		.ascii	"buffOffset\000"
 4315      4F666673 
 4315      657400
 4316              	.LASF32:
 4317 050c 55534255 		.ascii	"USBUART_1_InitComponent\000"
 4317      4152545F 
 4317      315F496E 
 4317      6974436F 
 4317      6D706F6E 
 4318              	.LASF49:
 4319 0524 55534255 		.ascii	"USBUART_1_LoadInEP\000"
 4319      4152545F 
 4319      315F4C6F 
 4319      6164496E 
 4319      455000
 4320              	.LASF30:
 4321 0537 656E6162 		.ascii	"enableInterrupts\000"
 4321      6C65496E 
 4321      74657272 
 4321      75707473 
 4321      00
 4322              	.LASF68:
 4323 0548 55534255 		.ascii	"USBUART_1_interfaceNumber\000"
 4323      4152545F 
 4323      315F696E 
 4323      74657266 
 4323      6163654E 
 4324              	.LASF91:
 4325 0562 474E5520 		.ascii	"GNU C 4.9.3 20150303 (release) [ARM/embedded-4_9-br"
 4325      4320342E 
 4325      392E3320 
 4325      32303135 
 4325      30333033 
 4326 0595 616E6368 		.ascii	"anch revision 221220] -mcpu=cortex-m3 -mthumb -g -O"
 4326      20726576 
 4326      6973696F 
 4326      6E203232 
 4326      31323230 
 4327 05c8 67202D66 		.ascii	"g -ffunction-sections -ffat-lto-objects\000"
 4327      66756E63 
 4327      74696F6E 
 4327      2D736563 
 4327      74696F6E 
 4328              	.LASF74:
 4329 05f0 55534255 		.ascii	"USBUART_1_lastPacketSize\000"
 4329      4152545F 
 4329      315F6C61 
 4329      73745061 
 4329      636B6574 
 4330              	.LASF94:
 4331 0609 55534255 		.ascii	"USBUART_1_GetConfiguration\000"
 4331      4152545F 
ARM GAS  C:\Users\Alex\AppData\Local\Temp\ccbj9lYo.s 			page 108


 4331      315F4765 
 4331      74436F6E 
 4331      66696775 
 4332              	.LASF63:
 4333 0624 55534255 		.ascii	"USBUART_1_transferState\000"
 4333      4152545F 
 4333      315F7472 
 4333      616E7366 
 4333      65725374 
 4334              	.LASF52:
 4335 063c 78666572 		.ascii	"xferCount\000"
 4335      436F756E 
 4335      7400
 4336              	.LASF55:
 4337 0646 55534255 		.ascii	"USBUART_1_Force\000"
 4337      4152545F 
 4337      315F466F 
 4337      72636500 
 4338              	.LASF89:
 4339 0656 4379446D 		.ascii	"CyDmaChSetInitialTd\000"
 4339      61436853 
 4339      6574496E 
 4339      69746961 
 4339      6C546400 
 4340              	.LASF15:
 4341 066a 63797374 		.ascii	"cystatus\000"
 4341      61747573 
 4341      00
 4342              	.LASF73:
 4343 0673 55534255 		.ascii	"USBUART_1_DmaTd\000"
 4343      4152545F 
 4343      315F446D 
 4343      61546400 
 4344              	.LASF71:
 4345 0683 55534255 		.ascii	"USBUART_1_EP\000"
 4345      4152545F 
 4345      315F4550 
 4345      00
 4346              	.LASF44:
 4347 0690 72657375 		.ascii	"result\000"
 4347      6C7400
 4348              	.LASF38:
 4349 0697 55534255 		.ascii	"USBUART_1_IsConfigurationChanged\000"
 4349      4152545F 
 4349      315F4973 
 4349      436F6E66 
 4349      69677572 
 4350              		.ident	"GCC: (GNU Tools for ARM Embedded Processors) 4.9.3 20150303 (release) [ARM/embedded-4_9-br
