ARM GAS  C:\Users\Alex\AppData\Local\Temp\ccbj9lYo.s 			page 1


   1              		.syntax unified
   2              		.cpu cortex-m3
   3              		.fpu softvfp
   4              		.eabi_attribute 20, 1
   5              		.eabi_attribute 21, 1
   6              		.eabi_attribute 23, 3
   7              		.eabi_attribute 24, 1
   8              		.eabi_attribute 25, 1
   9              		.eabi_attribute 26, 1
  10              		.eabi_attribute 30, 1
  11              		.eabi_attribute 34, 1
  12              		.eabi_attribute 18, 4
  13              		.thumb
  14              		.file	"USBUART_1.c"
  15              		.text
  16              	.Ltext0:
  17              		.cfi_sections	.debug_frame
  18              		.section	.text.USBUART_1_Init,"ax",%progbits
  19              		.align	2
  20              		.global	USBUART_1_Init
  21              		.thumb
  22              		.thumb_func
  23              		.type	USBUART_1_Init, %function
  24              	USBUART_1_Init:
  25              	.LFB1:
  26              		.file 1 ".\\Generated_Source\\PSoC5\\USBUART_1.c"
   1:.\Generated_Source\PSoC5/USBUART_1.c **** /*******************************************************************************
   2:.\Generated_Source\PSoC5/USBUART_1.c **** * File Name: USBUART_1.c
   3:.\Generated_Source\PSoC5/USBUART_1.c **** * Version 2.80
   4:.\Generated_Source\PSoC5/USBUART_1.c **** *
   5:.\Generated_Source\PSoC5/USBUART_1.c **** * Description:
   6:.\Generated_Source\PSoC5/USBUART_1.c **** *  API for USBFS Component.
   7:.\Generated_Source\PSoC5/USBUART_1.c **** *
   8:.\Generated_Source\PSoC5/USBUART_1.c **** * Note:
   9:.\Generated_Source\PSoC5/USBUART_1.c **** *  Many of the functions use endpoint number.  RAM arrays are sized with 9
  10:.\Generated_Source\PSoC5/USBUART_1.c **** *  elements so they are indexed directly by epNumber.  The SIE and ARB
  11:.\Generated_Source\PSoC5/USBUART_1.c **** *  registers are indexed by variations of epNumber - 1.
  12:.\Generated_Source\PSoC5/USBUART_1.c **** *
  13:.\Generated_Source\PSoC5/USBUART_1.c **** ********************************************************************************
  14:.\Generated_Source\PSoC5/USBUART_1.c **** * Copyright 2008-2014, Cypress Semiconductor Corporation.  All rights reserved.
  15:.\Generated_Source\PSoC5/USBUART_1.c **** * You may use this file only in accordance with the license, terms, conditions,
  16:.\Generated_Source\PSoC5/USBUART_1.c **** * disclaimers, and limitations in the end user license agreement accompanying
  17:.\Generated_Source\PSoC5/USBUART_1.c **** * the software package with which this file was provided.
  18:.\Generated_Source\PSoC5/USBUART_1.c **** *******************************************************************************/
  19:.\Generated_Source\PSoC5/USBUART_1.c **** 
  20:.\Generated_Source\PSoC5/USBUART_1.c **** #include <CyDmac.h>
  21:.\Generated_Source\PSoC5/USBUART_1.c **** #include "USBUART_1.h"
  22:.\Generated_Source\PSoC5/USBUART_1.c **** #include "USBUART_1_pvt.h"
  23:.\Generated_Source\PSoC5/USBUART_1.c **** #include "USBUART_1_hid.h"
  24:.\Generated_Source\PSoC5/USBUART_1.c **** #if(USBUART_1_DMA1_REMOVE == 0u)
  25:.\Generated_Source\PSoC5/USBUART_1.c ****     #include "USBUART_1_ep1_dma.h"
  26:.\Generated_Source\PSoC5/USBUART_1.c **** #endif   /*  USBUART_1_DMA1_REMOVE */
  27:.\Generated_Source\PSoC5/USBUART_1.c **** #if(USBUART_1_DMA2_REMOVE == 0u)
  28:.\Generated_Source\PSoC5/USBUART_1.c ****     #include "USBUART_1_ep2_dma.h"
  29:.\Generated_Source\PSoC5/USBUART_1.c **** #endif   /*  USBUART_1_DMA2_REMOVE */
  30:.\Generated_Source\PSoC5/USBUART_1.c **** #if(USBUART_1_DMA3_REMOVE == 0u)
  31:.\Generated_Source\PSoC5/USBUART_1.c ****     #include "USBUART_1_ep3_dma.h"
ARM GAS  C:\Users\Alex\AppData\Local\Temp\ccbj9lYo.s 			page 2


  32:.\Generated_Source\PSoC5/USBUART_1.c **** #endif   /*  USBUART_1_DMA3_REMOVE */
  33:.\Generated_Source\PSoC5/USBUART_1.c **** #if(USBUART_1_DMA4_REMOVE == 0u)
  34:.\Generated_Source\PSoC5/USBUART_1.c ****     #include "USBUART_1_ep4_dma.h"
  35:.\Generated_Source\PSoC5/USBUART_1.c **** #endif   /*  USBUART_1_DMA4_REMOVE */
  36:.\Generated_Source\PSoC5/USBUART_1.c **** #if(USBUART_1_DMA5_REMOVE == 0u)
  37:.\Generated_Source\PSoC5/USBUART_1.c ****     #include "USBUART_1_ep5_dma.h"
  38:.\Generated_Source\PSoC5/USBUART_1.c **** #endif   /*  USBUART_1_DMA5_REMOVE */
  39:.\Generated_Source\PSoC5/USBUART_1.c **** #if(USBUART_1_DMA6_REMOVE == 0u)
  40:.\Generated_Source\PSoC5/USBUART_1.c ****     #include "USBUART_1_ep6_dma.h"
  41:.\Generated_Source\PSoC5/USBUART_1.c **** #endif   /*  USBUART_1_DMA6_REMOVE */
  42:.\Generated_Source\PSoC5/USBUART_1.c **** #if(USBUART_1_DMA7_REMOVE == 0u)
  43:.\Generated_Source\PSoC5/USBUART_1.c ****     #include "USBUART_1_ep7_dma.h"
  44:.\Generated_Source\PSoC5/USBUART_1.c **** #endif   /*  USBUART_1_DMA7_REMOVE */
  45:.\Generated_Source\PSoC5/USBUART_1.c **** #if(USBUART_1_DMA8_REMOVE == 0u)
  46:.\Generated_Source\PSoC5/USBUART_1.c ****     #include "USBUART_1_ep8_dma.h"
  47:.\Generated_Source\PSoC5/USBUART_1.c **** #endif   /*  USBUART_1_DMA8_REMOVE */
  48:.\Generated_Source\PSoC5/USBUART_1.c **** #if((USBUART_1_EP_MM == USBUART_1__EP_DMAAUTO) && (USBUART_1_EP_DMA_AUTO_OPT == 0u))
  49:.\Generated_Source\PSoC5/USBUART_1.c ****     #include "USBUART_1_EP_DMA_Done_isr.h"
  50:.\Generated_Source\PSoC5/USBUART_1.c ****     #include "USBUART_1_EP8_DMA_Done_SR.h"
  51:.\Generated_Source\PSoC5/USBUART_1.c ****     #include "USBUART_1_EP17_DMA_Done_SR.h"
  52:.\Generated_Source\PSoC5/USBUART_1.c **** #endif /* ((USBUART_1_EP_MM == USBUART_1__EP_DMAAUTO) && (USBUART_1_EP_DMA_AUTO_OPT == 0u)) */
  53:.\Generated_Source\PSoC5/USBUART_1.c **** 
  54:.\Generated_Source\PSoC5/USBUART_1.c **** 
  55:.\Generated_Source\PSoC5/USBUART_1.c **** /***************************************
  56:.\Generated_Source\PSoC5/USBUART_1.c **** * Global data allocation
  57:.\Generated_Source\PSoC5/USBUART_1.c **** ***************************************/
  58:.\Generated_Source\PSoC5/USBUART_1.c **** 
  59:.\Generated_Source\PSoC5/USBUART_1.c **** uint8 USBUART_1_initVar = 0u;
  60:.\Generated_Source\PSoC5/USBUART_1.c **** #if(USBUART_1_EP_MM != USBUART_1__EP_MANUAL)
  61:.\Generated_Source\PSoC5/USBUART_1.c ****     uint8 USBUART_1_DmaChan[USBUART_1_MAX_EP];
  62:.\Generated_Source\PSoC5/USBUART_1.c ****     uint8 USBUART_1_DmaTd[USBUART_1_MAX_EP];
  63:.\Generated_Source\PSoC5/USBUART_1.c **** #endif /*  USBUART_1_EP_MM */
  64:.\Generated_Source\PSoC5/USBUART_1.c **** #if((USBUART_1_EP_MM == USBUART_1__EP_DMAAUTO) && (USBUART_1_EP_DMA_AUTO_OPT == 0u))
  65:.\Generated_Source\PSoC5/USBUART_1.c ****     static uint8 clearInDataRdyStatus = USBUART_1_ARB_EPX_CFG_DEFAULT;
  66:.\Generated_Source\PSoC5/USBUART_1.c ****     uint8 USBUART_1_DmaNextTd[USBUART_1_MAX_EP];
  67:.\Generated_Source\PSoC5/USBUART_1.c ****     const uint8 USBUART_1_epX_TD_TERMOUT_EN[USBUART_1_MAX_EP] =
  68:.\Generated_Source\PSoC5/USBUART_1.c ****     {   0u,
  69:.\Generated_Source\PSoC5/USBUART_1.c ****         USBUART_1_ep1_TD_TERMOUT_EN,
  70:.\Generated_Source\PSoC5/USBUART_1.c ****         USBUART_1_ep2_TD_TERMOUT_EN,
  71:.\Generated_Source\PSoC5/USBUART_1.c ****         USBUART_1_ep3_TD_TERMOUT_EN,
  72:.\Generated_Source\PSoC5/USBUART_1.c ****         USBUART_1_ep4_TD_TERMOUT_EN,
  73:.\Generated_Source\PSoC5/USBUART_1.c ****         USBUART_1_ep5_TD_TERMOUT_EN,
  74:.\Generated_Source\PSoC5/USBUART_1.c ****         USBUART_1_ep6_TD_TERMOUT_EN,
  75:.\Generated_Source\PSoC5/USBUART_1.c ****         USBUART_1_ep7_TD_TERMOUT_EN,
  76:.\Generated_Source\PSoC5/USBUART_1.c ****         USBUART_1_ep8_TD_TERMOUT_EN
  77:.\Generated_Source\PSoC5/USBUART_1.c ****     };
  78:.\Generated_Source\PSoC5/USBUART_1.c ****     volatile uint16 USBUART_1_inLength[USBUART_1_MAX_EP];
  79:.\Generated_Source\PSoC5/USBUART_1.c ****     const uint8 *USBUART_1_inDataPointer[USBUART_1_MAX_EP];
  80:.\Generated_Source\PSoC5/USBUART_1.c ****     volatile uint8 USBUART_1_inBufFull[USBUART_1_MAX_EP];
  81:.\Generated_Source\PSoC5/USBUART_1.c **** #endif /* ((USBUART_1_EP_MM == USBUART_1__EP_DMAAUTO) && (USBUART_1_EP_DMA_AUTO_OPT == 0u)) */
  82:.\Generated_Source\PSoC5/USBUART_1.c **** 
  83:.\Generated_Source\PSoC5/USBUART_1.c **** 
  84:.\Generated_Source\PSoC5/USBUART_1.c **** /*******************************************************************************
  85:.\Generated_Source\PSoC5/USBUART_1.c **** * Function Name: USBUART_1_Start
  86:.\Generated_Source\PSoC5/USBUART_1.c **** ********************************************************************************
  87:.\Generated_Source\PSoC5/USBUART_1.c **** *
  88:.\Generated_Source\PSoC5/USBUART_1.c **** * Summary:
ARM GAS  C:\Users\Alex\AppData\Local\Temp\ccbj9lYo.s 			page 3


  89:.\Generated_Source\PSoC5/USBUART_1.c **** *  This function initialize the USB SIE, arbiter and the
  90:.\Generated_Source\PSoC5/USBUART_1.c **** *  endpoint APIs, including setting the D+ Pullup
  91:.\Generated_Source\PSoC5/USBUART_1.c **** *
  92:.\Generated_Source\PSoC5/USBUART_1.c **** * Parameters:
  93:.\Generated_Source\PSoC5/USBUART_1.c **** *  device: Contains the device number of the desired device descriptor.
  94:.\Generated_Source\PSoC5/USBUART_1.c **** *          The device number can be found in the Device Descriptor Tab of
  95:.\Generated_Source\PSoC5/USBUART_1.c **** *          "Configure" dialog, under the settings of desired Device Descriptor,
  96:.\Generated_Source\PSoC5/USBUART_1.c **** *          in the "Device Number" field.
  97:.\Generated_Source\PSoC5/USBUART_1.c **** *  mode: The operating voltage. This determines whether the voltage regulator
  98:.\Generated_Source\PSoC5/USBUART_1.c **** *        is enabled for 5V operation or if pass through mode is used for 3.3V
  99:.\Generated_Source\PSoC5/USBUART_1.c **** *        operation. Symbolic names and their associated values are given in the
 100:.\Generated_Source\PSoC5/USBUART_1.c **** *        following table.
 101:.\Generated_Source\PSoC5/USBUART_1.c **** *       USBUART_1_3V_OPERATION - Disable voltage regulator and pass-thru
 102:.\Generated_Source\PSoC5/USBUART_1.c **** *                                       Vcc for pull-up
 103:.\Generated_Source\PSoC5/USBUART_1.c **** *       USBUART_1_5V_OPERATION - Enable voltage regulator and use
 104:.\Generated_Source\PSoC5/USBUART_1.c **** *                                       regulator for pull-up
 105:.\Generated_Source\PSoC5/USBUART_1.c **** *       USBUART_1_DWR_VDDD_OPERATION - Enable or Disable voltage
 106:.\Generated_Source\PSoC5/USBUART_1.c **** *                         regulator depend on Vddd Voltage configuration in DWR.
 107:.\Generated_Source\PSoC5/USBUART_1.c **** *
 108:.\Generated_Source\PSoC5/USBUART_1.c **** * Return:
 109:.\Generated_Source\PSoC5/USBUART_1.c **** *   None.
 110:.\Generated_Source\PSoC5/USBUART_1.c **** *
 111:.\Generated_Source\PSoC5/USBUART_1.c **** * Global variables:
 112:.\Generated_Source\PSoC5/USBUART_1.c **** *  The USBUART_1_intiVar variable is used to indicate initial
 113:.\Generated_Source\PSoC5/USBUART_1.c **** *  configuration of this component. The variable is initialized to zero (0u)
 114:.\Generated_Source\PSoC5/USBUART_1.c **** *  and set to one (1u) the first time USBUART_1_Start() is called.
 115:.\Generated_Source\PSoC5/USBUART_1.c **** *  This allows for component Re-Start without unnecessary re-initialization
 116:.\Generated_Source\PSoC5/USBUART_1.c **** *  in all subsequent calls to the USBUART_1_Start() routine.
 117:.\Generated_Source\PSoC5/USBUART_1.c **** *  If re-initialization of the component is required the variable should be set
 118:.\Generated_Source\PSoC5/USBUART_1.c **** *  to zero before call of UART_Start() routine, or the user may call
 119:.\Generated_Source\PSoC5/USBUART_1.c **** *  USBUART_1_Init() and USBUART_1_InitComponent() as done
 120:.\Generated_Source\PSoC5/USBUART_1.c **** *  in the USBUART_1_Start() routine.
 121:.\Generated_Source\PSoC5/USBUART_1.c **** *
 122:.\Generated_Source\PSoC5/USBUART_1.c **** * Side Effects:
 123:.\Generated_Source\PSoC5/USBUART_1.c **** *   This function will reset all communication states to default.
 124:.\Generated_Source\PSoC5/USBUART_1.c **** *
 125:.\Generated_Source\PSoC5/USBUART_1.c **** * Reentrant:
 126:.\Generated_Source\PSoC5/USBUART_1.c **** *  No.
 127:.\Generated_Source\PSoC5/USBUART_1.c **** *
 128:.\Generated_Source\PSoC5/USBUART_1.c **** *******************************************************************************/
 129:.\Generated_Source\PSoC5/USBUART_1.c **** void USBUART_1_Start(uint8 device, uint8 mode) 
 130:.\Generated_Source\PSoC5/USBUART_1.c **** {
 131:.\Generated_Source\PSoC5/USBUART_1.c ****     /* If not Initialized then initialize all required hardware and software */
 132:.\Generated_Source\PSoC5/USBUART_1.c ****     if(USBUART_1_initVar == 0u)
 133:.\Generated_Source\PSoC5/USBUART_1.c ****     {
 134:.\Generated_Source\PSoC5/USBUART_1.c ****         USBUART_1_Init();
 135:.\Generated_Source\PSoC5/USBUART_1.c ****         USBUART_1_initVar = 1u;
 136:.\Generated_Source\PSoC5/USBUART_1.c ****     }
 137:.\Generated_Source\PSoC5/USBUART_1.c ****     USBUART_1_InitComponent(device, mode);
 138:.\Generated_Source\PSoC5/USBUART_1.c **** }
 139:.\Generated_Source\PSoC5/USBUART_1.c **** 
 140:.\Generated_Source\PSoC5/USBUART_1.c **** 
 141:.\Generated_Source\PSoC5/USBUART_1.c **** /*******************************************************************************
 142:.\Generated_Source\PSoC5/USBUART_1.c **** * Function Name: USBUART_1_Init
 143:.\Generated_Source\PSoC5/USBUART_1.c **** ********************************************************************************
 144:.\Generated_Source\PSoC5/USBUART_1.c **** *
 145:.\Generated_Source\PSoC5/USBUART_1.c **** * Summary:
ARM GAS  C:\Users\Alex\AppData\Local\Temp\ccbj9lYo.s 			page 4


 146:.\Generated_Source\PSoC5/USBUART_1.c **** *  Initialize component's hardware. Usually called in USBUART_1_Start().
 147:.\Generated_Source\PSoC5/USBUART_1.c **** *
 148:.\Generated_Source\PSoC5/USBUART_1.c **** * Parameters:
 149:.\Generated_Source\PSoC5/USBUART_1.c **** *  None.
 150:.\Generated_Source\PSoC5/USBUART_1.c **** *
 151:.\Generated_Source\PSoC5/USBUART_1.c **** * Return:
 152:.\Generated_Source\PSoC5/USBUART_1.c **** *  None.
 153:.\Generated_Source\PSoC5/USBUART_1.c **** *
 154:.\Generated_Source\PSoC5/USBUART_1.c **** * Reentrant:
 155:.\Generated_Source\PSoC5/USBUART_1.c **** *  No.
 156:.\Generated_Source\PSoC5/USBUART_1.c **** *
 157:.\Generated_Source\PSoC5/USBUART_1.c **** *******************************************************************************/
 158:.\Generated_Source\PSoC5/USBUART_1.c **** void USBUART_1_Init(void) 
 159:.\Generated_Source\PSoC5/USBUART_1.c **** {
  27              		.loc 1 159 0
  28              		.cfi_startproc
  29              		@ args = 0, pretend = 0, frame = 0
  30              		@ frame_needed = 0, uses_anonymous_args = 0
  31 0000 F8B5     		push	{r3, r4, r5, r6, r7, lr}
  32              		.cfi_def_cfa_offset 24
  33              		.cfi_offset 3, -24
  34              		.cfi_offset 4, -20
  35              		.cfi_offset 5, -16
  36              		.cfi_offset 6, -12
  37              		.cfi_offset 7, -8
  38              		.cfi_offset 14, -4
 160:.\Generated_Source\PSoC5/USBUART_1.c ****     uint8 enableInterrupts;
 161:.\Generated_Source\PSoC5/USBUART_1.c ****     #if(USBUART_1_EP_MM != USBUART_1__EP_MANUAL)
 162:.\Generated_Source\PSoC5/USBUART_1.c ****         uint16 i;
 163:.\Generated_Source\PSoC5/USBUART_1.c ****     #endif   /*  USBUART_1_EP_MM != USBUART_1__EP_MANUAL */
 164:.\Generated_Source\PSoC5/USBUART_1.c **** 
 165:.\Generated_Source\PSoC5/USBUART_1.c ****     enableInterrupts = CyEnterCriticalSection();
  39              		.loc 1 165 0
  40 0002 FFF7FEFF 		bl	CyEnterCriticalSection
  41              	.LVL0:
  42 0006 0546     		mov	r5, r0
  43              	.LVL1:
 166:.\Generated_Source\PSoC5/USBUART_1.c **** 
 167:.\Generated_Source\PSoC5/USBUART_1.c ****     /* Enable USB block  */
 168:.\Generated_Source\PSoC5/USBUART_1.c ****     USBUART_1_PM_ACT_CFG_REG |= USBUART_1_PM_ACT_EN_FSUSB;
  44              		.loc 1 168 0
  45 0008 444A     		ldr	r2, .L5
  46 000a 1378     		ldrb	r3, [r2]	@ zero_extendqisi2
  47 000c 43F00103 		orr	r3, r3, #1
  48 0010 1370     		strb	r3, [r2]
 169:.\Generated_Source\PSoC5/USBUART_1.c ****     /* Enable USB block for Standby Power Mode */
 170:.\Generated_Source\PSoC5/USBUART_1.c ****     USBUART_1_PM_STBY_CFG_REG |= USBUART_1_PM_STBY_EN_FSUSB;
  49              		.loc 1 170 0
  50 0012 1032     		adds	r2, r2, #16
  51 0014 1378     		ldrb	r3, [r2]	@ zero_extendqisi2
  52 0016 43F00103 		orr	r3, r3, #1
  53 001a 1370     		strb	r3, [r2]
 171:.\Generated_Source\PSoC5/USBUART_1.c **** 
 172:.\Generated_Source\PSoC5/USBUART_1.c ****     /* Enable core clock */
 173:.\Generated_Source\PSoC5/USBUART_1.c ****     USBUART_1_USB_CLK_EN_REG = USBUART_1_USB_CLK_ENABLE;
  54              		.loc 1 173 0
  55 001c 0127     		movs	r7, #1
ARM GAS  C:\Users\Alex\AppData\Local\Temp\ccbj9lYo.s 			page 5


  56 001e 404B     		ldr	r3, .L5+4
  57 0020 1F70     		strb	r7, [r3]
 174:.\Generated_Source\PSoC5/USBUART_1.c **** 
 175:.\Generated_Source\PSoC5/USBUART_1.c ****     USBUART_1_CR1_REG = USBUART_1_CR1_ENABLE_LOCK;
  58              		.loc 1 175 0
  59 0022 0226     		movs	r6, #2
  60 0024 943B     		subs	r3, r3, #148
  61 0026 1E70     		strb	r6, [r3]
 176:.\Generated_Source\PSoC5/USBUART_1.c **** 
 177:.\Generated_Source\PSoC5/USBUART_1.c ****     /* ENABLING USBIO PADS IN USB MODE FROM I/O MODE */
 178:.\Generated_Source\PSoC5/USBUART_1.c ****     /* Ensure USB transmit enable is low (USB_USBIO_CR0.ten). - Manual Transmission - Disabled */
 179:.\Generated_Source\PSoC5/USBUART_1.c ****     USBUART_1_USBIO_CR0_REG &= ((uint8)(~USBUART_1_USBIO_CR0_TEN));
  62              		.loc 1 179 0
  63 0028 02F5E252 		add	r2, r2, #7232
  64 002c 1B32     		adds	r2, r2, #27
  65 002e 1378     		ldrb	r3, [r2]	@ zero_extendqisi2
  66 0030 03F07F03 		and	r3, r3, #127
  67 0034 1370     		strb	r3, [r2]
 180:.\Generated_Source\PSoC5/USBUART_1.c ****     CyDelayUs(0u);  /*~50ns delay */
  68              		.loc 1 180 0
  69 0036 0020     		movs	r0, #0
  70 0038 FFF7FEFF 		bl	CyDelayUs
  71              	.LVL2:
 181:.\Generated_Source\PSoC5/USBUART_1.c ****     /* Disable the USBIO by asserting PM.USB_CR0.fsusbio_pd_n(Inverted)
 182:.\Generated_Source\PSoC5/USBUART_1.c ****     *  high. This will have been set low by the power manger out of reset.
 183:.\Generated_Source\PSoC5/USBUART_1.c ****     *  Also confirm USBIO pull-up disabled
 184:.\Generated_Source\PSoC5/USBUART_1.c ****     */
 185:.\Generated_Source\PSoC5/USBUART_1.c ****     USBUART_1_PM_USB_CR0_REG &= ((uint8)(~(USBUART_1_PM_USB_CR0_PD_N |
  72              		.loc 1 185 0
  73 003c 394C     		ldr	r4, .L5+8
  74 003e 2378     		ldrb	r3, [r4]	@ zero_extendqisi2
  75 0040 03F0F903 		and	r3, r3, #249
  76 0044 2370     		strb	r3, [r4]
 186:.\Generated_Source\PSoC5/USBUART_1.c ****                                                   USBUART_1_PM_USB_CR0_PD_PULLUP_N)));
 187:.\Generated_Source\PSoC5/USBUART_1.c **** 
 188:.\Generated_Source\PSoC5/USBUART_1.c ****     /* Select iomode to USB mode*/
 189:.\Generated_Source\PSoC5/USBUART_1.c ****     USBUART_1_USBIO_CR1_REG &= ((uint8)(~USBUART_1_USBIO_CR1_IOMODE));
  77              		.loc 1 189 0
  78 0046 384A     		ldr	r2, .L5+12
  79 0048 1378     		ldrb	r3, [r2]	@ zero_extendqisi2
  80 004a 03F0DF03 		and	r3, r3, #223
  81 004e 1370     		strb	r3, [r2]
 190:.\Generated_Source\PSoC5/USBUART_1.c **** 
 191:.\Generated_Source\PSoC5/USBUART_1.c ****     /* Enable the USBIO reference by setting PM.USB_CR0.fsusbio_ref_en.*/
 192:.\Generated_Source\PSoC5/USBUART_1.c ****     USBUART_1_PM_USB_CR0_REG |= USBUART_1_PM_USB_CR0_REF_EN;
  82              		.loc 1 192 0
  83 0050 2378     		ldrb	r3, [r4]	@ zero_extendqisi2
  84 0052 3B43     		orrs	r3, r3, r7
  85 0054 2370     		strb	r3, [r4]
 193:.\Generated_Source\PSoC5/USBUART_1.c ****     /* The reference will be available 1 us after the regulator is enabled */
 194:.\Generated_Source\PSoC5/USBUART_1.c ****     CyDelayUs(1u);
  86              		.loc 1 194 0
  87 0056 3846     		mov	r0, r7
  88 0058 FFF7FEFF 		bl	CyDelayUs
  89              	.LVL3:
 195:.\Generated_Source\PSoC5/USBUART_1.c ****     /* OR 40us after power restored */
 196:.\Generated_Source\PSoC5/USBUART_1.c ****     CyDelayUs(40u);
ARM GAS  C:\Users\Alex\AppData\Local\Temp\ccbj9lYo.s 			page 6


  90              		.loc 1 196 0
  91 005c 2820     		movs	r0, #40
  92 005e FFF7FEFF 		bl	CyDelayUs
  93              	.LVL4:
 197:.\Generated_Source\PSoC5/USBUART_1.c ****     /* Ensure the single ended disable bits are low (PRT15.INP_DIS[7:6])(input receiver enabled). *
 198:.\Generated_Source\PSoC5/USBUART_1.c ****     USBUART_1_DM_INP_DIS_REG &= ((uint8)(~USBUART_1_DM_MASK));
  94              		.loc 1 198 0
  95 0062 324B     		ldr	r3, .L5+16
  96 0064 1A78     		ldrb	r2, [r3]	@ zero_extendqisi2
  97 0066 02F07F02 		and	r2, r2, #127
  98 006a 1A70     		strb	r2, [r3]
 199:.\Generated_Source\PSoC5/USBUART_1.c ****     USBUART_1_DP_INP_DIS_REG &= ((uint8)(~USBUART_1_DP_MASK));
  99              		.loc 1 199 0
 100 006c 1A78     		ldrb	r2, [r3]	@ zero_extendqisi2
 101 006e 02F0BF02 		and	r2, r2, #191
 102 0072 1A70     		strb	r2, [r3]
 200:.\Generated_Source\PSoC5/USBUART_1.c **** 
 201:.\Generated_Source\PSoC5/USBUART_1.c ****     /* Enable USBIO */
 202:.\Generated_Source\PSoC5/USBUART_1.c ****     USBUART_1_PM_USB_CR0_REG |= USBUART_1_PM_USB_CR0_PD_N;
 103              		.loc 1 202 0
 104 0074 2378     		ldrb	r3, [r4]	@ zero_extendqisi2
 105 0076 3343     		orrs	r3, r3, r6
 106 0078 2370     		strb	r3, [r4]
 203:.\Generated_Source\PSoC5/USBUART_1.c ****     CyDelayUs(2u);
 107              		.loc 1 203 0
 108 007a 3046     		mov	r0, r6
 109 007c FFF7FEFF 		bl	CyDelayUs
 110              	.LVL5:
 204:.\Generated_Source\PSoC5/USBUART_1.c ****     /* Set the USBIO pull-up enable */
 205:.\Generated_Source\PSoC5/USBUART_1.c ****     USBUART_1_PM_USB_CR0_REG |= USBUART_1_PM_USB_CR0_PD_PULLUP_N;
 111              		.loc 1 205 0
 112 0080 2378     		ldrb	r3, [r4]	@ zero_extendqisi2
 113 0082 43F00403 		orr	r3, r3, #4
 114 0086 2370     		strb	r3, [r4]
 206:.\Generated_Source\PSoC5/USBUART_1.c **** 
 207:.\Generated_Source\PSoC5/USBUART_1.c ****     /* Write WAx */
 208:.\Generated_Source\PSoC5/USBUART_1.c ****     CY_SET_REG8(USBUART_1_ARB_RW1_WA_PTR,     0u);
 115              		.loc 1 208 0
 116 0088 0023     		movs	r3, #0
 117 008a 294A     		ldr	r2, .L5+20
 118 008c 1370     		strb	r3, [r2]
 209:.\Generated_Source\PSoC5/USBUART_1.c ****     CY_SET_REG8(USBUART_1_ARB_RW1_WA_MSB_PTR, 0u);
 119              		.loc 1 209 0
 120 008e 0132     		adds	r2, r2, #1
 121 0090 1370     		strb	r3, [r2]
 122              	.LVL6:
 210:.\Generated_Source\PSoC5/USBUART_1.c **** 
 211:.\Generated_Source\PSoC5/USBUART_1.c ****     #if(USBUART_1_EP_MM != USBUART_1__EP_MANUAL)
 212:.\Generated_Source\PSoC5/USBUART_1.c ****         /* Init transfer descriptor. This will be used to detect the DMA state - initialized or not
 213:.\Generated_Source\PSoC5/USBUART_1.c ****         for (i = 0u; i < USBUART_1_MAX_EP; i++)
 123              		.loc 1 213 0
 124 0092 04E0     		b	.L2
 125              	.LVL7:
 126              	.L3:
 214:.\Generated_Source\PSoC5/USBUART_1.c ****         {
 215:.\Generated_Source\PSoC5/USBUART_1.c ****             USBUART_1_DmaTd[i] = DMA_INVALID_TD;
 127              		.loc 1 215 0 discriminator 3
ARM GAS  C:\Users\Alex\AppData\Local\Temp\ccbj9lYo.s 			page 7


 128 0094 FF21     		movs	r1, #255
 129 0096 274A     		ldr	r2, .L5+24
 130 0098 D154     		strb	r1, [r2, r3]
 213:.\Generated_Source\PSoC5/USBUART_1.c ****         {
 131              		.loc 1 213 0 discriminator 3
 132 009a 0133     		adds	r3, r3, #1
 133              	.LVL8:
 134 009c 9BB2     		uxth	r3, r3
 135              	.LVL9:
 136              	.L2:
 213:.\Generated_Source\PSoC5/USBUART_1.c ****         {
 137              		.loc 1 213 0 is_stmt 0 discriminator 1
 138 009e 082B     		cmp	r3, #8
 139 00a0 F8D9     		bls	.L3
 216:.\Generated_Source\PSoC5/USBUART_1.c ****             #if ((USBUART_1_EP_MM == USBUART_1__EP_DMAAUTO) && (USBUART_1_EP_DMA_AUTO_OPT == 0u))
 217:.\Generated_Source\PSoC5/USBUART_1.c ****                 USBUART_1_DmaNextTd[i] = DMA_INVALID_TD;
 218:.\Generated_Source\PSoC5/USBUART_1.c ****             #endif /* ((USBUART_1_EP_MM == USBUART_1__EP_DMAAUTO) && (USBUART_1_EP_DMA_AUTO_OPT == 
 219:.\Generated_Source\PSoC5/USBUART_1.c ****         }
 220:.\Generated_Source\PSoC5/USBUART_1.c ****     #endif   /*  USBUART_1_EP_MM != USBUART_1__EP_MANUAL */
 221:.\Generated_Source\PSoC5/USBUART_1.c **** 
 222:.\Generated_Source\PSoC5/USBUART_1.c ****     CyExitCriticalSection(enableInterrupts);
 140              		.loc 1 222 0 is_stmt 1
 141 00a2 2846     		mov	r0, r5
 142 00a4 FFF7FEFF 		bl	CyExitCriticalSection
 143              	.LVL10:
 223:.\Generated_Source\PSoC5/USBUART_1.c **** 
 224:.\Generated_Source\PSoC5/USBUART_1.c **** 
 225:.\Generated_Source\PSoC5/USBUART_1.c ****     /* Set the bus reset Interrupt. */
 226:.\Generated_Source\PSoC5/USBUART_1.c ****     (void) CyIntSetVector(USBUART_1_BUS_RESET_VECT_NUM,   &USBUART_1_BUS_RESET_ISR);
 144              		.loc 1 226 0
 145 00a8 1720     		movs	r0, #23
 146 00aa 2349     		ldr	r1, .L5+28
 147 00ac FFF7FEFF 		bl	CyIntSetVector
 148              	.LVL11:
 227:.\Generated_Source\PSoC5/USBUART_1.c ****     CyIntSetPriority(USBUART_1_BUS_RESET_VECT_NUM, USBUART_1_BUS_RESET_PRIOR);
 149              		.loc 1 227 0
 150 00b0 1720     		movs	r0, #23
 151 00b2 0721     		movs	r1, #7
 152 00b4 FFF7FEFF 		bl	CyIntSetPriority
 153              	.LVL12:
 228:.\Generated_Source\PSoC5/USBUART_1.c **** 
 229:.\Generated_Source\PSoC5/USBUART_1.c ****     /* Set the SOF Interrupt. */
 230:.\Generated_Source\PSoC5/USBUART_1.c ****     #if(USBUART_1_SOF_ISR_REMOVE == 0u)
 231:.\Generated_Source\PSoC5/USBUART_1.c ****         (void) CyIntSetVector(USBUART_1_SOF_VECT_NUM,   &USBUART_1_SOF_ISR);
 154              		.loc 1 231 0
 155 00b8 1520     		movs	r0, #21
 156 00ba 2049     		ldr	r1, .L5+32
 157 00bc FFF7FEFF 		bl	CyIntSetVector
 158              	.LVL13:
 232:.\Generated_Source\PSoC5/USBUART_1.c ****         CyIntSetPriority(USBUART_1_SOF_VECT_NUM, USBUART_1_SOF_PRIOR);
 159              		.loc 1 232 0
 160 00c0 1520     		movs	r0, #21
 161 00c2 0721     		movs	r1, #7
 162 00c4 FFF7FEFF 		bl	CyIntSetPriority
 163              	.LVL14:
 233:.\Generated_Source\PSoC5/USBUART_1.c ****     #endif   /*  USBUART_1_SOF_ISR_REMOVE */
 234:.\Generated_Source\PSoC5/USBUART_1.c **** 
ARM GAS  C:\Users\Alex\AppData\Local\Temp\ccbj9lYo.s 			page 8


 235:.\Generated_Source\PSoC5/USBUART_1.c ****     /* Set the Control Endpoint Interrupt. */
 236:.\Generated_Source\PSoC5/USBUART_1.c ****     (void) CyIntSetVector(USBUART_1_EP_0_VECT_NUM,   &USBUART_1_EP_0_ISR);
 164              		.loc 1 236 0
 165 00c8 1820     		movs	r0, #24
 166 00ca 1D49     		ldr	r1, .L5+36
 167 00cc FFF7FEFF 		bl	CyIntSetVector
 168              	.LVL15:
 237:.\Generated_Source\PSoC5/USBUART_1.c ****     CyIntSetPriority(USBUART_1_EP_0_VECT_NUM, USBUART_1_EP_0_PRIOR);
 169              		.loc 1 237 0
 170 00d0 1820     		movs	r0, #24
 171 00d2 0721     		movs	r1, #7
 172 00d4 FFF7FEFF 		bl	CyIntSetPriority
 173              	.LVL16:
 238:.\Generated_Source\PSoC5/USBUART_1.c **** 
 239:.\Generated_Source\PSoC5/USBUART_1.c ****     /* Set the Data Endpoint 1 Interrupt. */
 240:.\Generated_Source\PSoC5/USBUART_1.c ****     #if(USBUART_1_EP1_ISR_REMOVE == 0u)
 241:.\Generated_Source\PSoC5/USBUART_1.c ****         (void) CyIntSetVector(USBUART_1_EP_1_VECT_NUM,   &USBUART_1_EP_1_ISR);
 174              		.loc 1 241 0
 175 00d8 0420     		movs	r0, #4
 176 00da 1A49     		ldr	r1, .L5+40
 177 00dc FFF7FEFF 		bl	CyIntSetVector
 178              	.LVL17:
 242:.\Generated_Source\PSoC5/USBUART_1.c ****         CyIntSetPriority(USBUART_1_EP_1_VECT_NUM, USBUART_1_EP_1_PRIOR);
 179              		.loc 1 242 0
 180 00e0 0420     		movs	r0, #4
 181 00e2 0721     		movs	r1, #7
 182 00e4 FFF7FEFF 		bl	CyIntSetPriority
 183              	.LVL18:
 243:.\Generated_Source\PSoC5/USBUART_1.c ****     #endif   /*  USBUART_1_EP1_ISR_REMOVE */
 244:.\Generated_Source\PSoC5/USBUART_1.c **** 
 245:.\Generated_Source\PSoC5/USBUART_1.c ****     /* Set the Data Endpoint 2 Interrupt. */
 246:.\Generated_Source\PSoC5/USBUART_1.c ****     #if(USBUART_1_EP2_ISR_REMOVE == 0u)
 247:.\Generated_Source\PSoC5/USBUART_1.c ****         (void) CyIntSetVector(USBUART_1_EP_2_VECT_NUM,   &USBUART_1_EP_2_ISR);
 184              		.loc 1 247 0
 185 00e8 0520     		movs	r0, #5
 186 00ea 1749     		ldr	r1, .L5+44
 187 00ec FFF7FEFF 		bl	CyIntSetVector
 188              	.LVL19:
 248:.\Generated_Source\PSoC5/USBUART_1.c ****         CyIntSetPriority(USBUART_1_EP_2_VECT_NUM, USBUART_1_EP_2_PRIOR);
 189              		.loc 1 248 0
 190 00f0 0520     		movs	r0, #5
 191 00f2 0721     		movs	r1, #7
 192 00f4 FFF7FEFF 		bl	CyIntSetPriority
 193              	.LVL20:
 249:.\Generated_Source\PSoC5/USBUART_1.c ****     #endif   /*  USBUART_1_EP2_ISR_REMOVE */
 250:.\Generated_Source\PSoC5/USBUART_1.c **** 
 251:.\Generated_Source\PSoC5/USBUART_1.c ****     /* Set the Data Endpoint 3 Interrupt. */
 252:.\Generated_Source\PSoC5/USBUART_1.c ****     #if(USBUART_1_EP3_ISR_REMOVE == 0u)
 253:.\Generated_Source\PSoC5/USBUART_1.c ****         (void) CyIntSetVector(USBUART_1_EP_3_VECT_NUM,   &USBUART_1_EP_3_ISR);
 194              		.loc 1 253 0
 195 00f8 0620     		movs	r0, #6
 196 00fa 1449     		ldr	r1, .L5+48
 197 00fc FFF7FEFF 		bl	CyIntSetVector
 198              	.LVL21:
 254:.\Generated_Source\PSoC5/USBUART_1.c ****         CyIntSetPriority(USBUART_1_EP_3_VECT_NUM, USBUART_1_EP_3_PRIOR);
 199              		.loc 1 254 0
 200 0100 0620     		movs	r0, #6
ARM GAS  C:\Users\Alex\AppData\Local\Temp\ccbj9lYo.s 			page 9


 201 0102 0721     		movs	r1, #7
 202 0104 FFF7FEFF 		bl	CyIntSetPriority
 203              	.LVL22:
 255:.\Generated_Source\PSoC5/USBUART_1.c ****     #endif   /*  USBUART_1_EP3_ISR_REMOVE */
 256:.\Generated_Source\PSoC5/USBUART_1.c **** 
 257:.\Generated_Source\PSoC5/USBUART_1.c ****     /* Set the Data Endpoint 4 Interrupt. */
 258:.\Generated_Source\PSoC5/USBUART_1.c ****     #if(USBUART_1_EP4_ISR_REMOVE == 0u)
 259:.\Generated_Source\PSoC5/USBUART_1.c ****         (void) CyIntSetVector(USBUART_1_EP_4_VECT_NUM,   &USBUART_1_EP_4_ISR);
 260:.\Generated_Source\PSoC5/USBUART_1.c ****         CyIntSetPriority(USBUART_1_EP_4_VECT_NUM, USBUART_1_EP_4_PRIOR);
 261:.\Generated_Source\PSoC5/USBUART_1.c ****     #endif   /*  USBUART_1_EP4_ISR_REMOVE */
 262:.\Generated_Source\PSoC5/USBUART_1.c **** 
 263:.\Generated_Source\PSoC5/USBUART_1.c ****     /* Set the Data Endpoint 5 Interrupt. */
 264:.\Generated_Source\PSoC5/USBUART_1.c ****     #if(USBUART_1_EP5_ISR_REMOVE == 0u)
 265:.\Generated_Source\PSoC5/USBUART_1.c ****         (void) CyIntSetVector(USBUART_1_EP_5_VECT_NUM,   &USBUART_1_EP_5_ISR);
 266:.\Generated_Source\PSoC5/USBUART_1.c ****         CyIntSetPriority(USBUART_1_EP_5_VECT_NUM, USBUART_1_EP_5_PRIOR);
 267:.\Generated_Source\PSoC5/USBUART_1.c ****     #endif   /*  USBUART_1_EP5_ISR_REMOVE */
 268:.\Generated_Source\PSoC5/USBUART_1.c **** 
 269:.\Generated_Source\PSoC5/USBUART_1.c ****     /* Set the Data Endpoint 6 Interrupt. */
 270:.\Generated_Source\PSoC5/USBUART_1.c ****     #if(USBUART_1_EP6_ISR_REMOVE == 0u)
 271:.\Generated_Source\PSoC5/USBUART_1.c ****         (void) CyIntSetVector(USBUART_1_EP_6_VECT_NUM,   &USBUART_1_EP_6_ISR);
 272:.\Generated_Source\PSoC5/USBUART_1.c ****         CyIntSetPriority(USBUART_1_EP_6_VECT_NUM, USBUART_1_EP_6_PRIOR);
 273:.\Generated_Source\PSoC5/USBUART_1.c ****     #endif   /*  USBUART_1_EP6_ISR_REMOVE */
 274:.\Generated_Source\PSoC5/USBUART_1.c **** 
 275:.\Generated_Source\PSoC5/USBUART_1.c ****      /* Set the Data Endpoint 7 Interrupt. */
 276:.\Generated_Source\PSoC5/USBUART_1.c ****     #if(USBUART_1_EP7_ISR_REMOVE == 0u)
 277:.\Generated_Source\PSoC5/USBUART_1.c ****         (void) CyIntSetVector(USBUART_1_EP_7_VECT_NUM,   &USBUART_1_EP_7_ISR);
 278:.\Generated_Source\PSoC5/USBUART_1.c ****         CyIntSetPriority(USBUART_1_EP_7_VECT_NUM, USBUART_1_EP_7_PRIOR);
 279:.\Generated_Source\PSoC5/USBUART_1.c ****     #endif   /*  USBUART_1_EP7_ISR_REMOVE */
 280:.\Generated_Source\PSoC5/USBUART_1.c **** 
 281:.\Generated_Source\PSoC5/USBUART_1.c ****     /* Set the Data Endpoint 8 Interrupt. */
 282:.\Generated_Source\PSoC5/USBUART_1.c ****     #if(USBUART_1_EP8_ISR_REMOVE == 0u)
 283:.\Generated_Source\PSoC5/USBUART_1.c ****         (void) CyIntSetVector(USBUART_1_EP_8_VECT_NUM,   &USBUART_1_EP_8_ISR);
 284:.\Generated_Source\PSoC5/USBUART_1.c ****         CyIntSetPriority(USBUART_1_EP_8_VECT_NUM, USBUART_1_EP_8_PRIOR);
 285:.\Generated_Source\PSoC5/USBUART_1.c ****     #endif   /*  USBUART_1_EP8_ISR_REMOVE */
 286:.\Generated_Source\PSoC5/USBUART_1.c **** 
 287:.\Generated_Source\PSoC5/USBUART_1.c ****     #if((USBUART_1_EP_MM != USBUART_1__EP_MANUAL) && (USBUART_1_ARB_ISR_REMOVE == 0u))
 288:.\Generated_Source\PSoC5/USBUART_1.c ****         /* Set the ARB Interrupt. */
 289:.\Generated_Source\PSoC5/USBUART_1.c ****         (void) CyIntSetVector(USBUART_1_ARB_VECT_NUM,   &USBUART_1_ARB_ISR);
 204              		.loc 1 289 0
 205 0108 1620     		movs	r0, #22
 206 010a 1149     		ldr	r1, .L5+52
 207 010c FFF7FEFF 		bl	CyIntSetVector
 208              	.LVL23:
 290:.\Generated_Source\PSoC5/USBUART_1.c ****         CyIntSetPriority(USBUART_1_ARB_VECT_NUM, USBUART_1_ARB_PRIOR);
 209              		.loc 1 290 0
 210 0110 1620     		movs	r0, #22
 211 0112 0021     		movs	r1, #0
 212 0114 FFF7FEFF 		bl	CyIntSetPriority
 213              	.LVL24:
 214 0118 F8BD     		pop	{r3, r4, r5, r6, r7, pc}
 215              	.LVL25:
 216              	.L6:
 217 011a 00BF     		.align	2
 218              	.L5:
 219 011c A5430040 		.word	1073759141
 220 0120 9D600040 		.word	1073766557
 221 0124 94430040 		.word	1073759124
ARM GAS  C:\Users\Alex\AppData\Local\Temp\ccbj9lYo.s 			page 10


 222 0128 12600040 		.word	1073766418
 223 012c F8510040 		.word	1073762808
 224 0130 84600040 		.word	1073766532
 225 0134 00000000 		.word	USBUART_1_DmaTd
 226 0138 00000000 		.word	USBUART_1_BUS_RESET_ISR
 227 013c 00000000 		.word	USBUART_1_SOF_ISR
 228 0140 00000000 		.word	USBUART_1_EP_0_ISR
 229 0144 00000000 		.word	USBUART_1_EP_1_ISR
 230 0148 00000000 		.word	USBUART_1_EP_2_ISR
 231 014c 00000000 		.word	USBUART_1_EP_3_ISR
 232 0150 00000000 		.word	USBUART_1_ARB_ISR
 233              		.cfi_endproc
 234              	.LFE1:
 235              		.size	USBUART_1_Init, .-USBUART_1_Init
 236              		.section	.text.USBUART_1_InitComponent,"ax",%progbits
 237              		.align	2
 238              		.global	USBUART_1_InitComponent
 239              		.thumb
 240              		.thumb_func
 241              		.type	USBUART_1_InitComponent, %function
 242              	USBUART_1_InitComponent:
 243              	.LFB2:
 291:.\Generated_Source\PSoC5/USBUART_1.c ****     #endif   /*  USBUART_1_EP_MM != USBUART_1__EP_MANUAL */
 292:.\Generated_Source\PSoC5/USBUART_1.c **** 
 293:.\Generated_Source\PSoC5/USBUART_1.c **** }
 294:.\Generated_Source\PSoC5/USBUART_1.c **** 
 295:.\Generated_Source\PSoC5/USBUART_1.c **** 
 296:.\Generated_Source\PSoC5/USBUART_1.c **** /*******************************************************************************
 297:.\Generated_Source\PSoC5/USBUART_1.c **** * Function Name: USBUART_1_InitComponent
 298:.\Generated_Source\PSoC5/USBUART_1.c **** ********************************************************************************
 299:.\Generated_Source\PSoC5/USBUART_1.c **** *
 300:.\Generated_Source\PSoC5/USBUART_1.c **** * Summary:
 301:.\Generated_Source\PSoC5/USBUART_1.c **** *  Initialize the component, except for the HW which is done one time in
 302:.\Generated_Source\PSoC5/USBUART_1.c **** *  the Start function.  This function pulls up D+.
 303:.\Generated_Source\PSoC5/USBUART_1.c **** *
 304:.\Generated_Source\PSoC5/USBUART_1.c **** * Parameters:
 305:.\Generated_Source\PSoC5/USBUART_1.c **** *  device: Contains the device number of the desired device descriptor.
 306:.\Generated_Source\PSoC5/USBUART_1.c **** *          The device number can be found in the Device Descriptor Tab of
 307:.\Generated_Source\PSoC5/USBUART_1.c **** *          "Configure" dialog, under the settings of desired Device Descriptor,
 308:.\Generated_Source\PSoC5/USBUART_1.c **** *          in the "Device Number" field.
 309:.\Generated_Source\PSoC5/USBUART_1.c **** *  mode: The operating voltage. This determines whether the voltage regulator
 310:.\Generated_Source\PSoC5/USBUART_1.c **** *        is enabled for 5V operation or if pass through mode is used for 3.3V
 311:.\Generated_Source\PSoC5/USBUART_1.c **** *        operation. Symbolic names and their associated values are given in the
 312:.\Generated_Source\PSoC5/USBUART_1.c **** *        following table.
 313:.\Generated_Source\PSoC5/USBUART_1.c **** *       USBUART_1_3V_OPERATION - Disable voltage regulator and pass-thru
 314:.\Generated_Source\PSoC5/USBUART_1.c **** *                                       Vcc for pull-up
 315:.\Generated_Source\PSoC5/USBUART_1.c **** *       USBUART_1_5V_OPERATION - Enable voltage regulator and use
 316:.\Generated_Source\PSoC5/USBUART_1.c **** *                                       regulator for pull-up
 317:.\Generated_Source\PSoC5/USBUART_1.c **** *       USBUART_1_DWR_VDDD_OPERATION - Enable or Disable voltage
 318:.\Generated_Source\PSoC5/USBUART_1.c **** *                         regulator depend on Vddd Voltage configuration in DWR.
 319:.\Generated_Source\PSoC5/USBUART_1.c **** *
 320:.\Generated_Source\PSoC5/USBUART_1.c **** * Return:
 321:.\Generated_Source\PSoC5/USBUART_1.c **** *   None.
 322:.\Generated_Source\PSoC5/USBUART_1.c **** *
 323:.\Generated_Source\PSoC5/USBUART_1.c **** * Global variables:
 324:.\Generated_Source\PSoC5/USBUART_1.c **** *   USBUART_1_device: Contains the device number of the desired device
 325:.\Generated_Source\PSoC5/USBUART_1.c **** *       descriptor. The device number can be found in the Device Descriptor Tab
ARM GAS  C:\Users\Alex\AppData\Local\Temp\ccbj9lYo.s 			page 11


 326:.\Generated_Source\PSoC5/USBUART_1.c **** *       of "Configure" dialog, under the settings of desired Device Descriptor,
 327:.\Generated_Source\PSoC5/USBUART_1.c **** *       in the "Device Number" field.
 328:.\Generated_Source\PSoC5/USBUART_1.c **** *   USBUART_1_transferState: This variable used by the communication
 329:.\Generated_Source\PSoC5/USBUART_1.c **** *       functions to handle current transfer state. Initialized to
 330:.\Generated_Source\PSoC5/USBUART_1.c **** *       TRANS_STATE_IDLE in this API.
 331:.\Generated_Source\PSoC5/USBUART_1.c **** *   USBUART_1_configuration: Contains current configuration number
 332:.\Generated_Source\PSoC5/USBUART_1.c **** *       which is set by the Host using SET_CONFIGURATION request.
 333:.\Generated_Source\PSoC5/USBUART_1.c **** *       Initialized to zero in this API.
 334:.\Generated_Source\PSoC5/USBUART_1.c **** *   USBUART_1_deviceAddress: Contains current device address. This
 335:.\Generated_Source\PSoC5/USBUART_1.c **** *       variable is initialized to zero in this API. Host starts to communicate
 336:.\Generated_Source\PSoC5/USBUART_1.c **** *      to device with address 0 and then set it to whatever value using
 337:.\Generated_Source\PSoC5/USBUART_1.c **** *      SET_ADDRESS request.
 338:.\Generated_Source\PSoC5/USBUART_1.c **** *   USBUART_1_deviceStatus: initialized to 0.
 339:.\Generated_Source\PSoC5/USBUART_1.c **** *       This is two bit variable which contain power status in first bit
 340:.\Generated_Source\PSoC5/USBUART_1.c **** *       (DEVICE_STATUS_BUS_POWERED or DEVICE_STATUS_SELF_POWERED) and remote
 341:.\Generated_Source\PSoC5/USBUART_1.c **** *       wakeup status (DEVICE_STATUS_REMOTE_WAKEUP) in second bit.
 342:.\Generated_Source\PSoC5/USBUART_1.c **** *   USBUART_1_lastPacketSize initialized to 0;
 343:.\Generated_Source\PSoC5/USBUART_1.c **** *
 344:.\Generated_Source\PSoC5/USBUART_1.c **** * Reentrant:
 345:.\Generated_Source\PSoC5/USBUART_1.c **** *  No.
 346:.\Generated_Source\PSoC5/USBUART_1.c **** *
 347:.\Generated_Source\PSoC5/USBUART_1.c **** *******************************************************************************/
 348:.\Generated_Source\PSoC5/USBUART_1.c **** void USBUART_1_InitComponent(uint8 device, uint8 mode) 
 349:.\Generated_Source\PSoC5/USBUART_1.c **** {
 244              		.loc 1 349 0
 245              		.cfi_startproc
 246              		@ args = 0, pretend = 0, frame = 0
 247              		@ frame_needed = 0, uses_anonymous_args = 0
 248              	.LVL26:
 249 0000 38B5     		push	{r3, r4, r5, lr}
 250              		.cfi_def_cfa_offset 16
 251              		.cfi_offset 3, -16
 252              		.cfi_offset 4, -12
 253              		.cfi_offset 5, -8
 254              		.cfi_offset 14, -4
 255              	.LVL27:
 350:.\Generated_Source\PSoC5/USBUART_1.c ****     /* Initialize _hidProtocol variable to comply with
 351:.\Generated_Source\PSoC5/USBUART_1.c ****     *  HID 7.2.6 Set_Protocol Request:
 352:.\Generated_Source\PSoC5/USBUART_1.c ****     *  "When initialized, all devices default to report protocol."
 353:.\Generated_Source\PSoC5/USBUART_1.c ****     */
 354:.\Generated_Source\PSoC5/USBUART_1.c ****     #if defined(USBUART_1_ENABLE_HID_CLASS)
 355:.\Generated_Source\PSoC5/USBUART_1.c ****         uint8 i;
 356:.\Generated_Source\PSoC5/USBUART_1.c **** 
 357:.\Generated_Source\PSoC5/USBUART_1.c ****         for (i = 0u; i < USBUART_1_MAX_INTERFACES_NUMBER; i++)
 256              		.loc 1 357 0
 257 0002 0023     		movs	r3, #0
 258 0004 04E0     		b	.L8
 259              	.LVL28:
 260              	.L9:
 358:.\Generated_Source\PSoC5/USBUART_1.c ****         {
 359:.\Generated_Source\PSoC5/USBUART_1.c ****             USBUART_1_hidProtocol[i] = USBUART_1_PROTOCOL_REPORT;
 261              		.loc 1 359 0 discriminator 3
 262 0006 0124     		movs	r4, #1
 263 0008 244A     		ldr	r2, .L16
 264 000a D454     		strb	r4, [r2, r3]
 357:.\Generated_Source\PSoC5/USBUART_1.c ****         {
 265              		.loc 1 357 0 discriminator 3
ARM GAS  C:\Users\Alex\AppData\Local\Temp\ccbj9lYo.s 			page 12


 266 000c 2344     		add	r3, r3, r4
 267              	.LVL29:
 268 000e DBB2     		uxtb	r3, r3
 269              	.LVL30:
 270              	.L8:
 357:.\Generated_Source\PSoC5/USBUART_1.c ****         {
 271              		.loc 1 357 0 is_stmt 0 discriminator 1
 272 0010 012B     		cmp	r3, #1
 273 0012 F8D9     		bls	.L9
 360:.\Generated_Source\PSoC5/USBUART_1.c ****         }
 361:.\Generated_Source\PSoC5/USBUART_1.c ****     #endif /* USBUART_1_ENABLE_HID_CLASS */
 362:.\Generated_Source\PSoC5/USBUART_1.c **** 
 363:.\Generated_Source\PSoC5/USBUART_1.c ****     /* Enable Interrupts. */
 364:.\Generated_Source\PSoC5/USBUART_1.c ****     CyIntEnable(USBUART_1_BUS_RESET_VECT_NUM);
 274              		.loc 1 364 0 is_stmt 1
 275 0014 224B     		ldr	r3, .L16+4
 276              	.LVL31:
 277 0016 4FF40002 		mov	r2, #8388608
 278 001a 1A60     		str	r2, [r3]
 365:.\Generated_Source\PSoC5/USBUART_1.c ****     CyIntEnable(USBUART_1_EP_0_VECT_NUM);
 279              		.loc 1 365 0
 280 001c 4FF08072 		mov	r2, #16777216
 281 0020 1A60     		str	r2, [r3]
 366:.\Generated_Source\PSoC5/USBUART_1.c ****     #if(USBUART_1_EP1_ISR_REMOVE == 0u)
 367:.\Generated_Source\PSoC5/USBUART_1.c ****         CyIntEnable(USBUART_1_EP_1_VECT_NUM);
 282              		.loc 1 367 0
 283 0022 1022     		movs	r2, #16
 284 0024 1A60     		str	r2, [r3]
 368:.\Generated_Source\PSoC5/USBUART_1.c ****     #endif   /*  USBUART_1_EP1_ISR_REMOVE */
 369:.\Generated_Source\PSoC5/USBUART_1.c ****     #if(USBUART_1_EP2_ISR_REMOVE == 0u)
 370:.\Generated_Source\PSoC5/USBUART_1.c ****         CyIntEnable(USBUART_1_EP_2_VECT_NUM);
 285              		.loc 1 370 0
 286 0026 2022     		movs	r2, #32
 287 0028 1A60     		str	r2, [r3]
 371:.\Generated_Source\PSoC5/USBUART_1.c ****     #endif   /*  USBUART_1_EP2_ISR_REMOVE */
 372:.\Generated_Source\PSoC5/USBUART_1.c ****     #if(USBUART_1_EP3_ISR_REMOVE == 0u)
 373:.\Generated_Source\PSoC5/USBUART_1.c ****         CyIntEnable(USBUART_1_EP_3_VECT_NUM);
 288              		.loc 1 373 0
 289 002a 4024     		movs	r4, #64
 290 002c 1C60     		str	r4, [r3]
 374:.\Generated_Source\PSoC5/USBUART_1.c ****     #endif   /*  USBUART_1_EP3_ISR_REMOVE */
 375:.\Generated_Source\PSoC5/USBUART_1.c ****     #if(USBUART_1_EP4_ISR_REMOVE == 0u)
 376:.\Generated_Source\PSoC5/USBUART_1.c ****         CyIntEnable(USBUART_1_EP_4_VECT_NUM);
 377:.\Generated_Source\PSoC5/USBUART_1.c ****     #endif   /*  USBUART_1_EP4_ISR_REMOVE */
 378:.\Generated_Source\PSoC5/USBUART_1.c ****     #if(USBUART_1_EP5_ISR_REMOVE == 0u)
 379:.\Generated_Source\PSoC5/USBUART_1.c ****         CyIntEnable(USBUART_1_EP_5_VECT_NUM);
 380:.\Generated_Source\PSoC5/USBUART_1.c ****     #endif   /*  USBUART_1_EP5_ISR_REMOVE */
 381:.\Generated_Source\PSoC5/USBUART_1.c ****     #if(USBUART_1_EP6_ISR_REMOVE == 0u)
 382:.\Generated_Source\PSoC5/USBUART_1.c ****         CyIntEnable(USBUART_1_EP_6_VECT_NUM);
 383:.\Generated_Source\PSoC5/USBUART_1.c ****     #endif   /*  USBUART_1_EP6_ISR_REMOVE */
 384:.\Generated_Source\PSoC5/USBUART_1.c ****     #if(USBUART_1_EP7_ISR_REMOVE == 0u)
 385:.\Generated_Source\PSoC5/USBUART_1.c ****         CyIntEnable(USBUART_1_EP_7_VECT_NUM);
 386:.\Generated_Source\PSoC5/USBUART_1.c ****     #endif   /*  USBUART_1_EP7_ISR_REMOVE */
 387:.\Generated_Source\PSoC5/USBUART_1.c ****     #if(USBUART_1_EP8_ISR_REMOVE == 0u)
 388:.\Generated_Source\PSoC5/USBUART_1.c ****         CyIntEnable(USBUART_1_EP_8_VECT_NUM);
 389:.\Generated_Source\PSoC5/USBUART_1.c ****     #endif   /*  USBUART_1_EP8_ISR_REMOVE */
 390:.\Generated_Source\PSoC5/USBUART_1.c ****     #if((USBUART_1_EP_MM != USBUART_1__EP_MANUAL) && (USBUART_1_ARB_ISR_REMOVE == 0u))
ARM GAS  C:\Users\Alex\AppData\Local\Temp\ccbj9lYo.s 			page 13


 391:.\Generated_Source\PSoC5/USBUART_1.c ****         /* usb arb interrupt enable */
 392:.\Generated_Source\PSoC5/USBUART_1.c ****         USBUART_1_ARB_INT_EN_REG = USBUART_1_ARB_INT_MASK;
 291              		.loc 1 392 0
 292 002e 0725     		movs	r5, #7
 293 0030 1C4C     		ldr	r4, .L16+8
 294 0032 2570     		strb	r5, [r4]
 393:.\Generated_Source\PSoC5/USBUART_1.c ****         CyIntEnable(USBUART_1_ARB_VECT_NUM);
 295              		.loc 1 393 0
 296 0034 4FF48004 		mov	r4, #4194304
 297 0038 1C60     		str	r4, [r3]
 394:.\Generated_Source\PSoC5/USBUART_1.c ****     #endif   /*  USBUART_1_EP_MM != USBUART_1__EP_MANUAL */
 395:.\Generated_Source\PSoC5/USBUART_1.c **** 
 396:.\Generated_Source\PSoC5/USBUART_1.c ****     /* Arbiter configuration for DMA transfers */
 397:.\Generated_Source\PSoC5/USBUART_1.c ****     #if(USBUART_1_EP_MM != USBUART_1__EP_MANUAL)
 398:.\Generated_Source\PSoC5/USBUART_1.c ****         #if(USBUART_1_EP_MM == USBUART_1__EP_DMAMANUAL)
 399:.\Generated_Source\PSoC5/USBUART_1.c ****             USBUART_1_ARB_CFG_REG = USBUART_1_ARB_CFG_MANUAL_DMA;
 298              		.loc 1 399 0
 299 003a 1B4B     		ldr	r3, .L16+12
 300 003c 1A70     		strb	r2, [r3]
 400:.\Generated_Source\PSoC5/USBUART_1.c ****         #endif   /*  USBUART_1_EP_MM == USBUART_1__EP_DMAMANUAL */
 401:.\Generated_Source\PSoC5/USBUART_1.c ****         #if(USBUART_1_EP_MM == USBUART_1__EP_DMAAUTO)
 402:.\Generated_Source\PSoC5/USBUART_1.c ****             /*Set cfg cmplt this rises DMA request when the full configuration is done */
 403:.\Generated_Source\PSoC5/USBUART_1.c ****             USBUART_1_ARB_CFG_REG = USBUART_1_ARB_CFG_AUTO_DMA | USBUART_1_ARB_CFG_AUTO_MEM;
 404:.\Generated_Source\PSoC5/USBUART_1.c ****             #if(USBUART_1_EP_DMA_AUTO_OPT == 0u)
 405:.\Generated_Source\PSoC5/USBUART_1.c ****                 /* Init interrupt which handles verification of the successful DMA transaction */
 406:.\Generated_Source\PSoC5/USBUART_1.c ****                 USBUART_1_EP_DMA_Done_isr_StartEx(&USBUART_1_EP_DMA_DONE_ISR);
 407:.\Generated_Source\PSoC5/USBUART_1.c ****                 USBUART_1_EP17_DMA_Done_SR_InterruptEnable();
 408:.\Generated_Source\PSoC5/USBUART_1.c ****                 USBUART_1_EP8_DMA_Done_SR_InterruptEnable();
 409:.\Generated_Source\PSoC5/USBUART_1.c ****             #endif /* USBUART_1_EP_DMA_AUTO_OPT == 0u */
 410:.\Generated_Source\PSoC5/USBUART_1.c ****         #endif   /*  USBUART_1_EP_MM == USBUART_1__EP_DMAAUTO */
 411:.\Generated_Source\PSoC5/USBUART_1.c ****     #endif   /*  USBUART_1_EP_MM != USBUART_1__EP_MANUAL */
 412:.\Generated_Source\PSoC5/USBUART_1.c **** 
 413:.\Generated_Source\PSoC5/USBUART_1.c ****     USBUART_1_transferState = USBUART_1_TRANS_STATE_IDLE;
 301              		.loc 1 413 0
 302 003e 0022     		movs	r2, #0
 303 0040 1A4B     		ldr	r3, .L16+16
 304 0042 1A70     		strb	r2, [r3]
 414:.\Generated_Source\PSoC5/USBUART_1.c **** 
 415:.\Generated_Source\PSoC5/USBUART_1.c ****     /* USB Locking: Enabled, VRegulator: depend on mode or DWR Voltage configuration*/
 416:.\Generated_Source\PSoC5/USBUART_1.c ****     switch(mode)
 305              		.loc 1 416 0
 306 0044 11B1     		cbz	r1, .L11
 307 0046 0129     		cmp	r1, #1
 308 0048 04D0     		beq	.L12
 309 004a 07E0     		b	.L14
 310              	.L11:
 417:.\Generated_Source\PSoC5/USBUART_1.c ****     {
 418:.\Generated_Source\PSoC5/USBUART_1.c ****         case USBUART_1_3V_OPERATION:
 419:.\Generated_Source\PSoC5/USBUART_1.c ****             USBUART_1_CR1_REG = USBUART_1_CR1_ENABLE_LOCK;
 311              		.loc 1 419 0
 312 004c 0222     		movs	r2, #2
 313 004e 184B     		ldr	r3, .L16+20
 314 0050 1A70     		strb	r2, [r3]
 420:.\Generated_Source\PSoC5/USBUART_1.c ****             break;
 315              		.loc 1 420 0
 316 0052 06E0     		b	.L13
 317              	.L12:
ARM GAS  C:\Users\Alex\AppData\Local\Temp\ccbj9lYo.s 			page 14


 421:.\Generated_Source\PSoC5/USBUART_1.c ****         case USBUART_1_5V_OPERATION:
 422:.\Generated_Source\PSoC5/USBUART_1.c ****             USBUART_1_CR1_REG = USBUART_1_CR1_ENABLE_LOCK | USBUART_1_CR1_REG_ENABLE;
 318              		.loc 1 422 0
 319 0054 0322     		movs	r2, #3
 320 0056 164B     		ldr	r3, .L16+20
 321 0058 1A70     		strb	r2, [r3]
 423:.\Generated_Source\PSoC5/USBUART_1.c ****             break;
 322              		.loc 1 423 0
 323 005a 02E0     		b	.L13
 324              	.L14:
 424:.\Generated_Source\PSoC5/USBUART_1.c ****         default:   /*USBUART_1_DWR_VDDD_OPERATION */
 425:.\Generated_Source\PSoC5/USBUART_1.c ****             #if(USBUART_1_VDDD_MV < USBUART_1_3500MV)
 426:.\Generated_Source\PSoC5/USBUART_1.c ****                 USBUART_1_CR1_REG = USBUART_1_CR1_ENABLE_LOCK;
 427:.\Generated_Source\PSoC5/USBUART_1.c ****             #else
 428:.\Generated_Source\PSoC5/USBUART_1.c ****                 USBUART_1_CR1_REG = USBUART_1_CR1_ENABLE_LOCK | USBUART_1_CR1_REG_ENABLE;
 325              		.loc 1 428 0
 326 005c 0322     		movs	r2, #3
 327 005e 144B     		ldr	r3, .L16+20
 328 0060 1A70     		strb	r2, [r3]
 329              	.L13:
 429:.\Generated_Source\PSoC5/USBUART_1.c ****             #endif /*  USBUART_1_VDDD_MV < USBUART_1_3500MV */
 430:.\Generated_Source\PSoC5/USBUART_1.c ****             break;
 431:.\Generated_Source\PSoC5/USBUART_1.c ****     }
 432:.\Generated_Source\PSoC5/USBUART_1.c **** 
 433:.\Generated_Source\PSoC5/USBUART_1.c ****     /* Record the descriptor selection */
 434:.\Generated_Source\PSoC5/USBUART_1.c ****     USBUART_1_device = device;
 330              		.loc 1 434 0
 331 0062 144B     		ldr	r3, .L16+24
 332 0064 1870     		strb	r0, [r3]
 435:.\Generated_Source\PSoC5/USBUART_1.c **** 
 436:.\Generated_Source\PSoC5/USBUART_1.c ****     /* Clear all of the component data */
 437:.\Generated_Source\PSoC5/USBUART_1.c ****     USBUART_1_configuration = 0u;
 333              		.loc 1 437 0
 334 0066 0023     		movs	r3, #0
 335 0068 134A     		ldr	r2, .L16+28
 336 006a 1370     		strb	r3, [r2]
 438:.\Generated_Source\PSoC5/USBUART_1.c ****     USBUART_1_interfaceNumber = 0u;
 337              		.loc 1 438 0
 338 006c 134A     		ldr	r2, .L16+32
 339 006e 1370     		strb	r3, [r2]
 439:.\Generated_Source\PSoC5/USBUART_1.c ****     USBUART_1_configurationChanged = 0u;
 340              		.loc 1 439 0
 341 0070 134A     		ldr	r2, .L16+36
 342 0072 1370     		strb	r3, [r2]
 440:.\Generated_Source\PSoC5/USBUART_1.c ****     USBUART_1_deviceAddress  = 0u;
 343              		.loc 1 440 0
 344 0074 134A     		ldr	r2, .L16+40
 345 0076 1370     		strb	r3, [r2]
 441:.\Generated_Source\PSoC5/USBUART_1.c ****     USBUART_1_deviceStatus = 0u;
 346              		.loc 1 441 0
 347 0078 134A     		ldr	r2, .L16+44
 348 007a 1370     		strb	r3, [r2]
 442:.\Generated_Source\PSoC5/USBUART_1.c **** 
 443:.\Generated_Source\PSoC5/USBUART_1.c ****     USBUART_1_lastPacketSize = 0u;
 349              		.loc 1 443 0
 350 007c 134A     		ldr	r2, .L16+48
 351 007e 1370     		strb	r3, [r2]
ARM GAS  C:\Users\Alex\AppData\Local\Temp\ccbj9lYo.s 			page 15


 444:.\Generated_Source\PSoC5/USBUART_1.c **** 
 445:.\Generated_Source\PSoC5/USBUART_1.c ****     /*  ACK Setup, Stall IN/OUT */
 446:.\Generated_Source\PSoC5/USBUART_1.c ****     CY_SET_REG8(USBUART_1_EP0_CR_PTR, USBUART_1_MODE_STALL_IN_OUT);
 352              		.loc 1 446 0
 353 0080 0322     		movs	r2, #3
 354 0082 134B     		ldr	r3, .L16+52
 355 0084 1A70     		strb	r2, [r3]
 447:.\Generated_Source\PSoC5/USBUART_1.c **** 
 448:.\Generated_Source\PSoC5/USBUART_1.c ****     /* Enable the SIE with an address 0 */
 449:.\Generated_Source\PSoC5/USBUART_1.c ****     CY_SET_REG8(USBUART_1_CR0_PTR, USBUART_1_CR0_ENABLE);
 356              		.loc 1 449 0
 357 0086 8022     		movs	r2, #128
 358 0088 203B     		subs	r3, r3, #32
 359 008a 1A70     		strb	r2, [r3]
 450:.\Generated_Source\PSoC5/USBUART_1.c **** 
 451:.\Generated_Source\PSoC5/USBUART_1.c ****     /* Workaround for PSOC5LP */
 452:.\Generated_Source\PSoC5/USBUART_1.c ****     CyDelayCycles(1u);
 360              		.loc 1 452 0
 361 008c 0120     		movs	r0, #1
 362              	.LVL32:
 363 008e FFF7FEFF 		bl	CyDelayCycles
 364              	.LVL33:
 453:.\Generated_Source\PSoC5/USBUART_1.c **** 
 454:.\Generated_Source\PSoC5/USBUART_1.c ****     /* Finally, Enable d+ pullup and select iomode to USB mode*/
 455:.\Generated_Source\PSoC5/USBUART_1.c ****     CY_SET_REG8(USBUART_1_USBIO_CR1_PTR, USBUART_1_USBIO_CR1_USBPUEN);
 365              		.loc 1 455 0
 366 0092 0422     		movs	r2, #4
 367 0094 0F4B     		ldr	r3, .L16+56
 368 0096 1A70     		strb	r2, [r3]
 369 0098 38BD     		pop	{r3, r4, r5, pc}
 370              	.L17:
 371 009a 00BF     		.align	2
 372              	.L16:
 373 009c 00000000 		.word	USBUART_1_hidProtocol
 374 00a0 00E100E0 		.word	-536813312
 375 00a4 9E600040 		.word	1073766558
 376 00a8 9C600040 		.word	1073766556
 377 00ac 00000000 		.word	USBUART_1_transferState
 378 00b0 09600040 		.word	1073766409
 379 00b4 00000000 		.word	USBUART_1_device
 380 00b8 00000000 		.word	USBUART_1_configuration
 381 00bc 00000000 		.word	USBUART_1_interfaceNumber
 382 00c0 00000000 		.word	USBUART_1_configurationChanged
 383 00c4 00000000 		.word	USBUART_1_deviceAddress
 384 00c8 00000000 		.word	USBUART_1_deviceStatus
 385 00cc 00000000 		.word	USBUART_1_lastPacketSize
 386 00d0 28600040 		.word	1073766440
 387 00d4 12600040 		.word	1073766418
 388              		.cfi_endproc
 389              	.LFE2:
 390              		.size	USBUART_1_InitComponent, .-USBUART_1_InitComponent
 391              		.section	.text.USBUART_1_Start,"ax",%progbits
 392              		.align	2
 393              		.global	USBUART_1_Start
 394              		.thumb
 395              		.thumb_func
 396              		.type	USBUART_1_Start, %function
ARM GAS  C:\Users\Alex\AppData\Local\Temp\ccbj9lYo.s 			page 16


 397              	USBUART_1_Start:
 398              	.LFB0:
 130:.\Generated_Source\PSoC5/USBUART_1.c ****     /* If not Initialized then initialize all required hardware and software */
 399              		.loc 1 130 0
 400              		.cfi_startproc
 401              		@ args = 0, pretend = 0, frame = 0
 402              		@ frame_needed = 0, uses_anonymous_args = 0
 403              	.LVL34:
 404 0000 38B5     		push	{r3, r4, r5, lr}
 405              		.cfi_def_cfa_offset 16
 406              		.cfi_offset 3, -16
 407              		.cfi_offset 4, -12
 408              		.cfi_offset 5, -8
 409              		.cfi_offset 14, -4
 410 0002 0546     		mov	r5, r0
 411 0004 0C46     		mov	r4, r1
 132:.\Generated_Source\PSoC5/USBUART_1.c ****     {
 412              		.loc 1 132 0
 413 0006 064B     		ldr	r3, .L21
 414 0008 1B78     		ldrb	r3, [r3]	@ zero_extendqisi2
 415 000a 23B9     		cbnz	r3, .L19
 134:.\Generated_Source\PSoC5/USBUART_1.c ****         USBUART_1_initVar = 1u;
 416              		.loc 1 134 0
 417 000c FFF7FEFF 		bl	USBUART_1_Init
 418              	.LVL35:
 135:.\Generated_Source\PSoC5/USBUART_1.c ****     }
 419              		.loc 1 135 0
 420 0010 0122     		movs	r2, #1
 421 0012 034B     		ldr	r3, .L21
 422 0014 1A70     		strb	r2, [r3]
 423              	.L19:
 137:.\Generated_Source\PSoC5/USBUART_1.c **** }
 424              		.loc 1 137 0
 425 0016 2846     		mov	r0, r5
 426 0018 2146     		mov	r1, r4
 427 001a FFF7FEFF 		bl	USBUART_1_InitComponent
 428              	.LVL36:
 429 001e 38BD     		pop	{r3, r4, r5, pc}
 430              	.L22:
 431              		.align	2
 432              	.L21:
 433 0020 00000000 		.word	.LANCHOR0
 434              		.cfi_endproc
 435              	.LFE0:
 436              		.size	USBUART_1_Start, .-USBUART_1_Start
 437              		.section	.text.USBUART_1_ReInitComponent,"ax",%progbits
 438              		.align	2
 439              		.global	USBUART_1_ReInitComponent
 440              		.thumb
 441              		.thumb_func
 442              		.type	USBUART_1_ReInitComponent, %function
 443              	USBUART_1_ReInitComponent:
 444              	.LFB3:
 456:.\Generated_Source\PSoC5/USBUART_1.c **** }
 457:.\Generated_Source\PSoC5/USBUART_1.c **** 
 458:.\Generated_Source\PSoC5/USBUART_1.c **** 
 459:.\Generated_Source\PSoC5/USBUART_1.c **** /*******************************************************************************
ARM GAS  C:\Users\Alex\AppData\Local\Temp\ccbj9lYo.s 			page 17


 460:.\Generated_Source\PSoC5/USBUART_1.c **** * Function Name: USBUART_1_ReInitComponent
 461:.\Generated_Source\PSoC5/USBUART_1.c **** ********************************************************************************
 462:.\Generated_Source\PSoC5/USBUART_1.c **** *
 463:.\Generated_Source\PSoC5/USBUART_1.c **** * Summary:
 464:.\Generated_Source\PSoC5/USBUART_1.c **** *  This function reinitialize the component configuration and is
 465:.\Generated_Source\PSoC5/USBUART_1.c **** *  intend to be called from the Reset interrupt.
 466:.\Generated_Source\PSoC5/USBUART_1.c **** *
 467:.\Generated_Source\PSoC5/USBUART_1.c **** * Parameters:
 468:.\Generated_Source\PSoC5/USBUART_1.c **** *  None.
 469:.\Generated_Source\PSoC5/USBUART_1.c **** *
 470:.\Generated_Source\PSoC5/USBUART_1.c **** * Return:
 471:.\Generated_Source\PSoC5/USBUART_1.c **** *   None.
 472:.\Generated_Source\PSoC5/USBUART_1.c **** *
 473:.\Generated_Source\PSoC5/USBUART_1.c **** * Global variables:
 474:.\Generated_Source\PSoC5/USBUART_1.c **** *   USBUART_1_device: Contains the device number of the desired device
 475:.\Generated_Source\PSoC5/USBUART_1.c **** *        descriptor. The device number can be found in the Device Descriptor Tab
 476:.\Generated_Source\PSoC5/USBUART_1.c **** *       of "Configure" dialog, under the settings of desired Device Descriptor,
 477:.\Generated_Source\PSoC5/USBUART_1.c **** *       in the "Device Number" field.
 478:.\Generated_Source\PSoC5/USBUART_1.c **** *   USBUART_1_transferState: This variable used by the communication
 479:.\Generated_Source\PSoC5/USBUART_1.c **** *       functions to handle current transfer state. Initialized to
 480:.\Generated_Source\PSoC5/USBUART_1.c **** *       TRANS_STATE_IDLE in this API.
 481:.\Generated_Source\PSoC5/USBUART_1.c **** *   USBUART_1_configuration: Contains current configuration number
 482:.\Generated_Source\PSoC5/USBUART_1.c **** *       which is set by the Host using SET_CONFIGURATION request.
 483:.\Generated_Source\PSoC5/USBUART_1.c **** *       Initialized to zero in this API.
 484:.\Generated_Source\PSoC5/USBUART_1.c **** *   USBUART_1_deviceAddress: Contains current device address. This
 485:.\Generated_Source\PSoC5/USBUART_1.c **** *       variable is initialized to zero in this API. Host starts to communicate
 486:.\Generated_Source\PSoC5/USBUART_1.c **** *      to device with address 0 and then set it to whatever value using
 487:.\Generated_Source\PSoC5/USBUART_1.c **** *      SET_ADDRESS request.
 488:.\Generated_Source\PSoC5/USBUART_1.c **** *   USBUART_1_deviceStatus: initialized to 0.
 489:.\Generated_Source\PSoC5/USBUART_1.c **** *       This is two bit variable which contain power status in first bit
 490:.\Generated_Source\PSoC5/USBUART_1.c **** *       (DEVICE_STATUS_BUS_POWERED or DEVICE_STATUS_SELF_POWERED) and remote
 491:.\Generated_Source\PSoC5/USBUART_1.c **** *       wakeup status (DEVICE_STATUS_REMOTE_WAKEUP) in second bit.
 492:.\Generated_Source\PSoC5/USBUART_1.c **** *   USBUART_1_lastPacketSize initialized to 0;
 493:.\Generated_Source\PSoC5/USBUART_1.c **** *
 494:.\Generated_Source\PSoC5/USBUART_1.c **** * Reentrant:
 495:.\Generated_Source\PSoC5/USBUART_1.c **** *  No.
 496:.\Generated_Source\PSoC5/USBUART_1.c **** *
 497:.\Generated_Source\PSoC5/USBUART_1.c **** *******************************************************************************/
 498:.\Generated_Source\PSoC5/USBUART_1.c **** void USBUART_1_ReInitComponent(void) 
 499:.\Generated_Source\PSoC5/USBUART_1.c **** {
 445              		.loc 1 499 0
 446              		.cfi_startproc
 447              		@ args = 0, pretend = 0, frame = 0
 448              		@ frame_needed = 0, uses_anonymous_args = 0
 449              		@ link register save eliminated.
 450              	.LVL37:
 500:.\Generated_Source\PSoC5/USBUART_1.c ****     /* Initialize _hidProtocol variable to comply with HID 7.2.6 Set_Protocol
 501:.\Generated_Source\PSoC5/USBUART_1.c ****     *  Request: "When initialized, all devices default to report protocol."
 502:.\Generated_Source\PSoC5/USBUART_1.c ****     */
 503:.\Generated_Source\PSoC5/USBUART_1.c ****     #if defined(USBUART_1_ENABLE_HID_CLASS)
 504:.\Generated_Source\PSoC5/USBUART_1.c ****         uint8 i;
 505:.\Generated_Source\PSoC5/USBUART_1.c **** 
 506:.\Generated_Source\PSoC5/USBUART_1.c ****         for (i = 0u; i < USBUART_1_MAX_INTERFACES_NUMBER; i++)
 451              		.loc 1 506 0
 452 0000 0023     		movs	r3, #0
 453 0002 04E0     		b	.L24
 454              	.LVL38:
ARM GAS  C:\Users\Alex\AppData\Local\Temp\ccbj9lYo.s 			page 18


 455              	.L25:
 507:.\Generated_Source\PSoC5/USBUART_1.c ****         {
 508:.\Generated_Source\PSoC5/USBUART_1.c ****             USBUART_1_hidProtocol[i] = USBUART_1_PROTOCOL_REPORT;
 456              		.loc 1 508 0 discriminator 3
 457 0004 0121     		movs	r1, #1
 458 0006 0E4A     		ldr	r2, .L26
 459 0008 D154     		strb	r1, [r2, r3]
 506:.\Generated_Source\PSoC5/USBUART_1.c ****         {
 460              		.loc 1 506 0 discriminator 3
 461 000a 0B44     		add	r3, r3, r1
 462              	.LVL39:
 463 000c DBB2     		uxtb	r3, r3
 464              	.LVL40:
 465              	.L24:
 506:.\Generated_Source\PSoC5/USBUART_1.c ****         {
 466              		.loc 1 506 0 is_stmt 0 discriminator 1
 467 000e 012B     		cmp	r3, #1
 468 0010 F8D9     		bls	.L25
 509:.\Generated_Source\PSoC5/USBUART_1.c ****         }
 510:.\Generated_Source\PSoC5/USBUART_1.c ****     #endif /* USBUART_1_ENABLE_HID_CLASS */
 511:.\Generated_Source\PSoC5/USBUART_1.c **** 
 512:.\Generated_Source\PSoC5/USBUART_1.c ****     USBUART_1_transferState = USBUART_1_TRANS_STATE_IDLE;
 469              		.loc 1 512 0 is_stmt 1
 470 0012 0023     		movs	r3, #0
 471              	.LVL41:
 472 0014 0B4A     		ldr	r2, .L26+4
 473 0016 1370     		strb	r3, [r2]
 513:.\Generated_Source\PSoC5/USBUART_1.c **** 
 514:.\Generated_Source\PSoC5/USBUART_1.c ****     /* Clear all of the component data */
 515:.\Generated_Source\PSoC5/USBUART_1.c ****     USBUART_1_configuration = 0u;
 474              		.loc 1 515 0
 475 0018 0B4A     		ldr	r2, .L26+8
 476 001a 1370     		strb	r3, [r2]
 516:.\Generated_Source\PSoC5/USBUART_1.c ****     USBUART_1_interfaceNumber = 0u;
 477              		.loc 1 516 0
 478 001c 0B4A     		ldr	r2, .L26+12
 479 001e 1370     		strb	r3, [r2]
 517:.\Generated_Source\PSoC5/USBUART_1.c ****     USBUART_1_configurationChanged = 0u;
 480              		.loc 1 517 0
 481 0020 0B4A     		ldr	r2, .L26+16
 482 0022 1370     		strb	r3, [r2]
 518:.\Generated_Source\PSoC5/USBUART_1.c ****     USBUART_1_deviceAddress  = 0u;
 483              		.loc 1 518 0
 484 0024 0B4A     		ldr	r2, .L26+20
 485 0026 1370     		strb	r3, [r2]
 519:.\Generated_Source\PSoC5/USBUART_1.c ****     USBUART_1_deviceStatus = 0u;
 486              		.loc 1 519 0
 487 0028 0B4A     		ldr	r2, .L26+24
 488 002a 1370     		strb	r3, [r2]
 520:.\Generated_Source\PSoC5/USBUART_1.c **** 
 521:.\Generated_Source\PSoC5/USBUART_1.c ****     USBUART_1_lastPacketSize = 0u;
 489              		.loc 1 521 0
 490 002c 0B4A     		ldr	r2, .L26+28
 491 002e 1370     		strb	r3, [r2]
 522:.\Generated_Source\PSoC5/USBUART_1.c **** 
 523:.\Generated_Source\PSoC5/USBUART_1.c **** 
 524:.\Generated_Source\PSoC5/USBUART_1.c ****     /*  ACK Setup, Stall IN/OUT */
ARM GAS  C:\Users\Alex\AppData\Local\Temp\ccbj9lYo.s 			page 19


 525:.\Generated_Source\PSoC5/USBUART_1.c ****     CY_SET_REG8(USBUART_1_EP0_CR_PTR, USBUART_1_MODE_STALL_IN_OUT);
 492              		.loc 1 525 0
 493 0030 0322     		movs	r2, #3
 494 0032 0B4B     		ldr	r3, .L26+32
 495 0034 1A70     		strb	r2, [r3]
 526:.\Generated_Source\PSoC5/USBUART_1.c **** 
 527:.\Generated_Source\PSoC5/USBUART_1.c ****     /* Enable the SIE with an address 0 */
 528:.\Generated_Source\PSoC5/USBUART_1.c ****     CY_SET_REG8(USBUART_1_CR0_PTR, USBUART_1_CR0_ENABLE);
 496              		.loc 1 528 0
 497 0036 8022     		movs	r2, #128
 498 0038 203B     		subs	r3, r3, #32
 499 003a 1A70     		strb	r2, [r3]
 500 003c 7047     		bx	lr
 501              	.L27:
 502 003e 00BF     		.align	2
 503              	.L26:
 504 0040 00000000 		.word	USBUART_1_hidProtocol
 505 0044 00000000 		.word	USBUART_1_transferState
 506 0048 00000000 		.word	USBUART_1_configuration
 507 004c 00000000 		.word	USBUART_1_interfaceNumber
 508 0050 00000000 		.word	USBUART_1_configurationChanged
 509 0054 00000000 		.word	USBUART_1_deviceAddress
 510 0058 00000000 		.word	USBUART_1_deviceStatus
 511 005c 00000000 		.word	USBUART_1_lastPacketSize
 512 0060 28600040 		.word	1073766440
 513              		.cfi_endproc
 514              	.LFE3:
 515              		.size	USBUART_1_ReInitComponent, .-USBUART_1_ReInitComponent
 516              		.section	.text.USBUART_1_CheckActivity,"ax",%progbits
 517              		.align	2
 518              		.global	USBUART_1_CheckActivity
 519              		.thumb
 520              		.thumb_func
 521              		.type	USBUART_1_CheckActivity, %function
 522              	USBUART_1_CheckActivity:
 523              	.LFB5:
 529:.\Generated_Source\PSoC5/USBUART_1.c **** 
 530:.\Generated_Source\PSoC5/USBUART_1.c **** }
 531:.\Generated_Source\PSoC5/USBUART_1.c **** 
 532:.\Generated_Source\PSoC5/USBUART_1.c **** 
 533:.\Generated_Source\PSoC5/USBUART_1.c **** /*******************************************************************************
 534:.\Generated_Source\PSoC5/USBUART_1.c **** * Function Name: USBUART_1_Stop
 535:.\Generated_Source\PSoC5/USBUART_1.c **** ********************************************************************************
 536:.\Generated_Source\PSoC5/USBUART_1.c **** *
 537:.\Generated_Source\PSoC5/USBUART_1.c **** * Summary:
 538:.\Generated_Source\PSoC5/USBUART_1.c **** *  This function shuts down the USB function including to release
 539:.\Generated_Source\PSoC5/USBUART_1.c **** *  the D+ Pullup and disabling the SIE.
 540:.\Generated_Source\PSoC5/USBUART_1.c **** *
 541:.\Generated_Source\PSoC5/USBUART_1.c **** * Parameters:
 542:.\Generated_Source\PSoC5/USBUART_1.c **** *  None.
 543:.\Generated_Source\PSoC5/USBUART_1.c **** *
 544:.\Generated_Source\PSoC5/USBUART_1.c **** * Return:
 545:.\Generated_Source\PSoC5/USBUART_1.c **** *  None.
 546:.\Generated_Source\PSoC5/USBUART_1.c **** *
 547:.\Generated_Source\PSoC5/USBUART_1.c **** * Global variables:
 548:.\Generated_Source\PSoC5/USBUART_1.c **** *   USBUART_1_configuration: Contains current configuration number
 549:.\Generated_Source\PSoC5/USBUART_1.c **** *       which is set by the Host using SET_CONFIGURATION request.
ARM GAS  C:\Users\Alex\AppData\Local\Temp\ccbj9lYo.s 			page 20


 550:.\Generated_Source\PSoC5/USBUART_1.c **** *       Initialized to zero in this API.
 551:.\Generated_Source\PSoC5/USBUART_1.c **** *   USBUART_1_deviceAddress: Contains current device address. This
 552:.\Generated_Source\PSoC5/USBUART_1.c **** *       variable is initialized to zero in this API. Host starts to communicate
 553:.\Generated_Source\PSoC5/USBUART_1.c **** *      to device with address 0 and then set it to whatever value using
 554:.\Generated_Source\PSoC5/USBUART_1.c **** *      SET_ADDRESS request.
 555:.\Generated_Source\PSoC5/USBUART_1.c **** *   USBUART_1_deviceStatus: initialized to 0.
 556:.\Generated_Source\PSoC5/USBUART_1.c **** *       This is two bit variable which contain power status in first bit
 557:.\Generated_Source\PSoC5/USBUART_1.c **** *       (DEVICE_STATUS_BUS_POWERED or DEVICE_STATUS_SELF_POWERED) and remote
 558:.\Generated_Source\PSoC5/USBUART_1.c **** *       wakeup status (DEVICE_STATUS_REMOTE_WAKEUP) in second bit.
 559:.\Generated_Source\PSoC5/USBUART_1.c **** *   USBUART_1_configurationChanged: This variable is set to one after
 560:.\Generated_Source\PSoC5/USBUART_1.c **** *       SET_CONFIGURATION request and cleared in this function.
 561:.\Generated_Source\PSoC5/USBUART_1.c **** *   USBUART_1_intiVar variable is set to zero
 562:.\Generated_Source\PSoC5/USBUART_1.c **** *
 563:.\Generated_Source\PSoC5/USBUART_1.c **** *******************************************************************************/
 564:.\Generated_Source\PSoC5/USBUART_1.c **** void USBUART_1_Stop(void) 
 565:.\Generated_Source\PSoC5/USBUART_1.c **** {
 566:.\Generated_Source\PSoC5/USBUART_1.c **** 
 567:.\Generated_Source\PSoC5/USBUART_1.c ****     #if(USBUART_1_EP_MM != USBUART_1__EP_MANUAL)
 568:.\Generated_Source\PSoC5/USBUART_1.c ****         USBUART_1_Stop_DMA(USBUART_1_MAX_EP);     /* Stop all DMAs */
 569:.\Generated_Source\PSoC5/USBUART_1.c ****     #endif   /*  USBUART_1_EP_MM != USBUART_1__EP_MANUAL */
 570:.\Generated_Source\PSoC5/USBUART_1.c **** 
 571:.\Generated_Source\PSoC5/USBUART_1.c ****     /* Disable the SIE */
 572:.\Generated_Source\PSoC5/USBUART_1.c ****     USBUART_1_CR0_REG &= (uint8)(~USBUART_1_CR0_ENABLE);
 573:.\Generated_Source\PSoC5/USBUART_1.c ****     /* Disable the d+ pullup */
 574:.\Generated_Source\PSoC5/USBUART_1.c ****     USBUART_1_USBIO_CR1_REG &= (uint8)(~USBUART_1_USBIO_CR1_USBPUEN);
 575:.\Generated_Source\PSoC5/USBUART_1.c ****     /* Disable USB in ACT PM */
 576:.\Generated_Source\PSoC5/USBUART_1.c ****     USBUART_1_PM_ACT_CFG_REG &= (uint8)(~USBUART_1_PM_ACT_EN_FSUSB);
 577:.\Generated_Source\PSoC5/USBUART_1.c ****     /* Disable USB block for Standby Power Mode */
 578:.\Generated_Source\PSoC5/USBUART_1.c ****     USBUART_1_PM_STBY_CFG_REG &= (uint8)(~USBUART_1_PM_STBY_EN_FSUSB);
 579:.\Generated_Source\PSoC5/USBUART_1.c **** 
 580:.\Generated_Source\PSoC5/USBUART_1.c ****     /* Disable the reset and EP interrupts */
 581:.\Generated_Source\PSoC5/USBUART_1.c ****     CyIntDisable(USBUART_1_BUS_RESET_VECT_NUM);
 582:.\Generated_Source\PSoC5/USBUART_1.c ****     CyIntDisable(USBUART_1_EP_0_VECT_NUM);
 583:.\Generated_Source\PSoC5/USBUART_1.c ****     #if(USBUART_1_EP1_ISR_REMOVE == 0u)
 584:.\Generated_Source\PSoC5/USBUART_1.c ****         CyIntDisable(USBUART_1_EP_1_VECT_NUM);
 585:.\Generated_Source\PSoC5/USBUART_1.c ****     #endif   /*  USBUART_1_EP1_ISR_REMOVE */
 586:.\Generated_Source\PSoC5/USBUART_1.c ****     #if(USBUART_1_EP2_ISR_REMOVE == 0u)
 587:.\Generated_Source\PSoC5/USBUART_1.c ****         CyIntDisable(USBUART_1_EP_2_VECT_NUM);
 588:.\Generated_Source\PSoC5/USBUART_1.c ****     #endif   /*  USBUART_1_EP2_ISR_REMOVE */
 589:.\Generated_Source\PSoC5/USBUART_1.c ****     #if(USBUART_1_EP3_ISR_REMOVE == 0u)
 590:.\Generated_Source\PSoC5/USBUART_1.c ****         CyIntDisable(USBUART_1_EP_3_VECT_NUM);
 591:.\Generated_Source\PSoC5/USBUART_1.c ****     #endif   /*  USBUART_1_EP3_ISR_REMOVE */
 592:.\Generated_Source\PSoC5/USBUART_1.c ****     #if(USBUART_1_EP4_ISR_REMOVE == 0u)
 593:.\Generated_Source\PSoC5/USBUART_1.c ****         CyIntDisable(USBUART_1_EP_4_VECT_NUM);
 594:.\Generated_Source\PSoC5/USBUART_1.c ****     #endif   /*  USBUART_1_EP4_ISR_REMOVE */
 595:.\Generated_Source\PSoC5/USBUART_1.c ****     #if(USBUART_1_EP5_ISR_REMOVE == 0u)
 596:.\Generated_Source\PSoC5/USBUART_1.c ****         CyIntDisable(USBUART_1_EP_5_VECT_NUM);
 597:.\Generated_Source\PSoC5/USBUART_1.c ****     #endif   /*  USBUART_1_EP5_ISR_REMOVE */
 598:.\Generated_Source\PSoC5/USBUART_1.c ****     #if(USBUART_1_EP6_ISR_REMOVE == 0u)
 599:.\Generated_Source\PSoC5/USBUART_1.c ****         CyIntDisable(USBUART_1_EP_6_VECT_NUM);
 600:.\Generated_Source\PSoC5/USBUART_1.c ****     #endif   /*  USBUART_1_EP6_ISR_REMOVE */
 601:.\Generated_Source\PSoC5/USBUART_1.c ****     #if(USBUART_1_EP7_ISR_REMOVE == 0u)
 602:.\Generated_Source\PSoC5/USBUART_1.c ****         CyIntDisable(USBUART_1_EP_7_VECT_NUM);
 603:.\Generated_Source\PSoC5/USBUART_1.c ****     #endif   /*  USBUART_1_EP7_ISR_REMOVE */
 604:.\Generated_Source\PSoC5/USBUART_1.c ****     #if(USBUART_1_EP8_ISR_REMOVE == 0u)
 605:.\Generated_Source\PSoC5/USBUART_1.c ****         CyIntDisable(USBUART_1_EP_8_VECT_NUM);
 606:.\Generated_Source\PSoC5/USBUART_1.c ****     #endif   /*  USBUART_1_EP8_ISR_REMOVE */
ARM GAS  C:\Users\Alex\AppData\Local\Temp\ccbj9lYo.s 			page 21


 607:.\Generated_Source\PSoC5/USBUART_1.c **** 
 608:.\Generated_Source\PSoC5/USBUART_1.c ****     /* Clear all of the component data */
 609:.\Generated_Source\PSoC5/USBUART_1.c ****     USBUART_1_configuration = 0u;
 610:.\Generated_Source\PSoC5/USBUART_1.c ****     USBUART_1_interfaceNumber = 0u;
 611:.\Generated_Source\PSoC5/USBUART_1.c ****     USBUART_1_configurationChanged = 0u;
 612:.\Generated_Source\PSoC5/USBUART_1.c ****     USBUART_1_deviceAddress  = 0u;
 613:.\Generated_Source\PSoC5/USBUART_1.c ****     USBUART_1_deviceStatus = 0u;
 614:.\Generated_Source\PSoC5/USBUART_1.c ****     USBUART_1_initVar = 0u;
 615:.\Generated_Source\PSoC5/USBUART_1.c **** 
 616:.\Generated_Source\PSoC5/USBUART_1.c **** }
 617:.\Generated_Source\PSoC5/USBUART_1.c **** 
 618:.\Generated_Source\PSoC5/USBUART_1.c **** 
 619:.\Generated_Source\PSoC5/USBUART_1.c **** /*******************************************************************************
 620:.\Generated_Source\PSoC5/USBUART_1.c **** * Function Name: USBUART_1_CheckActivity
 621:.\Generated_Source\PSoC5/USBUART_1.c **** ********************************************************************************
 622:.\Generated_Source\PSoC5/USBUART_1.c **** *
 623:.\Generated_Source\PSoC5/USBUART_1.c **** * Summary:
 624:.\Generated_Source\PSoC5/USBUART_1.c **** *  Returns the activity status of the bus.  Clears the status hardware to
 625:.\Generated_Source\PSoC5/USBUART_1.c **** *  provide fresh activity status on the next call of this routine.
 626:.\Generated_Source\PSoC5/USBUART_1.c **** *
 627:.\Generated_Source\PSoC5/USBUART_1.c **** * Parameters:
 628:.\Generated_Source\PSoC5/USBUART_1.c **** *  None.
 629:.\Generated_Source\PSoC5/USBUART_1.c **** *
 630:.\Generated_Source\PSoC5/USBUART_1.c **** * Return:
 631:.\Generated_Source\PSoC5/USBUART_1.c **** *  1 - If bus activity was detected since the last call to this function
 632:.\Generated_Source\PSoC5/USBUART_1.c **** *  0 - If bus activity not was detected since the last call to this function
 633:.\Generated_Source\PSoC5/USBUART_1.c **** *
 634:.\Generated_Source\PSoC5/USBUART_1.c **** *******************************************************************************/
 635:.\Generated_Source\PSoC5/USBUART_1.c **** uint8 USBUART_1_CheckActivity(void) 
 636:.\Generated_Source\PSoC5/USBUART_1.c **** {
 524              		.loc 1 636 0
 525              		.cfi_startproc
 526              		@ args = 0, pretend = 0, frame = 0
 527              		@ frame_needed = 0, uses_anonymous_args = 0
 528              		@ link register save eliminated.
 637:.\Generated_Source\PSoC5/USBUART_1.c ****     uint8 r;
 638:.\Generated_Source\PSoC5/USBUART_1.c **** 
 639:.\Generated_Source\PSoC5/USBUART_1.c ****     r = CY_GET_REG8(USBUART_1_CR1_PTR);
 529              		.loc 1 639 0
 530 0000 044B     		ldr	r3, .L29
 531 0002 1878     		ldrb	r0, [r3]	@ zero_extendqisi2
 532 0004 C0B2     		uxtb	r0, r0
 533              	.LVL42:
 640:.\Generated_Source\PSoC5/USBUART_1.c ****     CY_SET_REG8(USBUART_1_CR1_PTR, (r & ((uint8)(~USBUART_1_CR1_BUS_ACTIVITY))));
 534              		.loc 1 640 0
 535 0006 00F0FB02 		and	r2, r0, #251
 536 000a 1A70     		strb	r2, [r3]
 641:.\Generated_Source\PSoC5/USBUART_1.c **** 
 642:.\Generated_Source\PSoC5/USBUART_1.c ****     return((r & USBUART_1_CR1_BUS_ACTIVITY) >> USBUART_1_CR1_BUS_ACTIVITY_SHIFT);
 643:.\Generated_Source\PSoC5/USBUART_1.c **** }
 537              		.loc 1 643 0
 538 000c C0F38000 		ubfx	r0, r0, #2, #1
 539              	.LVL43:
 540 0010 7047     		bx	lr
 541              	.L30:
 542 0012 00BF     		.align	2
 543              	.L29:
ARM GAS  C:\Users\Alex\AppData\Local\Temp\ccbj9lYo.s 			page 22


 544 0014 09600040 		.word	1073766409
 545              		.cfi_endproc
 546              	.LFE5:
 547              		.size	USBUART_1_CheckActivity, .-USBUART_1_CheckActivity
 548              		.section	.text.USBUART_1_GetConfiguration,"ax",%progbits
 549              		.align	2
 550              		.global	USBUART_1_GetConfiguration
 551              		.thumb
 552              		.thumb_func
 553              		.type	USBUART_1_GetConfiguration, %function
 554              	USBUART_1_GetConfiguration:
 555              	.LFB6:
 644:.\Generated_Source\PSoC5/USBUART_1.c **** 
 645:.\Generated_Source\PSoC5/USBUART_1.c **** 
 646:.\Generated_Source\PSoC5/USBUART_1.c **** /*******************************************************************************
 647:.\Generated_Source\PSoC5/USBUART_1.c **** * Function Name: USBUART_1_GetConfiguration
 648:.\Generated_Source\PSoC5/USBUART_1.c **** ********************************************************************************
 649:.\Generated_Source\PSoC5/USBUART_1.c **** *
 650:.\Generated_Source\PSoC5/USBUART_1.c **** * Summary:
 651:.\Generated_Source\PSoC5/USBUART_1.c **** *  Returns the current configuration setting
 652:.\Generated_Source\PSoC5/USBUART_1.c **** *
 653:.\Generated_Source\PSoC5/USBUART_1.c **** * Parameters:
 654:.\Generated_Source\PSoC5/USBUART_1.c **** *  None.
 655:.\Generated_Source\PSoC5/USBUART_1.c **** *
 656:.\Generated_Source\PSoC5/USBUART_1.c **** * Return:
 657:.\Generated_Source\PSoC5/USBUART_1.c **** *  configuration.
 658:.\Generated_Source\PSoC5/USBUART_1.c **** *
 659:.\Generated_Source\PSoC5/USBUART_1.c **** *******************************************************************************/
 660:.\Generated_Source\PSoC5/USBUART_1.c **** uint8 USBUART_1_GetConfiguration(void) 
 661:.\Generated_Source\PSoC5/USBUART_1.c **** {
 556              		.loc 1 661 0
 557              		.cfi_startproc
 558              		@ args = 0, pretend = 0, frame = 0
 559              		@ frame_needed = 0, uses_anonymous_args = 0
 560              		@ link register save eliminated.
 662:.\Generated_Source\PSoC5/USBUART_1.c ****     return(USBUART_1_configuration);
 561              		.loc 1 662 0
 562 0000 014B     		ldr	r3, .L32
 563 0002 1878     		ldrb	r0, [r3]	@ zero_extendqisi2
 663:.\Generated_Source\PSoC5/USBUART_1.c **** }
 564              		.loc 1 663 0
 565 0004 7047     		bx	lr
 566              	.L33:
 567 0006 00BF     		.align	2
 568              	.L32:
 569 0008 00000000 		.word	USBUART_1_configuration
 570              		.cfi_endproc
 571              	.LFE6:
 572              		.size	USBUART_1_GetConfiguration, .-USBUART_1_GetConfiguration
 573              		.section	.text.USBUART_1_IsConfigurationChanged,"ax",%progbits
 574              		.align	2
 575              		.global	USBUART_1_IsConfigurationChanged
 576              		.thumb
 577              		.thumb_func
 578              		.type	USBUART_1_IsConfigurationChanged, %function
 579              	USBUART_1_IsConfigurationChanged:
 580              	.LFB7:
ARM GAS  C:\Users\Alex\AppData\Local\Temp\ccbj9lYo.s 			page 23


 664:.\Generated_Source\PSoC5/USBUART_1.c **** 
 665:.\Generated_Source\PSoC5/USBUART_1.c **** 
 666:.\Generated_Source\PSoC5/USBUART_1.c **** /*******************************************************************************
 667:.\Generated_Source\PSoC5/USBUART_1.c **** * Function Name: USBUART_1_IsConfigurationChanged
 668:.\Generated_Source\PSoC5/USBUART_1.c **** ********************************************************************************
 669:.\Generated_Source\PSoC5/USBUART_1.c **** *
 670:.\Generated_Source\PSoC5/USBUART_1.c **** * Summary:
 671:.\Generated_Source\PSoC5/USBUART_1.c **** *  Returns the clear on read configuration state. It is usefull when PC send
 672:.\Generated_Source\PSoC5/USBUART_1.c **** *  double SET_CONFIGURATION request with same configuration number.
 673:.\Generated_Source\PSoC5/USBUART_1.c **** *
 674:.\Generated_Source\PSoC5/USBUART_1.c **** * Parameters:
 675:.\Generated_Source\PSoC5/USBUART_1.c **** *  None.
 676:.\Generated_Source\PSoC5/USBUART_1.c **** *
 677:.\Generated_Source\PSoC5/USBUART_1.c **** * Return:
 678:.\Generated_Source\PSoC5/USBUART_1.c **** *  Not zero value when new configuration has been changed, otherwise zero is
 679:.\Generated_Source\PSoC5/USBUART_1.c **** *  returned.
 680:.\Generated_Source\PSoC5/USBUART_1.c **** *
 681:.\Generated_Source\PSoC5/USBUART_1.c **** * Global variables:
 682:.\Generated_Source\PSoC5/USBUART_1.c **** *   USBUART_1_configurationChanged: This variable is set to one after
 683:.\Generated_Source\PSoC5/USBUART_1.c **** *       SET_CONFIGURATION request and cleared in this function.
 684:.\Generated_Source\PSoC5/USBUART_1.c **** *
 685:.\Generated_Source\PSoC5/USBUART_1.c **** *******************************************************************************/
 686:.\Generated_Source\PSoC5/USBUART_1.c **** uint8 USBUART_1_IsConfigurationChanged(void) 
 687:.\Generated_Source\PSoC5/USBUART_1.c **** {
 581              		.loc 1 687 0
 582              		.cfi_startproc
 583              		@ args = 0, pretend = 0, frame = 0
 584              		@ frame_needed = 0, uses_anonymous_args = 0
 585              		@ link register save eliminated.
 586              	.LVL44:
 688:.\Generated_Source\PSoC5/USBUART_1.c ****     uint8 res = 0u;
 689:.\Generated_Source\PSoC5/USBUART_1.c **** 
 690:.\Generated_Source\PSoC5/USBUART_1.c ****     if(USBUART_1_configurationChanged != 0u)
 587              		.loc 1 690 0
 588 0000 064B     		ldr	r3, .L37
 589 0002 1B78     		ldrb	r3, [r3]	@ zero_extendqisi2
 590 0004 13F0FF0F 		tst	r3, #255
 591 0008 05D0     		beq	.L36
 691:.\Generated_Source\PSoC5/USBUART_1.c ****     {
 692:.\Generated_Source\PSoC5/USBUART_1.c ****         res = USBUART_1_configurationChanged;
 592              		.loc 1 692 0
 593 000a 044B     		ldr	r3, .L37
 594 000c 1878     		ldrb	r0, [r3]	@ zero_extendqisi2
 595 000e C0B2     		uxtb	r0, r0
 596              	.LVL45:
 693:.\Generated_Source\PSoC5/USBUART_1.c ****         USBUART_1_configurationChanged = 0u;
 597              		.loc 1 693 0
 598 0010 0022     		movs	r2, #0
 599 0012 1A70     		strb	r2, [r3]
 600 0014 7047     		bx	lr
 601              	.LVL46:
 602              	.L36:
 688:.\Generated_Source\PSoC5/USBUART_1.c ****     uint8 res = 0u;
 603              		.loc 1 688 0
 604 0016 0020     		movs	r0, #0
 605              	.LVL47:
 694:.\Generated_Source\PSoC5/USBUART_1.c ****     }
ARM GAS  C:\Users\Alex\AppData\Local\Temp\ccbj9lYo.s 			page 24


 695:.\Generated_Source\PSoC5/USBUART_1.c **** 
 696:.\Generated_Source\PSoC5/USBUART_1.c ****     return(res);
 697:.\Generated_Source\PSoC5/USBUART_1.c **** }
 606              		.loc 1 697 0
 607 0018 7047     		bx	lr
 608              	.L38:
 609 001a 00BF     		.align	2
 610              	.L37:
 611 001c 00000000 		.word	USBUART_1_configurationChanged
 612              		.cfi_endproc
 613              	.LFE7:
 614              		.size	USBUART_1_IsConfigurationChanged, .-USBUART_1_IsConfigurationChanged
 615              		.section	.text.USBUART_1_GetInterfaceSetting,"ax",%progbits
 616              		.align	2
 617              		.global	USBUART_1_GetInterfaceSetting
 618              		.thumb
 619              		.thumb_func
 620              		.type	USBUART_1_GetInterfaceSetting, %function
 621              	USBUART_1_GetInterfaceSetting:
 622              	.LFB8:
 698:.\Generated_Source\PSoC5/USBUART_1.c **** 
 699:.\Generated_Source\PSoC5/USBUART_1.c **** 
 700:.\Generated_Source\PSoC5/USBUART_1.c **** /*******************************************************************************
 701:.\Generated_Source\PSoC5/USBUART_1.c **** * Function Name: USBUART_1_GetInterfaceSetting
 702:.\Generated_Source\PSoC5/USBUART_1.c **** ********************************************************************************
 703:.\Generated_Source\PSoC5/USBUART_1.c **** *
 704:.\Generated_Source\PSoC5/USBUART_1.c **** * Summary:
 705:.\Generated_Source\PSoC5/USBUART_1.c **** *  Returns the alternate setting from current interface
 706:.\Generated_Source\PSoC5/USBUART_1.c **** *
 707:.\Generated_Source\PSoC5/USBUART_1.c **** * Parameters:
 708:.\Generated_Source\PSoC5/USBUART_1.c **** *  uint8 interfaceNumber, interface number
 709:.\Generated_Source\PSoC5/USBUART_1.c **** *
 710:.\Generated_Source\PSoC5/USBUART_1.c **** * Return:
 711:.\Generated_Source\PSoC5/USBUART_1.c **** *  Alternate setting.
 712:.\Generated_Source\PSoC5/USBUART_1.c **** *
 713:.\Generated_Source\PSoC5/USBUART_1.c **** *******************************************************************************/
 714:.\Generated_Source\PSoC5/USBUART_1.c **** uint8  USBUART_1_GetInterfaceSetting(uint8 interfaceNumber)
 715:.\Generated_Source\PSoC5/USBUART_1.c ****                                                     
 716:.\Generated_Source\PSoC5/USBUART_1.c **** {
 623              		.loc 1 716 0
 624              		.cfi_startproc
 625              		@ args = 0, pretend = 0, frame = 0
 626              		@ frame_needed = 0, uses_anonymous_args = 0
 627              		@ link register save eliminated.
 628              	.LVL48:
 717:.\Generated_Source\PSoC5/USBUART_1.c ****     return(USBUART_1_interfaceSetting[interfaceNumber]);
 629              		.loc 1 717 0
 630 0000 014B     		ldr	r3, .L40
 631 0002 185C     		ldrb	r0, [r3, r0]	@ zero_extendqisi2
 632              	.LVL49:
 718:.\Generated_Source\PSoC5/USBUART_1.c **** }
 633              		.loc 1 718 0
 634 0004 7047     		bx	lr
 635              	.L41:
 636 0006 00BF     		.align	2
 637              	.L40:
 638 0008 00000000 		.word	USBUART_1_interfaceSetting
ARM GAS  C:\Users\Alex\AppData\Local\Temp\ccbj9lYo.s 			page 25


 639              		.cfi_endproc
 640              	.LFE8:
 641              		.size	USBUART_1_GetInterfaceSetting, .-USBUART_1_GetInterfaceSetting
 642              		.section	.text.USBUART_1_GetEPState,"ax",%progbits
 643              		.align	2
 644              		.global	USBUART_1_GetEPState
 645              		.thumb
 646              		.thumb_func
 647              		.type	USBUART_1_GetEPState, %function
 648              	USBUART_1_GetEPState:
 649              	.LFB9:
 719:.\Generated_Source\PSoC5/USBUART_1.c **** 
 720:.\Generated_Source\PSoC5/USBUART_1.c **** 
 721:.\Generated_Source\PSoC5/USBUART_1.c **** /*******************************************************************************
 722:.\Generated_Source\PSoC5/USBUART_1.c **** * Function Name: USBUART_1_GetEPState
 723:.\Generated_Source\PSoC5/USBUART_1.c **** ********************************************************************************
 724:.\Generated_Source\PSoC5/USBUART_1.c **** *
 725:.\Generated_Source\PSoC5/USBUART_1.c **** * Summary:
 726:.\Generated_Source\PSoC5/USBUART_1.c **** *  Returned the state of the requested endpoint.
 727:.\Generated_Source\PSoC5/USBUART_1.c **** *
 728:.\Generated_Source\PSoC5/USBUART_1.c **** * Parameters:
 729:.\Generated_Source\PSoC5/USBUART_1.c **** *  epNumber: Endpoint Number
 730:.\Generated_Source\PSoC5/USBUART_1.c **** *
 731:.\Generated_Source\PSoC5/USBUART_1.c **** * Return:
 732:.\Generated_Source\PSoC5/USBUART_1.c **** *  State of the requested endpoint.
 733:.\Generated_Source\PSoC5/USBUART_1.c **** *
 734:.\Generated_Source\PSoC5/USBUART_1.c **** *******************************************************************************/
 735:.\Generated_Source\PSoC5/USBUART_1.c **** uint8 USBUART_1_GetEPState(uint8 epNumber) 
 736:.\Generated_Source\PSoC5/USBUART_1.c **** {
 650              		.loc 1 736 0
 651              		.cfi_startproc
 652              		@ args = 0, pretend = 0, frame = 0
 653              		@ frame_needed = 0, uses_anonymous_args = 0
 654              		@ link register save eliminated.
 655              	.LVL50:
 737:.\Generated_Source\PSoC5/USBUART_1.c ****     return(USBUART_1_EP[epNumber].apiEpState);
 656              		.loc 1 737 0
 657 0000 00EB4000 		add	r0, r0, r0, lsl #1
 658              	.LVL51:
 659 0004 8000     		lsls	r0, r0, #2
 660 0006 024B     		ldr	r3, .L43
 661 0008 1844     		add	r0, r0, r3
 662 000a 4078     		ldrb	r0, [r0, #1]	@ zero_extendqisi2
 738:.\Generated_Source\PSoC5/USBUART_1.c **** }
 663              		.loc 1 738 0
 664 000c 7047     		bx	lr
 665              	.L44:
 666 000e 00BF     		.align	2
 667              	.L43:
 668 0010 00000000 		.word	USBUART_1_EP
 669              		.cfi_endproc
 670              	.LFE9:
 671              		.size	USBUART_1_GetEPState, .-USBUART_1_GetEPState
 672              		.section	.text.USBUART_1_GetEPCount,"ax",%progbits
 673              		.align	2
 674              		.global	USBUART_1_GetEPCount
 675              		.thumb
ARM GAS  C:\Users\Alex\AppData\Local\Temp\ccbj9lYo.s 			page 26


 676              		.thumb_func
 677              		.type	USBUART_1_GetEPCount, %function
 678              	USBUART_1_GetEPCount:
 679              	.LFB10:
 739:.\Generated_Source\PSoC5/USBUART_1.c **** 
 740:.\Generated_Source\PSoC5/USBUART_1.c **** 
 741:.\Generated_Source\PSoC5/USBUART_1.c **** /*******************************************************************************
 742:.\Generated_Source\PSoC5/USBUART_1.c **** * Function Name: USBUART_1_GetEPCount
 743:.\Generated_Source\PSoC5/USBUART_1.c **** ********************************************************************************
 744:.\Generated_Source\PSoC5/USBUART_1.c **** *
 745:.\Generated_Source\PSoC5/USBUART_1.c **** * Summary:
 746:.\Generated_Source\PSoC5/USBUART_1.c **** *  This function supports Data Endpoints only(EP1-EP8).
 747:.\Generated_Source\PSoC5/USBUART_1.c **** *  Returns the transfer count for the requested endpoint.  The value from
 748:.\Generated_Source\PSoC5/USBUART_1.c **** *  the count registers includes 2 counts for the two byte checksum of the
 749:.\Generated_Source\PSoC5/USBUART_1.c **** *  packet.  This function subtracts the two counts.
 750:.\Generated_Source\PSoC5/USBUART_1.c **** *
 751:.\Generated_Source\PSoC5/USBUART_1.c **** * Parameters:
 752:.\Generated_Source\PSoC5/USBUART_1.c **** *  epNumber: Data Endpoint Number.
 753:.\Generated_Source\PSoC5/USBUART_1.c **** *            Valid values are between 1 and 8.
 754:.\Generated_Source\PSoC5/USBUART_1.c **** *
 755:.\Generated_Source\PSoC5/USBUART_1.c **** * Return:
 756:.\Generated_Source\PSoC5/USBUART_1.c **** *  Returns the current byte count from the specified endpoint or 0 for an
 757:.\Generated_Source\PSoC5/USBUART_1.c **** *  invalid endpoint.
 758:.\Generated_Source\PSoC5/USBUART_1.c **** *
 759:.\Generated_Source\PSoC5/USBUART_1.c **** *******************************************************************************/
 760:.\Generated_Source\PSoC5/USBUART_1.c **** uint16 USBUART_1_GetEPCount(uint8 epNumber) 
 761:.\Generated_Source\PSoC5/USBUART_1.c **** {
 680              		.loc 1 761 0
 681              		.cfi_startproc
 682              		@ args = 0, pretend = 0, frame = 0
 683              		@ frame_needed = 0, uses_anonymous_args = 0
 684              		@ link register save eliminated.
 685              	.LVL52:
 762:.\Generated_Source\PSoC5/USBUART_1.c ****     uint8 ri;
 763:.\Generated_Source\PSoC5/USBUART_1.c ****     uint16 result = 0u;
 764:.\Generated_Source\PSoC5/USBUART_1.c **** 
 765:.\Generated_Source\PSoC5/USBUART_1.c ****     if((epNumber > USBUART_1_EP0) && (epNumber < USBUART_1_MAX_EP))
 686              		.loc 1 765 0
 687 0000 0138     		subs	r0, r0, #1
 688              	.LVL53:
 689 0002 C0B2     		uxtb	r0, r0
 690 0004 0728     		cmp	r0, #7
 691 0006 0CD8     		bhi	.L47
 766:.\Generated_Source\PSoC5/USBUART_1.c ****     {
 767:.\Generated_Source\PSoC5/USBUART_1.c ****         ri = ((epNumber - USBUART_1_EP1) << USBUART_1_EPX_CNTX_ADDR_SHIFT);
 692              		.loc 1 767 0
 693 0008 0001     		lsls	r0, r0, #4
 694 000a C0B2     		uxtb	r0, r0
 695              	.LVL54:
 768:.\Generated_Source\PSoC5/USBUART_1.c **** 
 769:.\Generated_Source\PSoC5/USBUART_1.c ****         result = (uint8)(CY_GET_REG8((reg8 *)(USBUART_1_SIE_EP1_CNT0_IND + ri)) &
 696              		.loc 1 769 0
 697 000c 064B     		ldr	r3, .L48
 698 000e C25C     		ldrb	r2, [r0, r3]	@ zero_extendqisi2
 699 0010 02F00F02 		and	r2, r2, #15
 700              	.LVL55:
 770:.\Generated_Source\PSoC5/USBUART_1.c ****                           USBUART_1_EPX_CNT0_MASK);
ARM GAS  C:\Users\Alex\AppData\Local\Temp\ccbj9lYo.s 			page 27


 771:.\Generated_Source\PSoC5/USBUART_1.c ****         result = (result << 8u) | CY_GET_REG8((reg8 *)(USBUART_1_SIE_EP1_CNT1_IND + ri));
 701              		.loc 1 771 0
 702 0014 0133     		adds	r3, r3, #1
 703 0016 C35C     		ldrb	r3, [r0, r3]	@ zero_extendqisi2
 704 0018 43EA0220 		orr	r0, r3, r2, lsl #8
 705              	.LVL56:
 772:.\Generated_Source\PSoC5/USBUART_1.c ****         result -= USBUART_1_EPX_CNTX_CRC_COUNT;
 706              		.loc 1 772 0
 707 001c 0238     		subs	r0, r0, #2
 708              	.LVL57:
 709 001e 80B2     		uxth	r0, r0
 710              	.LVL58:
 711 0020 7047     		bx	lr
 712              	.LVL59:
 713              	.L47:
 763:.\Generated_Source\PSoC5/USBUART_1.c **** 
 714              		.loc 1 763 0
 715 0022 0020     		movs	r0, #0
 716              	.LVL60:
 773:.\Generated_Source\PSoC5/USBUART_1.c ****     }
 774:.\Generated_Source\PSoC5/USBUART_1.c ****     return(result);
 775:.\Generated_Source\PSoC5/USBUART_1.c **** }
 717              		.loc 1 775 0
 718 0024 7047     		bx	lr
 719              	.L49:
 720 0026 00BF     		.align	2
 721              	.L48:
 722 0028 0C600040 		.word	1073766412
 723              		.cfi_endproc
 724              	.LFE10:
 725              		.size	USBUART_1_GetEPCount, .-USBUART_1_GetEPCount
 726              		.section	.text.USBUART_1_InitEP_DMA,"ax",%progbits
 727              		.align	2
 728              		.global	USBUART_1_InitEP_DMA
 729              		.thumb
 730              		.thumb_func
 731              		.type	USBUART_1_InitEP_DMA, %function
 732              	USBUART_1_InitEP_DMA:
 733              	.LFB11:
 776:.\Generated_Source\PSoC5/USBUART_1.c **** 
 777:.\Generated_Source\PSoC5/USBUART_1.c **** 
 778:.\Generated_Source\PSoC5/USBUART_1.c **** #if(USBUART_1_EP_MM != USBUART_1__EP_MANUAL)
 779:.\Generated_Source\PSoC5/USBUART_1.c **** 
 780:.\Generated_Source\PSoC5/USBUART_1.c **** 
 781:.\Generated_Source\PSoC5/USBUART_1.c ****     /*******************************************************************************
 782:.\Generated_Source\PSoC5/USBUART_1.c ****     * Function Name: USBUART_1_InitEP_DMA
 783:.\Generated_Source\PSoC5/USBUART_1.c ****     ********************************************************************************
 784:.\Generated_Source\PSoC5/USBUART_1.c ****     *
 785:.\Generated_Source\PSoC5/USBUART_1.c ****     * Summary:
 786:.\Generated_Source\PSoC5/USBUART_1.c ****     *  This function allocates and initializes a DMA channel to be used by the
 787:.\Generated_Source\PSoC5/USBUART_1.c ****     *  USBUART_1_LoadInEP() or USBUART_1_ReadOutEP() APIs for data
 788:.\Generated_Source\PSoC5/USBUART_1.c ****     *  transfer.
 789:.\Generated_Source\PSoC5/USBUART_1.c ****     *
 790:.\Generated_Source\PSoC5/USBUART_1.c ****     * Parameters:
 791:.\Generated_Source\PSoC5/USBUART_1.c ****     *  epNumber: Contains the data endpoint number.
 792:.\Generated_Source\PSoC5/USBUART_1.c ****     *            Valid values are between 1 and 8.
 793:.\Generated_Source\PSoC5/USBUART_1.c ****     *  *pData: Pointer to a data array that is related to the EP transfers.
ARM GAS  C:\Users\Alex\AppData\Local\Temp\ccbj9lYo.s 			page 28


 794:.\Generated_Source\PSoC5/USBUART_1.c ****     *
 795:.\Generated_Source\PSoC5/USBUART_1.c ****     * Return:
 796:.\Generated_Source\PSoC5/USBUART_1.c ****     *  None.
 797:.\Generated_Source\PSoC5/USBUART_1.c ****     *
 798:.\Generated_Source\PSoC5/USBUART_1.c ****     * Reentrant:
 799:.\Generated_Source\PSoC5/USBUART_1.c ****     *  No.
 800:.\Generated_Source\PSoC5/USBUART_1.c ****     *
 801:.\Generated_Source\PSoC5/USBUART_1.c ****     *******************************************************************************/
 802:.\Generated_Source\PSoC5/USBUART_1.c ****     void USBUART_1_InitEP_DMA(uint8 epNumber, const uint8* pData)
 803:.\Generated_Source\PSoC5/USBUART_1.c ****                                                                     
 804:.\Generated_Source\PSoC5/USBUART_1.c ****     {
 734              		.loc 1 804 0
 735              		.cfi_startproc
 736              		@ args = 0, pretend = 0, frame = 0
 737              		@ frame_needed = 0, uses_anonymous_args = 0
 738              	.LVL61:
 739 0000 10B5     		push	{r4, lr}
 740              		.cfi_def_cfa_offset 8
 741              		.cfi_offset 4, -8
 742              		.cfi_offset 14, -4
 743 0002 0446     		mov	r4, r0
 805:.\Generated_Source\PSoC5/USBUART_1.c ****         uint16 src;
 806:.\Generated_Source\PSoC5/USBUART_1.c ****         uint16 dst;
 807:.\Generated_Source\PSoC5/USBUART_1.c ****         #if (CY_PSOC3)                  /* PSoC 3 */
 808:.\Generated_Source\PSoC5/USBUART_1.c ****             src = HI16(CYDEV_SRAM_BASE);
 809:.\Generated_Source\PSoC5/USBUART_1.c ****             dst = HI16(CYDEV_PERIPH_BASE);
 810:.\Generated_Source\PSoC5/USBUART_1.c ****             pData = pData;
 811:.\Generated_Source\PSoC5/USBUART_1.c ****         #else                           /* PSoC 5 */
 812:.\Generated_Source\PSoC5/USBUART_1.c ****             if((USBUART_1_EP[epNumber].addr & USBUART_1_DIR_IN) != 0u )
 744              		.loc 1 812 0
 745 0004 00EB4000 		add	r0, r0, r0, lsl #1
 746              	.LVL62:
 747 0008 8000     		lsls	r0, r0, #2
 748 000a 184B     		ldr	r3, .L59
 749 000c 1844     		add	r0, r0, r3
 750 000e 0379     		ldrb	r3, [r0, #4]	@ zero_extendqisi2
 751 0010 13F0800F 		tst	r3, #128
 752 0014 03D0     		beq	.L51
 813:.\Generated_Source\PSoC5/USBUART_1.c ****             {   /* for the IN EP source is the SRAM memory buffer */
 814:.\Generated_Source\PSoC5/USBUART_1.c ****                 src = HI16(pData);
 753              		.loc 1 814 0
 754 0016 0A0C     		lsrs	r2, r1, #16
 755              	.LVL63:
 815:.\Generated_Source\PSoC5/USBUART_1.c ****                 dst = HI16(CYDEV_PERIPH_BASE);
 756              		.loc 1 815 0
 757 0018 4FF48043 		mov	r3, #16384
 758 001c 02E0     		b	.L52
 759              	.LVL64:
 760              	.L51:
 816:.\Generated_Source\PSoC5/USBUART_1.c ****             }
 817:.\Generated_Source\PSoC5/USBUART_1.c ****             else
 818:.\Generated_Source\PSoC5/USBUART_1.c ****             {   /* for the OUT EP source is the SIE register */
 819:.\Generated_Source\PSoC5/USBUART_1.c ****                 src = HI16(CYDEV_PERIPH_BASE);
 820:.\Generated_Source\PSoC5/USBUART_1.c ****                 dst = HI16(pData);
 761              		.loc 1 820 0
 762 001e 0B0C     		lsrs	r3, r1, #16
 763              	.LVL65:
ARM GAS  C:\Users\Alex\AppData\Local\Temp\ccbj9lYo.s 			page 29


 819:.\Generated_Source\PSoC5/USBUART_1.c ****                 dst = HI16(pData);
 764              		.loc 1 819 0
 765 0020 4FF48042 		mov	r2, #16384
 766              	.LVL66:
 767              	.L52:
 821:.\Generated_Source\PSoC5/USBUART_1.c ****             }
 822:.\Generated_Source\PSoC5/USBUART_1.c ****         #endif  /*  C51 */
 823:.\Generated_Source\PSoC5/USBUART_1.c ****         switch(epNumber)
 768              		.loc 1 823 0
 769 0024 022C     		cmp	r4, #2
 770 0026 0AD0     		beq	.L54
 771 0028 032C     		cmp	r4, #3
 772 002a 0FD0     		beq	.L55
 773 002c 012C     		cmp	r4, #1
 774 002e 13D1     		bne	.L53
 824:.\Generated_Source\PSoC5/USBUART_1.c ****         {
 825:.\Generated_Source\PSoC5/USBUART_1.c ****             case USBUART_1_EP1:
 826:.\Generated_Source\PSoC5/USBUART_1.c ****                 #if(USBUART_1_DMA1_REMOVE == 0u)
 827:.\Generated_Source\PSoC5/USBUART_1.c ****                     USBUART_1_DmaChan[epNumber] = USBUART_1_ep1_DmaInitialize(
 775              		.loc 1 827 0
 776 0030 0020     		movs	r0, #0
 777 0032 0146     		mov	r1, r0
 778              	.LVL67:
 779 0034 FFF7FEFF 		bl	USBUART_1_ep1_DmaInitialize
 780              	.LVL68:
 781 0038 0D4B     		ldr	r3, .L59+4
 782 003a 1855     		strb	r0, [r3, r4]
 828:.\Generated_Source\PSoC5/USBUART_1.c ****                         USBUART_1_DMA_BYTES_PER_BURST, USBUART_1_DMA_REQUEST_PER_BURST, src, dst);
 829:.\Generated_Source\PSoC5/USBUART_1.c ****                 #endif   /*  USBUART_1_DMA1_REMOVE */
 830:.\Generated_Source\PSoC5/USBUART_1.c ****                 break;
 783              		.loc 1 830 0
 784 003c 0CE0     		b	.L53
 785              	.LVL69:
 786              	.L54:
 831:.\Generated_Source\PSoC5/USBUART_1.c ****             case USBUART_1_EP2:
 832:.\Generated_Source\PSoC5/USBUART_1.c ****                 #if(USBUART_1_DMA2_REMOVE == 0u)
 833:.\Generated_Source\PSoC5/USBUART_1.c ****                     USBUART_1_DmaChan[epNumber] = USBUART_1_ep2_DmaInitialize(
 787              		.loc 1 833 0
 788 003e 0020     		movs	r0, #0
 789 0040 0146     		mov	r1, r0
 790              	.LVL70:
 791 0042 FFF7FEFF 		bl	USBUART_1_ep2_DmaInitialize
 792              	.LVL71:
 793 0046 0A4B     		ldr	r3, .L59+4
 794 0048 1855     		strb	r0, [r3, r4]
 834:.\Generated_Source\PSoC5/USBUART_1.c ****                         USBUART_1_DMA_BYTES_PER_BURST, USBUART_1_DMA_REQUEST_PER_BURST, src, dst);
 835:.\Generated_Source\PSoC5/USBUART_1.c ****                 #endif   /*  USBUART_1_DMA2_REMOVE */
 836:.\Generated_Source\PSoC5/USBUART_1.c ****                 break;
 795              		.loc 1 836 0
 796 004a 05E0     		b	.L53
 797              	.LVL72:
 798              	.L55:
 837:.\Generated_Source\PSoC5/USBUART_1.c ****             case USBUART_1_EP3:
 838:.\Generated_Source\PSoC5/USBUART_1.c ****                 #if(USBUART_1_DMA3_REMOVE == 0u)
 839:.\Generated_Source\PSoC5/USBUART_1.c ****                     USBUART_1_DmaChan[epNumber] = USBUART_1_ep3_DmaInitialize(
 799              		.loc 1 839 0
 800 004c 0020     		movs	r0, #0
ARM GAS  C:\Users\Alex\AppData\Local\Temp\ccbj9lYo.s 			page 30


 801 004e 0146     		mov	r1, r0
 802              	.LVL73:
 803 0050 FFF7FEFF 		bl	USBUART_1_ep3_DmaInitialize
 804              	.LVL74:
 805 0054 064B     		ldr	r3, .L59+4
 806 0056 1855     		strb	r0, [r3, r4]
 807              	.L53:
 840:.\Generated_Source\PSoC5/USBUART_1.c ****                         USBUART_1_DMA_BYTES_PER_BURST, USBUART_1_DMA_REQUEST_PER_BURST, src, dst);
 841:.\Generated_Source\PSoC5/USBUART_1.c ****                 #endif   /*  USBUART_1_DMA3_REMOVE */
 842:.\Generated_Source\PSoC5/USBUART_1.c ****                 break;
 843:.\Generated_Source\PSoC5/USBUART_1.c ****             case USBUART_1_EP4:
 844:.\Generated_Source\PSoC5/USBUART_1.c ****                 #if(USBUART_1_DMA4_REMOVE == 0u)
 845:.\Generated_Source\PSoC5/USBUART_1.c ****                     USBUART_1_DmaChan[epNumber] = USBUART_1_ep4_DmaInitialize(
 846:.\Generated_Source\PSoC5/USBUART_1.c ****                         USBUART_1_DMA_BYTES_PER_BURST, USBUART_1_DMA_REQUEST_PER_BURST, src, dst);
 847:.\Generated_Source\PSoC5/USBUART_1.c ****                 #endif   /*  USBUART_1_DMA4_REMOVE */
 848:.\Generated_Source\PSoC5/USBUART_1.c ****                 break;
 849:.\Generated_Source\PSoC5/USBUART_1.c ****             case USBUART_1_EP5:
 850:.\Generated_Source\PSoC5/USBUART_1.c ****                 #if(USBUART_1_DMA5_REMOVE == 0u)
 851:.\Generated_Source\PSoC5/USBUART_1.c ****                     USBUART_1_DmaChan[epNumber] = USBUART_1_ep5_DmaInitialize(
 852:.\Generated_Source\PSoC5/USBUART_1.c ****                         USBUART_1_DMA_BYTES_PER_BURST, USBUART_1_DMA_REQUEST_PER_BURST, src, dst);
 853:.\Generated_Source\PSoC5/USBUART_1.c ****                 #endif   /*  USBUART_1_DMA5_REMOVE */
 854:.\Generated_Source\PSoC5/USBUART_1.c ****                 break;
 855:.\Generated_Source\PSoC5/USBUART_1.c ****             case USBUART_1_EP6:
 856:.\Generated_Source\PSoC5/USBUART_1.c ****                 #if(USBUART_1_DMA6_REMOVE == 0u)
 857:.\Generated_Source\PSoC5/USBUART_1.c ****                     USBUART_1_DmaChan[epNumber] = USBUART_1_ep6_DmaInitialize(
 858:.\Generated_Source\PSoC5/USBUART_1.c ****                         USBUART_1_DMA_BYTES_PER_BURST, USBUART_1_DMA_REQUEST_PER_BURST, src, dst);
 859:.\Generated_Source\PSoC5/USBUART_1.c ****                 #endif   /*  USBUART_1_DMA6_REMOVE */
 860:.\Generated_Source\PSoC5/USBUART_1.c ****                 break;
 861:.\Generated_Source\PSoC5/USBUART_1.c ****             case USBUART_1_EP7:
 862:.\Generated_Source\PSoC5/USBUART_1.c ****                 #if(USBUART_1_DMA7_REMOVE == 0u)
 863:.\Generated_Source\PSoC5/USBUART_1.c ****                     USBUART_1_DmaChan[epNumber] = USBUART_1_ep7_DmaInitialize(
 864:.\Generated_Source\PSoC5/USBUART_1.c ****                         USBUART_1_DMA_BYTES_PER_BURST, USBUART_1_DMA_REQUEST_PER_BURST, src, dst);
 865:.\Generated_Source\PSoC5/USBUART_1.c ****                 #endif   /*  USBUART_1_DMA7_REMOVE */
 866:.\Generated_Source\PSoC5/USBUART_1.c ****                 break;
 867:.\Generated_Source\PSoC5/USBUART_1.c ****             case USBUART_1_EP8:
 868:.\Generated_Source\PSoC5/USBUART_1.c ****                 #if(USBUART_1_DMA8_REMOVE == 0u)
 869:.\Generated_Source\PSoC5/USBUART_1.c ****                     USBUART_1_DmaChan[epNumber] = USBUART_1_ep8_DmaInitialize(
 870:.\Generated_Source\PSoC5/USBUART_1.c ****                         USBUART_1_DMA_BYTES_PER_BURST, USBUART_1_DMA_REQUEST_PER_BURST, src, dst);
 871:.\Generated_Source\PSoC5/USBUART_1.c ****                 #endif   /*  USBUART_1_DMA8_REMOVE */
 872:.\Generated_Source\PSoC5/USBUART_1.c ****                 break;
 873:.\Generated_Source\PSoC5/USBUART_1.c ****             default:
 874:.\Generated_Source\PSoC5/USBUART_1.c ****                 /* Do not support EP0 DMA transfers */
 875:.\Generated_Source\PSoC5/USBUART_1.c ****                 break;
 876:.\Generated_Source\PSoC5/USBUART_1.c ****         }
 877:.\Generated_Source\PSoC5/USBUART_1.c ****         if((epNumber > USBUART_1_EP0) && (epNumber < USBUART_1_MAX_EP))
 808              		.loc 1 877 0
 809 0058 631E     		subs	r3, r4, #1
 810 005a DBB2     		uxtb	r3, r3
 811 005c 072B     		cmp	r3, #7
 812 005e 03D8     		bhi	.L50
 878:.\Generated_Source\PSoC5/USBUART_1.c ****         {
 879:.\Generated_Source\PSoC5/USBUART_1.c ****             USBUART_1_DmaTd[epNumber] = CyDmaTdAllocate();
 813              		.loc 1 879 0
 814 0060 FFF7FEFF 		bl	CyDmaTdAllocate
 815              	.LVL75:
 816 0064 034B     		ldr	r3, .L59+8
 817 0066 1855     		strb	r0, [r3, r4]
ARM GAS  C:\Users\Alex\AppData\Local\Temp\ccbj9lYo.s 			page 31


 818              	.L50:
 819 0068 10BD     		pop	{r4, pc}
 820              	.L60:
 821 006a 00BF     		.align	2
 822              	.L59:
 823 006c 00000000 		.word	USBUART_1_EP
 824 0070 00000000 		.word	USBUART_1_DmaChan
 825 0074 00000000 		.word	USBUART_1_DmaTd
 826              		.cfi_endproc
 827              	.LFE11:
 828              		.size	USBUART_1_InitEP_DMA, .-USBUART_1_InitEP_DMA
 829              		.section	.text.USBUART_1_Stop_DMA,"ax",%progbits
 830              		.align	2
 831              		.global	USBUART_1_Stop_DMA
 832              		.thumb
 833              		.thumb_func
 834              		.type	USBUART_1_Stop_DMA, %function
 835              	USBUART_1_Stop_DMA:
 836              	.LFB12:
 880:.\Generated_Source\PSoC5/USBUART_1.c ****             #if ((USBUART_1_EP_MM == USBUART_1__EP_DMAAUTO) && (USBUART_1_EP_DMA_AUTO_OPT == 0u))
 881:.\Generated_Source\PSoC5/USBUART_1.c ****                 USBUART_1_DmaNextTd[epNumber] = CyDmaTdAllocate();
 882:.\Generated_Source\PSoC5/USBUART_1.c ****             #endif /*  ((USBUART_1_EP_MM == USBUART_1__EP_DMAAUTO) && (USBUART_1_EP_DMA_AUTO_OPT ==
 883:.\Generated_Source\PSoC5/USBUART_1.c **** 
 884:.\Generated_Source\PSoC5/USBUART_1.c ****         }
 885:.\Generated_Source\PSoC5/USBUART_1.c ****     }
 886:.\Generated_Source\PSoC5/USBUART_1.c **** 
 887:.\Generated_Source\PSoC5/USBUART_1.c **** 
 888:.\Generated_Source\PSoC5/USBUART_1.c ****     /*******************************************************************************
 889:.\Generated_Source\PSoC5/USBUART_1.c ****     * Function Name: USBUART_1_Stop_DMA
 890:.\Generated_Source\PSoC5/USBUART_1.c ****     ********************************************************************************
 891:.\Generated_Source\PSoC5/USBUART_1.c ****     *
 892:.\Generated_Source\PSoC5/USBUART_1.c ****     * Summary: Stops and free DMA
 893:.\Generated_Source\PSoC5/USBUART_1.c ****     *
 894:.\Generated_Source\PSoC5/USBUART_1.c ****     * Parameters:
 895:.\Generated_Source\PSoC5/USBUART_1.c ****     *  epNumber: Contains the data endpoint number or
 896:.\Generated_Source\PSoC5/USBUART_1.c ****     *           USBUART_1_MAX_EP to stop all DMAs
 897:.\Generated_Source\PSoC5/USBUART_1.c ****     *
 898:.\Generated_Source\PSoC5/USBUART_1.c ****     * Return:
 899:.\Generated_Source\PSoC5/USBUART_1.c ****     *  None.
 900:.\Generated_Source\PSoC5/USBUART_1.c ****     *
 901:.\Generated_Source\PSoC5/USBUART_1.c ****     * Reentrant:
 902:.\Generated_Source\PSoC5/USBUART_1.c ****     *  No.
 903:.\Generated_Source\PSoC5/USBUART_1.c ****     *
 904:.\Generated_Source\PSoC5/USBUART_1.c ****     *******************************************************************************/
 905:.\Generated_Source\PSoC5/USBUART_1.c ****     void USBUART_1_Stop_DMA(uint8 epNumber) 
 906:.\Generated_Source\PSoC5/USBUART_1.c ****     {
 837              		.loc 1 906 0
 838              		.cfi_startproc
 839              		@ args = 0, pretend = 0, frame = 0
 840              		@ frame_needed = 0, uses_anonymous_args = 0
 841              	.LVL76:
 842 0000 70B5     		push	{r4, r5, r6, lr}
 843              		.cfi_def_cfa_offset 16
 844              		.cfi_offset 4, -16
 845              		.cfi_offset 5, -12
 846              		.cfi_offset 6, -8
 847              		.cfi_offset 14, -4
ARM GAS  C:\Users\Alex\AppData\Local\Temp\ccbj9lYo.s 			page 32


 848 0002 0646     		mov	r6, r0
 907:.\Generated_Source\PSoC5/USBUART_1.c ****         uint8 i;
 908:.\Generated_Source\PSoC5/USBUART_1.c ****         i = (epNumber < USBUART_1_MAX_EP) ? epNumber : USBUART_1_EP1;
 849              		.loc 1 908 0
 850 0004 0828     		cmp	r0, #8
 851 0006 01D9     		bls	.L66
 852 0008 0124     		movs	r4, #1
 853 000a 00E0     		b	.L65
 854              	.L66:
 855 000c 0446     		mov	r4, r0
 856              	.LVL77:
 857              	.L65:
 909:.\Generated_Source\PSoC5/USBUART_1.c ****         do
 910:.\Generated_Source\PSoC5/USBUART_1.c ****         {
 911:.\Generated_Source\PSoC5/USBUART_1.c ****             if(USBUART_1_DmaTd[i] != DMA_INVALID_TD)
 858              		.loc 1 911 0
 859 000e 0A4B     		ldr	r3, .L68
 860 0010 1B5D     		ldrb	r3, [r3, r4]	@ zero_extendqisi2
 861 0012 FF2B     		cmp	r3, #255
 862 0014 09D0     		beq	.L63
 912:.\Generated_Source\PSoC5/USBUART_1.c ****             {
 913:.\Generated_Source\PSoC5/USBUART_1.c ****                 (void) CyDmaChDisable(USBUART_1_DmaChan[i]);
 863              		.loc 1 913 0
 864 0016 094B     		ldr	r3, .L68+4
 865 0018 185D     		ldrb	r0, [r3, r4]	@ zero_extendqisi2
 866 001a FFF7FEFF 		bl	CyDmaChDisable
 867              	.LVL78:
 914:.\Generated_Source\PSoC5/USBUART_1.c ****                 CyDmaTdFree(USBUART_1_DmaTd[i]);
 868              		.loc 1 914 0
 869 001e 064D     		ldr	r5, .L68
 870 0020 285D     		ldrb	r0, [r5, r4]	@ zero_extendqisi2
 871 0022 FFF7FEFF 		bl	CyDmaTdFree
 872              	.LVL79:
 915:.\Generated_Source\PSoC5/USBUART_1.c ****                 USBUART_1_DmaTd[i] = DMA_INVALID_TD;
 873              		.loc 1 915 0
 874 0026 FF23     		movs	r3, #255
 875 0028 2B55     		strb	r3, [r5, r4]
 876              	.L63:
 916:.\Generated_Source\PSoC5/USBUART_1.c ****             }
 917:.\Generated_Source\PSoC5/USBUART_1.c ****             #if ((USBUART_1_EP_MM == USBUART_1__EP_DMAAUTO) && (USBUART_1_EP_DMA_AUTO_OPT == 0u))
 918:.\Generated_Source\PSoC5/USBUART_1.c ****                 if(USBUART_1_DmaNextTd[i] != DMA_INVALID_TD)
 919:.\Generated_Source\PSoC5/USBUART_1.c ****                 {
 920:.\Generated_Source\PSoC5/USBUART_1.c ****                     CyDmaTdFree(USBUART_1_DmaNextTd[i]);
 921:.\Generated_Source\PSoC5/USBUART_1.c ****                     USBUART_1_DmaNextTd[i] = DMA_INVALID_TD;
 922:.\Generated_Source\PSoC5/USBUART_1.c ****                 }
 923:.\Generated_Source\PSoC5/USBUART_1.c ****             #endif /* ((USBUART_1_EP_MM == USBUART_1__EP_DMAAUTO) && (USBUART_1_EP_DMA_AUTO_OPT == 
 924:.\Generated_Source\PSoC5/USBUART_1.c ****             i++;
 877              		.loc 1 924 0
 878 002a 0134     		adds	r4, r4, #1
 879              	.LVL80:
 880 002c E4B2     		uxtb	r4, r4
 881              	.LVL81:
 925:.\Generated_Source\PSoC5/USBUART_1.c ****         }while((i < USBUART_1_MAX_EP) && (epNumber == USBUART_1_MAX_EP));
 882              		.loc 1 925 0
 883 002e 082C     		cmp	r4, #8
 884 0030 01D8     		bhi	.L61
 885              		.loc 1 925 0 is_stmt 0 discriminator 1
ARM GAS  C:\Users\Alex\AppData\Local\Temp\ccbj9lYo.s 			page 33


 886 0032 092E     		cmp	r6, #9
 887 0034 EBD0     		beq	.L65
 888              	.L61:
 889 0036 70BD     		pop	{r4, r5, r6, pc}
 890              	.LVL82:
 891              	.L69:
 892              		.align	2
 893              	.L68:
 894 0038 00000000 		.word	USBUART_1_DmaTd
 895 003c 00000000 		.word	USBUART_1_DmaChan
 896              		.cfi_endproc
 897              	.LFE12:
 898              		.size	USBUART_1_Stop_DMA, .-USBUART_1_Stop_DMA
 899              		.section	.text.USBUART_1_Stop,"ax",%progbits
 900              		.align	2
 901              		.global	USBUART_1_Stop
 902              		.thumb
 903              		.thumb_func
 904              		.type	USBUART_1_Stop, %function
 905              	USBUART_1_Stop:
 906              	.LFB4:
 565:.\Generated_Source\PSoC5/USBUART_1.c **** 
 907              		.loc 1 565 0 is_stmt 1
 908              		.cfi_startproc
 909              		@ args = 0, pretend = 0, frame = 0
 910              		@ frame_needed = 0, uses_anonymous_args = 0
 911 0000 08B5     		push	{r3, lr}
 912              		.cfi_def_cfa_offset 8
 913              		.cfi_offset 3, -8
 914              		.cfi_offset 14, -4
 568:.\Generated_Source\PSoC5/USBUART_1.c ****     #endif   /*  USBUART_1_EP_MM != USBUART_1__EP_MANUAL */
 915              		.loc 1 568 0
 916 0002 0920     		movs	r0, #9
 917 0004 FFF7FEFF 		bl	USBUART_1_Stop_DMA
 918              	.LVL83:
 572:.\Generated_Source\PSoC5/USBUART_1.c ****     /* Disable the d+ pullup */
 919              		.loc 1 572 0
 920 0008 184A     		ldr	r2, .L72
 921 000a 1378     		ldrb	r3, [r2]	@ zero_extendqisi2
 922 000c 03F07F03 		and	r3, r3, #127
 923 0010 1370     		strb	r3, [r2]
 574:.\Generated_Source\PSoC5/USBUART_1.c ****     /* Disable USB in ACT PM */
 924              		.loc 1 574 0
 925 0012 0A32     		adds	r2, r2, #10
 926 0014 1378     		ldrb	r3, [r2]	@ zero_extendqisi2
 927 0016 03F0FB03 		and	r3, r3, #251
 928 001a 1370     		strb	r3, [r2]
 576:.\Generated_Source\PSoC5/USBUART_1.c ****     /* Disable USB block for Standby Power Mode */
 929              		.loc 1 576 0
 930 001c A2F5E352 		sub	r2, r2, #7264
 931 0020 0D3A     		subs	r2, r2, #13
 932 0022 1378     		ldrb	r3, [r2]	@ zero_extendqisi2
 933 0024 03F0FE03 		and	r3, r3, #254
 934 0028 1370     		strb	r3, [r2]
 578:.\Generated_Source\PSoC5/USBUART_1.c **** 
 935              		.loc 1 578 0
 936 002a 1032     		adds	r2, r2, #16
ARM GAS  C:\Users\Alex\AppData\Local\Temp\ccbj9lYo.s 			page 34


 937 002c 1378     		ldrb	r3, [r2]	@ zero_extendqisi2
 938 002e 03F0FE03 		and	r3, r3, #254
 939 0032 1370     		strb	r3, [r2]
 581:.\Generated_Source\PSoC5/USBUART_1.c ****     CyIntDisable(USBUART_1_EP_0_VECT_NUM);
 940              		.loc 1 581 0
 941 0034 0E4B     		ldr	r3, .L72+4
 942 0036 4FF40002 		mov	r2, #8388608
 943 003a 1A60     		str	r2, [r3]
 582:.\Generated_Source\PSoC5/USBUART_1.c ****     #if(USBUART_1_EP1_ISR_REMOVE == 0u)
 944              		.loc 1 582 0
 945 003c 4FF08072 		mov	r2, #16777216
 946 0040 1A60     		str	r2, [r3]
 584:.\Generated_Source\PSoC5/USBUART_1.c ****     #endif   /*  USBUART_1_EP1_ISR_REMOVE */
 947              		.loc 1 584 0
 948 0042 1022     		movs	r2, #16
 949 0044 1A60     		str	r2, [r3]
 587:.\Generated_Source\PSoC5/USBUART_1.c ****     #endif   /*  USBUART_1_EP2_ISR_REMOVE */
 950              		.loc 1 587 0
 951 0046 2022     		movs	r2, #32
 952 0048 1A60     		str	r2, [r3]
 590:.\Generated_Source\PSoC5/USBUART_1.c ****     #endif   /*  USBUART_1_EP3_ISR_REMOVE */
 953              		.loc 1 590 0
 954 004a 4022     		movs	r2, #64
 955 004c 1A60     		str	r2, [r3]
 609:.\Generated_Source\PSoC5/USBUART_1.c ****     USBUART_1_interfaceNumber = 0u;
 956              		.loc 1 609 0
 957 004e 0023     		movs	r3, #0
 958 0050 084A     		ldr	r2, .L72+8
 959 0052 1370     		strb	r3, [r2]
 610:.\Generated_Source\PSoC5/USBUART_1.c ****     USBUART_1_configurationChanged = 0u;
 960              		.loc 1 610 0
 961 0054 084A     		ldr	r2, .L72+12
 962 0056 1370     		strb	r3, [r2]
 611:.\Generated_Source\PSoC5/USBUART_1.c ****     USBUART_1_deviceAddress  = 0u;
 963              		.loc 1 611 0
 964 0058 084A     		ldr	r2, .L72+16
 965 005a 1370     		strb	r3, [r2]
 612:.\Generated_Source\PSoC5/USBUART_1.c ****     USBUART_1_deviceStatus = 0u;
 966              		.loc 1 612 0
 967 005c 084A     		ldr	r2, .L72+20
 968 005e 1370     		strb	r3, [r2]
 613:.\Generated_Source\PSoC5/USBUART_1.c ****     USBUART_1_initVar = 0u;
 969              		.loc 1 613 0
 970 0060 084A     		ldr	r2, .L72+24
 971 0062 1370     		strb	r3, [r2]
 614:.\Generated_Source\PSoC5/USBUART_1.c **** 
 972              		.loc 1 614 0
 973 0064 084A     		ldr	r2, .L72+28
 974 0066 1370     		strb	r3, [r2]
 975 0068 08BD     		pop	{r3, pc}
 976              	.L73:
 977 006a 00BF     		.align	2
 978              	.L72:
 979 006c 08600040 		.word	1073766408
 980 0070 80E100E0 		.word	-536813184
 981 0074 00000000 		.word	USBUART_1_configuration
 982 0078 00000000 		.word	USBUART_1_interfaceNumber
ARM GAS  C:\Users\Alex\AppData\Local\Temp\ccbj9lYo.s 			page 35


 983 007c 00000000 		.word	USBUART_1_configurationChanged
 984 0080 00000000 		.word	USBUART_1_deviceAddress
 985 0084 00000000 		.word	USBUART_1_deviceStatus
 986 0088 00000000 		.word	.LANCHOR0
 987              		.cfi_endproc
 988              	.LFE4:
 989              		.size	USBUART_1_Stop, .-USBUART_1_Stop
 990              		.section	.text.USBUART_1_LoadInEP,"ax",%progbits
 991              		.align	2
 992              		.global	USBUART_1_LoadInEP
 993              		.thumb
 994              		.thumb_func
 995              		.type	USBUART_1_LoadInEP, %function
 996              	USBUART_1_LoadInEP:
 997              	.LFB13:
 926:.\Generated_Source\PSoC5/USBUART_1.c ****     }
 927:.\Generated_Source\PSoC5/USBUART_1.c **** 
 928:.\Generated_Source\PSoC5/USBUART_1.c **** #endif /*  USBUART_1_EP_MM != USBUART_1__EP_MANUAL */
 929:.\Generated_Source\PSoC5/USBUART_1.c **** 
 930:.\Generated_Source\PSoC5/USBUART_1.c **** 
 931:.\Generated_Source\PSoC5/USBUART_1.c **** #if ((USBUART_1_EP_MM == USBUART_1__EP_DMAAUTO) && (USBUART_1_EP_DMA_AUTO_OPT == 0u))
 932:.\Generated_Source\PSoC5/USBUART_1.c **** 
 933:.\Generated_Source\PSoC5/USBUART_1.c **** 
 934:.\Generated_Source\PSoC5/USBUART_1.c ****     /*******************************************************************************
 935:.\Generated_Source\PSoC5/USBUART_1.c ****     * Function Name: USBUART_1_LoadNextInEP
 936:.\Generated_Source\PSoC5/USBUART_1.c ****     ********************************************************************************
 937:.\Generated_Source\PSoC5/USBUART_1.c ****     *
 938:.\Generated_Source\PSoC5/USBUART_1.c ****     * Summary:
 939:.\Generated_Source\PSoC5/USBUART_1.c ****     *  This internal function is used for IN endpoint DMA reconfiguration in
 940:.\Generated_Source\PSoC5/USBUART_1.c ****     *  Auto DMA mode.
 941:.\Generated_Source\PSoC5/USBUART_1.c ****     *
 942:.\Generated_Source\PSoC5/USBUART_1.c ****     * Parameters:
 943:.\Generated_Source\PSoC5/USBUART_1.c ****     *  epNumber: Contains the data endpoint number.
 944:.\Generated_Source\PSoC5/USBUART_1.c ****     *  mode:   0 - Configure DMA to send the the rest of data.
 945:.\Generated_Source\PSoC5/USBUART_1.c ****     *          1 - Configure DMA to repeat 2 last bytes of the first burst.
 946:.\Generated_Source\PSoC5/USBUART_1.c ****     *
 947:.\Generated_Source\PSoC5/USBUART_1.c ****     * Return:
 948:.\Generated_Source\PSoC5/USBUART_1.c ****     *  None.
 949:.\Generated_Source\PSoC5/USBUART_1.c ****     *
 950:.\Generated_Source\PSoC5/USBUART_1.c ****     *******************************************************************************/
 951:.\Generated_Source\PSoC5/USBUART_1.c ****     void USBUART_1_LoadNextInEP(uint8 epNumber, uint8 mode) 
 952:.\Generated_Source\PSoC5/USBUART_1.c ****     {
 953:.\Generated_Source\PSoC5/USBUART_1.c ****         reg16 *convert;
 954:.\Generated_Source\PSoC5/USBUART_1.c **** 
 955:.\Generated_Source\PSoC5/USBUART_1.c ****         if(mode == 0u)
 956:.\Generated_Source\PSoC5/USBUART_1.c ****         {
 957:.\Generated_Source\PSoC5/USBUART_1.c ****             /* Configure DMA to send the the rest of data */
 958:.\Generated_Source\PSoC5/USBUART_1.c ****             /* CyDmaTdSetConfiguration API is optimised to change only transfer length and configur
 959:.\Generated_Source\PSoC5/USBUART_1.c ****             convert = (reg16 *) &CY_DMA_TDMEM_STRUCT_PTR[USBUART_1_DmaTd[epNumber]].TD0[0u];
 960:.\Generated_Source\PSoC5/USBUART_1.c ****             /* Set transfer length */
 961:.\Generated_Source\PSoC5/USBUART_1.c ****             CY_SET_REG16(convert, USBUART_1_inLength[epNumber] - USBUART_1_DMA_BYTES_PER_BURST);
 962:.\Generated_Source\PSoC5/USBUART_1.c ****             /* CyDmaTdSetAddress API is optimized to change only source address */
 963:.\Generated_Source\PSoC5/USBUART_1.c ****             convert = (reg16 *) &CY_DMA_TDMEM_STRUCT_PTR[USBUART_1_DmaTd[epNumber]].TD1[0u];
 964:.\Generated_Source\PSoC5/USBUART_1.c ****             CY_SET_REG16(convert, LO16((uint32)USBUART_1_inDataPointer[epNumber] +
 965:.\Generated_Source\PSoC5/USBUART_1.c ****                                             USBUART_1_DMA_BYTES_PER_BURST));
 966:.\Generated_Source\PSoC5/USBUART_1.c ****             USBUART_1_inBufFull[epNumber] = 1u;
 967:.\Generated_Source\PSoC5/USBUART_1.c ****         }
ARM GAS  C:\Users\Alex\AppData\Local\Temp\ccbj9lYo.s 			page 36


 968:.\Generated_Source\PSoC5/USBUART_1.c ****         else
 969:.\Generated_Source\PSoC5/USBUART_1.c ****         {
 970:.\Generated_Source\PSoC5/USBUART_1.c ****             /* Configure DMA to repeat 2 last bytes of the first burst. */
 971:.\Generated_Source\PSoC5/USBUART_1.c ****             /* CyDmaTdSetConfiguration API is optimised to change only transfer length and configur
 972:.\Generated_Source\PSoC5/USBUART_1.c ****             convert = (reg16 *) &CY_DMA_TDMEM_STRUCT_PTR[USBUART_1_DmaTd[epNumber]].TD0[0u];
 973:.\Generated_Source\PSoC5/USBUART_1.c ****             /* Set transfer length */
 974:.\Generated_Source\PSoC5/USBUART_1.c ****             CY_SET_REG16(convert, USBUART_1_DMA_BYTES_REPEAT);
 975:.\Generated_Source\PSoC5/USBUART_1.c ****             /* CyDmaTdSetAddress API is optimized to change only source address */
 976:.\Generated_Source\PSoC5/USBUART_1.c ****             convert = (reg16 *) &CY_DMA_TDMEM_STRUCT_PTR[USBUART_1_DmaTd[epNumber]].TD1[0u];
 977:.\Generated_Source\PSoC5/USBUART_1.c ****             CY_SET_REG16(convert,  LO16((uint32)USBUART_1_inDataPointer[epNumber] +
 978:.\Generated_Source\PSoC5/USBUART_1.c ****                                    USBUART_1_DMA_BYTES_PER_BURST - USBUART_1_DMA_BYTES_REPEAT));
 979:.\Generated_Source\PSoC5/USBUART_1.c ****         }
 980:.\Generated_Source\PSoC5/USBUART_1.c **** 
 981:.\Generated_Source\PSoC5/USBUART_1.c ****         /* CyDmaChSetInitialTd API is optimised to init TD */
 982:.\Generated_Source\PSoC5/USBUART_1.c ****         CY_DMA_CH_STRUCT_PTR[USBUART_1_DmaChan[epNumber]].basic_status[1u] = USBUART_1_DmaTd[epNumb
 983:.\Generated_Source\PSoC5/USBUART_1.c ****     }
 984:.\Generated_Source\PSoC5/USBUART_1.c **** #endif /* ((USBUART_1_EP_MM == USBUART_1__EP_DMAAUTO) && (USBUART_1_EP_DMA_AUTO_OPT == 0u)) */
 985:.\Generated_Source\PSoC5/USBUART_1.c **** 
 986:.\Generated_Source\PSoC5/USBUART_1.c **** 
 987:.\Generated_Source\PSoC5/USBUART_1.c **** /*******************************************************************************
 988:.\Generated_Source\PSoC5/USBUART_1.c **** * Function Name: USBUART_1_LoadInEP
 989:.\Generated_Source\PSoC5/USBUART_1.c **** ********************************************************************************
 990:.\Generated_Source\PSoC5/USBUART_1.c **** *
 991:.\Generated_Source\PSoC5/USBUART_1.c **** * Summary:
 992:.\Generated_Source\PSoC5/USBUART_1.c **** *  Loads and enables the specified USB data endpoint for an IN transfer.
 993:.\Generated_Source\PSoC5/USBUART_1.c **** *
 994:.\Generated_Source\PSoC5/USBUART_1.c **** * Parameters:
 995:.\Generated_Source\PSoC5/USBUART_1.c **** *  epNumber: Contains the data endpoint number.
 996:.\Generated_Source\PSoC5/USBUART_1.c **** *            Valid values are between 1 and 8.
 997:.\Generated_Source\PSoC5/USBUART_1.c **** *  *pData: A pointer to a data array from which the data for the endpoint space
 998:.\Generated_Source\PSoC5/USBUART_1.c **** *          is loaded.
 999:.\Generated_Source\PSoC5/USBUART_1.c **** *  length: The number of bytes to transfer from the array and then send as a
1000:.\Generated_Source\PSoC5/USBUART_1.c **** *          result of an IN request. Valid values are between 0 and 512.
1001:.\Generated_Source\PSoC5/USBUART_1.c **** *
1002:.\Generated_Source\PSoC5/USBUART_1.c **** * Return:
1003:.\Generated_Source\PSoC5/USBUART_1.c **** *  None.
1004:.\Generated_Source\PSoC5/USBUART_1.c **** *
1005:.\Generated_Source\PSoC5/USBUART_1.c **** * Reentrant:
1006:.\Generated_Source\PSoC5/USBUART_1.c **** *  No.
1007:.\Generated_Source\PSoC5/USBUART_1.c **** *
1008:.\Generated_Source\PSoC5/USBUART_1.c **** *******************************************************************************/
1009:.\Generated_Source\PSoC5/USBUART_1.c **** void USBUART_1_LoadInEP(uint8 epNumber, const uint8 pData[], uint16 length)
1010:.\Generated_Source\PSoC5/USBUART_1.c ****                                                                         
1011:.\Generated_Source\PSoC5/USBUART_1.c **** {
 998              		.loc 1 1011 0
 999              		.cfi_startproc
 1000              		@ args = 0, pretend = 0, frame = 0
 1001              		@ frame_needed = 0, uses_anonymous_args = 0
 1002              	.LVL84:
 1003 0000 2DE9F047 		push	{r4, r5, r6, r7, r8, r9, r10, lr}
 1004              		.cfi_def_cfa_offset 32
 1005              		.cfi_offset 4, -32
 1006              		.cfi_offset 5, -28
 1007              		.cfi_offset 6, -24
 1008              		.cfi_offset 7, -20
 1009              		.cfi_offset 8, -16
 1010              		.cfi_offset 9, -12
ARM GAS  C:\Users\Alex\AppData\Local\Temp\ccbj9lYo.s 			page 37


 1011              		.cfi_offset 10, -8
 1012              		.cfi_offset 14, -4
 1013 0004 0446     		mov	r4, r0
1012:.\Generated_Source\PSoC5/USBUART_1.c ****     uint8 ri;
1013:.\Generated_Source\PSoC5/USBUART_1.c ****     reg8 *p;
1014:.\Generated_Source\PSoC5/USBUART_1.c ****     #if(USBUART_1_EP_MM == USBUART_1__EP_MANUAL)
1015:.\Generated_Source\PSoC5/USBUART_1.c ****         uint16 i;
1016:.\Generated_Source\PSoC5/USBUART_1.c ****     #endif /*  USBUART_1_EP_MM == USBUART_1__EP_MANUAL */
1017:.\Generated_Source\PSoC5/USBUART_1.c **** 
1018:.\Generated_Source\PSoC5/USBUART_1.c ****     if((epNumber > USBUART_1_EP0) && (epNumber < USBUART_1_MAX_EP))
 1014              		.loc 1 1018 0
 1015 0006 451E     		subs	r5, r0, #1
 1016 0008 EDB2     		uxtb	r5, r5
 1017 000a 072D     		cmp	r5, #7
 1018 000c 6FD8     		bhi	.L74
 1019 000e 0F46     		mov	r7, r1
 1020 0010 1646     		mov	r6, r2
1019:.\Generated_Source\PSoC5/USBUART_1.c ****     {
1020:.\Generated_Source\PSoC5/USBUART_1.c ****         ri = ((epNumber - USBUART_1_EP1) << USBUART_1_EPX_CNTX_ADDR_SHIFT);
 1021              		.loc 1 1020 0
 1022 0012 2D01     		lsls	r5, r5, #4
 1023 0014 EDB2     		uxtb	r5, r5
1021:.\Generated_Source\PSoC5/USBUART_1.c ****         p = (reg8 *)(USBUART_1_ARB_RW1_DR_IND + ri);
 1024              		.loc 1 1021 0
 1025 0016 DFF8EC80 		ldr	r8, .L80+16
 1026 001a A844     		add	r8, r8, r5
 1027              	.LVL85:
1022:.\Generated_Source\PSoC5/USBUART_1.c **** 
1023:.\Generated_Source\PSoC5/USBUART_1.c ****         #if(USBUART_1_EP_MM != USBUART_1__EP_DMAAUTO)
1024:.\Generated_Source\PSoC5/USBUART_1.c ****             /* Limits length to available buffer space, auto MM could send packets up to 1024 bytes
1025:.\Generated_Source\PSoC5/USBUART_1.c ****             if(length > (USBUART_1_EPX_DATA_BUF_MAX - USBUART_1_EP[epNumber].buffOffset))
 1028              		.loc 1 1025 0
 1029 001c 00EB4003 		add	r3, r0, r0, lsl #1
 1030 0020 9B00     		lsls	r3, r3, #2
 1031 0022 344A     		ldr	r2, .L80
 1032              	.LVL86:
 1033 0024 1344     		add	r3, r3, r2
 1034 0026 DB88     		ldrh	r3, [r3, #6]
 1035 0028 9BB2     		uxth	r3, r3
 1036 002a C3F50073 		rsb	r3, r3, #512
 1037 002e 9E42     		cmp	r6, r3
 1038 0030 07D9     		bls	.L76
1026:.\Generated_Source\PSoC5/USBUART_1.c ****             {
1027:.\Generated_Source\PSoC5/USBUART_1.c ****                 length = USBUART_1_EPX_DATA_BUF_MAX - USBUART_1_EP[epNumber].buffOffset;
 1039              		.loc 1 1027 0
 1040 0032 00EB4003 		add	r3, r0, r0, lsl #1
 1041 0036 9B00     		lsls	r3, r3, #2
 1042 0038 1344     		add	r3, r3, r2
 1043 003a DE88     		ldrh	r6, [r3, #6]
 1044 003c C6F50076 		rsb	r6, r6, #512
 1045 0040 B6B2     		uxth	r6, r6
 1046              	.LVL87:
 1047              	.L76:
1028:.\Generated_Source\PSoC5/USBUART_1.c ****             }
1029:.\Generated_Source\PSoC5/USBUART_1.c ****         #endif /*  USBUART_1_EP_MM != USBUART_1__EP_DMAAUTO */
1030:.\Generated_Source\PSoC5/USBUART_1.c **** 
1031:.\Generated_Source\PSoC5/USBUART_1.c ****         /* Set the count and data toggle */
ARM GAS  C:\Users\Alex\AppData\Local\Temp\ccbj9lYo.s 			page 38


1032:.\Generated_Source\PSoC5/USBUART_1.c ****         CY_SET_REG8((reg8 *)(USBUART_1_SIE_EP1_CNT0_IND + ri),
 1048              		.loc 1 1032 0
 1049 0042 04EB4403 		add	r3, r4, r4, lsl #1
 1050 0046 9B00     		lsls	r3, r3, #2
 1051 0048 2A4A     		ldr	r2, .L80
 1052 004a 1344     		add	r3, r3, r2
 1053 004c DB78     		ldrb	r3, [r3, #3]	@ zero_extendqisi2
 1054 004e 43EA1623 		orr	r3, r3, r6, lsr #8
 1055 0052 294A     		ldr	r2, .L80+4
 1056 0054 AB54     		strb	r3, [r5, r2]
1033:.\Generated_Source\PSoC5/USBUART_1.c ****                             (length >> 8u) | (USBUART_1_EP[epNumber].epToggle));
1034:.\Generated_Source\PSoC5/USBUART_1.c ****         CY_SET_REG8((reg8 *)(USBUART_1_SIE_EP1_CNT1_IND + ri),  length & 0xFFu);
 1057              		.loc 1 1034 0
 1058 0056 F3B2     		uxtb	r3, r6
 1059 0058 0132     		adds	r2, r2, #1
 1060 005a AB54     		strb	r3, [r5, r2]
1035:.\Generated_Source\PSoC5/USBUART_1.c **** 
1036:.\Generated_Source\PSoC5/USBUART_1.c ****         #if(USBUART_1_EP_MM == USBUART_1__EP_MANUAL)
1037:.\Generated_Source\PSoC5/USBUART_1.c ****             if(pData != NULL)
1038:.\Generated_Source\PSoC5/USBUART_1.c ****             {
1039:.\Generated_Source\PSoC5/USBUART_1.c ****                 /* Copy the data using the arbiter data register */
1040:.\Generated_Source\PSoC5/USBUART_1.c ****                 for (i = 0u; i < length; i++)
1041:.\Generated_Source\PSoC5/USBUART_1.c ****                 {
1042:.\Generated_Source\PSoC5/USBUART_1.c ****                     CY_SET_REG8(p, pData[i]);
1043:.\Generated_Source\PSoC5/USBUART_1.c ****                 }
1044:.\Generated_Source\PSoC5/USBUART_1.c ****             }
1045:.\Generated_Source\PSoC5/USBUART_1.c ****             USBUART_1_EP[epNumber].apiEpState = USBUART_1_NO_EVENT_PENDING;
1046:.\Generated_Source\PSoC5/USBUART_1.c ****             /* Write the Mode register */
1047:.\Generated_Source\PSoC5/USBUART_1.c ****             CY_SET_REG8((reg8 *)(USBUART_1_SIE_EP1_CR0_IND + ri), USBUART_1_EP[epNumber].epMode);
1048:.\Generated_Source\PSoC5/USBUART_1.c ****         #else
1049:.\Generated_Source\PSoC5/USBUART_1.c ****             /* Init DMA if it was not initialized */
1050:.\Generated_Source\PSoC5/USBUART_1.c ****             if (USBUART_1_DmaTd[epNumber] == DMA_INVALID_TD)
 1061              		.loc 1 1050 0
 1062 005c 274B     		ldr	r3, .L80+8
 1063 005e 1B5D     		ldrb	r3, [r3, r4]	@ zero_extendqisi2
 1064 0060 FF2B     		cmp	r3, #255
 1065 0062 03D1     		bne	.L77
1051:.\Generated_Source\PSoC5/USBUART_1.c ****             {
1052:.\Generated_Source\PSoC5/USBUART_1.c ****                 USBUART_1_InitEP_DMA(epNumber, pData);
 1066              		.loc 1 1052 0
 1067 0064 2046     		mov	r0, r4
 1068              	.LVL88:
 1069 0066 3946     		mov	r1, r7
 1070              	.LVL89:
 1071 0068 FFF7FEFF 		bl	USBUART_1_InitEP_DMA
 1072              	.LVL90:
 1073              	.L77:
1053:.\Generated_Source\PSoC5/USBUART_1.c ****             }
1054:.\Generated_Source\PSoC5/USBUART_1.c ****         #endif /*  USBUART_1_EP_MM == USBUART_1__EP_MANUAL */
1055:.\Generated_Source\PSoC5/USBUART_1.c **** 
1056:.\Generated_Source\PSoC5/USBUART_1.c ****         #if(USBUART_1_EP_MM == USBUART_1__EP_DMAMANUAL)
1057:.\Generated_Source\PSoC5/USBUART_1.c ****             USBUART_1_EP[epNumber].apiEpState = USBUART_1_NO_EVENT_PENDING;
 1074              		.loc 1 1057 0
 1075 006c 04EB4403 		add	r3, r4, r4, lsl #1
 1076 0070 9B00     		lsls	r3, r3, #2
 1077 0072 204A     		ldr	r2, .L80
 1078 0074 1344     		add	r3, r3, r2
ARM GAS  C:\Users\Alex\AppData\Local\Temp\ccbj9lYo.s 			page 39


 1079 0076 0022     		movs	r2, #0
 1080 0078 5A70     		strb	r2, [r3, #1]
1058:.\Generated_Source\PSoC5/USBUART_1.c ****             if ((pData != NULL) && (length > 0u))
 1081              		.loc 1 1058 0
 1082 007a 7FB3     		cbz	r7, .L78
 1083              		.loc 1 1058 0 is_stmt 0 discriminator 1
 1084 007c 76B3     		cbz	r6, .L78
1059:.\Generated_Source\PSoC5/USBUART_1.c ****             {
1060:.\Generated_Source\PSoC5/USBUART_1.c ****                 /* Enable DMA in mode2 for transferring data */
1061:.\Generated_Source\PSoC5/USBUART_1.c ****                 (void) CyDmaChDisable(USBUART_1_DmaChan[epNumber]);
 1085              		.loc 1 1061 0 is_stmt 1
 1086 007e DFF88890 		ldr	r9, .L80+20
 1087 0082 19F80400 		ldrb	r0, [r9, r4]	@ zero_extendqisi2
 1088 0086 FFF7FEFF 		bl	CyDmaChDisable
 1089              	.LVL91:
1062:.\Generated_Source\PSoC5/USBUART_1.c ****                 (void) CyDmaTdSetConfiguration(USBUART_1_DmaTd[epNumber], length, CY_DMA_DISABLE_TD
 1090              		.loc 1 1062 0
 1091 008a DFF870A0 		ldr	r10, .L80+8
 1092 008e 1AF80400 		ldrb	r0, [r10, r4]	@ zero_extendqisi2
 1093 0092 3146     		mov	r1, r6
 1094 0094 FE22     		movs	r2, #254
 1095 0096 1123     		movs	r3, #17
 1096 0098 FFF7FEFF 		bl	CyDmaTdSetConfiguration
 1097              	.LVL92:
1063:.\Generated_Source\PSoC5/USBUART_1.c ****                                                                                  TD_TERMIN_EN | TD_
1064:.\Generated_Source\PSoC5/USBUART_1.c ****                 (void) CyDmaTdSetAddress(USBUART_1_DmaTd[epNumber],  LO16((uint32)pData), LO16((uin
 1098              		.loc 1 1064 0
 1099 009c 1FFA88F2 		uxth	r2, r8
 1100 00a0 1AF80400 		ldrb	r0, [r10, r4]	@ zero_extendqisi2
 1101 00a4 B9B2     		uxth	r1, r7
 1102 00a6 FFF7FEFF 		bl	CyDmaTdSetAddress
 1103              	.LVL93:
1065:.\Generated_Source\PSoC5/USBUART_1.c ****                 /* Enable the DMA */
1066:.\Generated_Source\PSoC5/USBUART_1.c ****                 (void) CyDmaChSetInitialTd(USBUART_1_DmaChan[epNumber], USBUART_1_DmaTd[epNumber]);
 1104              		.loc 1 1066 0
 1105 00aa 19F80400 		ldrb	r0, [r9, r4]	@ zero_extendqisi2
 1106 00ae 1AF80410 		ldrb	r1, [r10, r4]	@ zero_extendqisi2
 1107 00b2 FFF7FEFF 		bl	CyDmaChSetInitialTd
 1108              	.LVL94:
1067:.\Generated_Source\PSoC5/USBUART_1.c ****                 (void) CyDmaChEnable(USBUART_1_DmaChan[epNumber], 1u);
 1109              		.loc 1 1067 0
 1110 00b6 19F80400 		ldrb	r0, [r9, r4]	@ zero_extendqisi2
 1111 00ba 0121     		movs	r1, #1
 1112 00bc FFF7FEFF 		bl	CyDmaChEnable
 1113              	.LVL95:
1068:.\Generated_Source\PSoC5/USBUART_1.c ****                 /* Generate DMA request */
1069:.\Generated_Source\PSoC5/USBUART_1.c ****                 * (reg8 *)(USBUART_1_ARB_EP1_CFG_IND + ri) |= USBUART_1_ARB_EPX_CFG_DMA_REQ;
 1114              		.loc 1 1069 0
 1115 00c0 05F18045 		add	r5, r5, #1073741824
 1116 00c4 05F5C145 		add	r5, r5, #24704
 1117 00c8 2B78     		ldrb	r3, [r5]	@ zero_extendqisi2
 1118 00ca 43F00203 		orr	r3, r3, #2
 1119 00ce 2B70     		strb	r3, [r5]
1070:.\Generated_Source\PSoC5/USBUART_1.c ****                 * (reg8 *)(USBUART_1_ARB_EP1_CFG_IND + ri) &= ((uint8)(~USBUART_1_ARB_EPX_CFG_DMA_R
 1120              		.loc 1 1070 0
 1121 00d0 2B78     		ldrb	r3, [r5]	@ zero_extendqisi2
 1122 00d2 03F0FD03 		and	r3, r3, #253
ARM GAS  C:\Users\Alex\AppData\Local\Temp\ccbj9lYo.s 			page 40


 1123 00d6 2B70     		strb	r3, [r5]
 1124 00d8 BDE8F087 		pop	{r4, r5, r6, r7, r8, r9, r10, pc}
 1125              	.LVL96:
 1126              	.L78:
1071:.\Generated_Source\PSoC5/USBUART_1.c ****                 /* Mode register will be written in arb ISR after DMA transfer complete */
1072:.\Generated_Source\PSoC5/USBUART_1.c ****             }
1073:.\Generated_Source\PSoC5/USBUART_1.c ****             else
1074:.\Generated_Source\PSoC5/USBUART_1.c ****             {
1075:.\Generated_Source\PSoC5/USBUART_1.c ****                 /* When zero-length packet - write the Mode register directly */
1076:.\Generated_Source\PSoC5/USBUART_1.c ****                 CY_SET_REG8((reg8 *)(USBUART_1_SIE_EP1_CR0_IND + ri), USBUART_1_EP[epNumber].epMode
 1127              		.loc 1 1076 0
 1128 00dc 04EB4404 		add	r4, r4, r4, lsl #1
 1129 00e0 A400     		lsls	r4, r4, #2
 1130 00e2 044B     		ldr	r3, .L80
 1131 00e4 1C44     		add	r4, r4, r3
 1132 00e6 6379     		ldrb	r3, [r4, #5]	@ zero_extendqisi2
 1133 00e8 DBB2     		uxtb	r3, r3
 1134 00ea 054A     		ldr	r2, .L80+12
 1135 00ec AB54     		strb	r3, [r5, r2]
 1136              	.LVL97:
 1137              	.L74:
 1138 00ee BDE8F087 		pop	{r4, r5, r6, r7, r8, r9, r10, pc}
 1139              	.L81:
 1140 00f2 00BF     		.align	2
 1141              	.L80:
 1142 00f4 00000000 		.word	USBUART_1_EP
 1143 00f8 0C600040 		.word	1073766412
 1144 00fc 00000000 		.word	USBUART_1_DmaTd
 1145 0100 0E600040 		.word	1073766414
 1146 0104 88600040 		.word	1073766536
 1147 0108 00000000 		.word	USBUART_1_DmaChan
 1148              		.cfi_endproc
 1149              	.LFE13:
 1150              		.size	USBUART_1_LoadInEP, .-USBUART_1_LoadInEP
 1151              		.section	.text.USBUART_1_ReadOutEP,"ax",%progbits
 1152              		.align	2
 1153              		.global	USBUART_1_ReadOutEP
 1154              		.thumb
 1155              		.thumb_func
 1156              		.type	USBUART_1_ReadOutEP, %function
 1157              	USBUART_1_ReadOutEP:
 1158              	.LFB14:
1077:.\Generated_Source\PSoC5/USBUART_1.c ****             }
1078:.\Generated_Source\PSoC5/USBUART_1.c ****         #endif /*  USBUART_1_EP_MM == USBUART_1__EP_DMAMANUAL */
1079:.\Generated_Source\PSoC5/USBUART_1.c **** 
1080:.\Generated_Source\PSoC5/USBUART_1.c ****         #if(USBUART_1_EP_MM == USBUART_1__EP_DMAAUTO)
1081:.\Generated_Source\PSoC5/USBUART_1.c ****             if (pData != NULL)
1082:.\Generated_Source\PSoC5/USBUART_1.c ****             {
1083:.\Generated_Source\PSoC5/USBUART_1.c ****                 /* Enable DMA in mode3 for transferring data */
1084:.\Generated_Source\PSoC5/USBUART_1.c ****                 (void) CyDmaChDisable(USBUART_1_DmaChan[epNumber]);
1085:.\Generated_Source\PSoC5/USBUART_1.c ****             #if (USBUART_1_EP_DMA_AUTO_OPT == 0u)
1086:.\Generated_Source\PSoC5/USBUART_1.c ****                 USBUART_1_inLength[epNumber] = length;
1087:.\Generated_Source\PSoC5/USBUART_1.c ****                 USBUART_1_inDataPointer[epNumber] = pData;
1088:.\Generated_Source\PSoC5/USBUART_1.c ****                 /* Configure DMA to send the data only for the first burst */
1089:.\Generated_Source\PSoC5/USBUART_1.c ****                 (void) CyDmaTdSetConfiguration(USBUART_1_DmaTd[epNumber],
1090:.\Generated_Source\PSoC5/USBUART_1.c ****                     (length > USBUART_1_DMA_BYTES_PER_BURST) ? USBUART_1_DMA_BYTES_PER_BURST : leng
1091:.\Generated_Source\PSoC5/USBUART_1.c ****                     USBUART_1_DmaNextTd[epNumber], TD_TERMIN_EN | TD_INC_SRC_ADR);
ARM GAS  C:\Users\Alex\AppData\Local\Temp\ccbj9lYo.s 			page 41


1092:.\Generated_Source\PSoC5/USBUART_1.c ****                 (void) CyDmaTdSetAddress(USBUART_1_DmaTd[epNumber],  LO16((uint32)pData), LO16((uin
1093:.\Generated_Source\PSoC5/USBUART_1.c ****                 /* The second TD will be executed only when the first one fails.
1094:.\Generated_Source\PSoC5/USBUART_1.c ****                 *  The intention of this TD is to generate NRQ interrupt
1095:.\Generated_Source\PSoC5/USBUART_1.c ****                 *  and repeat 2 last bytes of the first burst.
1096:.\Generated_Source\PSoC5/USBUART_1.c ****                 */
1097:.\Generated_Source\PSoC5/USBUART_1.c ****                 (void) CyDmaTdSetConfiguration(USBUART_1_DmaNextTd[epNumber], 1u,
1098:.\Generated_Source\PSoC5/USBUART_1.c ****                                                USBUART_1_DmaNextTd[epNumber],
1099:.\Generated_Source\PSoC5/USBUART_1.c ****                                                USBUART_1_epX_TD_TERMOUT_EN[epNumber]);
1100:.\Generated_Source\PSoC5/USBUART_1.c ****                 /* Configure DmaNextTd to clear Data ready status */
1101:.\Generated_Source\PSoC5/USBUART_1.c ****                 (void) CyDmaTdSetAddress(USBUART_1_DmaNextTd[epNumber],  LO16((uint32)&clearInDataR
1102:.\Generated_Source\PSoC5/USBUART_1.c ****                                                                 LO16((uint32)(USBUART_1_ARB_EP1_CFG
1103:.\Generated_Source\PSoC5/USBUART_1.c ****             #else /* Configure DMA to send all data*/
1104:.\Generated_Source\PSoC5/USBUART_1.c ****                 (void) CyDmaTdSetConfiguration(USBUART_1_DmaTd[epNumber], length,
1105:.\Generated_Source\PSoC5/USBUART_1.c ****                                                USBUART_1_DmaTd[epNumber], TD_TERMIN_EN | TD_INC_SRC
1106:.\Generated_Source\PSoC5/USBUART_1.c ****                 (void) CyDmaTdSetAddress(USBUART_1_DmaTd[epNumber],  LO16((uint32)pData), LO16((uin
1107:.\Generated_Source\PSoC5/USBUART_1.c ****             #endif /* USBUART_1_EP_DMA_AUTO_OPT == 0u */
1108:.\Generated_Source\PSoC5/USBUART_1.c **** 
1109:.\Generated_Source\PSoC5/USBUART_1.c ****                 /* Clear Any potential pending DMA requests before starting the DMA channel to tran
1110:.\Generated_Source\PSoC5/USBUART_1.c ****                 (void) CyDmaClearPendingDrq(USBUART_1_DmaChan[epNumber]);
1111:.\Generated_Source\PSoC5/USBUART_1.c ****                 /* Enable the DMA */
1112:.\Generated_Source\PSoC5/USBUART_1.c ****                 (void) CyDmaChSetInitialTd(USBUART_1_DmaChan[epNumber], USBUART_1_DmaTd[epNumber]);
1113:.\Generated_Source\PSoC5/USBUART_1.c ****                 (void) CyDmaChEnable(USBUART_1_DmaChan[epNumber], 1u);
1114:.\Generated_Source\PSoC5/USBUART_1.c ****             }
1115:.\Generated_Source\PSoC5/USBUART_1.c ****             else
1116:.\Generated_Source\PSoC5/USBUART_1.c ****             {
1117:.\Generated_Source\PSoC5/USBUART_1.c ****                 USBUART_1_EP[epNumber].apiEpState = USBUART_1_NO_EVENT_PENDING;
1118:.\Generated_Source\PSoC5/USBUART_1.c ****                 if(length > 0u)
1119:.\Generated_Source\PSoC5/USBUART_1.c ****                 {
1120:.\Generated_Source\PSoC5/USBUART_1.c ****                 #if (USBUART_1_EP_DMA_AUTO_OPT == 0u)
1121:.\Generated_Source\PSoC5/USBUART_1.c ****                     USBUART_1_inLength[epNumber] = length;
1122:.\Generated_Source\PSoC5/USBUART_1.c ****                     USBUART_1_inBufFull[epNumber] = 0u;
1123:.\Generated_Source\PSoC5/USBUART_1.c ****                     (void) CyDmaChDisable(USBUART_1_DmaChan[epNumber]);
1124:.\Generated_Source\PSoC5/USBUART_1.c ****                     /* Configure DMA to send the data only for the first burst */
1125:.\Generated_Source\PSoC5/USBUART_1.c ****                     (void) CyDmaTdSetConfiguration(
1126:.\Generated_Source\PSoC5/USBUART_1.c ****                         USBUART_1_DmaTd[epNumber], (length > USBUART_1_DMA_BYTES_PER_BURST) ?
1127:.\Generated_Source\PSoC5/USBUART_1.c ****                         USBUART_1_DMA_BYTES_PER_BURST : length,
1128:.\Generated_Source\PSoC5/USBUART_1.c ****                         USBUART_1_DmaNextTd[epNumber], TD_TERMIN_EN | TD_INC_SRC_ADR );
1129:.\Generated_Source\PSoC5/USBUART_1.c ****                     (void) CyDmaTdSetAddress(USBUART_1_DmaTd[epNumber],
1130:.\Generated_Source\PSoC5/USBUART_1.c ****                                              LO16((uint32)USBUART_1_inDataPointer[epNumber]), LO16(
1131:.\Generated_Source\PSoC5/USBUART_1.c ****                     /* Clear Any potential pending DMA requests before starting the DMA channel to 
1132:.\Generated_Source\PSoC5/USBUART_1.c ****                     (void) CyDmaClearPendingDrq(USBUART_1_DmaChan[epNumber]);
1133:.\Generated_Source\PSoC5/USBUART_1.c ****                     /* Enable the DMA */
1134:.\Generated_Source\PSoC5/USBUART_1.c ****                     (void) CyDmaChSetInitialTd(USBUART_1_DmaChan[epNumber], USBUART_1_DmaTd[epNumbe
1135:.\Generated_Source\PSoC5/USBUART_1.c ****                     (void) CyDmaChEnable(USBUART_1_DmaChan[epNumber], 1u);
1136:.\Generated_Source\PSoC5/USBUART_1.c ****                 #endif /* (USBUART_1_EP_DMA_AUTO_OPT == 0u) */
1137:.\Generated_Source\PSoC5/USBUART_1.c **** 
1138:.\Generated_Source\PSoC5/USBUART_1.c ****                     /* Set Data ready status, This will generate DMA request */
1139:.\Generated_Source\PSoC5/USBUART_1.c ****                     #ifndef USBUART_1_MANUAL_IN_EP_ARM
1140:.\Generated_Source\PSoC5/USBUART_1.c ****                         * (reg8 *)(USBUART_1_ARB_EP1_CFG_IND + ri) |= USBUART_1_ARB_EPX_CFG_IN_DATA
1141:.\Generated_Source\PSoC5/USBUART_1.c ****                     #endif  /* USBUART_1_MANUAL_IN_EP_ARM */
1142:.\Generated_Source\PSoC5/USBUART_1.c ****                     /* Mode register will be written in arb ISR(In Buffer Full) after first DMA tra
1143:.\Generated_Source\PSoC5/USBUART_1.c ****                 }
1144:.\Generated_Source\PSoC5/USBUART_1.c ****                 else
1145:.\Generated_Source\PSoC5/USBUART_1.c ****                 {
1146:.\Generated_Source\PSoC5/USBUART_1.c ****                     /* When zero-length packet - write the Mode register directly */
1147:.\Generated_Source\PSoC5/USBUART_1.c ****                     CY_SET_REG8((reg8 *)(USBUART_1_SIE_EP1_CR0_IND + ri), USBUART_1_EP[epNumber].ep
1148:.\Generated_Source\PSoC5/USBUART_1.c ****                 }
ARM GAS  C:\Users\Alex\AppData\Local\Temp\ccbj9lYo.s 			page 42


1149:.\Generated_Source\PSoC5/USBUART_1.c ****             }
1150:.\Generated_Source\PSoC5/USBUART_1.c ****         #endif /*  USBUART_1_EP_MM == USBUART_1__EP_DMAAUTO */
1151:.\Generated_Source\PSoC5/USBUART_1.c ****     }
1152:.\Generated_Source\PSoC5/USBUART_1.c **** }
1153:.\Generated_Source\PSoC5/USBUART_1.c **** 
1154:.\Generated_Source\PSoC5/USBUART_1.c **** 
1155:.\Generated_Source\PSoC5/USBUART_1.c **** /*******************************************************************************
1156:.\Generated_Source\PSoC5/USBUART_1.c **** * Function Name: USBUART_1_ReadOutEP
1157:.\Generated_Source\PSoC5/USBUART_1.c **** ********************************************************************************
1158:.\Generated_Source\PSoC5/USBUART_1.c **** *
1159:.\Generated_Source\PSoC5/USBUART_1.c **** * Summary:
1160:.\Generated_Source\PSoC5/USBUART_1.c **** *  Read data from an endpoint.  The application must call
1161:.\Generated_Source\PSoC5/USBUART_1.c **** *  USBUART_1_GetEPState to see if an event is pending.
1162:.\Generated_Source\PSoC5/USBUART_1.c **** *
1163:.\Generated_Source\PSoC5/USBUART_1.c **** * Parameters:
1164:.\Generated_Source\PSoC5/USBUART_1.c **** *  epNumber: Contains the data endpoint number.
1165:.\Generated_Source\PSoC5/USBUART_1.c **** *            Valid values are between 1 and 8.
1166:.\Generated_Source\PSoC5/USBUART_1.c **** *  pData: A pointer to a data array from which the data for the endpoint space
1167:.\Generated_Source\PSoC5/USBUART_1.c **** *         is loaded.
1168:.\Generated_Source\PSoC5/USBUART_1.c **** *  length: The number of bytes to transfer from the USB Out endpoint and loads
1169:.\Generated_Source\PSoC5/USBUART_1.c **** *          it into data array. Valid values are between 0 and 1023. The function
1170:.\Generated_Source\PSoC5/USBUART_1.c **** *          moves fewer than the requested number of bytes if the host sends
1171:.\Generated_Source\PSoC5/USBUART_1.c **** *          fewer bytes than requested.
1172:.\Generated_Source\PSoC5/USBUART_1.c **** *
1173:.\Generated_Source\PSoC5/USBUART_1.c **** * Returns:
1174:.\Generated_Source\PSoC5/USBUART_1.c **** *  Number of bytes received, 0 for an invalid endpoint.
1175:.\Generated_Source\PSoC5/USBUART_1.c **** *
1176:.\Generated_Source\PSoC5/USBUART_1.c **** * Reentrant:
1177:.\Generated_Source\PSoC5/USBUART_1.c **** *  No.
1178:.\Generated_Source\PSoC5/USBUART_1.c **** *
1179:.\Generated_Source\PSoC5/USBUART_1.c **** *******************************************************************************/
1180:.\Generated_Source\PSoC5/USBUART_1.c **** uint16 USBUART_1_ReadOutEP(uint8 epNumber, uint8 pData[], uint16 length)
1181:.\Generated_Source\PSoC5/USBUART_1.c ****                                                                         
1182:.\Generated_Source\PSoC5/USBUART_1.c **** {
 1159              		.loc 1 1182 0
 1160              		.cfi_startproc
 1161              		@ args = 0, pretend = 0, frame = 0
 1162              		@ frame_needed = 0, uses_anonymous_args = 0
 1163              	.LVL98:
 1164 0000 2DE9F047 		push	{r4, r5, r6, r7, r8, r9, r10, lr}
 1165              		.cfi_def_cfa_offset 32
 1166              		.cfi_offset 4, -32
 1167              		.cfi_offset 5, -28
 1168              		.cfi_offset 6, -24
 1169              		.cfi_offset 7, -20
 1170              		.cfi_offset 8, -16
 1171              		.cfi_offset 9, -12
 1172              		.cfi_offset 10, -8
 1173              		.cfi_offset 14, -4
 1174 0004 0546     		mov	r5, r0
1183:.\Generated_Source\PSoC5/USBUART_1.c ****     uint8 ri;
1184:.\Generated_Source\PSoC5/USBUART_1.c ****     reg8 *p;
1185:.\Generated_Source\PSoC5/USBUART_1.c ****     #if(USBUART_1_EP_MM == USBUART_1__EP_MANUAL)
1186:.\Generated_Source\PSoC5/USBUART_1.c ****         uint16 i;
1187:.\Generated_Source\PSoC5/USBUART_1.c ****     #endif /*  USBUART_1_EP_MM == USBUART_1__EP_MANUAL */
1188:.\Generated_Source\PSoC5/USBUART_1.c ****     #if(USBUART_1_EP_MM != USBUART_1__EP_DMAAUTO)
1189:.\Generated_Source\PSoC5/USBUART_1.c ****         uint16 xferCount;
ARM GAS  C:\Users\Alex\AppData\Local\Temp\ccbj9lYo.s 			page 43


1190:.\Generated_Source\PSoC5/USBUART_1.c ****     #endif /*  USBUART_1_EP_MM != USBUART_1__EP_DMAAUTO */
1191:.\Generated_Source\PSoC5/USBUART_1.c **** 
1192:.\Generated_Source\PSoC5/USBUART_1.c ****     if((epNumber > USBUART_1_EP0) && (epNumber < USBUART_1_MAX_EP) && (pData != NULL))
 1175              		.loc 1 1192 0
 1176 0006 431E     		subs	r3, r0, #1
 1177 0008 DBB2     		uxtb	r3, r3
 1178 000a 072B     		cmp	r3, #7
 1179 000c 44D8     		bhi	.L86
 1180 000e 0F46     		mov	r7, r1
 1181 0010 9046     		mov	r8, r2
 1182              		.loc 1 1192 0 is_stmt 0 discriminator 1
 1183 0012 0029     		cmp	r1, #0
 1184 0014 42D0     		beq	.L87
1193:.\Generated_Source\PSoC5/USBUART_1.c ****     {
1194:.\Generated_Source\PSoC5/USBUART_1.c ****         ri = ((epNumber - USBUART_1_EP1) << USBUART_1_EPX_CNTX_ADDR_SHIFT);
 1185              		.loc 1 1194 0 is_stmt 1
 1186 0016 1B01     		lsls	r3, r3, #4
 1187 0018 DCB2     		uxtb	r4, r3
1195:.\Generated_Source\PSoC5/USBUART_1.c ****         p = (reg8 *)(USBUART_1_ARB_RW1_DR_IND + ri);
 1188              		.loc 1 1195 0
 1189 001a DFF88C90 		ldr	r9, .L89+4
 1190 001e A144     		add	r9, r9, r4
 1191              	.LVL99:
1196:.\Generated_Source\PSoC5/USBUART_1.c **** 
1197:.\Generated_Source\PSoC5/USBUART_1.c ****         #if(USBUART_1_EP_MM != USBUART_1__EP_DMAAUTO)
1198:.\Generated_Source\PSoC5/USBUART_1.c ****             /* Determine which is smaller the requested data or the available data */
1199:.\Generated_Source\PSoC5/USBUART_1.c ****             xferCount = USBUART_1_GetEPCount(epNumber);
 1192              		.loc 1 1199 0
 1193 0020 FFF7FEFF 		bl	USBUART_1_GetEPCount
 1194              	.LVL100:
 1195 0024 0646     		mov	r6, r0
 1196              	.LVL101:
1200:.\Generated_Source\PSoC5/USBUART_1.c ****             if (length > xferCount)
 1197              		.loc 1 1200 0
 1198 0026 8045     		cmp	r8, r0
 1199 0028 00D8     		bhi	.L84
 1200 002a 4646     		mov	r6, r8
 1201              	.L84:
 1202              	.LVL102:
1201:.\Generated_Source\PSoC5/USBUART_1.c ****             {
1202:.\Generated_Source\PSoC5/USBUART_1.c ****                 length = xferCount;
1203:.\Generated_Source\PSoC5/USBUART_1.c ****             }
1204:.\Generated_Source\PSoC5/USBUART_1.c ****         #endif /*  USBUART_1_EP_MM != USBUART_1__EP_DMAAUTO */
1205:.\Generated_Source\PSoC5/USBUART_1.c **** 
1206:.\Generated_Source\PSoC5/USBUART_1.c ****         #if(USBUART_1_EP_MM == USBUART_1__EP_MANUAL)
1207:.\Generated_Source\PSoC5/USBUART_1.c ****             /* Copy the data using the arbiter data register */
1208:.\Generated_Source\PSoC5/USBUART_1.c ****             for (i = 0u; i < length; i++)
1209:.\Generated_Source\PSoC5/USBUART_1.c ****             {
1210:.\Generated_Source\PSoC5/USBUART_1.c ****                 pData[i] = CY_GET_REG8(p);
1211:.\Generated_Source\PSoC5/USBUART_1.c ****             }
1212:.\Generated_Source\PSoC5/USBUART_1.c **** 
1213:.\Generated_Source\PSoC5/USBUART_1.c ****             /* (re)arming of OUT endpoint */
1214:.\Generated_Source\PSoC5/USBUART_1.c ****             USBUART_1_EnableOutEP(epNumber);
1215:.\Generated_Source\PSoC5/USBUART_1.c ****         #else
1216:.\Generated_Source\PSoC5/USBUART_1.c ****             /*Init DMA if it was not initialized */
1217:.\Generated_Source\PSoC5/USBUART_1.c ****             if(USBUART_1_DmaTd[epNumber] == DMA_INVALID_TD)
 1203              		.loc 1 1217 0
ARM GAS  C:\Users\Alex\AppData\Local\Temp\ccbj9lYo.s 			page 44


 1204 002c 1D4B     		ldr	r3, .L89
 1205 002e 5B5D     		ldrb	r3, [r3, r5]	@ zero_extendqisi2
 1206 0030 FF2B     		cmp	r3, #255
 1207 0032 03D1     		bne	.L85
1218:.\Generated_Source\PSoC5/USBUART_1.c ****             {
1219:.\Generated_Source\PSoC5/USBUART_1.c ****                 USBUART_1_InitEP_DMA(epNumber, pData);
 1208              		.loc 1 1219 0
 1209 0034 2846     		mov	r0, r5
 1210              	.LVL103:
 1211 0036 3946     		mov	r1, r7
 1212 0038 FFF7FEFF 		bl	USBUART_1_InitEP_DMA
 1213              	.LVL104:
 1214              	.L85:
1220:.\Generated_Source\PSoC5/USBUART_1.c ****             }
1221:.\Generated_Source\PSoC5/USBUART_1.c **** 
1222:.\Generated_Source\PSoC5/USBUART_1.c ****         #endif /*  USBUART_1_EP_MM == USBUART_1__EP_MANUAL */
1223:.\Generated_Source\PSoC5/USBUART_1.c **** 
1224:.\Generated_Source\PSoC5/USBUART_1.c ****         #if(USBUART_1_EP_MM == USBUART_1__EP_DMAMANUAL)
1225:.\Generated_Source\PSoC5/USBUART_1.c ****             /* Enable DMA in mode2 for transferring data */
1226:.\Generated_Source\PSoC5/USBUART_1.c ****             (void) CyDmaChDisable(USBUART_1_DmaChan[epNumber]);
 1215              		.loc 1 1226 0
 1216 003c DFF86C80 		ldr	r8, .L89+8
 1217 0040 18F80500 		ldrb	r0, [r8, r5]	@ zero_extendqisi2
 1218 0044 FFF7FEFF 		bl	CyDmaChDisable
 1219              	.LVL105:
1227:.\Generated_Source\PSoC5/USBUART_1.c ****             (void) CyDmaTdSetConfiguration(USBUART_1_DmaTd[epNumber], length, CY_DMA_DISABLE_TD,
 1220              		.loc 1 1227 0
 1221 0048 DFF858A0 		ldr	r10, .L89
 1222 004c 1AF80500 		ldrb	r0, [r10, r5]	@ zero_extendqisi2
 1223 0050 3146     		mov	r1, r6
 1224 0052 FE22     		movs	r2, #254
 1225 0054 1223     		movs	r3, #18
 1226 0056 FFF7FEFF 		bl	CyDmaTdSetConfiguration
 1227              	.LVL106:
1228:.\Generated_Source\PSoC5/USBUART_1.c ****                                                                                 TD_TERMIN_EN | TD_I
1229:.\Generated_Source\PSoC5/USBUART_1.c ****             (void) CyDmaTdSetAddress(USBUART_1_DmaTd[epNumber],  LO16((uint32)p), LO16((uint32)pDat
 1228              		.loc 1 1229 0
 1229 005a 1FFA89F1 		uxth	r1, r9
 1230 005e 1AF80500 		ldrb	r0, [r10, r5]	@ zero_extendqisi2
 1231 0062 BAB2     		uxth	r2, r7
 1232 0064 FFF7FEFF 		bl	CyDmaTdSetAddress
 1233              	.LVL107:
1230:.\Generated_Source\PSoC5/USBUART_1.c ****             /* Enable the DMA */
1231:.\Generated_Source\PSoC5/USBUART_1.c ****             (void) CyDmaChSetInitialTd(USBUART_1_DmaChan[epNumber], USBUART_1_DmaTd[epNumber]);
 1234              		.loc 1 1231 0
 1235 0068 18F80500 		ldrb	r0, [r8, r5]	@ zero_extendqisi2
 1236 006c 1AF80510 		ldrb	r1, [r10, r5]	@ zero_extendqisi2
 1237 0070 FFF7FEFF 		bl	CyDmaChSetInitialTd
 1238              	.LVL108:
1232:.\Generated_Source\PSoC5/USBUART_1.c ****             (void) CyDmaChEnable(USBUART_1_DmaChan[epNumber], 1u);
 1239              		.loc 1 1232 0
 1240 0074 18F80500 		ldrb	r0, [r8, r5]	@ zero_extendqisi2
 1241 0078 0121     		movs	r1, #1
 1242 007a FFF7FEFF 		bl	CyDmaChEnable
 1243              	.LVL109:
1233:.\Generated_Source\PSoC5/USBUART_1.c **** 
1234:.\Generated_Source\PSoC5/USBUART_1.c ****             /* Generate DMA request */
ARM GAS  C:\Users\Alex\AppData\Local\Temp\ccbj9lYo.s 			page 45


1235:.\Generated_Source\PSoC5/USBUART_1.c ****             * (reg8 *)(USBUART_1_ARB_EP1_CFG_IND + ri) |= USBUART_1_ARB_EPX_CFG_DMA_REQ;
 1244              		.loc 1 1235 0
 1245 007e 04F18043 		add	r3, r4, #1073741824
 1246 0082 03F5C143 		add	r3, r3, #24704
 1247 0086 1A78     		ldrb	r2, [r3]	@ zero_extendqisi2
 1248 0088 42F00202 		orr	r2, r2, #2
 1249 008c 1A70     		strb	r2, [r3]
1236:.\Generated_Source\PSoC5/USBUART_1.c ****             * (reg8 *)(USBUART_1_ARB_EP1_CFG_IND + ri) &= ((uint8)(~USBUART_1_ARB_EPX_CFG_DMA_REQ))
 1250              		.loc 1 1236 0
 1251 008e 1A78     		ldrb	r2, [r3]	@ zero_extendqisi2
 1252 0090 02F0FD02 		and	r2, r2, #253
 1253 0094 1A70     		strb	r2, [r3]
 1254 0096 02E0     		b	.L83
 1255              	.LVL110:
 1256              	.L86:
1237:.\Generated_Source\PSoC5/USBUART_1.c ****             /* Out EP will be (re)armed in arb ISR after transfer complete */
1238:.\Generated_Source\PSoC5/USBUART_1.c ****         #endif /*  USBUART_1_EP_MM == USBUART_1__EP_DMAMANUAL */
1239:.\Generated_Source\PSoC5/USBUART_1.c **** 
1240:.\Generated_Source\PSoC5/USBUART_1.c ****         #if(USBUART_1_EP_MM == USBUART_1__EP_DMAAUTO)
1241:.\Generated_Source\PSoC5/USBUART_1.c ****             /* Enable DMA in mode3 for transferring data */
1242:.\Generated_Source\PSoC5/USBUART_1.c ****             (void) CyDmaChDisable(USBUART_1_DmaChan[epNumber]);
1243:.\Generated_Source\PSoC5/USBUART_1.c ****             (void) CyDmaTdSetConfiguration(USBUART_1_DmaTd[epNumber], length, USBUART_1_DmaTd[epNum
1244:.\Generated_Source\PSoC5/USBUART_1.c ****                                                                                 TD_TERMIN_EN | TD_I
1245:.\Generated_Source\PSoC5/USBUART_1.c ****             (void) CyDmaTdSetAddress(USBUART_1_DmaTd[epNumber],  LO16((uint32)p), LO16((uint32)pDat
1246:.\Generated_Source\PSoC5/USBUART_1.c **** 
1247:.\Generated_Source\PSoC5/USBUART_1.c ****             /* Clear Any potential pending DMA requests before starting the DMA channel to transfer
1248:.\Generated_Source\PSoC5/USBUART_1.c ****             (void) CyDmaClearPendingDrq(USBUART_1_DmaChan[epNumber]);
1249:.\Generated_Source\PSoC5/USBUART_1.c ****             /* Enable the DMA */
1250:.\Generated_Source\PSoC5/USBUART_1.c ****             (void) CyDmaChSetInitialTd(USBUART_1_DmaChan[epNumber], USBUART_1_DmaTd[epNumber]);
1251:.\Generated_Source\PSoC5/USBUART_1.c ****             (void) CyDmaChEnable(USBUART_1_DmaChan[epNumber], 1u);
1252:.\Generated_Source\PSoC5/USBUART_1.c ****             /* Out EP will be (re)armed in arb ISR after transfer complete */
1253:.\Generated_Source\PSoC5/USBUART_1.c ****         #endif /*  USBUART_1_EP_MM == USBUART_1__EP_DMAAUTO */
1254:.\Generated_Source\PSoC5/USBUART_1.c **** 
1255:.\Generated_Source\PSoC5/USBUART_1.c ****     }
1256:.\Generated_Source\PSoC5/USBUART_1.c ****     else
1257:.\Generated_Source\PSoC5/USBUART_1.c ****     {
1258:.\Generated_Source\PSoC5/USBUART_1.c ****         length = 0u;
 1257              		.loc 1 1258 0
 1258 0098 0026     		movs	r6, #0
 1259 009a 00E0     		b	.L83
 1260              	.L87:
 1261 009c 0026     		movs	r6, #0
 1262              	.LVL111:
 1263              	.L83:
1259:.\Generated_Source\PSoC5/USBUART_1.c ****     }
1260:.\Generated_Source\PSoC5/USBUART_1.c **** 
1261:.\Generated_Source\PSoC5/USBUART_1.c ****     return(length);
1262:.\Generated_Source\PSoC5/USBUART_1.c **** }
 1264              		.loc 1 1262 0
 1265 009e 3046     		mov	r0, r6
 1266 00a0 BDE8F087 		pop	{r4, r5, r6, r7, r8, r9, r10, pc}
 1267              	.LVL112:
 1268              	.L90:
 1269              		.align	2
 1270              	.L89:
 1271 00a4 00000000 		.word	USBUART_1_DmaTd
 1272 00a8 88600040 		.word	1073766536
ARM GAS  C:\Users\Alex\AppData\Local\Temp\ccbj9lYo.s 			page 46


 1273 00ac 00000000 		.word	USBUART_1_DmaChan
 1274              		.cfi_endproc
 1275              	.LFE14:
 1276              		.size	USBUART_1_ReadOutEP, .-USBUART_1_ReadOutEP
 1277              		.section	.text.USBUART_1_EnableOutEP,"ax",%progbits
 1278              		.align	2
 1279              		.global	USBUART_1_EnableOutEP
 1280              		.thumb
 1281              		.thumb_func
 1282              		.type	USBUART_1_EnableOutEP, %function
 1283              	USBUART_1_EnableOutEP:
 1284              	.LFB15:
1263:.\Generated_Source\PSoC5/USBUART_1.c **** 
1264:.\Generated_Source\PSoC5/USBUART_1.c **** 
1265:.\Generated_Source\PSoC5/USBUART_1.c **** /*******************************************************************************
1266:.\Generated_Source\PSoC5/USBUART_1.c **** * Function Name: USBUART_1_EnableOutEP
1267:.\Generated_Source\PSoC5/USBUART_1.c **** ********************************************************************************
1268:.\Generated_Source\PSoC5/USBUART_1.c **** *
1269:.\Generated_Source\PSoC5/USBUART_1.c **** * Summary:
1270:.\Generated_Source\PSoC5/USBUART_1.c **** *  This function enables an OUT endpoint.  It should not be
1271:.\Generated_Source\PSoC5/USBUART_1.c **** *  called for an IN endpoint.
1272:.\Generated_Source\PSoC5/USBUART_1.c **** *
1273:.\Generated_Source\PSoC5/USBUART_1.c **** * Parameters:
1274:.\Generated_Source\PSoC5/USBUART_1.c **** *  epNumber: Endpoint Number
1275:.\Generated_Source\PSoC5/USBUART_1.c **** *            Valid values are between 1 and 8.
1276:.\Generated_Source\PSoC5/USBUART_1.c **** *
1277:.\Generated_Source\PSoC5/USBUART_1.c **** * Return:
1278:.\Generated_Source\PSoC5/USBUART_1.c **** *   None.
1279:.\Generated_Source\PSoC5/USBUART_1.c **** *
1280:.\Generated_Source\PSoC5/USBUART_1.c **** * Global variables:
1281:.\Generated_Source\PSoC5/USBUART_1.c **** *  USBUART_1_EP[epNumber].apiEpState - set to NO_EVENT_PENDING
1282:.\Generated_Source\PSoC5/USBUART_1.c **** *
1283:.\Generated_Source\PSoC5/USBUART_1.c **** * Reentrant:
1284:.\Generated_Source\PSoC5/USBUART_1.c **** *  No.
1285:.\Generated_Source\PSoC5/USBUART_1.c **** *
1286:.\Generated_Source\PSoC5/USBUART_1.c **** *******************************************************************************/
1287:.\Generated_Source\PSoC5/USBUART_1.c **** void USBUART_1_EnableOutEP(uint8 epNumber) 
1288:.\Generated_Source\PSoC5/USBUART_1.c **** {
 1285              		.loc 1 1288 0
 1286              		.cfi_startproc
 1287              		@ args = 0, pretend = 0, frame = 0
 1288              		@ frame_needed = 0, uses_anonymous_args = 0
 1289              		@ link register save eliminated.
 1290              	.LVL113:
1289:.\Generated_Source\PSoC5/USBUART_1.c ****     uint8 ri;
1290:.\Generated_Source\PSoC5/USBUART_1.c **** 
1291:.\Generated_Source\PSoC5/USBUART_1.c ****     if((epNumber > USBUART_1_EP0) && (epNumber < USBUART_1_MAX_EP))
 1291              		.loc 1 1291 0
 1292 0000 431E     		subs	r3, r0, #1
 1293 0002 DBB2     		uxtb	r3, r3
 1294 0004 072B     		cmp	r3, #7
 1295 0006 0ED8     		bhi	.L95
1288:.\Generated_Source\PSoC5/USBUART_1.c ****     uint8 ri;
 1296              		.loc 1 1288 0
 1297 0008 30B4     		push	{r4, r5}
 1298              		.cfi_def_cfa_offset 8
 1299              		.cfi_offset 4, -8
ARM GAS  C:\Users\Alex\AppData\Local\Temp\ccbj9lYo.s 			page 47


 1300              		.cfi_offset 5, -4
1292:.\Generated_Source\PSoC5/USBUART_1.c ****     {
1293:.\Generated_Source\PSoC5/USBUART_1.c ****         ri = ((epNumber - USBUART_1_EP1) << USBUART_1_EPX_CNTX_ADDR_SHIFT);
 1301              		.loc 1 1293 0
 1302 000a 1B01     		lsls	r3, r3, #4
 1303 000c DBB2     		uxtb	r3, r3
 1304              	.LVL114:
1294:.\Generated_Source\PSoC5/USBUART_1.c ****         USBUART_1_EP[epNumber].apiEpState = USBUART_1_NO_EVENT_PENDING;
 1305              		.loc 1 1294 0
 1306 000e 0649     		ldr	r1, .L96
 1307 0010 4400     		lsls	r4, r0, #1
 1308 0012 2218     		adds	r2, r4, r0
 1309 0014 9200     		lsls	r2, r2, #2
 1310 0016 0A44     		add	r2, r2, r1
 1311 0018 0025     		movs	r5, #0
 1312 001a 5570     		strb	r5, [r2, #1]
1295:.\Generated_Source\PSoC5/USBUART_1.c ****         /* Write the Mode register */
1296:.\Generated_Source\PSoC5/USBUART_1.c ****         CY_SET_REG8((reg8 *)(USBUART_1_SIE_EP1_CR0_IND + ri), USBUART_1_EP[epNumber].epMode);
 1313              		.loc 1 1296 0
 1314 001c 5279     		ldrb	r2, [r2, #5]	@ zero_extendqisi2
 1315 001e D2B2     		uxtb	r2, r2
 1316 0020 0249     		ldr	r1, .L96+4
 1317 0022 5A54     		strb	r2, [r3, r1]
1297:.\Generated_Source\PSoC5/USBUART_1.c ****     }
1298:.\Generated_Source\PSoC5/USBUART_1.c **** }
 1318              		.loc 1 1298 0
 1319 0024 30BC     		pop	{r4, r5}
 1320              		.cfi_restore 5
 1321              		.cfi_restore 4
 1322              		.cfi_def_cfa_offset 0
 1323              	.LVL115:
 1324              	.L95:
 1325 0026 7047     		bx	lr
 1326              	.L97:
 1327              		.align	2
 1328              	.L96:
 1329 0028 00000000 		.word	USBUART_1_EP
 1330 002c 0E600040 		.word	1073766414
 1331              		.cfi_endproc
 1332              	.LFE15:
 1333              		.size	USBUART_1_EnableOutEP, .-USBUART_1_EnableOutEP
 1334              		.section	.text.USBUART_1_DisableOutEP,"ax",%progbits
 1335              		.align	2
 1336              		.global	USBUART_1_DisableOutEP
 1337              		.thumb
 1338              		.thumb_func
 1339              		.type	USBUART_1_DisableOutEP, %function
 1340              	USBUART_1_DisableOutEP:
 1341              	.LFB16:
1299:.\Generated_Source\PSoC5/USBUART_1.c **** 
1300:.\Generated_Source\PSoC5/USBUART_1.c **** 
1301:.\Generated_Source\PSoC5/USBUART_1.c **** /*******************************************************************************
1302:.\Generated_Source\PSoC5/USBUART_1.c **** * Function Name: USBUART_1_DisableOutEP
1303:.\Generated_Source\PSoC5/USBUART_1.c **** ********************************************************************************
1304:.\Generated_Source\PSoC5/USBUART_1.c **** *
1305:.\Generated_Source\PSoC5/USBUART_1.c **** * Summary:
1306:.\Generated_Source\PSoC5/USBUART_1.c **** *  This function disables an OUT endpoint.  It should not be
ARM GAS  C:\Users\Alex\AppData\Local\Temp\ccbj9lYo.s 			page 48


1307:.\Generated_Source\PSoC5/USBUART_1.c **** *  called for an IN endpoint.
1308:.\Generated_Source\PSoC5/USBUART_1.c **** *
1309:.\Generated_Source\PSoC5/USBUART_1.c **** * Parameters:
1310:.\Generated_Source\PSoC5/USBUART_1.c **** *  epNumber: Endpoint Number
1311:.\Generated_Source\PSoC5/USBUART_1.c **** *            Valid values are between 1 and 8.
1312:.\Generated_Source\PSoC5/USBUART_1.c **** *
1313:.\Generated_Source\PSoC5/USBUART_1.c **** * Return:
1314:.\Generated_Source\PSoC5/USBUART_1.c **** *  None.
1315:.\Generated_Source\PSoC5/USBUART_1.c **** *
1316:.\Generated_Source\PSoC5/USBUART_1.c **** *******************************************************************************/
1317:.\Generated_Source\PSoC5/USBUART_1.c **** void USBUART_1_DisableOutEP(uint8 epNumber) 
1318:.\Generated_Source\PSoC5/USBUART_1.c **** {
 1342              		.loc 1 1318 0
 1343              		.cfi_startproc
 1344              		@ args = 0, pretend = 0, frame = 0
 1345              		@ frame_needed = 0, uses_anonymous_args = 0
 1346              		@ link register save eliminated.
 1347              	.LVL116:
1319:.\Generated_Source\PSoC5/USBUART_1.c ****     uint8 ri ;
1320:.\Generated_Source\PSoC5/USBUART_1.c **** 
1321:.\Generated_Source\PSoC5/USBUART_1.c ****     if((epNumber > USBUART_1_EP0) && (epNumber < USBUART_1_MAX_EP))
 1348              		.loc 1 1321 0
 1349 0000 0138     		subs	r0, r0, #1
 1350              	.LVL117:
 1351 0002 C0B2     		uxtb	r0, r0
 1352 0004 0728     		cmp	r0, #7
 1353 0006 04D8     		bhi	.L98
1322:.\Generated_Source\PSoC5/USBUART_1.c ****     {
1323:.\Generated_Source\PSoC5/USBUART_1.c ****         ri = ((epNumber - USBUART_1_EP1) << USBUART_1_EPX_CNTX_ADDR_SHIFT);
 1354              		.loc 1 1323 0
 1355 0008 0001     		lsls	r0, r0, #4
 1356 000a C0B2     		uxtb	r0, r0
 1357              	.LVL118:
1324:.\Generated_Source\PSoC5/USBUART_1.c ****         /* Write the Mode register */
1325:.\Generated_Source\PSoC5/USBUART_1.c ****         CY_SET_REG8((reg8 *)(USBUART_1_SIE_EP1_CR0_IND + ri), USBUART_1_MODE_NAK_OUT);
 1358              		.loc 1 1325 0
 1359 000c 0822     		movs	r2, #8
 1360 000e 014B     		ldr	r3, .L100
 1361 0010 C254     		strb	r2, [r0, r3]
 1362              	.LVL119:
 1363              	.L98:
 1364 0012 7047     		bx	lr
 1365              	.L101:
 1366              		.align	2
 1367              	.L100:
 1368 0014 0E600040 		.word	1073766414
 1369              		.cfi_endproc
 1370              	.LFE16:
 1371              		.size	USBUART_1_DisableOutEP, .-USBUART_1_DisableOutEP
 1372              		.section	.text.USBUART_1_Force,"ax",%progbits
 1373              		.align	2
 1374              		.global	USBUART_1_Force
 1375              		.thumb
 1376              		.thumb_func
 1377              		.type	USBUART_1_Force, %function
 1378              	USBUART_1_Force:
 1379              	.LFB17:
ARM GAS  C:\Users\Alex\AppData\Local\Temp\ccbj9lYo.s 			page 49


1326:.\Generated_Source\PSoC5/USBUART_1.c ****     }
1327:.\Generated_Source\PSoC5/USBUART_1.c **** }
1328:.\Generated_Source\PSoC5/USBUART_1.c **** 
1329:.\Generated_Source\PSoC5/USBUART_1.c **** 
1330:.\Generated_Source\PSoC5/USBUART_1.c **** /*******************************************************************************
1331:.\Generated_Source\PSoC5/USBUART_1.c **** * Function Name: USBUART_1_Force
1332:.\Generated_Source\PSoC5/USBUART_1.c **** ********************************************************************************
1333:.\Generated_Source\PSoC5/USBUART_1.c **** *
1334:.\Generated_Source\PSoC5/USBUART_1.c **** * Summary:
1335:.\Generated_Source\PSoC5/USBUART_1.c **** *  Forces the bus state
1336:.\Generated_Source\PSoC5/USBUART_1.c **** *
1337:.\Generated_Source\PSoC5/USBUART_1.c **** * Parameters:
1338:.\Generated_Source\PSoC5/USBUART_1.c **** *  bState
1339:.\Generated_Source\PSoC5/USBUART_1.c **** *    USBUART_1_FORCE_J
1340:.\Generated_Source\PSoC5/USBUART_1.c **** *    USBUART_1_FORCE_K
1341:.\Generated_Source\PSoC5/USBUART_1.c **** *    USBUART_1_FORCE_SE0
1342:.\Generated_Source\PSoC5/USBUART_1.c **** *    USBUART_1_FORCE_NONE
1343:.\Generated_Source\PSoC5/USBUART_1.c **** *
1344:.\Generated_Source\PSoC5/USBUART_1.c **** * Return:
1345:.\Generated_Source\PSoC5/USBUART_1.c **** *  None.
1346:.\Generated_Source\PSoC5/USBUART_1.c **** *
1347:.\Generated_Source\PSoC5/USBUART_1.c **** *******************************************************************************/
1348:.\Generated_Source\PSoC5/USBUART_1.c **** void USBUART_1_Force(uint8 bState) 
1349:.\Generated_Source\PSoC5/USBUART_1.c **** {
 1380              		.loc 1 1349 0
 1381              		.cfi_startproc
 1382              		@ args = 0, pretend = 0, frame = 0
 1383              		@ frame_needed = 0, uses_anonymous_args = 0
 1384              		@ link register save eliminated.
 1385              	.LVL120:
1350:.\Generated_Source\PSoC5/USBUART_1.c ****     CY_SET_REG8(USBUART_1_USBIO_CR0_PTR, bState);
 1386              		.loc 1 1350 0
 1387 0000 014B     		ldr	r3, .L103
 1388 0002 1870     		strb	r0, [r3]
 1389 0004 7047     		bx	lr
 1390              	.L104:
 1391 0006 00BF     		.align	2
 1392              	.L103:
 1393 0008 10600040 		.word	1073766416
 1394              		.cfi_endproc
 1395              	.LFE17:
 1396              		.size	USBUART_1_Force, .-USBUART_1_Force
 1397              		.section	.text.USBUART_1_GetEPAckState,"ax",%progbits
 1398              		.align	2
 1399              		.global	USBUART_1_GetEPAckState
 1400              		.thumb
 1401              		.thumb_func
 1402              		.type	USBUART_1_GetEPAckState, %function
 1403              	USBUART_1_GetEPAckState:
 1404              	.LFB18:
1351:.\Generated_Source\PSoC5/USBUART_1.c **** }
1352:.\Generated_Source\PSoC5/USBUART_1.c **** 
1353:.\Generated_Source\PSoC5/USBUART_1.c **** 
1354:.\Generated_Source\PSoC5/USBUART_1.c **** /*******************************************************************************
1355:.\Generated_Source\PSoC5/USBUART_1.c **** * Function Name: USBUART_1_GetEPAckState
1356:.\Generated_Source\PSoC5/USBUART_1.c **** ********************************************************************************
1357:.\Generated_Source\PSoC5/USBUART_1.c **** *
ARM GAS  C:\Users\Alex\AppData\Local\Temp\ccbj9lYo.s 			page 50


1358:.\Generated_Source\PSoC5/USBUART_1.c **** * Summary:
1359:.\Generated_Source\PSoC5/USBUART_1.c **** *  Returns the ACK of the CR0 Register (ACKD)
1360:.\Generated_Source\PSoC5/USBUART_1.c **** *
1361:.\Generated_Source\PSoC5/USBUART_1.c **** * Parameters:
1362:.\Generated_Source\PSoC5/USBUART_1.c **** *  epNumber: Endpoint Number
1363:.\Generated_Source\PSoC5/USBUART_1.c **** *            Valid values are between 1 and 8.
1364:.\Generated_Source\PSoC5/USBUART_1.c **** *
1365:.\Generated_Source\PSoC5/USBUART_1.c **** * Returns
1366:.\Generated_Source\PSoC5/USBUART_1.c **** *  0 if nothing has been ACKD, non-=zero something has been ACKD
1367:.\Generated_Source\PSoC5/USBUART_1.c **** *
1368:.\Generated_Source\PSoC5/USBUART_1.c **** *******************************************************************************/
1369:.\Generated_Source\PSoC5/USBUART_1.c **** uint8 USBUART_1_GetEPAckState(uint8 epNumber) 
1370:.\Generated_Source\PSoC5/USBUART_1.c **** {
 1405              		.loc 1 1370 0
 1406              		.cfi_startproc
 1407              		@ args = 0, pretend = 0, frame = 0
 1408              		@ frame_needed = 0, uses_anonymous_args = 0
 1409              		@ link register save eliminated.
 1410              	.LVL121:
1371:.\Generated_Source\PSoC5/USBUART_1.c ****     uint8 ri;
1372:.\Generated_Source\PSoC5/USBUART_1.c ****     uint8 cr = 0u;
1373:.\Generated_Source\PSoC5/USBUART_1.c **** 
1374:.\Generated_Source\PSoC5/USBUART_1.c ****     if((epNumber > USBUART_1_EP0) && (epNumber < USBUART_1_MAX_EP))
 1411              		.loc 1 1374 0
 1412 0000 0138     		subs	r0, r0, #1
 1413              	.LVL122:
 1414 0002 C0B2     		uxtb	r0, r0
 1415 0004 0728     		cmp	r0, #7
 1416 0006 07D8     		bhi	.L107
1375:.\Generated_Source\PSoC5/USBUART_1.c ****     {
1376:.\Generated_Source\PSoC5/USBUART_1.c ****         ri = ((epNumber - USBUART_1_EP1) << USBUART_1_EPX_CNTX_ADDR_SHIFT);
 1417              		.loc 1 1376 0
 1418 0008 0001     		lsls	r0, r0, #4
 1419 000a C0B2     		uxtb	r0, r0
 1420              	.LVL123:
1377:.\Generated_Source\PSoC5/USBUART_1.c ****         cr = CY_GET_REG8((reg8 *)(USBUART_1_SIE_EP1_CR0_IND + ri)) & USBUART_1_MODE_ACKD;
 1421              		.loc 1 1377 0
 1422 000c 034B     		ldr	r3, .L108
 1423 000e C05C     		ldrb	r0, [r0, r3]	@ zero_extendqisi2
 1424              	.LVL124:
 1425 0010 00F01000 		and	r0, r0, #16
 1426 0014 C0B2     		uxtb	r0, r0
 1427              	.LVL125:
 1428 0016 7047     		bx	lr
 1429              	.LVL126:
 1430              	.L107:
1372:.\Generated_Source\PSoC5/USBUART_1.c **** 
 1431              		.loc 1 1372 0
 1432 0018 0020     		movs	r0, #0
 1433              	.LVL127:
1378:.\Generated_Source\PSoC5/USBUART_1.c ****     }
1379:.\Generated_Source\PSoC5/USBUART_1.c **** 
1380:.\Generated_Source\PSoC5/USBUART_1.c ****     return(cr);
1381:.\Generated_Source\PSoC5/USBUART_1.c **** }
 1434              		.loc 1 1381 0
 1435 001a 7047     		bx	lr
 1436              	.L109:
ARM GAS  C:\Users\Alex\AppData\Local\Temp\ccbj9lYo.s 			page 51


 1437              		.align	2
 1438              	.L108:
 1439 001c 0E600040 		.word	1073766414
 1440              		.cfi_endproc
 1441              	.LFE18:
 1442              		.size	USBUART_1_GetEPAckState, .-USBUART_1_GetEPAckState
 1443              		.section	.text.USBUART_1_SetPowerStatus,"ax",%progbits
 1444              		.align	2
 1445              		.global	USBUART_1_SetPowerStatus
 1446              		.thumb
 1447              		.thumb_func
 1448              		.type	USBUART_1_SetPowerStatus, %function
 1449              	USBUART_1_SetPowerStatus:
 1450              	.LFB19:
1382:.\Generated_Source\PSoC5/USBUART_1.c **** 
1383:.\Generated_Source\PSoC5/USBUART_1.c **** 
1384:.\Generated_Source\PSoC5/USBUART_1.c **** /*******************************************************************************
1385:.\Generated_Source\PSoC5/USBUART_1.c **** * Function Name: USBUART_1_SetPowerStatus
1386:.\Generated_Source\PSoC5/USBUART_1.c **** ********************************************************************************
1387:.\Generated_Source\PSoC5/USBUART_1.c **** *
1388:.\Generated_Source\PSoC5/USBUART_1.c **** * Summary:
1389:.\Generated_Source\PSoC5/USBUART_1.c **** *  Sets the device power status for reporting in the Get Device Status
1390:.\Generated_Source\PSoC5/USBUART_1.c **** *  request
1391:.\Generated_Source\PSoC5/USBUART_1.c **** *
1392:.\Generated_Source\PSoC5/USBUART_1.c **** * Parameters:
1393:.\Generated_Source\PSoC5/USBUART_1.c **** *  powerStatus: USBUART_1_DEVICE_STATUS_BUS_POWERED(0) - Bus Powered,
1394:.\Generated_Source\PSoC5/USBUART_1.c **** *               USBUART_1_DEVICE_STATUS_SELF_POWERED(1) - Self Powered
1395:.\Generated_Source\PSoC5/USBUART_1.c **** *
1396:.\Generated_Source\PSoC5/USBUART_1.c **** * Return:
1397:.\Generated_Source\PSoC5/USBUART_1.c **** *   None.
1398:.\Generated_Source\PSoC5/USBUART_1.c **** *
1399:.\Generated_Source\PSoC5/USBUART_1.c **** * Global variables:
1400:.\Generated_Source\PSoC5/USBUART_1.c **** *  USBUART_1_deviceStatus - set power status
1401:.\Generated_Source\PSoC5/USBUART_1.c **** *
1402:.\Generated_Source\PSoC5/USBUART_1.c **** * Reentrant:
1403:.\Generated_Source\PSoC5/USBUART_1.c **** *  No.
1404:.\Generated_Source\PSoC5/USBUART_1.c **** *
1405:.\Generated_Source\PSoC5/USBUART_1.c **** *******************************************************************************/
1406:.\Generated_Source\PSoC5/USBUART_1.c **** void USBUART_1_SetPowerStatus(uint8 powerStatus) 
1407:.\Generated_Source\PSoC5/USBUART_1.c **** {
 1451              		.loc 1 1407 0
 1452              		.cfi_startproc
 1453              		@ args = 0, pretend = 0, frame = 0
 1454              		@ frame_needed = 0, uses_anonymous_args = 0
 1455              		@ link register save eliminated.
 1456              	.LVL128:
1408:.\Generated_Source\PSoC5/USBUART_1.c ****     if (powerStatus != USBUART_1_DEVICE_STATUS_BUS_POWERED)
 1457              		.loc 1 1408 0
 1458 0000 28B1     		cbz	r0, .L111
1409:.\Generated_Source\PSoC5/USBUART_1.c ****     {
1410:.\Generated_Source\PSoC5/USBUART_1.c ****         USBUART_1_deviceStatus |=  USBUART_1_DEVICE_STATUS_SELF_POWERED;
 1459              		.loc 1 1410 0
 1460 0002 064A     		ldr	r2, .L113
 1461 0004 1378     		ldrb	r3, [r2]	@ zero_extendqisi2
 1462 0006 43F00103 		orr	r3, r3, #1
 1463 000a 1370     		strb	r3, [r2]
 1464 000c 7047     		bx	lr
ARM GAS  C:\Users\Alex\AppData\Local\Temp\ccbj9lYo.s 			page 52


 1465              	.L111:
1411:.\Generated_Source\PSoC5/USBUART_1.c ****     }
1412:.\Generated_Source\PSoC5/USBUART_1.c ****     else
1413:.\Generated_Source\PSoC5/USBUART_1.c ****     {
1414:.\Generated_Source\PSoC5/USBUART_1.c ****         USBUART_1_deviceStatus &=  ((uint8)(~USBUART_1_DEVICE_STATUS_SELF_POWERED));
 1466              		.loc 1 1414 0
 1467 000e 034A     		ldr	r2, .L113
 1468 0010 1378     		ldrb	r3, [r2]	@ zero_extendqisi2
 1469 0012 03F0FE03 		and	r3, r3, #254
 1470 0016 1370     		strb	r3, [r2]
 1471 0018 7047     		bx	lr
 1472              	.L114:
 1473 001a 00BF     		.align	2
 1474              	.L113:
 1475 001c 00000000 		.word	USBUART_1_deviceStatus
 1476              		.cfi_endproc
 1477              	.LFE19:
 1478              		.size	USBUART_1_SetPowerStatus, .-USBUART_1_SetPowerStatus
 1479              		.section	.text.USBUART_1_RWUEnabled,"ax",%progbits
 1480              		.align	2
 1481              		.global	USBUART_1_RWUEnabled
 1482              		.thumb
 1483              		.thumb_func
 1484              		.type	USBUART_1_RWUEnabled, %function
 1485              	USBUART_1_RWUEnabled:
 1486              	.LFB20:
1415:.\Generated_Source\PSoC5/USBUART_1.c ****     }
1416:.\Generated_Source\PSoC5/USBUART_1.c **** }
1417:.\Generated_Source\PSoC5/USBUART_1.c **** 
1418:.\Generated_Source\PSoC5/USBUART_1.c **** 
1419:.\Generated_Source\PSoC5/USBUART_1.c **** #if (USBUART_1_MON_VBUS == 1u)
1420:.\Generated_Source\PSoC5/USBUART_1.c **** 
1421:.\Generated_Source\PSoC5/USBUART_1.c ****     /*******************************************************************************
1422:.\Generated_Source\PSoC5/USBUART_1.c ****     * Function Name: USBUART_1_VBusPresent
1423:.\Generated_Source\PSoC5/USBUART_1.c ****     ********************************************************************************
1424:.\Generated_Source\PSoC5/USBUART_1.c ****     *
1425:.\Generated_Source\PSoC5/USBUART_1.c ****     * Summary:
1426:.\Generated_Source\PSoC5/USBUART_1.c ****     *  Determines VBUS presence for Self Powered Devices.
1427:.\Generated_Source\PSoC5/USBUART_1.c ****     *
1428:.\Generated_Source\PSoC5/USBUART_1.c ****     * Parameters:
1429:.\Generated_Source\PSoC5/USBUART_1.c ****     *  None.
1430:.\Generated_Source\PSoC5/USBUART_1.c ****     *
1431:.\Generated_Source\PSoC5/USBUART_1.c ****     * Return:
1432:.\Generated_Source\PSoC5/USBUART_1.c ****     *  1 if VBUS is present, otherwise 0.
1433:.\Generated_Source\PSoC5/USBUART_1.c ****     *
1434:.\Generated_Source\PSoC5/USBUART_1.c ****     *******************************************************************************/
1435:.\Generated_Source\PSoC5/USBUART_1.c ****     uint8 USBUART_1_VBusPresent(void) 
1436:.\Generated_Source\PSoC5/USBUART_1.c ****     {
1437:.\Generated_Source\PSoC5/USBUART_1.c ****         return((0u != (CY_GET_REG8(USBUART_1_VBUS_PS_PTR) & USBUART_1_VBUS_MASK)) ? 1u : 0u);
1438:.\Generated_Source\PSoC5/USBUART_1.c ****     }
1439:.\Generated_Source\PSoC5/USBUART_1.c **** 
1440:.\Generated_Source\PSoC5/USBUART_1.c **** #endif /* USBUART_1_MON_VBUS */
1441:.\Generated_Source\PSoC5/USBUART_1.c **** 
1442:.\Generated_Source\PSoC5/USBUART_1.c **** 
1443:.\Generated_Source\PSoC5/USBUART_1.c **** /*******************************************************************************
1444:.\Generated_Source\PSoC5/USBUART_1.c **** * Function Name: USBUART_1_RWUEnabled
1445:.\Generated_Source\PSoC5/USBUART_1.c **** ********************************************************************************
ARM GAS  C:\Users\Alex\AppData\Local\Temp\ccbj9lYo.s 			page 53


1446:.\Generated_Source\PSoC5/USBUART_1.c **** *
1447:.\Generated_Source\PSoC5/USBUART_1.c **** * Summary:
1448:.\Generated_Source\PSoC5/USBUART_1.c **** *  Returns TRUE if Remote Wake Up is enabled, otherwise FALSE
1449:.\Generated_Source\PSoC5/USBUART_1.c **** *
1450:.\Generated_Source\PSoC5/USBUART_1.c **** * Parameters:
1451:.\Generated_Source\PSoC5/USBUART_1.c **** *   None.
1452:.\Generated_Source\PSoC5/USBUART_1.c **** *
1453:.\Generated_Source\PSoC5/USBUART_1.c **** * Return:
1454:.\Generated_Source\PSoC5/USBUART_1.c **** *  TRUE -  Remote Wake Up Enabled
1455:.\Generated_Source\PSoC5/USBUART_1.c **** *  FALSE - Remote Wake Up Disabled
1456:.\Generated_Source\PSoC5/USBUART_1.c **** *
1457:.\Generated_Source\PSoC5/USBUART_1.c **** * Global variables:
1458:.\Generated_Source\PSoC5/USBUART_1.c **** *  USBUART_1_deviceStatus - checked to determine remote status
1459:.\Generated_Source\PSoC5/USBUART_1.c **** *
1460:.\Generated_Source\PSoC5/USBUART_1.c **** *******************************************************************************/
1461:.\Generated_Source\PSoC5/USBUART_1.c **** uint8 USBUART_1_RWUEnabled(void) 
1462:.\Generated_Source\PSoC5/USBUART_1.c **** {
 1487              		.loc 1 1462 0
 1488              		.cfi_startproc
 1489              		@ args = 0, pretend = 0, frame = 0
 1490              		@ frame_needed = 0, uses_anonymous_args = 0
 1491              		@ link register save eliminated.
 1492              	.LVL129:
1463:.\Generated_Source\PSoC5/USBUART_1.c ****     uint8 result = USBUART_1_FALSE;
1464:.\Generated_Source\PSoC5/USBUART_1.c ****     if((USBUART_1_deviceStatus & USBUART_1_DEVICE_STATUS_REMOTE_WAKEUP) != 0u)
 1493              		.loc 1 1464 0
 1494 0000 044B     		ldr	r3, .L118
 1495 0002 1B78     		ldrb	r3, [r3]	@ zero_extendqisi2
 1496 0004 13F0020F 		tst	r3, #2
 1497 0008 01D1     		bne	.L117
1463:.\Generated_Source\PSoC5/USBUART_1.c ****     uint8 result = USBUART_1_FALSE;
 1498              		.loc 1 1463 0
 1499 000a 0020     		movs	r0, #0
 1500 000c 7047     		bx	lr
 1501              	.L117:
1465:.\Generated_Source\PSoC5/USBUART_1.c ****     {
1466:.\Generated_Source\PSoC5/USBUART_1.c ****         result = USBUART_1_TRUE;
 1502              		.loc 1 1466 0
 1503 000e 0120     		movs	r0, #1
 1504              	.LVL130:
1467:.\Generated_Source\PSoC5/USBUART_1.c ****     }
1468:.\Generated_Source\PSoC5/USBUART_1.c **** 
1469:.\Generated_Source\PSoC5/USBUART_1.c ****     return(result);
1470:.\Generated_Source\PSoC5/USBUART_1.c **** }
 1505              		.loc 1 1470 0
 1506 0010 7047     		bx	lr
 1507              	.L119:
 1508 0012 00BF     		.align	2
 1509              	.L118:
 1510 0014 00000000 		.word	USBUART_1_deviceStatus
 1511              		.cfi_endproc
 1512              	.LFE20:
 1513              		.size	USBUART_1_RWUEnabled, .-USBUART_1_RWUEnabled
 1514              		.comm	USBUART_1_DmaTd,9,4
 1515              		.comm	USBUART_1_DmaChan,9,4
 1516              		.global	USBUART_1_initVar
 1517              		.bss
ARM GAS  C:\Users\Alex\AppData\Local\Temp\ccbj9lYo.s 			page 54


 1518              		.set	.LANCHOR0,. + 0
 1519              		.type	USBUART_1_initVar, %object
 1520              		.size	USBUART_1_initVar, 1
 1521              	USBUART_1_initVar:
 1522 0000 00       		.space	1
 1523              		.text
 1524              	.Letext0:
 1525              		.file 2 "Generated_Source\\PSoC5/cytypes.h"
 1526              		.file 3 ".\\Generated_Source\\PSoC5\\USBUART_1.h"
 1527              		.file 4 ".\\Generated_Source\\PSoC5\\USBUART_1_pvt.h"
 1528              		.file 5 "Generated_Source\\PSoC5/CyLib.h"
 1529              		.file 6 ".\\Generated_Source\\PSoC5\\USBUART_1_ep1_dma.h"
 1530              		.file 7 ".\\Generated_Source\\PSoC5\\USBUART_1_ep2_dma.h"
 1531              		.file 8 ".\\Generated_Source\\PSoC5\\USBUART_1_ep3_dma.h"
 1532              		.file 9 "Generated_Source\\PSoC5/CyDmac.h"