ARM GAS  C:\Users\Alex\AppData\Local\Temp\cc1NVoBm.s 			page 1


   1              		.syntax unified
   2              		.cpu cortex-m3
   3              		.fpu softvfp
   4              		.eabi_attribute 20, 1
   5              		.eabi_attribute 21, 1
   6              		.eabi_attribute 23, 3
   7              		.eabi_attribute 24, 1
   8              		.eabi_attribute 25, 1
   9              		.eabi_attribute 26, 1
  10              		.eabi_attribute 30, 1
  11              		.eabi_attribute 34, 1
  12              		.eabi_attribute 18, 4
  13              		.thumb
  14              		.file	"user_exo.c"
  15              		.text
  16              	.Ltext0:
  17              		.cfi_sections	.debug_frame
  18              		.global _printf_float
  19              		.thumb
  20              		.section	.text.exo_refresh_values,"ax",%progbits
  21              		.align	2
  22              		.thumb
  23              		.thumb_func
  24              		.type	exo_refresh_values, %function
  25              	exo_refresh_values:
  26              	.LFB65:
  27              		.file 1 "..\\src\\user_exo.c"
   1:..\src/user_exo.c **** //****************************************************************************
   2:..\src/user_exo.c **** // MIT Media Lab - Biomechatronics
   3:..\src/user_exo.c **** // Jean-Francois (Jeff) Duval & Luke Mooney
   4:..\src/user_exo.c **** // jfduval@mit.edu & lmooney@mit.edu
   5:..\src/user_exo.c **** // 05/2015
   6:..\src/user_exo.c **** //****************************************************************************
   7:..\src/user_exo.c **** // exo: ExoBoot functions
   8:..\src/user_exo.c **** //****************************************************************************
   9:..\src/user_exo.c **** 
  10:..\src/user_exo.c **** //****************************************************************************
  11:..\src/user_exo.c **** // Include(s)
  12:..\src/user_exo.c **** //****************************************************************************
  13:..\src/user_exo.c **** 
  14:..\src/user_exo.c **** #include "main.h"
  15:..\src/user_exo.c **** #include "user_exo.h"
  16:..\src/user_exo.c **** 
  17:..\src/user_exo.c **** //****************************************************************************
  18:..\src/user_exo.c **** // Variable(s)
  19:..\src/user_exo.c **** //****************************************************************************
  20:..\src/user_exo.c **** 
  21:..\src/user_exo.c **** //Filters:
  22:..\src/user_exo.c **** int32 aFilt[FILT_PARAM_SIZE], bFilt[FILT_PARAM_SIZE];
  23:..\src/user_exo.c **** 
  24:..\src/user_exo.c **** //Luke, whenever possible move these variables in functions (not as global)
  25:..\src/user_exo.c **** //By default, I'm using int32. You might want something different.
  26:..\src/user_exo.c **** int32 curpos = 0, curspd = 0, curacc = 0, power = 0, gyrosum = 0, gyrozero = 0;
  27:..\src/user_exo.c **** int32 gyrozerosum = 0, maxPFpower = 0, maxCPFang = 0, GmaxPFang = 0;
  28:..\src/user_exo.c **** int32 maxesttor = 0, gSWGang = 0, gCPFang = 0, nopull = 0, shankang = 0;
  29:..\src/user_exo.c **** int32 esttor = 0;
  30:..\src/user_exo.c **** //Add your "setCommand" variables here
ARM GAS  C:\Users\Alex\AppData\Local\Temp\cc1NVoBm.s 			page 2


  31:..\src/user_exo.c **** 
  32:..\src/user_exo.c **** //****************************************************************************
  33:..\src/user_exo.c **** // Private Function Prototype(s):
  34:..\src/user_exo.c **** //****************************************************************************	
  35:..\src/user_exo.c **** 
  36:..\src/user_exo.c **** static void exo_refresh_values(void);
  37:..\src/user_exo.c **** 
  38:..\src/user_exo.c **** //****************************************************************************
  39:..\src/user_exo.c **** // Public Function(s)
  40:..\src/user_exo.c **** //****************************************************************************
  41:..\src/user_exo.c **** 
  42:..\src/user_exo.c **** //Call this function once in main.c, just before the while()
  43:..\src/user_exo.c **** void init_exo(void)
  44:..\src/user_exo.c **** {
  45:..\src/user_exo.c **** 	//Init filters:
  46:..\src/user_exo.c **** 	aFilt[0] = FILT_A0; aFilt[1] = FILT_A1; aFilt[2] = FILT_A2; 
  47:..\src/user_exo.c **** 	bFilt[0] = FILT_B0; bFilt[1] = FILT_B1; bFilt[2] = FILT_B2; 
  48:..\src/user_exo.c **** 	
  49:..\src/user_exo.c **** 	//Default values for all the variables:
  50:..\src/user_exo.c **** 	curpos = 0;				//current encoder position of motor
  51:..\src/user_exo.c **** 	curspd = 0;				//Current speed of the motor
  52:..\src/user_exo.c **** 	curacc = 0;				//Current acceleration of the motor
  53:..\src/user_exo.c **** 	power = 0;				//Power of the motor
  54:..\src/user_exo.c **** 	gyrosum = 0;			//Sum of gyros used to filter signal
  55:..\src/user_exo.c **** //int32 gyrozero = getvalue(_AI,6);	//First gyro value
  56:..\src/user_exo.c **** 	//What's get value? ToDo fix that
  57:..\src/user_exo.c **** 	gyrozerosum = 0;		//Sum of gyroscope during zeroing
  58:..\src/user_exo.c **** 	maxPFpower = -1;		//Maximum motor power during PF
  59:..\src/user_exo.c **** 	maxCPFang = 0;			//Maximum PF angle during controlled PF of one step
  60:..\src/user_exo.c **** 	GmaxPFang = 0;			//The maximum PF angle during controlled PF of all time
  61:..\src/user_exo.c **** 	maxesttor = 0;			//The maximum estimated torque during PF
  62:..\src/user_exo.c **** 	gSWGang = 10*clkang;	//The global angle the exo returns to during swing
  63:..\src/user_exo.c **** 	gCPFang = 4*clkang;		//The amount of PF during controlled PF
  64:..\src/user_exo.c **** 	nopull = 1;				//A variable to determine if the user pulled on the string during swing
  65:..\src/user_exo.c **** 	shankang = 0;			//The angle of shank as integrated by the gyro and zeroed at heel strike
  66:..\src/user_exo.c **** 	
  67:..\src/user_exo.c **** 	//FlexSEA-Execute setup:
  68:..\src/user_exo.c **** 	ctrl.active_ctrl = CTRL_OPEN;	//Open controller
  69:..\src/user_exo.c **** 	Coast_Brake_Write(1);			//Brake (rather than Coast)
  70:..\src/user_exo.c **** 	motor_open_speed_1(0);			//0% PWM
  71:..\src/user_exo.c **** }
  72:..\src/user_exo.c **** 
  73:..\src/user_exo.c **** //ExoBoot Finite State Machine.
  74:..\src/user_exo.c **** //Call this function in one of the main while time slots.
  75:..\src/user_exo.c **** void exo_fsm(void)
  76:..\src/user_exo.c **** {
  77:..\src/user_exo.c **** 	static uint8 state = 0;
  78:..\src/user_exo.c **** 	
  79:..\src/user_exo.c **** 	//Before going to a state we refresh values:
  80:..\src/user_exo.c **** 	exo_refresh_values();
  81:..\src/user_exo.c **** 	
  82:..\src/user_exo.c **** 	switch(state)
  83:..\src/user_exo.c **** 	{
  84:..\src/user_exo.c **** 		case 0:
  85:..\src/user_exo.c **** 			//Put some code here...
  86:..\src/user_exo.c **** 			state++;
  87:..\src/user_exo.c **** 			break;
ARM GAS  C:\Users\Alex\AppData\Local\Temp\cc1NVoBm.s 			page 3


  88:..\src/user_exo.c **** 		case 1:
  89:..\src/user_exo.c **** 			state++;	//State doesn't have to increment, you can jump (state = 3) too.
  90:..\src/user_exo.c **** 			break;
  91:..\src/user_exo.c **** 		case 2:
  92:..\src/user_exo.c **** 			state = 0;	//Looping back to the start
  93:..\src/user_exo.c **** 			break;
  94:..\src/user_exo.c **** 		default:
  95:..\src/user_exo.c **** 			//Handle exceptions here
  96:..\src/user_exo.c **** 			break;
  97:..\src/user_exo.c **** 	}
  98:..\src/user_exo.c **** }
  99:..\src/user_exo.c **** 
 100:..\src/user_exo.c **** //****************************************************************************
 101:..\src/user_exo.c **** // Private Function(s)
 102:..\src/user_exo.c **** //****************************************************************************
 103:..\src/user_exo.c **** 
 104:..\src/user_exo.c **** //Note: 'static' makes them private; they can only called from functions in this
 105:..\src/user_exo.c **** //file. It's safer than making everything global.
 106:..\src/user_exo.c **** 
 107:..\src/user_exo.c **** //Here's an example function:
 108:..\src/user_exo.c **** static void exo_refresh_values(void)
 109:..\src/user_exo.c **** {
  28              		.loc 1 109 0
  29              		.cfi_startproc
  30              		@ args = 0, pretend = 0, frame = 0
  31              		@ frame_needed = 0, uses_anonymous_args = 0
  32              		@ link register save eliminated.
 110:..\src/user_exo.c **** /*		curacc = (getvalue(_abspeed,1)-curspd)*105/(time-time0) 'motor accl in rad/s^2
 111:..\src/user_exo.c **** 	//Can I guess that it translates as "curacc = (_abspeed-curspd)*105/(time-time0); ?
 112:..\src/user_exo.c **** 		curpos = getvalue(_abcntr,1) 'get the encoder position (clicks)
 113:..\src/user_exo.c **** 		curspd = getvalue(_abspeed,1) 'get the encoder velocity (RPM)
 114:..\src/user_exo.c **** 		estcur = (getvalue(_P)*Bv-curspd*10000/346)*259/100'10000x estimated motor current *259/100 = 1/.
 115:..\src/user_exo.c **** 		esttor = (estcur/362-33*curacc/10000)*effic/100 '1000x eestimated motor torque
 116:..\src/user_exo.c **** 		*/ 
 117:..\src/user_exo.c **** 		power = esttor*curspd/9550;		//Watts
  33              		.loc 1 117 0
  34 0000 064A     		ldr	r2, .L2
  35 0002 1168     		ldr	r1, [r2]
  36 0004 5368     		ldr	r3, [r2, #4]
  37 0006 03FB01F3 		mul	r3, r3, r1
  38 000a 0549     		ldr	r1, .L2+4
  39 000c 81FB0301 		smull	r0, r1, r1, r3
  40 0010 DB17     		asrs	r3, r3, #31
  41 0012 C3EBE123 		rsb	r3, r3, r1, asr #11
  42 0016 9360     		str	r3, [r2, #8]
  43 0018 7047     		bx	lr
  44              	.L3:
  45 001a 00BF     		.align	2
  46              	.L2:
  47 001c 00000000 		.word	.LANCHOR0
  48 0020 5D36E636 		.word	921056861
  49              		.cfi_endproc
  50              	.LFE65:
  51              		.size	exo_refresh_values, .-exo_refresh_values
  52              		.section	.text.init_exo,"ax",%progbits
  53              		.align	2
  54              		.global	init_exo
ARM GAS  C:\Users\Alex\AppData\Local\Temp\cc1NVoBm.s 			page 4


  55              		.thumb
  56              		.thumb_func
  57              		.type	init_exo, %function
  58              	init_exo:
  59              	.LFB63:
  44:..\src/user_exo.c **** 	//Init filters:
  60              		.loc 1 44 0
  61              		.cfi_startproc
  62              		@ args = 0, pretend = 0, frame = 0
  63              		@ frame_needed = 0, uses_anonymous_args = 0
  64 0000 10B5     		push	{r4, lr}
  65              		.cfi_def_cfa_offset 8
  66              		.cfi_offset 4, -8
  67              		.cfi_offset 14, -4
  46:..\src/user_exo.c **** 	bFilt[0] = FILT_B0; bFilt[1] = FILT_B1; bFilt[2] = FILT_B2; 
  68              		.loc 1 46 0
  69 0002 184B     		ldr	r3, .L6
  70 0004 42F21072 		movw	r2, #10000
  71 0008 1A60     		str	r2, [r3]
  72 000a 174A     		ldr	r2, .L6+4
  73 000c 5A60     		str	r2, [r3, #4]
  74 000e 41F68F72 		movw	r2, #8079
  75 0012 9A60     		str	r2, [r3, #8]
  47:..\src/user_exo.c **** 	
  76              		.loc 1 47 0
  77 0014 154B     		ldr	r3, .L6+8
  78 0016 41F20942 		movw	r2, #5129
  79 001a 1A60     		str	r2, [r3]
  80 001c 42F61301 		movw	r1, #10259
  81 0020 5960     		str	r1, [r3, #4]
  82 0022 9A60     		str	r2, [r3, #8]
  50:..\src/user_exo.c **** 	curspd = 0;				//Current speed of the motor
  83              		.loc 1 50 0
  84 0024 124B     		ldr	r3, .L6+12
  85 0026 0024     		movs	r4, #0
  86 0028 DC60     		str	r4, [r3, #12]
  51:..\src/user_exo.c **** 	curacc = 0;				//Current acceleration of the motor
  87              		.loc 1 51 0
  88 002a 5C60     		str	r4, [r3, #4]
  52:..\src/user_exo.c **** 	power = 0;				//Power of the motor
  89              		.loc 1 52 0
  90 002c 1C61     		str	r4, [r3, #16]
  53:..\src/user_exo.c **** 	gyrosum = 0;			//Sum of gyros used to filter signal
  91              		.loc 1 53 0
  92 002e 9C60     		str	r4, [r3, #8]
  54:..\src/user_exo.c **** //int32 gyrozero = getvalue(_AI,6);	//First gyro value
  93              		.loc 1 54 0
  94 0030 5C61     		str	r4, [r3, #20]
  57:..\src/user_exo.c **** 	maxPFpower = -1;		//Maximum motor power during PF
  95              		.loc 1 57 0
  96 0032 9C61     		str	r4, [r3, #24]
  58:..\src/user_exo.c **** 	maxCPFang = 0;			//Maximum PF angle during controlled PF of one step
  97              		.loc 1 58 0
  98 0034 4FF0FF32 		mov	r2, #-1
  99 0038 DA61     		str	r2, [r3, #28]
  59:..\src/user_exo.c **** 	GmaxPFang = 0;			//The maximum PF angle during controlled PF of all time
 100              		.loc 1 59 0
ARM GAS  C:\Users\Alex\AppData\Local\Temp\cc1NVoBm.s 			page 5


 101 003a 1C62     		str	r4, [r3, #32]
  60:..\src/user_exo.c **** 	maxesttor = 0;			//The maximum estimated torque during PF
 102              		.loc 1 60 0
 103 003c 5C62     		str	r4, [r3, #36]
  61:..\src/user_exo.c **** 	gSWGang = 10*clkang;	//The global angle the exo returns to during swing
 104              		.loc 1 61 0
 105 003e 9C62     		str	r4, [r3, #40]
  62:..\src/user_exo.c **** 	gCPFang = 4*clkang;		//The amount of PF during controlled PF
 106              		.loc 1 62 0
 107 0040 40F2F642 		movw	r2, #1270
 108 0044 DA62     		str	r2, [r3, #44]
  63:..\src/user_exo.c **** 	nopull = 1;				//A variable to determine if the user pulled on the string during swing
 109              		.loc 1 63 0
 110 0046 4FF4FE72 		mov	r2, #508
 111 004a 1A63     		str	r2, [r3, #48]
  64:..\src/user_exo.c **** 	shankang = 0;			//The angle of shank as integrated by the gyro and zeroed at heel strike
 112              		.loc 1 64 0
 113 004c 0120     		movs	r0, #1
 114 004e 5863     		str	r0, [r3, #52]
  65:..\src/user_exo.c **** 	
 115              		.loc 1 65 0
 116 0050 9C63     		str	r4, [r3, #56]
  68:..\src/user_exo.c **** 	Coast_Brake_Write(1);			//Brake (rather than Coast)
 117              		.loc 1 68 0
 118 0052 084B     		ldr	r3, .L6+16
 119 0054 1870     		strb	r0, [r3]
  69:..\src/user_exo.c **** 	motor_open_speed_1(0);			//0% PWM
 120              		.loc 1 69 0
 121 0056 FFF7FEFF 		bl	Coast_Brake_Write
 122              	.LVL0:
  70:..\src/user_exo.c **** }
 123              		.loc 1 70 0
 124 005a 2046     		mov	r0, r4
 125 005c FFF7FEFF 		bl	motor_open_speed_1
 126              	.LVL1:
 127 0060 10BD     		pop	{r4, pc}
 128              	.L7:
 129 0062 00BF     		.align	2
 130              	.L6:
 131 0064 00000000 		.word	aFilt
 132 0068 2EBAFFFF 		.word	-17874
 133 006c 00000000 		.word	bFilt
 134 0070 00000000 		.word	.LANCHOR0
 135 0074 00000000 		.word	ctrl
 136              		.cfi_endproc
 137              	.LFE63:
 138              		.size	init_exo, .-init_exo
 139              		.section	.text.exo_fsm,"ax",%progbits
 140              		.align	2
 141              		.global	exo_fsm
 142              		.thumb
 143              		.thumb_func
 144              		.type	exo_fsm, %function
 145              	exo_fsm:
 146              	.LFB64:
  76:..\src/user_exo.c **** 	static uint8 state = 0;
 147              		.loc 1 76 0
ARM GAS  C:\Users\Alex\AppData\Local\Temp\cc1NVoBm.s 			page 6


 148              		.cfi_startproc
 149              		@ args = 0, pretend = 0, frame = 0
 150              		@ frame_needed = 0, uses_anonymous_args = 0
 151 0000 08B5     		push	{r3, lr}
 152              		.cfi_def_cfa_offset 8
 153              		.cfi_offset 3, -8
 154              		.cfi_offset 14, -4
  80:..\src/user_exo.c **** 	
 155              		.loc 1 80 0
 156 0002 FFF7FEFF 		bl	exo_refresh_values
 157              	.LVL2:
  82:..\src/user_exo.c **** 	{
 158              		.loc 1 82 0
 159 0006 0C4B     		ldr	r3, .L14
 160 0008 93F83C30 		ldrb	r3, [r3, #60]	@ zero_extendqisi2
 161 000c 012B     		cmp	r3, #1
 162 000e 08D0     		beq	.L10
 163 0010 13B1     		cbz	r3, .L11
 164 0012 022B     		cmp	r3, #2
 165 0014 0AD0     		beq	.L12
 166 0016 08BD     		pop	{r3, pc}
 167              	.L11:
  86:..\src/user_exo.c **** 			break;
 168              		.loc 1 86 0
 169 0018 0133     		adds	r3, r3, #1
 170 001a 074A     		ldr	r2, .L14
 171 001c 82F83C30 		strb	r3, [r2, #60]
  87:..\src/user_exo.c **** 		case 1:
 172              		.loc 1 87 0
 173 0020 08BD     		pop	{r3, pc}
 174              	.L10:
  89:..\src/user_exo.c **** 			break;
 175              		.loc 1 89 0
 176 0022 0133     		adds	r3, r3, #1
 177 0024 044A     		ldr	r2, .L14
 178 0026 82F83C30 		strb	r3, [r2, #60]
  90:..\src/user_exo.c **** 		case 2:
 179              		.loc 1 90 0
 180 002a 08BD     		pop	{r3, pc}
 181              	.L12:
  92:..\src/user_exo.c **** 			break;
 182              		.loc 1 92 0
 183 002c 0022     		movs	r2, #0
 184 002e 024B     		ldr	r3, .L14
 185 0030 83F83C20 		strb	r2, [r3, #60]
 186 0034 08BD     		pop	{r3, pc}
 187              	.L15:
 188 0036 00BF     		.align	2
 189              	.L14:
 190 0038 00000000 		.word	.LANCHOR0
 191              		.cfi_endproc
 192              	.LFE64:
 193              		.size	exo_fsm, .-exo_fsm
 194              		.global	esttor
 195              		.global	shankang
 196              		.global	nopull
 197              		.global	gCPFang
ARM GAS  C:\Users\Alex\AppData\Local\Temp\cc1NVoBm.s 			page 7


 198              		.global	gSWGang
 199              		.global	maxesttor
 200              		.global	GmaxPFang
 201              		.global	maxCPFang
 202              		.global	maxPFpower
 203              		.global	gyrozerosum
 204              		.global	gyrozero
 205              		.global	gyrosum
 206              		.global	power
 207              		.global	curacc
 208              		.global	curspd
 209              		.global	curpos
 210              		.comm	bFilt,12,4
 211              		.comm	aFilt,12,4
 212              		.bss
 213              		.align	2
 214              		.set	.LANCHOR0,. + 0
 215              		.type	esttor, %object
 216              		.size	esttor, 4
 217              	esttor:
 218 0000 00000000 		.space	4
 219              		.type	curspd, %object
 220              		.size	curspd, 4
 221              	curspd:
 222 0004 00000000 		.space	4
 223              		.type	power, %object
 224              		.size	power, 4
 225              	power:
 226 0008 00000000 		.space	4
 227              		.type	curpos, %object
 228              		.size	curpos, 4
 229              	curpos:
 230 000c 00000000 		.space	4
 231              		.type	curacc, %object
 232              		.size	curacc, 4
 233              	curacc:
 234 0010 00000000 		.space	4
 235              		.type	gyrosum, %object
 236              		.size	gyrosum, 4
 237              	gyrosum:
 238 0014 00000000 		.space	4
 239              		.type	gyrozerosum, %object
 240              		.size	gyrozerosum, 4
 241              	gyrozerosum:
 242 0018 00000000 		.space	4
 243              		.type	maxPFpower, %object
 244              		.size	maxPFpower, 4
 245              	maxPFpower:
 246 001c 00000000 		.space	4
 247              		.type	maxCPFang, %object
 248              		.size	maxCPFang, 4
 249              	maxCPFang:
 250 0020 00000000 		.space	4
 251              		.type	GmaxPFang, %object
 252              		.size	GmaxPFang, 4
 253              	GmaxPFang:
 254 0024 00000000 		.space	4
ARM GAS  C:\Users\Alex\AppData\Local\Temp\cc1NVoBm.s 			page 8


 255              		.type	maxesttor, %object
 256              		.size	maxesttor, 4
 257              	maxesttor:
 258 0028 00000000 		.space	4
 259              		.type	gSWGang, %object
 260              		.size	gSWGang, 4
 261              	gSWGang:
 262 002c 00000000 		.space	4
 263              		.type	gCPFang, %object
 264              		.size	gCPFang, 4
 265              	gCPFang:
 266 0030 00000000 		.space	4
 267              		.type	nopull, %object
 268              		.size	nopull, 4
 269              	nopull:
 270 0034 00000000 		.space	4
 271              		.type	shankang, %object
 272              		.size	shankang, 4
 273              	shankang:
 274 0038 00000000 		.space	4
 275              		.type	state.10494, %object
 276              		.size	state.10494, 1
 277              	state.10494:
 278 003c 00       		.space	1
 279 003d 000000   		.space	3
 280              		.type	gyrozero, %object
 281              		.size	gyrozero, 4
 282              	gyrozero:
 283 0040 00000000 		.space	4
 284              		.text
 285              	.Letext0:
 286              		.file 2 "c:\\program files (x86)\\cypress\\psoc creator\\3.3\\psoc creator\\import\\gnu\\arm\\4.9.
 287              		.file 3 "c:\\program files (x86)\\cypress\\psoc creator\\3.3\\psoc creator\\import\\gnu\\arm\\4.9.
 288              		.file 4 "Generated_Source\\PSoC5/cytypes.h"
 289              		.file 5 "..\\inc/../../flexsea-system/inc/flexsea_cmd_control.h"
 290              		.file 6 "Generated_Source\\PSoC5/core_cm3.h"
 291              		.file 7 "..\\inc/control.h"
 292              		.file 8 "Generated_Source\\PSoC5/Coast_Brake.h"
 293              		.file 9 "..\\inc/motor.h"