ARM GAS  C:\Users\Alex\AppData\Local\Temp\ccfz3wNk.s 			page 1


   1              		.syntax unified
   2              		.cpu cortex-m3
   3              		.fpu softvfp
   4              		.eabi_attribute 20, 1
   5              		.eabi_attribute 21, 1
   6              		.eabi_attribute 23, 3
   7              		.eabi_attribute 24, 1
   8              		.eabi_attribute 25, 1
   9              		.eabi_attribute 26, 1
  10              		.eabi_attribute 30, 1
  11              		.eabi_attribute 34, 1
  12              		.eabi_attribute 18, 4
  13              		.thumb
  14              		.file	"user_ricnu_knee.c"
  15              		.text
  16              	.Ltext0:
  17              		.cfi_sections	.debug_frame
  18              		.global _printf_float
  19              		.thumb
  20              		.section	.text.init_ricnu_knee,"ax",%progbits
  21              		.align	2
  22              		.global	init_ricnu_knee
  23              		.thumb
  24              		.thumb_func
  25              		.type	init_ricnu_knee, %function
  26              	init_ricnu_knee:
  27              	.LFB63:
  28              		.file 1 "..\\src\\user_ricnu_knee.c"
   1:..\src/user_ricnu_knee.c **** //****************************************************************************
   2:..\src/user_ricnu_knee.c **** // MIT Media Lab - Biomechatronics
   3:..\src/user_ricnu_knee.c **** // Jean-Francois (Jeff) Duval & Luke Mooney & Elliott Rouse
   4:..\src/user_ricnu_knee.c **** // jfduval@mit.edu & lmooney@mit.edu & erouse@northwestern.edu
   5:..\src/user_ricnu_knee.c **** // 05/2016
   6:..\src/user_ricnu_knee.c **** //****************************************************************************
   7:..\src/user_ricnu_knee.c **** // knee: knee functions
   8:..\src/user_ricnu_knee.c **** //****************************************************************************
   9:..\src/user_ricnu_knee.c **** 
  10:..\src/user_ricnu_knee.c **** //****************************************************************************
  11:..\src/user_ricnu_knee.c **** // Include(s)
  12:..\src/user_ricnu_knee.c **** //****************************************************************************
  13:..\src/user_ricnu_knee.c **** 
  14:..\src/user_ricnu_knee.c **** #include "main.h"
  15:..\src/user_ricnu_knee.c **** #include "user_ricnu_knee.h"
  16:..\src/user_ricnu_knee.c **** 
  17:..\src/user_ricnu_knee.c **** //****************************************************************************
  18:..\src/user_ricnu_knee.c **** // Variable(s)
  19:..\src/user_ricnu_knee.c **** //****************************************************************************
  20:..\src/user_ricnu_knee.c **** 
  21:..\src/user_ricnu_knee.c **** //****************************************************************************
  22:..\src/user_ricnu_knee.c **** // Private Function Prototype(s):
  23:..\src/user_ricnu_knee.c **** //****************************************************************************	
  24:..\src/user_ricnu_knee.c **** 
  25:..\src/user_ricnu_knee.c **** static void ricnu_knee_refresh_values(void);
  26:..\src/user_ricnu_knee.c **** 
  27:..\src/user_ricnu_knee.c **** //****************************************************************************
  28:..\src/user_ricnu_knee.c **** // Public Function(s)
  29:..\src/user_ricnu_knee.c **** //****************************************************************************
ARM GAS  C:\Users\Alex\AppData\Local\Temp\ccfz3wNk.s 			page 2


  30:..\src/user_ricnu_knee.c **** 
  31:..\src/user_ricnu_knee.c **** //Call this function once in main.c, just before the while()
  32:..\src/user_ricnu_knee.c **** void init_ricnu_knee(void)
  33:..\src/user_ricnu_knee.c **** {	
  29              		.loc 1 33 0
  30              		.cfi_startproc
  31              		@ args = 0, pretend = 0, frame = 0
  32              		@ frame_needed = 0, uses_anonymous_args = 0
  33 0000 10B5     		push	{r4, lr}
  34              		.cfi_def_cfa_offset 8
  35              		.cfi_offset 4, -8
  36              		.cfi_offset 14, -4
  34:..\src/user_ricnu_knee.c **** 	//FlexSEA-Execute setup:
  35:..\src/user_ricnu_knee.c ****     //Example:	ctrl.active_ctrl = CTRL_OPEN;	//Open controller
  36:..\src/user_ricnu_knee.c ****     //Example: motor_open_speed_1(0);			//0% PWM
  37:..\src/user_ricnu_knee.c **** 	ctrl.active_ctrl = CTRL_POSITION;	//Position controller
  37              		.loc 1 37 0
  38 0002 0C4C     		ldr	r4, .L3
  39 0004 0223     		movs	r3, #2
  40 0006 2370     		strb	r3, [r4]
  38:..\src/user_ricnu_knee.c ****     motor_open_speed_1(0);			//0% PWM
  41              		.loc 1 38 0
  42 0008 0020     		movs	r0, #0
  43 000a FFF7FEFF 		bl	motor_open_speed_1
  44              	.LVL0:
  39:..\src/user_ricnu_knee.c **** 	Coast_Brake_Write(1);			//Brake (rather than Coast)
  45              		.loc 1 39 0
  46 000e 0120     		movs	r0, #1
  47 0010 FFF7FEFF 		bl	Coast_Brake_Write
  48              	.LVL1:
  40:..\src/user_ricnu_knee.c **** 	   
  41:..\src/user_ricnu_knee.c ****     //Position PID gains:
  42:..\src/user_ricnu_knee.c **** 	ctrl.position.gain.P_KP = 22;
  49              		.loc 1 42 0
  50 0014 1623     		movs	r3, #22
  51 0016 A4F84C30 		strh	r3, [r4, #76]	@ movhi
  43:..\src/user_ricnu_knee.c **** 	ctrl.position.gain.P_KI = 5;
  52              		.loc 1 43 0
  53 001a 0523     		movs	r3, #5
  54 001c A4F84E30 		strh	r3, [r4, #78]	@ movhi
  44:..\src/user_ricnu_knee.c ****     
  45:..\src/user_ricnu_knee.c ****     //Starts off:
  46:..\src/user_ricnu_knee.c **** 	LED_R_Write(1);
  55              		.loc 1 46 0
  56 0020 0120     		movs	r0, #1
  57 0022 FFF7FEFF 		bl	LED_R_Write
  58              	.LVL2:
  47:..\src/user_ricnu_knee.c **** 	LED_G_Write(1);
  59              		.loc 1 47 0
  60 0026 0120     		movs	r0, #1
  61 0028 FFF7FEFF 		bl	LED_G_Write
  62              	.LVL3:
  48:..\src/user_ricnu_knee.c **** 	LED_B_Write(1);    
  63              		.loc 1 48 0
  64 002c 0120     		movs	r0, #1
  65 002e FFF7FEFF 		bl	LED_B_Write
  66              	.LVL4:
ARM GAS  C:\Users\Alex\AppData\Local\Temp\ccfz3wNk.s 			page 3


  67 0032 10BD     		pop	{r4, pc}
  68              	.L4:
  69              		.align	2
  70              	.L3:
  71 0034 00000000 		.word	ctrl
  72              		.cfi_endproc
  73              	.LFE63:
  74              		.size	init_ricnu_knee, .-init_ricnu_knee
  75              		.section	.text.ricnu_knee_fsm,"ax",%progbits
  76              		.align	2
  77              		.global	ricnu_knee_fsm
  78              		.thumb
  79              		.thumb_func
  80              		.type	ricnu_knee_fsm, %function
  81              	ricnu_knee_fsm:
  82              	.LFB64:
  49:..\src/user_ricnu_knee.c **** }
  50:..\src/user_ricnu_knee.c **** 
  51:..\src/user_ricnu_knee.c **** //Knee Finite State Machine.
  52:..\src/user_ricnu_knee.c **** //Call this function in one of the main while time slots.
  53:..\src/user_ricnu_knee.c **** void ricnu_knee_fsm(void)
  54:..\src/user_ricnu_knee.c **** {
  83              		.loc 1 54 0
  84              		.cfi_startproc
  85              		@ args = 0, pretend = 0, frame = 0
  86              		@ frame_needed = 0, uses_anonymous_args = 0
  87 0000 30B5     		push	{r4, r5, lr}
  88              		.cfi_def_cfa_offset 12
  89              		.cfi_offset 4, -12
  90              		.cfi_offset 5, -8
  91              		.cfi_offset 14, -4
  92 0002 85B0     		sub	sp, sp, #20
  93              		.cfi_def_cfa_offset 32
  55:..\src/user_ricnu_knee.c ****     static uint16 time = 0;
  56:..\src/user_ricnu_knee.c ****     static uint8 state = 0;
  57:..\src/user_ricnu_knee.c ****     static uint16 tmp_posi = 0;
  58:..\src/user_ricnu_knee.c **** 	static uint16 tmp_posf = 0;
  59:..\src/user_ricnu_knee.c **** 	static uint16 tmp_spdm = 0;
  60:..\src/user_ricnu_knee.c **** 	static uint16 tmp_acc = 0;
  61:..\src/user_ricnu_knee.c **** 	
  62:..\src/user_ricnu_knee.c ****     //Increment time
  63:..\src/user_ricnu_knee.c ****     time++;
  94              		.loc 1 63 0
  95 0004 2D4A     		ldr	r2, .L12
  96 0006 1388     		ldrh	r3, [r2]
  97 0008 0133     		adds	r3, r3, #1
  98 000a 9BB2     		uxth	r3, r3
  99 000c 1380     		strh	r3, [r2]	@ movhi
  64:..\src/user_ricnu_knee.c ****     
  65:..\src/user_ricnu_knee.c **** 	//Before going to a state we refresh values:
  66:..\src/user_ricnu_knee.c **** 	ricnu_knee_refresh_values();
  67:..\src/user_ricnu_knee.c **** 	
  68:..\src/user_ricnu_knee.c ****     if (time == 0)
 100              		.loc 1 68 0
 101 000e 5BB9     		cbnz	r3, .L6
  69:..\src/user_ricnu_knee.c ****     {
  70:..\src/user_ricnu_knee.c ****         state = 0;
ARM GAS  C:\Users\Alex\AppData\Local\Temp\ccfz3wNk.s 			page 4


 102              		.loc 1 70 0
 103 0010 0021     		movs	r1, #0
 104 0012 9170     		strb	r1, [r2, #2]
  71:..\src/user_ricnu_knee.c ****         tmp_posi = encoder.count;
 105              		.loc 1 71 0
 106 0014 2A49     		ldr	r1, .L12+4
 107 0016 0968     		ldr	r1, [r1]
 108 0018 9180     		strh	r1, [r2, #4]	@ movhi
  72:..\src/user_ricnu_knee.c ****         tmp_posf = 1000;
 109              		.loc 1 72 0
 110 001a 4FF47A71 		mov	r1, #1000
 111 001e D180     		strh	r1, [r2, #6]	@ movhi
  73:..\src/user_ricnu_knee.c ****         tmp_spdm = 10000;
 112              		.loc 1 73 0
 113 0020 42F21071 		movw	r1, #10000
 114 0024 1181     		strh	r1, [r2, #8]	@ movhi
  74:..\src/user_ricnu_knee.c ****         tmp_acc = 10000;
 115              		.loc 1 74 0
 116 0026 5181     		strh	r1, [r2, #10]	@ movhi
 117              	.L6:
  75:..\src/user_ricnu_knee.c ****     }
  76:..\src/user_ricnu_knee.c ****     
  77:..\src/user_ricnu_knee.c ****     if (time == 2000) 
 118              		.loc 1 77 0
 119 0028 B3F5FA6F 		cmp	r3, #2000
 120 002c 0CD1     		bne	.L7
  78:..\src/user_ricnu_knee.c ****     {
  79:..\src/user_ricnu_knee.c ****         state = 1;
 121              		.loc 1 79 0
 122 002e 234B     		ldr	r3, .L12
 123 0030 0122     		movs	r2, #1
 124 0032 9A70     		strb	r2, [r3, #2]
  80:..\src/user_ricnu_knee.c ****         tmp_posi = encoder.count;
 125              		.loc 1 80 0
 126 0034 224A     		ldr	r2, .L12+4
 127 0036 1268     		ldr	r2, [r2]
 128 0038 9A80     		strh	r2, [r3, #4]	@ movhi
  81:..\src/user_ricnu_knee.c ****         tmp_posf = -2000;
 129              		.loc 1 81 0
 130 003a 4FF63002 		movw	r2, #63536
 131 003e DA80     		strh	r2, [r3, #6]	@ movhi
  82:..\src/user_ricnu_knee.c ****         tmp_spdm = 20000;
 132              		.loc 1 82 0
 133 0040 44F62062 		movw	r2, #20000
 134 0044 1A81     		strh	r2, [r3, #8]	@ movhi
  83:..\src/user_ricnu_knee.c ****         tmp_acc = 20000;
 135              		.loc 1 83 0
 136 0046 5A81     		strh	r2, [r3, #10]	@ movhi
 137              	.L7:
  84:..\src/user_ricnu_knee.c ****     }    
  85:..\src/user_ricnu_knee.c ****     
  86:..\src/user_ricnu_knee.c **** 	switch(state)
 138              		.loc 1 86 0
 139 0048 1C4B     		ldr	r3, .L12
 140 004a 9B78     		ldrb	r3, [r3, #2]	@ zero_extendqisi2
 141 004c 13B1     		cbz	r3, .L9
 142 004e 012B     		cmp	r3, #1
ARM GAS  C:\Users\Alex\AppData\Local\Temp\ccfz3wNk.s 			page 5


 143 0050 18D0     		beq	.L10
 144 0052 31E0     		b	.L5
 145              	.L9:
  87:..\src/user_ricnu_knee.c **** 	{
  88:..\src/user_ricnu_knee.c **** 		case 0:
  89:..\src/user_ricnu_knee.c **** 			//Put some code here...
  90:..\src/user_ricnu_knee.c ****             //Example: motor_open_speed_1(85);			//0% PWM
  91:..\src/user_ricnu_knee.c ****             ctrl.position.posi = tmp_posi;
 146              		.loc 1 91 0
 147 0054 194C     		ldr	r4, .L12
 148 0056 A088     		ldrh	r0, [r4, #4]
 149 0058 1A4D     		ldr	r5, .L12+8
 150 005a 2866     		str	r0, [r5, #96]
  92:..\src/user_ricnu_knee.c **** 			ctrl.position.posf = tmp_posf;
 151              		.loc 1 92 0
 152 005c E288     		ldrh	r2, [r4, #6]
 153 005e 6A66     		str	r2, [r5, #100]
  93:..\src/user_ricnu_knee.c **** 			ctrl.position.spdm = tmp_spdm;
 154              		.loc 1 93 0
 155 0060 2189     		ldrh	r1, [r4, #8]
 156 0062 A966     		str	r1, [r5, #104]
  94:..\src/user_ricnu_knee.c **** 			ctrl.position.acc = tmp_acc;
 157              		.loc 1 94 0
 158 0064 6389     		ldrh	r3, [r4, #10]
 159 0066 EB66     		str	r3, [r5, #108]
  95:..\src/user_ricnu_knee.c ****             steps = trapez_gen_motion_1(tmp_posi, tmp_posf, tmp_spdm, tmp_acc);
 160              		.loc 1 95 0
 161 0068 0091     		str	r1, [sp]
 162 006a 0021     		movs	r1, #0
 163 006c 0191     		str	r1, [sp, #4]
 164 006e 0293     		str	r3, [sp, #8]
 165 0070 0391     		str	r1, [sp, #12]
 166 0072 0021     		movs	r1, #0
 167 0074 0023     		movs	r3, #0
 168 0076 FFF7FEFF 		bl	trapez_gen_motion_1
 169              	.LVL5:
 170 007a 134B     		ldr	r3, .L12+12
 171 007c 1860     		str	r0, [r3]
  96:..\src/user_ricnu_knee.c **** 			state = 2;
 172              		.loc 1 96 0
 173 007e 0223     		movs	r3, #2
 174 0080 A370     		strb	r3, [r4, #2]
  97:..\src/user_ricnu_knee.c ****             break;
 175              		.loc 1 97 0
 176 0082 19E0     		b	.L5
 177              	.L10:
  98:..\src/user_ricnu_knee.c **** 		case 1:
  99:..\src/user_ricnu_knee.c **** 			ctrl.position.posi = tmp_posi;
 178              		.loc 1 99 0
 179 0084 0D4C     		ldr	r4, .L12
 180 0086 A088     		ldrh	r0, [r4, #4]
 181 0088 0E4D     		ldr	r5, .L12+8
 182 008a 2866     		str	r0, [r5, #96]
 100:..\src/user_ricnu_knee.c **** 			ctrl.position.posf = tmp_posf;
 183              		.loc 1 100 0
 184 008c E288     		ldrh	r2, [r4, #6]
 185 008e 6A66     		str	r2, [r5, #100]
ARM GAS  C:\Users\Alex\AppData\Local\Temp\ccfz3wNk.s 			page 6


 101:..\src/user_ricnu_knee.c **** 			ctrl.position.spdm = tmp_spdm;
 186              		.loc 1 101 0
 187 0090 2189     		ldrh	r1, [r4, #8]
 188 0092 A966     		str	r1, [r5, #104]
 102:..\src/user_ricnu_knee.c **** 			ctrl.position.acc = tmp_acc;
 189              		.loc 1 102 0
 190 0094 6389     		ldrh	r3, [r4, #10]
 191 0096 EB66     		str	r3, [r5, #108]
 103:..\src/user_ricnu_knee.c ****             steps = trapez_gen_motion_1(tmp_posi, tmp_posf, tmp_spdm, tmp_acc);          
 192              		.loc 1 103 0
 193 0098 0091     		str	r1, [sp]
 194 009a 0021     		movs	r1, #0
 195 009c 0191     		str	r1, [sp, #4]
 196 009e 0293     		str	r3, [sp, #8]
 197 00a0 0391     		str	r1, [sp, #12]
 198 00a2 0021     		movs	r1, #0
 199 00a4 0023     		movs	r3, #0
 200 00a6 FFF7FEFF 		bl	trapez_gen_motion_1
 201              	.LVL6:
 202 00aa 074B     		ldr	r3, .L12+12
 203 00ac 1860     		str	r0, [r3]
 104:..\src/user_ricnu_knee.c ****             
 105:..\src/user_ricnu_knee.c ****             time = -1000;
 204              		.loc 1 105 0
 205 00ae 4FF61843 		movw	r3, #64536
 206 00b2 2380     		strh	r3, [r4]	@ movhi
 106:..\src/user_ricnu_knee.c ****             state = 2;
 207              		.loc 1 106 0
 208 00b4 0223     		movs	r3, #2
 209 00b6 A370     		strb	r3, [r4, #2]
 210              	.L5:
 107:..\src/user_ricnu_knee.c ****             break;
 108:..\src/user_ricnu_knee.c ****         case 2:
 109:..\src/user_ricnu_knee.c ****             break;
 110:..\src/user_ricnu_knee.c ****         default:
 111:..\src/user_ricnu_knee.c **** 			//Handle exceptions here
 112:..\src/user_ricnu_knee.c **** 			break;
 113:..\src/user_ricnu_knee.c **** 	}
 114:..\src/user_ricnu_knee.c **** }
 211              		.loc 1 114 0
 212 00b8 05B0     		add	sp, sp, #20
 213              		.cfi_def_cfa_offset 12
 214              		@ sp needed
 215 00ba 30BD     		pop	{r4, r5, pc}
 216              	.L13:
 217              		.align	2
 218              	.L12:
 219 00bc 00000000 		.word	.LANCHOR0
 220 00c0 00000000 		.word	encoder
 221 00c4 00000000 		.word	ctrl
 222 00c8 00000000 		.word	steps
 223              		.cfi_endproc
 224              	.LFE64:
 225              		.size	ricnu_knee_fsm, .-ricnu_knee_fsm
 226              		.bss
 227              		.align	1
 228              		.set	.LANCHOR0,. + 0
ARM GAS  C:\Users\Alex\AppData\Local\Temp\ccfz3wNk.s 			page 7


 229              		.type	time.10476, %object
 230              		.size	time.10476, 2
 231              	time.10476:
 232 0000 0000     		.space	2
 233              		.type	state.10477, %object
 234              		.size	state.10477, 1
 235              	state.10477:
 236 0002 00       		.space	1
 237 0003 00       		.space	1
 238              		.type	tmp_posi.10478, %object
 239              		.size	tmp_posi.10478, 2
 240              	tmp_posi.10478:
 241 0004 0000     		.space	2
 242              		.type	tmp_posf.10479, %object
 243              		.size	tmp_posf.10479, 2
 244              	tmp_posf.10479:
 245 0006 0000     		.space	2
 246              		.type	tmp_spdm.10480, %object
 247              		.size	tmp_spdm.10480, 2
 248              	tmp_spdm.10480:
 249 0008 0000     		.space	2
 250              		.type	tmp_acc.10481, %object
 251              		.size	tmp_acc.10481, 2
 252              	tmp_acc.10481:
 253 000a 0000     		.space	2
 254              		.text
 255              	.Letext0:
 256              		.file 2 "c:\\program files (x86)\\cypress\\psoc creator\\3.3\\psoc creator\\import\\gnu\\arm\\4.9.
 257              		.file 3 "c:\\program files (x86)\\cypress\\psoc creator\\3.3\\psoc creator\\import\\gnu\\arm\\4.9.
 258              		.file 4 "Generated_Source\\PSoC5/cytypes.h"
 259              		.file 5 "..\\inc/../../flexsea-system/inc/flexsea_cmd_control.h"
 260              		.file 6 "Generated_Source\\PSoC5/core_cm3.h"
 261              		.file 7 "..\\inc/main_fsm.h"
 262              		.file 8 "..\\inc/control.h"
 263              		.file 9 "..\\inc/ext_input.h"
 264              		.file 10 "..\\inc/motor.h"
 265              		.file 11 "Generated_Source\\PSoC5/Coast_Brake.h"
 266              		.file 12 "Generated_Source\\PSoC5/LED_R.h"
 267              		.file 13 "Generated_Source\\PSoC5/LED_G.h"
 268              		.file 14 "Generated_Source\\PSoC5/LED_B.h"
 269              		.file 15 "..\\inc/trapez.h"